   1              	 .syntax unified
   2              	 .cpu cortex-m4
   3              	 .eabi_attribute 27,3
   4              	 .fpu fpv4-sp-d16
   5              	 .eabi_attribute 20,1
   6              	 .eabi_attribute 21,1
   7              	 .eabi_attribute 23,3
   8              	 .eabi_attribute 24,1
   9              	 .eabi_attribute 25,1
  10              	 .eabi_attribute 26,1
  11              	 .eabi_attribute 30,6
  12              	 .eabi_attribute 34,1
  13              	 .eabi_attribute 18,4
  14              	 .thumb
  15              	 .file "xmc_can.c"
  16              	 .text
  17              	.Ltext0:
  18              	 .cfi_sections .debug_frame
  19              	 .section .text.XMC_CAN_IsPanelControlReady,"ax",%progbits
  20              	 .align 2
  21              	 .thumb
  22              	 .thumb_func
  24              	XMC_CAN_IsPanelControlReady:
  25              	.LFB162:
  26              	 .file 1 "C:/Users/VMORAIS/Documents/DAVE_WS/1p_inverter_200V/Libraries/XMCLib/inc/xmc_can.h"
   1:C:/Users/VMORAIS/Documents/DAVE_WS/1p_inverter_200V/Libraries/XMCLib/inc\xmc_can.h **** /**
   2:C:/Users/VMORAIS/Documents/DAVE_WS/1p_inverter_200V/Libraries/XMCLib/inc\xmc_can.h ****  * @file xmc_can.h
   3:C:/Users/VMORAIS/Documents/DAVE_WS/1p_inverter_200V/Libraries/XMCLib/inc\xmc_can.h ****  * @date 2016-06-07
   4:C:/Users/VMORAIS/Documents/DAVE_WS/1p_inverter_200V/Libraries/XMCLib/inc\xmc_can.h ****  *
   5:C:/Users/VMORAIS/Documents/DAVE_WS/1p_inverter_200V/Libraries/XMCLib/inc\xmc_can.h ****  * @cond
   6:C:/Users/VMORAIS/Documents/DAVE_WS/1p_inverter_200V/Libraries/XMCLib/inc\xmc_can.h ****  **************************************************************************************************
   7:C:/Users/VMORAIS/Documents/DAVE_WS/1p_inverter_200V/Libraries/XMCLib/inc\xmc_can.h ****  * XMClib v2.1.12 - XMC Peripheral Driver Library 
   8:C:/Users/VMORAIS/Documents/DAVE_WS/1p_inverter_200V/Libraries/XMCLib/inc\xmc_can.h ****  *
   9:C:/Users/VMORAIS/Documents/DAVE_WS/1p_inverter_200V/Libraries/XMCLib/inc\xmc_can.h ****  * Copyright (c) 2015-2017, Infineon Technologies AG
  10:C:/Users/VMORAIS/Documents/DAVE_WS/1p_inverter_200V/Libraries/XMCLib/inc\xmc_can.h ****  * All rights reserved.                        
  11:C:/Users/VMORAIS/Documents/DAVE_WS/1p_inverter_200V/Libraries/XMCLib/inc\xmc_can.h ****  *                                             
  12:C:/Users/VMORAIS/Documents/DAVE_WS/1p_inverter_200V/Libraries/XMCLib/inc\xmc_can.h ****  * Redistribution and use in source and binary forms, with or without modification,are permitted pr
  13:C:/Users/VMORAIS/Documents/DAVE_WS/1p_inverter_200V/Libraries/XMCLib/inc\xmc_can.h ****  * following conditions are met:   
  14:C:/Users/VMORAIS/Documents/DAVE_WS/1p_inverter_200V/Libraries/XMCLib/inc\xmc_can.h ****  *                                                                              
  15:C:/Users/VMORAIS/Documents/DAVE_WS/1p_inverter_200V/Libraries/XMCLib/inc\xmc_can.h ****  * Redistributions of source code must retain the above copyright notice, this list of conditions a
  16:C:/Users/VMORAIS/Documents/DAVE_WS/1p_inverter_200V/Libraries/XMCLib/inc\xmc_can.h ****  * disclaimer.                        
  17:C:/Users/VMORAIS/Documents/DAVE_WS/1p_inverter_200V/Libraries/XMCLib/inc\xmc_can.h ****  * 
  18:C:/Users/VMORAIS/Documents/DAVE_WS/1p_inverter_200V/Libraries/XMCLib/inc\xmc_can.h ****  * Redistributions in binary form must reproduce the above copyright notice, this list of condition
  19:C:/Users/VMORAIS/Documents/DAVE_WS/1p_inverter_200V/Libraries/XMCLib/inc\xmc_can.h ****  * disclaimer in the documentation and/or other materials provided with the distribution.          
  20:C:/Users/VMORAIS/Documents/DAVE_WS/1p_inverter_200V/Libraries/XMCLib/inc\xmc_can.h ****  * 
  21:C:/Users/VMORAIS/Documents/DAVE_WS/1p_inverter_200V/Libraries/XMCLib/inc\xmc_can.h ****  * Neither the name of the copyright holders nor the names of its contributors may be used to endor
  22:C:/Users/VMORAIS/Documents/DAVE_WS/1p_inverter_200V/Libraries/XMCLib/inc\xmc_can.h ****  * products derived from this software without specific prior written permission.                  
  23:C:/Users/VMORAIS/Documents/DAVE_WS/1p_inverter_200V/Libraries/XMCLib/inc\xmc_can.h ****  *                                                                              
  24:C:/Users/VMORAIS/Documents/DAVE_WS/1p_inverter_200V/Libraries/XMCLib/inc\xmc_can.h ****  * THIS SOFTWARE IS PROVIDED BY THE COPYRIGHT HOLDERS AND CONTRIBUTORS "AS IS" AND ANY EXPRESS OR I
  25:C:/Users/VMORAIS/Documents/DAVE_WS/1p_inverter_200V/Libraries/XMCLib/inc\xmc_can.h ****  * INCLUDING, BUT NOT LIMITED TO, THE IMPLIED WARRANTIES OF MERCHANTABILITY AND FITNESS FOR A PARTI
  26:C:/Users/VMORAIS/Documents/DAVE_WS/1p_inverter_200V/Libraries/XMCLib/inc\xmc_can.h ****  * DISCLAIMED. IN NO EVENT SHALL THE COPYRIGHT HOLDER OR CONTRIBUTORS BE LIABLE  FOR ANY DIRECT, IN
  27:C:/Users/VMORAIS/Documents/DAVE_WS/1p_inverter_200V/Libraries/XMCLib/inc\xmc_can.h ****  * SPECIAL, EXEMPLARY, OR CONSEQUENTIAL DAMAGES (INCLUDING, BUT NOT LIMITED TO, PROCUREMENT OF SUBS
  28:C:/Users/VMORAIS/Documents/DAVE_WS/1p_inverter_200V/Libraries/XMCLib/inc\xmc_can.h ****  * SERVICES; LOSS OF USE, DATA, OR PROFITS; OR BUSINESS INTERRUPTION) HOWEVER CAUSED AND ON ANY THE
  29:C:/Users/VMORAIS/Documents/DAVE_WS/1p_inverter_200V/Libraries/XMCLib/inc\xmc_can.h ****  * WHETHER IN CONTRACT, STRICT LIABILITY,OR TORT (INCLUDING NEGLIGENCE OR OTHERWISE) ARISING IN ANY
  30:C:/Users/VMORAIS/Documents/DAVE_WS/1p_inverter_200V/Libraries/XMCLib/inc\xmc_can.h ****  * OF THIS SOFTWARE, EVEN IF ADVISED OF THE POSSIBILITY OF SUCH DAMAGE.                            
  31:C:/Users/VMORAIS/Documents/DAVE_WS/1p_inverter_200V/Libraries/XMCLib/inc\xmc_can.h ****  *                                                                              
  32:C:/Users/VMORAIS/Documents/DAVE_WS/1p_inverter_200V/Libraries/XMCLib/inc\xmc_can.h ****  * To improve the quality of the software, users are encouraged to share modifications, enhancement
  33:C:/Users/VMORAIS/Documents/DAVE_WS/1p_inverter_200V/Libraries/XMCLib/inc\xmc_can.h ****  * Infineon Technologies AG dave@infineon.com).                                                    
  34:C:/Users/VMORAIS/Documents/DAVE_WS/1p_inverter_200V/Libraries/XMCLib/inc\xmc_can.h ****  **************************************************************************************************
  35:C:/Users/VMORAIS/Documents/DAVE_WS/1p_inverter_200V/Libraries/XMCLib/inc\xmc_can.h ****  *
  36:C:/Users/VMORAIS/Documents/DAVE_WS/1p_inverter_200V/Libraries/XMCLib/inc\xmc_can.h ****  * Change History
  37:C:/Users/VMORAIS/Documents/DAVE_WS/1p_inverter_200V/Libraries/XMCLib/inc\xmc_can.h ****  * --------------
  38:C:/Users/VMORAIS/Documents/DAVE_WS/1p_inverter_200V/Libraries/XMCLib/inc\xmc_can.h ****  *
  39:C:/Users/VMORAIS/Documents/DAVE_WS/1p_inverter_200V/Libraries/XMCLib/inc\xmc_can.h ****  * 2015-02-20:
  40:C:/Users/VMORAIS/Documents/DAVE_WS/1p_inverter_200V/Libraries/XMCLib/inc\xmc_can.h ****  *     - Initial <br>
  41:C:/Users/VMORAIS/Documents/DAVE_WS/1p_inverter_200V/Libraries/XMCLib/inc\xmc_can.h ****  *     - Documentation improved <br>
  42:C:/Users/VMORAIS/Documents/DAVE_WS/1p_inverter_200V/Libraries/XMCLib/inc\xmc_can.h ****  *
  43:C:/Users/VMORAIS/Documents/DAVE_WS/1p_inverter_200V/Libraries/XMCLib/inc\xmc_can.h ****  * 2015-05-20:
  44:C:/Users/VMORAIS/Documents/DAVE_WS/1p_inverter_200V/Libraries/XMCLib/inc\xmc_can.h ****  *     - New elements have added in XMC_CAN_MO_t data structure <br>
  45:C:/Users/VMORAIS/Documents/DAVE_WS/1p_inverter_200V/Libraries/XMCLib/inc\xmc_can.h ****  *     - XMC_CAN_MO_Config() signature has changed <br>
  46:C:/Users/VMORAIS/Documents/DAVE_WS/1p_inverter_200V/Libraries/XMCLib/inc\xmc_can.h ****  *     - XMC_CAN_STATUS_t enum structure has updated. <br>
  47:C:/Users/VMORAIS/Documents/DAVE_WS/1p_inverter_200V/Libraries/XMCLib/inc\xmc_can.h ****  *
  48:C:/Users/VMORAIS/Documents/DAVE_WS/1p_inverter_200V/Libraries/XMCLib/inc\xmc_can.h ****  * 2015-06-20:
  49:C:/Users/VMORAIS/Documents/DAVE_WS/1p_inverter_200V/Libraries/XMCLib/inc\xmc_can.h ****  *     - New APIs added: XMC_CAN_NODE_ClearStatus(),XMC_CAN_MO_ReceiveData(), XMC_CAN_GATEWAY_InitD
  50:C:/Users/VMORAIS/Documents/DAVE_WS/1p_inverter_200V/Libraries/XMCLib/inc\xmc_can.h ****  *     - Removed version macros and declaration of GetDriverVersion API
  51:C:/Users/VMORAIS/Documents/DAVE_WS/1p_inverter_200V/Libraries/XMCLib/inc\xmc_can.h ****  *      
  52:C:/Users/VMORAIS/Documents/DAVE_WS/1p_inverter_200V/Libraries/XMCLib/inc\xmc_can.h ****  * 2015-07-09:
  53:C:/Users/VMORAIS/Documents/DAVE_WS/1p_inverter_200V/Libraries/XMCLib/inc\xmc_can.h ****  *     - New API added: XMC_CAN_NODE_Enable. <br>
  54:C:/Users/VMORAIS/Documents/DAVE_WS/1p_inverter_200V/Libraries/XMCLib/inc\xmc_can.h ****  *
  55:C:/Users/VMORAIS/Documents/DAVE_WS/1p_inverter_200V/Libraries/XMCLib/inc\xmc_can.h ****  * 2015-09-01:
  56:C:/Users/VMORAIS/Documents/DAVE_WS/1p_inverter_200V/Libraries/XMCLib/inc\xmc_can.h ****  *     - Removed fCANB clock support <br>
  57:C:/Users/VMORAIS/Documents/DAVE_WS/1p_inverter_200V/Libraries/XMCLib/inc\xmc_can.h ****  *
  58:C:/Users/VMORAIS/Documents/DAVE_WS/1p_inverter_200V/Libraries/XMCLib/inc\xmc_can.h ****  * 2015-09-15:
  59:C:/Users/VMORAIS/Documents/DAVE_WS/1p_inverter_200V/Libraries/XMCLib/inc\xmc_can.h ****  *     - Added "xmc_can_map.h" include <br>
  60:C:/Users/VMORAIS/Documents/DAVE_WS/1p_inverter_200V/Libraries/XMCLib/inc\xmc_can.h ****  *
  61:C:/Users/VMORAIS/Documents/DAVE_WS/1p_inverter_200V/Libraries/XMCLib/inc\xmc_can.h ****  * 2016-06-07:
  62:C:/Users/VMORAIS/Documents/DAVE_WS/1p_inverter_200V/Libraries/XMCLib/inc\xmc_can.h ****  *     - Added XMC_CAN_IsPanelControlReady()
  63:C:/Users/VMORAIS/Documents/DAVE_WS/1p_inverter_200V/Libraries/XMCLib/inc\xmc_can.h ****  *
  64:C:/Users/VMORAIS/Documents/DAVE_WS/1p_inverter_200V/Libraries/XMCLib/inc\xmc_can.h ****  * <b>Details of use for node configuration related APIs</b><br>
  65:C:/Users/VMORAIS/Documents/DAVE_WS/1p_inverter_200V/Libraries/XMCLib/inc\xmc_can.h ****  * Please use the XMC_CAN_NODE_SetInitBit() and XMC_CAN_NODE_EnableConfigurationChange() before cal
  66:C:/Users/VMORAIS/Documents/DAVE_WS/1p_inverter_200V/Libraries/XMCLib/inc\xmc_can.h ****  * related APIs.
  67:C:/Users/VMORAIS/Documents/DAVE_WS/1p_inverter_200V/Libraries/XMCLib/inc\xmc_can.h ****  * XMC_CAN_NODE_DisableConfigurationChange() and  XMC_CAN_NODE_ResetInitBit() can be called for dis
  68:C:/Users/VMORAIS/Documents/DAVE_WS/1p_inverter_200V/Libraries/XMCLib/inc\xmc_can.h ****  * change and enable the node for communication afterwards.
  69:C:/Users/VMORAIS/Documents/DAVE_WS/1p_inverter_200V/Libraries/XMCLib/inc\xmc_can.h ****  * Do not use this when configuring the nominal bit time with XMC_CAN_NODE_NominalBitTimeConfigure(
  70:C:/Users/VMORAIS/Documents/DAVE_WS/1p_inverter_200V/Libraries/XMCLib/inc\xmc_can.h ****  * Enable/Disable node configuration change is taken in account.
  71:C:/Users/VMORAIS/Documents/DAVE_WS/1p_inverter_200V/Libraries/XMCLib/inc\xmc_can.h ****  *
  72:C:/Users/VMORAIS/Documents/DAVE_WS/1p_inverter_200V/Libraries/XMCLib/inc\xmc_can.h ****  * <b>Example Usage:</b>
  73:C:/Users/VMORAIS/Documents/DAVE_WS/1p_inverter_200V/Libraries/XMCLib/inc\xmc_can.h ****  * @code
  74:C:/Users/VMORAIS/Documents/DAVE_WS/1p_inverter_200V/Libraries/XMCLib/inc\xmc_can.h ****  * //disabling the Node
  75:C:/Users/VMORAIS/Documents/DAVE_WS/1p_inverter_200V/Libraries/XMCLib/inc\xmc_can.h ****  * XMC_CAN_NODE_SetInitBit(CAN_NODE0)
  76:C:/Users/VMORAIS/Documents/DAVE_WS/1p_inverter_200V/Libraries/XMCLib/inc\xmc_can.h ****  * //allowing the configuration change
  77:C:/Users/VMORAIS/Documents/DAVE_WS/1p_inverter_200V/Libraries/XMCLib/inc\xmc_can.h ****  * XMC_CAN_NODE_EnableConfigurationChange(CAN_NODE0)
  78:C:/Users/VMORAIS/Documents/DAVE_WS/1p_inverter_200V/Libraries/XMCLib/inc\xmc_can.h ****  * //Node configuration
  79:C:/Users/VMORAIS/Documents/DAVE_WS/1p_inverter_200V/Libraries/XMCLib/inc\xmc_can.h ****  * XMC_CAN_NODE_FrameCounterConfigure(CAN_NODE0,&can_node_frame_counter);
  80:C:/Users/VMORAIS/Documents/DAVE_WS/1p_inverter_200V/Libraries/XMCLib/inc\xmc_can.h ****  * XMC_CAN_NODE_EnableLoopBack(CAN_NODE0)
  81:C:/Users/VMORAIS/Documents/DAVE_WS/1p_inverter_200V/Libraries/XMCLib/inc\xmc_can.h ****  * //disable configuration
  82:C:/Users/VMORAIS/Documents/DAVE_WS/1p_inverter_200V/Libraries/XMCLib/inc\xmc_can.h ****  * XMC_CAN_NODE_DisableConfigurationChange(CAN_NODE0)
  83:C:/Users/VMORAIS/Documents/DAVE_WS/1p_inverter_200V/Libraries/XMCLib/inc\xmc_can.h ****  * //Enabling node for communication
  84:C:/Users/VMORAIS/Documents/DAVE_WS/1p_inverter_200V/Libraries/XMCLib/inc\xmc_can.h ****  * XMC_CAN_NODE_ResetInitBit(CAN_NODE0)
  85:C:/Users/VMORAIS/Documents/DAVE_WS/1p_inverter_200V/Libraries/XMCLib/inc\xmc_can.h ****  * @endcode
  86:C:/Users/VMORAIS/Documents/DAVE_WS/1p_inverter_200V/Libraries/XMCLib/inc\xmc_can.h ****  *
  87:C:/Users/VMORAIS/Documents/DAVE_WS/1p_inverter_200V/Libraries/XMCLib/inc\xmc_can.h ****  * 2016-06-20:
  88:C:/Users/VMORAIS/Documents/DAVE_WS/1p_inverter_200V/Libraries/XMCLib/inc\xmc_can.h ****  *     - Fixed bug in XMC_CAN_MO_Config() <br>  
  89:C:/Users/VMORAIS/Documents/DAVE_WS/1p_inverter_200V/Libraries/XMCLib/inc\xmc_can.h ****  * @endcond
  90:C:/Users/VMORAIS/Documents/DAVE_WS/1p_inverter_200V/Libraries/XMCLib/inc\xmc_can.h ****  *
  91:C:/Users/VMORAIS/Documents/DAVE_WS/1p_inverter_200V/Libraries/XMCLib/inc\xmc_can.h ****  */
  92:C:/Users/VMORAIS/Documents/DAVE_WS/1p_inverter_200V/Libraries/XMCLib/inc\xmc_can.h **** 
  93:C:/Users/VMORAIS/Documents/DAVE_WS/1p_inverter_200V/Libraries/XMCLib/inc\xmc_can.h **** #ifndef XMC_CAN_H
  94:C:/Users/VMORAIS/Documents/DAVE_WS/1p_inverter_200V/Libraries/XMCLib/inc\xmc_can.h **** #define XMC_CAN_H
  95:C:/Users/VMORAIS/Documents/DAVE_WS/1p_inverter_200V/Libraries/XMCLib/inc\xmc_can.h **** 
  96:C:/Users/VMORAIS/Documents/DAVE_WS/1p_inverter_200V/Libraries/XMCLib/inc\xmc_can.h **** /**************************************************************************************************
  97:C:/Users/VMORAIS/Documents/DAVE_WS/1p_inverter_200V/Libraries/XMCLib/inc\xmc_can.h ****  * HEADER FILES
  98:C:/Users/VMORAIS/Documents/DAVE_WS/1p_inverter_200V/Libraries/XMCLib/inc\xmc_can.h ****  **************************************************************************************************
  99:C:/Users/VMORAIS/Documents/DAVE_WS/1p_inverter_200V/Libraries/XMCLib/inc\xmc_can.h **** #include "xmc_common.h"
 100:C:/Users/VMORAIS/Documents/DAVE_WS/1p_inverter_200V/Libraries/XMCLib/inc\xmc_can.h **** 
 101:C:/Users/VMORAIS/Documents/DAVE_WS/1p_inverter_200V/Libraries/XMCLib/inc\xmc_can.h **** #if defined(CAN)
 102:C:/Users/VMORAIS/Documents/DAVE_WS/1p_inverter_200V/Libraries/XMCLib/inc\xmc_can.h **** 
 103:C:/Users/VMORAIS/Documents/DAVE_WS/1p_inverter_200V/Libraries/XMCLib/inc\xmc_can.h **** #include "xmc_scu.h"
 104:C:/Users/VMORAIS/Documents/DAVE_WS/1p_inverter_200V/Libraries/XMCLib/inc\xmc_can.h **** #include "xmc_can_map.h"
 105:C:/Users/VMORAIS/Documents/DAVE_WS/1p_inverter_200V/Libraries/XMCLib/inc\xmc_can.h **** #include <string.h>
 106:C:/Users/VMORAIS/Documents/DAVE_WS/1p_inverter_200V/Libraries/XMCLib/inc\xmc_can.h **** 
 107:C:/Users/VMORAIS/Documents/DAVE_WS/1p_inverter_200V/Libraries/XMCLib/inc\xmc_can.h **** /**
 108:C:/Users/VMORAIS/Documents/DAVE_WS/1p_inverter_200V/Libraries/XMCLib/inc\xmc_can.h ****  * @addtogroup XMClib XMC Peripheral Library
 109:C:/Users/VMORAIS/Documents/DAVE_WS/1p_inverter_200V/Libraries/XMCLib/inc\xmc_can.h ****  * @{
 110:C:/Users/VMORAIS/Documents/DAVE_WS/1p_inverter_200V/Libraries/XMCLib/inc\xmc_can.h ****  */
 111:C:/Users/VMORAIS/Documents/DAVE_WS/1p_inverter_200V/Libraries/XMCLib/inc\xmc_can.h **** 
 112:C:/Users/VMORAIS/Documents/DAVE_WS/1p_inverter_200V/Libraries/XMCLib/inc\xmc_can.h **** /**
 113:C:/Users/VMORAIS/Documents/DAVE_WS/1p_inverter_200V/Libraries/XMCLib/inc\xmc_can.h ****  * @addtogroup CAN
 114:C:/Users/VMORAIS/Documents/DAVE_WS/1p_inverter_200V/Libraries/XMCLib/inc\xmc_can.h ****  * @brief Controller Area Network Controller (CAN) driver for the XMC microcontroller family.
 115:C:/Users/VMORAIS/Documents/DAVE_WS/1p_inverter_200V/Libraries/XMCLib/inc\xmc_can.h ****  *
 116:C:/Users/VMORAIS/Documents/DAVE_WS/1p_inverter_200V/Libraries/XMCLib/inc\xmc_can.h ****  * CAN driver provides transfer of CAN frames in accordance with CAN specificetion V2.0 B (active).
 117:C:/Users/VMORAIS/Documents/DAVE_WS/1p_inverter_200V/Libraries/XMCLib/inc\xmc_can.h ****  * can receive and transmit standard frames with 11-bit identifiers as well as extended frames with
 118:C:/Users/VMORAIS/Documents/DAVE_WS/1p_inverter_200V/Libraries/XMCLib/inc\xmc_can.h ****  * All CAN nodes share a common set of message objects. Each message object can be individually all
 119:C:/Users/VMORAIS/Documents/DAVE_WS/1p_inverter_200V/Libraries/XMCLib/inc\xmc_can.h ****  * CAN nodes. 
 120:C:/Users/VMORAIS/Documents/DAVE_WS/1p_inverter_200V/Libraries/XMCLib/inc\xmc_can.h ****  * Besides serving as a storage container for incoming and outgoing frames, message objects can be 
 121:C:/Users/VMORAIS/Documents/DAVE_WS/1p_inverter_200V/Libraries/XMCLib/inc\xmc_can.h ****  * gateways between 
 122:C:/Users/VMORAIS/Documents/DAVE_WS/1p_inverter_200V/Libraries/XMCLib/inc\xmc_can.h ****  * the CAN nodes or to setup a FIFO buffer. The CAN module provides Analyzer mode,Loop-back mode an
 123:C:/Users/VMORAIS/Documents/DAVE_WS/1p_inverter_200V/Libraries/XMCLib/inc\xmc_can.h ****  * node analysis.
 124:C:/Users/VMORAIS/Documents/DAVE_WS/1p_inverter_200V/Libraries/XMCLib/inc\xmc_can.h ****  * 
 125:C:/Users/VMORAIS/Documents/DAVE_WS/1p_inverter_200V/Libraries/XMCLib/inc\xmc_can.h ****  * The driver is divided into five sections:
 126:C:/Users/VMORAIS/Documents/DAVE_WS/1p_inverter_200V/Libraries/XMCLib/inc\xmc_can.h ****  * \par CAN Global features:
 127:C:/Users/VMORAIS/Documents/DAVE_WS/1p_inverter_200V/Libraries/XMCLib/inc\xmc_can.h ****  * -# Allows to configure module frequency using function XMC_CAN_Init().
 128:C:/Users/VMORAIS/Documents/DAVE_WS/1p_inverter_200V/Libraries/XMCLib/inc\xmc_can.h ****  * -# Allows to configure Module interrupt using configuration structure XMC_CAN_NODE_INTERRUPT_TRI
 129:C:/Users/VMORAIS/Documents/DAVE_WS/1p_inverter_200V/Libraries/XMCLib/inc\xmc_can.h ****  *    XMC_CAN_EventTrigger().
 130:C:/Users/VMORAIS/Documents/DAVE_WS/1p_inverter_200V/Libraries/XMCLib/inc\xmc_can.h ****  * 
 131:C:/Users/VMORAIS/Documents/DAVE_WS/1p_inverter_200V/Libraries/XMCLib/inc\xmc_can.h ****  * \par CAN_NODE features:
 132:C:/Users/VMORAIS/Documents/DAVE_WS/1p_inverter_200V/Libraries/XMCLib/inc\xmc_can.h ****  * -# Allows to set baud rate by configuration structure XMC_CAN_NODE_NOMINAL_BIT_TIME_CONFIG_t and
 133:C:/Users/VMORAIS/Documents/DAVE_WS/1p_inverter_200V/Libraries/XMCLib/inc\xmc_can.h ****  *    function XMC_CAN_NODE_NominalBitTimeConfigure().
 134:C:/Users/VMORAIS/Documents/DAVE_WS/1p_inverter_200V/Libraries/XMCLib/inc\xmc_can.h ****  * -# Allows to configure loop-back mode using fuction XMC_CAN_NODE_EnableLoopBack().
 135:C:/Users/VMORAIS/Documents/DAVE_WS/1p_inverter_200V/Libraries/XMCLib/inc\xmc_can.h ****  * -# Allows to configure CAN Node analyzer using function XMC_CAN_NODE_SetAnalyzerMode().
 136:C:/Users/VMORAIS/Documents/DAVE_WS/1p_inverter_200V/Libraries/XMCLib/inc\xmc_can.h ****  * -# Allows CAN node events enable/ disable by enum structure XMC_CAN_NODE_EVENT_t and functions X
 137:C:/Users/VMORAIS/Documents/DAVE_WS/1p_inverter_200V/Libraries/XMCLib/inc\xmc_can.h ****  *    and XMC_CAN_NODE_DisableEvent().
 138:C:/Users/VMORAIS/Documents/DAVE_WS/1p_inverter_200V/Libraries/XMCLib/inc\xmc_can.h ****  * -# Provides bit timming analysis, configuration structure XMC_CAN_NODE_FRAME_COUNTER_t and funct
 139:C:/Users/VMORAIS/Documents/DAVE_WS/1p_inverter_200V/Libraries/XMCLib/inc\xmc_can.h ****  *    XMC_CAN_NODE_FrameCounterConfigure(). 
 140:C:/Users/VMORAIS/Documents/DAVE_WS/1p_inverter_200V/Libraries/XMCLib/inc\xmc_can.h ****  *
 141:C:/Users/VMORAIS/Documents/DAVE_WS/1p_inverter_200V/Libraries/XMCLib/inc\xmc_can.h ****  * \par CAN_MO features:
 142:C:/Users/VMORAIS/Documents/DAVE_WS/1p_inverter_200V/Libraries/XMCLib/inc\xmc_can.h ****  * -# Allows message object initialization by configuration structure XMC_CAN_MO_t and function XMC
 143:C:/Users/VMORAIS/Documents/DAVE_WS/1p_inverter_200V/Libraries/XMCLib/inc\xmc_can.h ****  * -# Allows transfer of message objects using functions XMC_CAN_MO_Transmit() and XMC_CAN_MO_Recei
 144:C:/Users/VMORAIS/Documents/DAVE_WS/1p_inverter_200V/Libraries/XMCLib/inc\xmc_can.h ****  * -# Allows to configure Single Data Transfer and Single Transmit Trial using functions 
 145:C:/Users/VMORAIS/Documents/DAVE_WS/1p_inverter_200V/Libraries/XMCLib/inc\xmc_can.h ****  * XMC_CAN_MO_EnableSingleTransmitTrial() and XMC_CAN_MO_EnableSingleTransmitTrial().
 146:C:/Users/VMORAIS/Documents/DAVE_WS/1p_inverter_200V/Libraries/XMCLib/inc\xmc_can.h ****  * -# Allows to configure MO events using function XMC_CAN_MO_EnableEvent(). 
 147:C:/Users/VMORAIS/Documents/DAVE_WS/1p_inverter_200V/Libraries/XMCLib/inc\xmc_can.h ****  *
 148:C:/Users/VMORAIS/Documents/DAVE_WS/1p_inverter_200V/Libraries/XMCLib/inc\xmc_can.h ****  * \par CAN_FIFO features:
 149:C:/Users/VMORAIS/Documents/DAVE_WS/1p_inverter_200V/Libraries/XMCLib/inc\xmc_can.h ****  * -# Allows message object FIFO structure by configuration structure XMC_CAN_FIFO_CONFIG_t and fun
 150:C:/Users/VMORAIS/Documents/DAVE_WS/1p_inverter_200V/Libraries/XMCLib/inc\xmc_can.h ****  * XMC_CAN_TXFIFO_ConfigMOBaseObject() , XMC_CAN_RXFIFO_ConfigMOBaseObject() and XMC_CAN_TXFIFO_Tra
 151:C:/Users/VMORAIS/Documents/DAVE_WS/1p_inverter_200V/Libraries/XMCLib/inc\xmc_can.h ****  *
 152:C:/Users/VMORAIS/Documents/DAVE_WS/1p_inverter_200V/Libraries/XMCLib/inc\xmc_can.h ****  * \par CAN_GATEWAY features:
 153:C:/Users/VMORAIS/Documents/DAVE_WS/1p_inverter_200V/Libraries/XMCLib/inc\xmc_can.h ****  * -# Provides Gateway mode, configuration structure XMC_CAN_GATEWAY_CONFIG_t and function XMC_CAN_
 154:C:/Users/VMORAIS/Documents/DAVE_WS/1p_inverter_200V/Libraries/XMCLib/inc\xmc_can.h ****  *
 155:C:/Users/VMORAIS/Documents/DAVE_WS/1p_inverter_200V/Libraries/XMCLib/inc\xmc_can.h ****  * @{
 156:C:/Users/VMORAIS/Documents/DAVE_WS/1p_inverter_200V/Libraries/XMCLib/inc\xmc_can.h ****  */
 157:C:/Users/VMORAIS/Documents/DAVE_WS/1p_inverter_200V/Libraries/XMCLib/inc\xmc_can.h **** 
 158:C:/Users/VMORAIS/Documents/DAVE_WS/1p_inverter_200V/Libraries/XMCLib/inc\xmc_can.h **** /**************************************************************************************************
 159:C:/Users/VMORAIS/Documents/DAVE_WS/1p_inverter_200V/Libraries/XMCLib/inc\xmc_can.h ****  * MACROS
 160:C:/Users/VMORAIS/Documents/DAVE_WS/1p_inverter_200V/Libraries/XMCLib/inc\xmc_can.h ****  **************************************************************************************************
 161:C:/Users/VMORAIS/Documents/DAVE_WS/1p_inverter_200V/Libraries/XMCLib/inc\xmc_can.h **** #define XMC_CAN_MO_MOAR_STDID_Pos (18U)		/**< Standard Identifier bitposition */
 162:C:/Users/VMORAIS/Documents/DAVE_WS/1p_inverter_200V/Libraries/XMCLib/inc\xmc_can.h **** 
 163:C:/Users/VMORAIS/Documents/DAVE_WS/1p_inverter_200V/Libraries/XMCLib/inc\xmc_can.h **** #define XMC_CAN_MO_MOAR_STDID_Msk ((0x000007FFUL) << XMC_CAN_MO_MOAR_STDID_Pos) /**< Standard Ident
 164:C:/Users/VMORAIS/Documents/DAVE_WS/1p_inverter_200V/Libraries/XMCLib/inc\xmc_can.h **** 
 165:C:/Users/VMORAIS/Documents/DAVE_WS/1p_inverter_200V/Libraries/XMCLib/inc\xmc_can.h **** #define CAN_NODE_NIPR_Msk         (0x7UL)	/**< Node event mask */
 166:C:/Users/VMORAIS/Documents/DAVE_WS/1p_inverter_200V/Libraries/XMCLib/inc\xmc_can.h **** 
 167:C:/Users/VMORAIS/Documents/DAVE_WS/1p_inverter_200V/Libraries/XMCLib/inc\xmc_can.h **** #define CAN_MO_MOIPR_Msk          (0x7U)	/**< Message Object event mask */
 168:C:/Users/VMORAIS/Documents/DAVE_WS/1p_inverter_200V/Libraries/XMCLib/inc\xmc_can.h **** 
 169:C:/Users/VMORAIS/Documents/DAVE_WS/1p_inverter_200V/Libraries/XMCLib/inc\xmc_can.h **** /**************************************************************************************************
 170:C:/Users/VMORAIS/Documents/DAVE_WS/1p_inverter_200V/Libraries/XMCLib/inc\xmc_can.h ****  * ENUMS
 171:C:/Users/VMORAIS/Documents/DAVE_WS/1p_inverter_200V/Libraries/XMCLib/inc\xmc_can.h ****  **************************************************************************************************
 172:C:/Users/VMORAIS/Documents/DAVE_WS/1p_inverter_200V/Libraries/XMCLib/inc\xmc_can.h **** /**
 173:C:/Users/VMORAIS/Documents/DAVE_WS/1p_inverter_200V/Libraries/XMCLib/inc\xmc_can.h ****  *  Defines the status of CAN, to verify the CAN related API calls. Use type \a XMC_CAN_STATUS_t fo
 174:C:/Users/VMORAIS/Documents/DAVE_WS/1p_inverter_200V/Libraries/XMCLib/inc\xmc_can.h **** */
 175:C:/Users/VMORAIS/Documents/DAVE_WS/1p_inverter_200V/Libraries/XMCLib/inc\xmc_can.h **** typedef enum XMC_CAN_STATUS
 176:C:/Users/VMORAIS/Documents/DAVE_WS/1p_inverter_200V/Libraries/XMCLib/inc\xmc_can.h **** {
 177:C:/Users/VMORAIS/Documents/DAVE_WS/1p_inverter_200V/Libraries/XMCLib/inc\xmc_can.h ****   XMC_CAN_STATUS_SUCCESS,           /**< Driver accepted application request*/
 178:C:/Users/VMORAIS/Documents/DAVE_WS/1p_inverter_200V/Libraries/XMCLib/inc\xmc_can.h ****   XMC_CAN_STATUS_ERROR,             /**< Returned when unknown error occurred */
 179:C:/Users/VMORAIS/Documents/DAVE_WS/1p_inverter_200V/Libraries/XMCLib/inc\xmc_can.h ****   XMC_CAN_STATUS_BUSY,              /**< Driver is busy and can not handle request*/
 180:C:/Users/VMORAIS/Documents/DAVE_WS/1p_inverter_200V/Libraries/XMCLib/inc\xmc_can.h ****   XMC_CAN_STATUS_MO_NOT_ACCEPTABLE, /**< Message object type not allowed*/
 181:C:/Users/VMORAIS/Documents/DAVE_WS/1p_inverter_200V/Libraries/XMCLib/inc\xmc_can.h ****   XMC_CAN_STATUS_MO_DISABLED       /**< Returned if Message object is disabled */
 182:C:/Users/VMORAIS/Documents/DAVE_WS/1p_inverter_200V/Libraries/XMCLib/inc\xmc_can.h **** } XMC_CAN_STATUS_t;
 183:C:/Users/VMORAIS/Documents/DAVE_WS/1p_inverter_200V/Libraries/XMCLib/inc\xmc_can.h **** 
 184:C:/Users/VMORAIS/Documents/DAVE_WS/1p_inverter_200V/Libraries/XMCLib/inc\xmc_can.h **** /**
 185:C:/Users/VMORAIS/Documents/DAVE_WS/1p_inverter_200V/Libraries/XMCLib/inc\xmc_can.h **** * Defines CAN module Panel Commands . Use type \a XMC_CAN_PANCMD_t for this enum.
 186:C:/Users/VMORAIS/Documents/DAVE_WS/1p_inverter_200V/Libraries/XMCLib/inc\xmc_can.h **** */
 187:C:/Users/VMORAIS/Documents/DAVE_WS/1p_inverter_200V/Libraries/XMCLib/inc\xmc_can.h **** typedef enum XMC_CAN_PANCMD
 188:C:/Users/VMORAIS/Documents/DAVE_WS/1p_inverter_200V/Libraries/XMCLib/inc\xmc_can.h **** {
 189:C:/Users/VMORAIS/Documents/DAVE_WS/1p_inverter_200V/Libraries/XMCLib/inc\xmc_can.h ****   XMC_CAN_PANCMD_INIT_LIST = 1U,              /**< Command to initialize a list */
 190:C:/Users/VMORAIS/Documents/DAVE_WS/1p_inverter_200V/Libraries/XMCLib/inc\xmc_can.h ****   XMC_CAN_PANCMD_STATIC_ALLOCATE = 2U,        /**< Command to activate static allocation */
 191:C:/Users/VMORAIS/Documents/DAVE_WS/1p_inverter_200V/Libraries/XMCLib/inc\xmc_can.h ****   XMC_CAN_PANCMD_DYNAMIC_ALLOCATE = 3U,       /**< Command to activate dynamic allocation */
 192:C:/Users/VMORAIS/Documents/DAVE_WS/1p_inverter_200V/Libraries/XMCLib/inc\xmc_can.h **** 
 193:C:/Users/VMORAIS/Documents/DAVE_WS/1p_inverter_200V/Libraries/XMCLib/inc\xmc_can.h ****   XMC_CAN_PANCMD_STATIC_INSERT_BEFORE = 4U,	  /**< Remove a message object from the list and insert
 194:C:/Users/VMORAIS/Documents/DAVE_WS/1p_inverter_200V/Libraries/XMCLib/inc\xmc_can.h ****   XMC_CAN_PANCMD_DYNAMIC_INSERT_BEFORE = 5U,  /**< Command to activate dynamic allocation */
 195:C:/Users/VMORAIS/Documents/DAVE_WS/1p_inverter_200V/Libraries/XMCLib/inc\xmc_can.h ****   XMC_CAN_PANCMD_STATIC_INSERT_BEHIND = 6U,   /**< Command to activate dynamic allocation */
 196:C:/Users/VMORAIS/Documents/DAVE_WS/1p_inverter_200V/Libraries/XMCLib/inc\xmc_can.h ****   XMC_CAN_PANCMD_DYNAMIC_INSERT_BEHIND = 7U   /**< Command to activate dynamic allocation */
 197:C:/Users/VMORAIS/Documents/DAVE_WS/1p_inverter_200V/Libraries/XMCLib/inc\xmc_can.h **** } XMC_CAN_PANCMD_t;
 198:C:/Users/VMORAIS/Documents/DAVE_WS/1p_inverter_200V/Libraries/XMCLib/inc\xmc_can.h **** 
 199:C:/Users/VMORAIS/Documents/DAVE_WS/1p_inverter_200V/Libraries/XMCLib/inc\xmc_can.h **** /**
 200:C:/Users/VMORAIS/Documents/DAVE_WS/1p_inverter_200V/Libraries/XMCLib/inc\xmc_can.h **** * Defines loop Back Mode, to enable/disable an in-system test of the MultiCAN module .
 201:C:/Users/VMORAIS/Documents/DAVE_WS/1p_inverter_200V/Libraries/XMCLib/inc\xmc_can.h **** * Use type \a XMC_CAN_LOOKBACKMODE_t for this enum.
 202:C:/Users/VMORAIS/Documents/DAVE_WS/1p_inverter_200V/Libraries/XMCLib/inc\xmc_can.h **** */
 203:C:/Users/VMORAIS/Documents/DAVE_WS/1p_inverter_200V/Libraries/XMCLib/inc\xmc_can.h **** typedef enum XMC_CAN_LOOKBACKMODE
 204:C:/Users/VMORAIS/Documents/DAVE_WS/1p_inverter_200V/Libraries/XMCLib/inc\xmc_can.h **** {
 205:C:/Users/VMORAIS/Documents/DAVE_WS/1p_inverter_200V/Libraries/XMCLib/inc\xmc_can.h ****   XMC_CAN_LOOKBACKMODE_ENABLED,   /**< Each CAN node can be connected to the internal CAN bus  */
 206:C:/Users/VMORAIS/Documents/DAVE_WS/1p_inverter_200V/Libraries/XMCLib/inc\xmc_can.h ****   XMC_CAN_LOOKBACKMODE_DISABLED   /**< Each CAN node can be connected to the external CAN bus */
 207:C:/Users/VMORAIS/Documents/DAVE_WS/1p_inverter_200V/Libraries/XMCLib/inc\xmc_can.h **** } XMC_CAN_LOOKBACKMODE_t;
 208:C:/Users/VMORAIS/Documents/DAVE_WS/1p_inverter_200V/Libraries/XMCLib/inc\xmc_can.h **** 
 209:C:/Users/VMORAIS/Documents/DAVE_WS/1p_inverter_200V/Libraries/XMCLib/inc\xmc_can.h **** /**
 210:C:/Users/VMORAIS/Documents/DAVE_WS/1p_inverter_200V/Libraries/XMCLib/inc\xmc_can.h ****  * Defines Message Object direction. Use type \a XMC_CAN_MO_TYPE_t for this enum.
 211:C:/Users/VMORAIS/Documents/DAVE_WS/1p_inverter_200V/Libraries/XMCLib/inc\xmc_can.h ****  */
 212:C:/Users/VMORAIS/Documents/DAVE_WS/1p_inverter_200V/Libraries/XMCLib/inc\xmc_can.h **** typedef enum XMC_CAN_MO_TYPE
 213:C:/Users/VMORAIS/Documents/DAVE_WS/1p_inverter_200V/Libraries/XMCLib/inc\xmc_can.h **** {
 214:C:/Users/VMORAIS/Documents/DAVE_WS/1p_inverter_200V/Libraries/XMCLib/inc\xmc_can.h ****   XMC_CAN_MO_TYPE_RECMSGOBJ,   /**< Receive Message Object selected */
 215:C:/Users/VMORAIS/Documents/DAVE_WS/1p_inverter_200V/Libraries/XMCLib/inc\xmc_can.h ****   XMC_CAN_MO_TYPE_TRANSMSGOBJ  /**< Transmit Message Object selected */
 216:C:/Users/VMORAIS/Documents/DAVE_WS/1p_inverter_200V/Libraries/XMCLib/inc\xmc_can.h **** } XMC_CAN_MO_TYPE_t;
 217:C:/Users/VMORAIS/Documents/DAVE_WS/1p_inverter_200V/Libraries/XMCLib/inc\xmc_can.h **** 
 218:C:/Users/VMORAIS/Documents/DAVE_WS/1p_inverter_200V/Libraries/XMCLib/inc\xmc_can.h **** /**
 219:C:/Users/VMORAIS/Documents/DAVE_WS/1p_inverter_200V/Libraries/XMCLib/inc\xmc_can.h ****  * Defines Data frame types. Use type \a XMC_CAN_FRAME_TYPE_t for this enum.
 220:C:/Users/VMORAIS/Documents/DAVE_WS/1p_inverter_200V/Libraries/XMCLib/inc\xmc_can.h ****  */
 221:C:/Users/VMORAIS/Documents/DAVE_WS/1p_inverter_200V/Libraries/XMCLib/inc\xmc_can.h **** typedef enum XMC_CAN_FRAME_TYPE
 222:C:/Users/VMORAIS/Documents/DAVE_WS/1p_inverter_200V/Libraries/XMCLib/inc\xmc_can.h **** {
 223:C:/Users/VMORAIS/Documents/DAVE_WS/1p_inverter_200V/Libraries/XMCLib/inc\xmc_can.h ****   XMC_CAN_FRAME_TYPE_STANDARD_11BITS, /**< Standard type identifier*/
 224:C:/Users/VMORAIS/Documents/DAVE_WS/1p_inverter_200V/Libraries/XMCLib/inc\xmc_can.h ****   XMC_CAN_FRAME_TYPE_EXTENDED_29BITS  /**< Extended type identifier*/
 225:C:/Users/VMORAIS/Documents/DAVE_WS/1p_inverter_200V/Libraries/XMCLib/inc\xmc_can.h **** } XMC_CAN_FRAME_TYPE_t;
 226:C:/Users/VMORAIS/Documents/DAVE_WS/1p_inverter_200V/Libraries/XMCLib/inc\xmc_can.h **** 
 227:C:/Users/VMORAIS/Documents/DAVE_WS/1p_inverter_200V/Libraries/XMCLib/inc\xmc_can.h **** 
 228:C:/Users/VMORAIS/Documents/DAVE_WS/1p_inverter_200V/Libraries/XMCLib/inc\xmc_can.h **** /**
 229:C:/Users/VMORAIS/Documents/DAVE_WS/1p_inverter_200V/Libraries/XMCLib/inc\xmc_can.h ****  * Defines arbitration mode for transmit acceptance filtering. Use type \a XMC_CAN_ARBITRATION_MODE
 230:C:/Users/VMORAIS/Documents/DAVE_WS/1p_inverter_200V/Libraries/XMCLib/inc\xmc_can.h ****  */
 231:C:/Users/VMORAIS/Documents/DAVE_WS/1p_inverter_200V/Libraries/XMCLib/inc\xmc_can.h **** typedef enum XMC_CAN_ARBITRATION_MODE
 232:C:/Users/VMORAIS/Documents/DAVE_WS/1p_inverter_200V/Libraries/XMCLib/inc\xmc_can.h **** {
 233:C:/Users/VMORAIS/Documents/DAVE_WS/1p_inverter_200V/Libraries/XMCLib/inc\xmc_can.h ****   XMC_CAN_ARBITRATION_MODE_ORDER_BASED_PRIO_1 = 1U,   /**< Transmit acceptance based in the order(p
 234:C:/Users/VMORAIS/Documents/DAVE_WS/1p_inverter_200V/Libraries/XMCLib/inc\xmc_can.h ****   XMC_CAN_ARBITRATION_MODE_IDE_DIR_BASED_PRIO_2 = 2U, /**< Transmit acceptance filtering is based o
 235:C:/Users/VMORAIS/Documents/DAVE_WS/1p_inverter_200V/Libraries/XMCLib/inc\xmc_can.h ****   XMC_CAN_ARBITRATION_MODE_ORDER_BASED_PRIO_3 = 3U    /**< Transmit acceptance based in the order *
 236:C:/Users/VMORAIS/Documents/DAVE_WS/1p_inverter_200V/Libraries/XMCLib/inc\xmc_can.h **** } XMC_CAN_ARBITRATION_MODE_t;
 237:C:/Users/VMORAIS/Documents/DAVE_WS/1p_inverter_200V/Libraries/XMCLib/inc\xmc_can.h **** 
 238:C:/Users/VMORAIS/Documents/DAVE_WS/1p_inverter_200V/Libraries/XMCLib/inc\xmc_can.h **** /**
 239:C:/Users/VMORAIS/Documents/DAVE_WS/1p_inverter_200V/Libraries/XMCLib/inc\xmc_can.h ****  * Defines the operation mode of the frame counter. Use type \a XMC_CAN_FRAME_COUNT_MODE_t for this
 240:C:/Users/VMORAIS/Documents/DAVE_WS/1p_inverter_200V/Libraries/XMCLib/inc\xmc_can.h ****  */
 241:C:/Users/VMORAIS/Documents/DAVE_WS/1p_inverter_200V/Libraries/XMCLib/inc\xmc_can.h **** typedef enum XMC_CAN_FRAME_COUNT_MODE
 242:C:/Users/VMORAIS/Documents/DAVE_WS/1p_inverter_200V/Libraries/XMCLib/inc\xmc_can.h **** {
 243:C:/Users/VMORAIS/Documents/DAVE_WS/1p_inverter_200V/Libraries/XMCLib/inc\xmc_can.h ****   XMC_CAN_FRAME_COUNT_MODE = 0U, 			 /**< Frame Count Mode */
 244:C:/Users/VMORAIS/Documents/DAVE_WS/1p_inverter_200V/Libraries/XMCLib/inc\xmc_can.h ****   XMC_CAN_FRAME_COUNT_MODE_TIME_STAMP = 1U,  /**< The frame counter is incremented with the beginni
 245:C:/Users/VMORAIS/Documents/DAVE_WS/1p_inverter_200V/Libraries/XMCLib/inc\xmc_can.h ****   XMC_CAN_FRAME_COUNT_MODE_BIT_TIMING = 2U   /**< Used for baud rate detection and analysis of the 
 246:C:/Users/VMORAIS/Documents/DAVE_WS/1p_inverter_200V/Libraries/XMCLib/inc\xmc_can.h **** } XMC_CAN_FRAME_COUNT_MODE_t;
 247:C:/Users/VMORAIS/Documents/DAVE_WS/1p_inverter_200V/Libraries/XMCLib/inc\xmc_can.h **** 
 248:C:/Users/VMORAIS/Documents/DAVE_WS/1p_inverter_200V/Libraries/XMCLib/inc\xmc_can.h **** /**
 249:C:/Users/VMORAIS/Documents/DAVE_WS/1p_inverter_200V/Libraries/XMCLib/inc\xmc_can.h ****  * Defines the Divider Modes. Use type \a XMC_CAN_DM_t for this enum.
 250:C:/Users/VMORAIS/Documents/DAVE_WS/1p_inverter_200V/Libraries/XMCLib/inc\xmc_can.h ****  */
 251:C:/Users/VMORAIS/Documents/DAVE_WS/1p_inverter_200V/Libraries/XMCLib/inc\xmc_can.h **** typedef enum XMC_CAN_DM
 252:C:/Users/VMORAIS/Documents/DAVE_WS/1p_inverter_200V/Libraries/XMCLib/inc\xmc_can.h **** {
 253:C:/Users/VMORAIS/Documents/DAVE_WS/1p_inverter_200V/Libraries/XMCLib/inc\xmc_can.h ****   XMC_CAN_DM_NORMAL = 1U,      /**< Normal divider mode */
 254:C:/Users/VMORAIS/Documents/DAVE_WS/1p_inverter_200V/Libraries/XMCLib/inc\xmc_can.h ****   XMC_CAN_DM_FRACTIONAL = 2U,  /**< Fractional divider mode */
 255:C:/Users/VMORAIS/Documents/DAVE_WS/1p_inverter_200V/Libraries/XMCLib/inc\xmc_can.h ****   XMC_CAN_DM_OFF = 3U          /**< Divider Mode in off-state*/
 256:C:/Users/VMORAIS/Documents/DAVE_WS/1p_inverter_200V/Libraries/XMCLib/inc\xmc_can.h **** } XMC_CAN_DM_t;
 257:C:/Users/VMORAIS/Documents/DAVE_WS/1p_inverter_200V/Libraries/XMCLib/inc\xmc_can.h **** 
 258:C:/Users/VMORAIS/Documents/DAVE_WS/1p_inverter_200V/Libraries/XMCLib/inc\xmc_can.h **** /**
 259:C:/Users/VMORAIS/Documents/DAVE_WS/1p_inverter_200V/Libraries/XMCLib/inc\xmc_can.h ****  * Defines mask value for CAN Message Object set status. Use type \a XMC_CAN_MO_SET_STATUS_t for th
 260:C:/Users/VMORAIS/Documents/DAVE_WS/1p_inverter_200V/Libraries/XMCLib/inc\xmc_can.h ****  */
 261:C:/Users/VMORAIS/Documents/DAVE_WS/1p_inverter_200V/Libraries/XMCLib/inc\xmc_can.h **** typedef enum XMC_CAN_MO_SET_STATUS
 262:C:/Users/VMORAIS/Documents/DAVE_WS/1p_inverter_200V/Libraries/XMCLib/inc\xmc_can.h **** {
 263:C:/Users/VMORAIS/Documents/DAVE_WS/1p_inverter_200V/Libraries/XMCLib/inc\xmc_can.h ****   XMC_CAN_MO_SET_STATUS_RX_PENDING = CAN_MO_MOCTR_SETRXPND_Msk,     /**< Set receive pending */
 264:C:/Users/VMORAIS/Documents/DAVE_WS/1p_inverter_200V/Libraries/XMCLib/inc\xmc_can.h ****   XMC_CAN_MO_SET_STATUS_TX_PENDING = CAN_MO_MOCTR_SETTXPND_Msk,     /**< Set transmit pending */
 265:C:/Users/VMORAIS/Documents/DAVE_WS/1p_inverter_200V/Libraries/XMCLib/inc\xmc_can.h ****   XMC_CAN_MO_SET_STATUS_RX_UPDATING = CAN_MO_MOCTR_SETRXUPD_Msk,    /**< Set receive updating */
 266:C:/Users/VMORAIS/Documents/DAVE_WS/1p_inverter_200V/Libraries/XMCLib/inc\xmc_can.h ****   XMC_CAN_MO_SET_STATUS_NEW_DATA = CAN_MO_MOCTR_SETNEWDAT_Msk,      /**< Set new data */
 267:C:/Users/VMORAIS/Documents/DAVE_WS/1p_inverter_200V/Libraries/XMCLib/inc\xmc_can.h ****   XMC_CAN_MO_SET_STATUS_MESSAGE_LOST = CAN_MO_MOCTR_SETMSGLST_Msk,  /**< Set message lost */
 268:C:/Users/VMORAIS/Documents/DAVE_WS/1p_inverter_200V/Libraries/XMCLib/inc\xmc_can.h ****   XMC_CAN_MO_SET_STATUS_MESSAGE_VALID = CAN_MO_MOCTR_SETMSGVAL_Msk, /**< Set message valid */
 269:C:/Users/VMORAIS/Documents/DAVE_WS/1p_inverter_200V/Libraries/XMCLib/inc\xmc_can.h ****   XMC_CAN_MO_SET_STATUS_RX_TX_SELECTED = CAN_MO_MOCTR_SETRTSEL_Msk, /**< Set transmit/receive selec
 270:C:/Users/VMORAIS/Documents/DAVE_WS/1p_inverter_200V/Libraries/XMCLib/inc\xmc_can.h ****   XMC_CAN_MO_SET_STATUS_RX_ENABLE = CAN_MO_MOCTR_SETRXEN_Msk,       /**< Set receive enable */
 271:C:/Users/VMORAIS/Documents/DAVE_WS/1p_inverter_200V/Libraries/XMCLib/inc\xmc_can.h ****   XMC_CAN_MO_SET_STATUS_TX_REQUEST = CAN_MO_MOCTR_SETTXRQ_Msk,      /**< Set transmit request */
 272:C:/Users/VMORAIS/Documents/DAVE_WS/1p_inverter_200V/Libraries/XMCLib/inc\xmc_can.h ****   XMC_CAN_MO_SET_STATUS_TX_ENABLE0 = CAN_MO_MOCTR_SETTXEN0_Msk,     /**< Set transmit enable 0 */
 273:C:/Users/VMORAIS/Documents/DAVE_WS/1p_inverter_200V/Libraries/XMCLib/inc\xmc_can.h ****   XMC_CAN_MO_SET_STATUS_TX_ENABLE1 = CAN_MO_MOCTR_SETTXEN1_Msk,     /**< Set transmit enable 1 */
 274:C:/Users/VMORAIS/Documents/DAVE_WS/1p_inverter_200V/Libraries/XMCLib/inc\xmc_can.h ****   XMC_CAN_MO_SET_STATUS_MESSAGE_DIRECTION = CAN_MO_MOCTR_SETDIR_Msk /**< Set message direction */
 275:C:/Users/VMORAIS/Documents/DAVE_WS/1p_inverter_200V/Libraries/XMCLib/inc\xmc_can.h **** } XMC_CAN_MO_SET_STATUS_t;
 276:C:/Users/VMORAIS/Documents/DAVE_WS/1p_inverter_200V/Libraries/XMCLib/inc\xmc_can.h **** 
 277:C:/Users/VMORAIS/Documents/DAVE_WS/1p_inverter_200V/Libraries/XMCLib/inc\xmc_can.h **** /**
 278:C:/Users/VMORAIS/Documents/DAVE_WS/1p_inverter_200V/Libraries/XMCLib/inc\xmc_can.h ****  * Defines mask value for CAN Message Object reset status. Use type \a XMC_CAN_MO_RESET_STATUS_t fo
 279:C:/Users/VMORAIS/Documents/DAVE_WS/1p_inverter_200V/Libraries/XMCLib/inc\xmc_can.h ****  */
 280:C:/Users/VMORAIS/Documents/DAVE_WS/1p_inverter_200V/Libraries/XMCLib/inc\xmc_can.h **** typedef enum XMC_CAN_MO_RESET_STATUS
 281:C:/Users/VMORAIS/Documents/DAVE_WS/1p_inverter_200V/Libraries/XMCLib/inc\xmc_can.h **** {
 282:C:/Users/VMORAIS/Documents/DAVE_WS/1p_inverter_200V/Libraries/XMCLib/inc\xmc_can.h ****   XMC_CAN_MO_RESET_STATUS_RX_PENDING = CAN_MO_MOCTR_RESRXPND_Msk,     /**< Reset receive pending */
 283:C:/Users/VMORAIS/Documents/DAVE_WS/1p_inverter_200V/Libraries/XMCLib/inc\xmc_can.h ****   XMC_CAN_MO_RESET_STATUS_TX_PENDING = CAN_MO_MOCTR_RESTXPND_Msk,     /**< Reset transmit pending *
 284:C:/Users/VMORAIS/Documents/DAVE_WS/1p_inverter_200V/Libraries/XMCLib/inc\xmc_can.h ****   XMC_CAN_MO_RESET_STATUS_RX_UPDATING = CAN_MO_MOCTR_RESRXUPD_Msk,    /**< Reset receive updating *
 285:C:/Users/VMORAIS/Documents/DAVE_WS/1p_inverter_200V/Libraries/XMCLib/inc\xmc_can.h ****   XMC_CAN_MO_RESET_STATUS_NEW_DATA = CAN_MO_MOCTR_RESNEWDAT_Msk,      /**< Reset new data */
 286:C:/Users/VMORAIS/Documents/DAVE_WS/1p_inverter_200V/Libraries/XMCLib/inc\xmc_can.h ****   XMC_CAN_MO_RESET_STATUS_MESSAGE_LOST = CAN_MO_MOCTR_RESMSGLST_Msk,  /**< Reset message lost */
 287:C:/Users/VMORAIS/Documents/DAVE_WS/1p_inverter_200V/Libraries/XMCLib/inc\xmc_can.h ****   XMC_CAN_MO_RESET_STATUS_MESSAGE_VALID = CAN_MO_MOCTR_RESMSGVAL_Msk, /**< Reset message valid */
 288:C:/Users/VMORAIS/Documents/DAVE_WS/1p_inverter_200V/Libraries/XMCLib/inc\xmc_can.h ****   XMC_CAN_MO_RESET_STATUS_RX_TX_SELECTED = CAN_MO_MOCTR_RESRTSEL_Msk, /**< Reset transmit/receive s
 289:C:/Users/VMORAIS/Documents/DAVE_WS/1p_inverter_200V/Libraries/XMCLib/inc\xmc_can.h ****   XMC_CAN_MO_RESET_STATUS_RX_ENABLE = CAN_MO_MOCTR_RESRXEN_Msk,       /**< Reset receive enable */
 290:C:/Users/VMORAIS/Documents/DAVE_WS/1p_inverter_200V/Libraries/XMCLib/inc\xmc_can.h ****   XMC_CAN_MO_RESET_STATUS_TX_REQUEST = CAN_MO_MOCTR_RESTXRQ_Msk,      /**< Reset transmit request *
 291:C:/Users/VMORAIS/Documents/DAVE_WS/1p_inverter_200V/Libraries/XMCLib/inc\xmc_can.h ****   XMC_CAN_MO_RESET_STATUS_TX_ENABLE0 = CAN_MO_MOCTR_RESTXEN0_Msk,     /**< Reset transmit enable 0 
 292:C:/Users/VMORAIS/Documents/DAVE_WS/1p_inverter_200V/Libraries/XMCLib/inc\xmc_can.h ****   XMC_CAN_MO_RESET_STATUS_TX_ENABLE1 = CAN_MO_MOCTR_RESTXEN1_Msk,     /**< Reset transmit enable 1 
 293:C:/Users/VMORAIS/Documents/DAVE_WS/1p_inverter_200V/Libraries/XMCLib/inc\xmc_can.h ****   XMC_CAN_MO_RESET_STATUS_MESSAGE_DIRECTION = CAN_MO_MOCTR_RESDIR_Msk /**< Reset message direction 
 294:C:/Users/VMORAIS/Documents/DAVE_WS/1p_inverter_200V/Libraries/XMCLib/inc\xmc_can.h **** } XMC_CAN_MO_RESET_STATUS_t;
 295:C:/Users/VMORAIS/Documents/DAVE_WS/1p_inverter_200V/Libraries/XMCLib/inc\xmc_can.h **** 
 296:C:/Users/VMORAIS/Documents/DAVE_WS/1p_inverter_200V/Libraries/XMCLib/inc\xmc_can.h **** /**
 297:C:/Users/VMORAIS/Documents/DAVE_WS/1p_inverter_200V/Libraries/XMCLib/inc\xmc_can.h ****  * Defines mask value for CAN Message Object status. Use type \a XMC_CAN_MO_STATUS_t for this enum.
 298:C:/Users/VMORAIS/Documents/DAVE_WS/1p_inverter_200V/Libraries/XMCLib/inc\xmc_can.h ****  */
 299:C:/Users/VMORAIS/Documents/DAVE_WS/1p_inverter_200V/Libraries/XMCLib/inc\xmc_can.h **** typedef enum XMC_CAN_MO_STATUS
 300:C:/Users/VMORAIS/Documents/DAVE_WS/1p_inverter_200V/Libraries/XMCLib/inc\xmc_can.h **** {
 301:C:/Users/VMORAIS/Documents/DAVE_WS/1p_inverter_200V/Libraries/XMCLib/inc\xmc_can.h ****   XMC_CAN_MO_STATUS_RX_PENDING = CAN_MO_MOSTAT_RXPND_Msk,                   /**< Defines message ha
 302:C:/Users/VMORAIS/Documents/DAVE_WS/1p_inverter_200V/Libraries/XMCLib/inc\xmc_can.h ****   XMC_CAN_MO_STATUS_TX_PENDING = CAN_MO_MOSTAT_TXPND_Msk,                   /**< Defines message ha
 303:C:/Users/VMORAIS/Documents/DAVE_WS/1p_inverter_200V/Libraries/XMCLib/inc\xmc_can.h ****   XMC_CAN_MO_STATUS_RX_UPDATING = CAN_MO_MOSTAT_RXUPD_Msk,                  /**< Defines Message id
 304:C:/Users/VMORAIS/Documents/DAVE_WS/1p_inverter_200V/Libraries/XMCLib/inc\xmc_can.h ****   XMC_CAN_MO_STATUS_NEW_DATA = CAN_MO_MOSTAT_NEWDAT_Msk,                    /**< Defines no update 
 305:C:/Users/VMORAIS/Documents/DAVE_WS/1p_inverter_200V/Libraries/XMCLib/inc\xmc_can.h ****   XMC_CAN_MO_STATUS_MESSAGE_LOST = CAN_MO_MOSTAT_MSGLST_Msk,                /**< CAN message is los
 306:C:/Users/VMORAIS/Documents/DAVE_WS/1p_inverter_200V/Libraries/XMCLib/inc\xmc_can.h ****   XMC_CAN_MO_STATUS_MESSAGE_VALID = CAN_MO_MOSTAT_MSGVAL_Msk,               /**< Message valid */
 307:C:/Users/VMORAIS/Documents/DAVE_WS/1p_inverter_200V/Libraries/XMCLib/inc\xmc_can.h ****   XMC_CAN_MO_STATUS_RX_TX_SELECTED = CAN_MO_MOSTAT_RTSEL_Msk,               /**< Transmit/Receive s
 308:C:/Users/VMORAIS/Documents/DAVE_WS/1p_inverter_200V/Libraries/XMCLib/inc\xmc_can.h ****   XMC_CAN_MO_STATUS_RX_ENABLE = CAN_MO_MOSTAT_RXEN_Msk,                     /**< Receive enable */
 309:C:/Users/VMORAIS/Documents/DAVE_WS/1p_inverter_200V/Libraries/XMCLib/inc\xmc_can.h ****   XMC_CAN_MO_STATUS_TX_REQUEST = CAN_MO_MOSTAT_TXRQ_Msk,                    /**< Transmit request *
 310:C:/Users/VMORAIS/Documents/DAVE_WS/1p_inverter_200V/Libraries/XMCLib/inc\xmc_can.h ****   XMC_CAN_MO_STATUS_TX_ENABLE0 = CAN_MO_MOSTAT_TXEN0_Msk,                   /**< Transmit enable 0 
 311:C:/Users/VMORAIS/Documents/DAVE_WS/1p_inverter_200V/Libraries/XMCLib/inc\xmc_can.h ****   XMC_CAN_MO_STATUS_TX_ENABLE1 = CAN_MO_MOSTAT_TXEN1_Msk,                   /**< Transmit enable 1 
 312:C:/Users/VMORAIS/Documents/DAVE_WS/1p_inverter_200V/Libraries/XMCLib/inc\xmc_can.h ****   XMC_CAN_MO_STATUS_MESSAGE_DIRECTION = CAN_MO_MOSTAT_DIR_Msk,              /**< Message direction 
 313:C:/Users/VMORAIS/Documents/DAVE_WS/1p_inverter_200V/Libraries/XMCLib/inc\xmc_can.h ****   XMC_CAN_MO_STATUS_LIST = CAN_MO_MOSTAT_LIST_Msk,                          /**< List allocation */
 314:C:/Users/VMORAIS/Documents/DAVE_WS/1p_inverter_200V/Libraries/XMCLib/inc\xmc_can.h ****   XMC_CAN_MO_STATUS_POINTER_TO_PREVIOUS_MO = CAN_MO_MOSTAT_PPREV_Msk,    	/**< Pointer to previous 
 315:C:/Users/VMORAIS/Documents/DAVE_WS/1p_inverter_200V/Libraries/XMCLib/inc\xmc_can.h ****   XMC_CAN_MO_STATUS_POINTER_TO_NEXT_MO = (int32_t)CAN_MO_MOSTAT_PNEXT_Msk   /**< Pointer to next Me
 316:C:/Users/VMORAIS/Documents/DAVE_WS/1p_inverter_200V/Libraries/XMCLib/inc\xmc_can.h **** } XMC_CAN_MO_STATUS_t;
 317:C:/Users/VMORAIS/Documents/DAVE_WS/1p_inverter_200V/Libraries/XMCLib/inc\xmc_can.h **** 
 318:C:/Users/VMORAIS/Documents/DAVE_WS/1p_inverter_200V/Libraries/XMCLib/inc\xmc_can.h **** /**
 319:C:/Users/VMORAIS/Documents/DAVE_WS/1p_inverter_200V/Libraries/XMCLib/inc\xmc_can.h ****  * Defines mask value for CAN Node status. Use type \a XMC_CAN_NODE_STATUS_t for this enum.
 320:C:/Users/VMORAIS/Documents/DAVE_WS/1p_inverter_200V/Libraries/XMCLib/inc\xmc_can.h ****  */
 321:C:/Users/VMORAIS/Documents/DAVE_WS/1p_inverter_200V/Libraries/XMCLib/inc\xmc_can.h **** typedef enum XMC_CAN_NODE_STATUS
 322:C:/Users/VMORAIS/Documents/DAVE_WS/1p_inverter_200V/Libraries/XMCLib/inc\xmc_can.h **** {
 323:C:/Users/VMORAIS/Documents/DAVE_WS/1p_inverter_200V/Libraries/XMCLib/inc\xmc_can.h ****   XMC_CAN_NODE_STATUS_LAST_ERROR_CODE = CAN_NODE_NSR_LEC_Msk,       /**< Last Error Code */
 324:C:/Users/VMORAIS/Documents/DAVE_WS/1p_inverter_200V/Libraries/XMCLib/inc\xmc_can.h ****   XMC_CAN_NODE_STATUS_TX_OK = CAN_NODE_NSR_TXOK_Msk,                /**< Message transmitted succes
 325:C:/Users/VMORAIS/Documents/DAVE_WS/1p_inverter_200V/Libraries/XMCLib/inc\xmc_can.h ****   XMC_CAN_NODE_STATUS_RX_OK = CAN_NODE_NSR_RXOK_Msk,                /**< Message received successfu
 326:C:/Users/VMORAIS/Documents/DAVE_WS/1p_inverter_200V/Libraries/XMCLib/inc\xmc_can.h ****   XMC_CAN_NODE_STATUS_ALERT_WARNING = CAN_NODE_NSR_ALERT_Msk,       /**< Alert warning */
 327:C:/Users/VMORAIS/Documents/DAVE_WS/1p_inverter_200V/Libraries/XMCLib/inc\xmc_can.h ****   XMC_CAN_NODE_STATUS_ERROR_WARNING_STATUS = CAN_NODE_NSR_EWRN_Msk, /**< Error warning status */
 328:C:/Users/VMORAIS/Documents/DAVE_WS/1p_inverter_200V/Libraries/XMCLib/inc\xmc_can.h ****   XMC_CAN_NODE_STATUS_BUS_OFF= CAN_NODE_NSR_BOFF_Msk,				/**< Bus-off status */
 329:C:/Users/VMORAIS/Documents/DAVE_WS/1p_inverter_200V/Libraries/XMCLib/inc\xmc_can.h ****   XMC_CAN_NODE_STATUS_LIST_LENGTH_ERROR = CAN_NODE_NSR_LLE_Msk,     /**< List length error */
 330:C:/Users/VMORAIS/Documents/DAVE_WS/1p_inverter_200V/Libraries/XMCLib/inc\xmc_can.h ****   XMC_CAN_NODE_STATUS_LIST_OBJECT_ERROR = CAN_NODE_NSR_LOE_Msk,     /**< List object error */
 331:C:/Users/VMORAIS/Documents/DAVE_WS/1p_inverter_200V/Libraries/XMCLib/inc\xmc_can.h **** #if !defined(MULTICAN_PLUS)
 332:C:/Users/VMORAIS/Documents/DAVE_WS/1p_inverter_200V/Libraries/XMCLib/inc\xmc_can.h ****   XMC_CAN_NODE_STATUS_SUSPENDED_ACK = CAN_NODE_NSR_SUSACK_Msk       /**< Suspend Acknowledge */
 333:C:/Users/VMORAIS/Documents/DAVE_WS/1p_inverter_200V/Libraries/XMCLib/inc\xmc_can.h **** #endif
 334:C:/Users/VMORAIS/Documents/DAVE_WS/1p_inverter_200V/Libraries/XMCLib/inc\xmc_can.h **** } XMC_CAN_NODE_STATUS_t;
 335:C:/Users/VMORAIS/Documents/DAVE_WS/1p_inverter_200V/Libraries/XMCLib/inc\xmc_can.h **** 
 336:C:/Users/VMORAIS/Documents/DAVE_WS/1p_inverter_200V/Libraries/XMCLib/inc\xmc_can.h **** /**
 337:C:/Users/VMORAIS/Documents/DAVE_WS/1p_inverter_200V/Libraries/XMCLib/inc\xmc_can.h ****  * Defines mask value for CAN Node control like initialization, node disable and analyzer mode .
 338:C:/Users/VMORAIS/Documents/DAVE_WS/1p_inverter_200V/Libraries/XMCLib/inc\xmc_can.h ****  * Use type \a XMC_CAN_NODE_CONTROL_t for this enum.
 339:C:/Users/VMORAIS/Documents/DAVE_WS/1p_inverter_200V/Libraries/XMCLib/inc\xmc_can.h ****  */
 340:C:/Users/VMORAIS/Documents/DAVE_WS/1p_inverter_200V/Libraries/XMCLib/inc\xmc_can.h **** typedef enum XMC_CAN_NODE_CONTROL
 341:C:/Users/VMORAIS/Documents/DAVE_WS/1p_inverter_200V/Libraries/XMCLib/inc\xmc_can.h **** {
 342:C:/Users/VMORAIS/Documents/DAVE_WS/1p_inverter_200V/Libraries/XMCLib/inc\xmc_can.h ****   XMC_CAN_NODE_CONTROL_NODE_INIT = CAN_NODE_NCR_INIT_Msk,            /**< Node initialization */
 343:C:/Users/VMORAIS/Documents/DAVE_WS/1p_inverter_200V/Libraries/XMCLib/inc\xmc_can.h ****   XMC_CAN_NODE_CONTROL_TX_INT_ENABLE = CAN_NODE_NCR_TRIE_Msk,        /**< Transfer event enable */
 344:C:/Users/VMORAIS/Documents/DAVE_WS/1p_inverter_200V/Libraries/XMCLib/inc\xmc_can.h ****   XMC_CAN_NODE_CONTROL_LEC_INT_ENABLE = CAN_NODE_NCR_LECIE_Msk,      /**< LEC Indicated Error Event
 345:C:/Users/VMORAIS/Documents/DAVE_WS/1p_inverter_200V/Libraries/XMCLib/inc\xmc_can.h ****   XMC_CAN_NODE_CONTROL_ALERT_INT_ENABLE = CAN_NODE_NCR_ALIE_Msk,     /**< Alert Event Enable */
 346:C:/Users/VMORAIS/Documents/DAVE_WS/1p_inverter_200V/Libraries/XMCLib/inc\xmc_can.h ****   XMC_CAN_NODE_CONTROL_CAN_DISABLE = CAN_NODE_NCR_CANDIS_Msk,        /**< CAN disable */
 347:C:/Users/VMORAIS/Documents/DAVE_WS/1p_inverter_200V/Libraries/XMCLib/inc\xmc_can.h ****   XMC_CAN_NODE_CONTROL_CONF_CHANGE_ENABLE= CAN_NODE_NCR_CCE_Msk,     /**< Configuration change enab
 348:C:/Users/VMORAIS/Documents/DAVE_WS/1p_inverter_200V/Libraries/XMCLib/inc\xmc_can.h ****   XMC_CAN_NODE_CONTROL_CAN_ANALYZER_NODEDE = CAN_NODE_NCR_CALM_Msk,  /**< CAN Analyzer mode */
 349:C:/Users/VMORAIS/Documents/DAVE_WS/1p_inverter_200V/Libraries/XMCLib/inc\xmc_can.h **** #if !defined(MULTICAN_PLUS)
 350:C:/Users/VMORAIS/Documents/DAVE_WS/1p_inverter_200V/Libraries/XMCLib/inc\xmc_can.h ****   XMC_CAN_NODE_CONTROL_SUSPENDED_ENABLE = CAN_NODE_NCR_SUSEN_Msk     /**< Suspend Enable */
 351:C:/Users/VMORAIS/Documents/DAVE_WS/1p_inverter_200V/Libraries/XMCLib/inc\xmc_can.h **** #endif
 352:C:/Users/VMORAIS/Documents/DAVE_WS/1p_inverter_200V/Libraries/XMCLib/inc\xmc_can.h **** } XMC_CAN_NODE_CONTROL_t;
 353:C:/Users/VMORAIS/Documents/DAVE_WS/1p_inverter_200V/Libraries/XMCLib/inc\xmc_can.h **** 
 354:C:/Users/VMORAIS/Documents/DAVE_WS/1p_inverter_200V/Libraries/XMCLib/inc\xmc_can.h **** /**
 355:C:/Users/VMORAIS/Documents/DAVE_WS/1p_inverter_200V/Libraries/XMCLib/inc\xmc_can.h ****  * Defines mask value for CAN Node events. Use type \a XMC_CAN_NODE_EVENT_t for this enum.
 356:C:/Users/VMORAIS/Documents/DAVE_WS/1p_inverter_200V/Libraries/XMCLib/inc\xmc_can.h ****  */
 357:C:/Users/VMORAIS/Documents/DAVE_WS/1p_inverter_200V/Libraries/XMCLib/inc\xmc_can.h **** typedef enum XMC_CAN_NODE_EVENT
 358:C:/Users/VMORAIS/Documents/DAVE_WS/1p_inverter_200V/Libraries/XMCLib/inc\xmc_can.h **** {
 359:C:/Users/VMORAIS/Documents/DAVE_WS/1p_inverter_200V/Libraries/XMCLib/inc\xmc_can.h ****   XMC_CAN_NODE_EVENT_TX_INT = CAN_NODE_NCR_TRIE_Msk,   /**< Node Transfer OK Event */
 360:C:/Users/VMORAIS/Documents/DAVE_WS/1p_inverter_200V/Libraries/XMCLib/inc\xmc_can.h ****   XMC_CAN_NODE_EVENT_ALERT = CAN_NODE_NCR_ALIE_Msk,    /**< Node Alert Event */
 361:C:/Users/VMORAIS/Documents/DAVE_WS/1p_inverter_200V/Libraries/XMCLib/inc\xmc_can.h ****   XMC_CAN_NODE_EVENT_LEC = CAN_NODE_NCR_LECIE_Msk,     /**< Last Error code Event */
 362:C:/Users/VMORAIS/Documents/DAVE_WS/1p_inverter_200V/Libraries/XMCLib/inc\xmc_can.h ****   XMC_CAN_NODE_EVENT_CFCIE = CAN_NODE_NFCR_CFCIE_Msk   /**< CAN Frame Count Event  */
 363:C:/Users/VMORAIS/Documents/DAVE_WS/1p_inverter_200V/Libraries/XMCLib/inc\xmc_can.h **** } XMC_CAN_NODE_EVENT_t;
 364:C:/Users/VMORAIS/Documents/DAVE_WS/1p_inverter_200V/Libraries/XMCLib/inc\xmc_can.h **** 
 365:C:/Users/VMORAIS/Documents/DAVE_WS/1p_inverter_200V/Libraries/XMCLib/inc\xmc_can.h **** /**
 366:C:/Users/VMORAIS/Documents/DAVE_WS/1p_inverter_200V/Libraries/XMCLib/inc\xmc_can.h ****  * Defines mask value for CAN node pointer events position. Use type \a XMC_CAN_NODE_POINTER_EVENT_
 367:C:/Users/VMORAIS/Documents/DAVE_WS/1p_inverter_200V/Libraries/XMCLib/inc\xmc_can.h ****  */
 368:C:/Users/VMORAIS/Documents/DAVE_WS/1p_inverter_200V/Libraries/XMCLib/inc\xmc_can.h **** typedef enum XMC_CAN_NODE_POINTER_EVENT
 369:C:/Users/VMORAIS/Documents/DAVE_WS/1p_inverter_200V/Libraries/XMCLib/inc\xmc_can.h **** {
 370:C:/Users/VMORAIS/Documents/DAVE_WS/1p_inverter_200V/Libraries/XMCLib/inc\xmc_can.h ****   XMC_CAN_NODE_POINTER_EVENT_ALERT = CAN_NODE_NIPR_ALINP_Pos,           /**< Node Alert Event node 
 371:C:/Users/VMORAIS/Documents/DAVE_WS/1p_inverter_200V/Libraries/XMCLib/inc\xmc_can.h ****   XMC_CAN_NODE_POINTER_EVENT_LEC = CAN_NODE_NIPR_LECINP_Pos,            /**< Last Error code Event 
 372:C:/Users/VMORAIS/Documents/DAVE_WS/1p_inverter_200V/Libraries/XMCLib/inc\xmc_can.h ****   XMC_CAN_NODE_POINTER_EVENT_TRANSFER_OK = CAN_NODE_NIPR_TRINP_Pos,     /**< Transmit Event node po
 373:C:/Users/VMORAIS/Documents/DAVE_WS/1p_inverter_200V/Libraries/XMCLib/inc\xmc_can.h ****   XMC_CAN_NODE_POINTER_EVENT_FRAME_COUNTER = CAN_NODE_NIPR_CFCINP_Pos   /**< CAN Frame Count Event 
 374:C:/Users/VMORAIS/Documents/DAVE_WS/1p_inverter_200V/Libraries/XMCLib/inc\xmc_can.h **** } XMC_CAN_NODE_POINTER_EVENT_t;
 375:C:/Users/VMORAIS/Documents/DAVE_WS/1p_inverter_200V/Libraries/XMCLib/inc\xmc_can.h **** 
 376:C:/Users/VMORAIS/Documents/DAVE_WS/1p_inverter_200V/Libraries/XMCLib/inc\xmc_can.h **** /**
 377:C:/Users/VMORAIS/Documents/DAVE_WS/1p_inverter_200V/Libraries/XMCLib/inc\xmc_can.h ****  * Defines CAN Message Object event node pointer position. Use type \a XMC_CAN_MO_POINTER_EVENT_t f
 378:C:/Users/VMORAIS/Documents/DAVE_WS/1p_inverter_200V/Libraries/XMCLib/inc\xmc_can.h ****  */
 379:C:/Users/VMORAIS/Documents/DAVE_WS/1p_inverter_200V/Libraries/XMCLib/inc\xmc_can.h **** typedef enum XMC_CAN_MO_POINTER_EVENT
 380:C:/Users/VMORAIS/Documents/DAVE_WS/1p_inverter_200V/Libraries/XMCLib/inc\xmc_can.h **** {
 381:C:/Users/VMORAIS/Documents/DAVE_WS/1p_inverter_200V/Libraries/XMCLib/inc\xmc_can.h ****   XMC_CAN_MO_POINTER_EVENT_TRANSMIT = CAN_MO_MOIPR_TXINP_Pos,     /**< Transmit Event node pointer 
 382:C:/Users/VMORAIS/Documents/DAVE_WS/1p_inverter_200V/Libraries/XMCLib/inc\xmc_can.h ****   XMC_CAN_MO_POINTER_EVENT_RECEIVE = CAN_MO_MOIPR_RXINP_Pos       /**< Receive Event node pointer *
 383:C:/Users/VMORAIS/Documents/DAVE_WS/1p_inverter_200V/Libraries/XMCLib/inc\xmc_can.h **** } XMC_CAN_MO_POINTER_EVENT_t;
 384:C:/Users/VMORAIS/Documents/DAVE_WS/1p_inverter_200V/Libraries/XMCLib/inc\xmc_can.h **** 
 385:C:/Users/VMORAIS/Documents/DAVE_WS/1p_inverter_200V/Libraries/XMCLib/inc\xmc_can.h **** /**
 386:C:/Users/VMORAIS/Documents/DAVE_WS/1p_inverter_200V/Libraries/XMCLib/inc\xmc_can.h ****  * Defines mask value for CAN Message Object event type. Use type \a XMC_CAN_MO_EVENT_t for this en
 387:C:/Users/VMORAIS/Documents/DAVE_WS/1p_inverter_200V/Libraries/XMCLib/inc\xmc_can.h ****  */
 388:C:/Users/VMORAIS/Documents/DAVE_WS/1p_inverter_200V/Libraries/XMCLib/inc\xmc_can.h **** typedef enum XMC_CAN_MO_EVENT
 389:C:/Users/VMORAIS/Documents/DAVE_WS/1p_inverter_200V/Libraries/XMCLib/inc\xmc_can.h **** {
 390:C:/Users/VMORAIS/Documents/DAVE_WS/1p_inverter_200V/Libraries/XMCLib/inc\xmc_can.h ****   XMC_CAN_MO_EVENT_TRANSMIT = CAN_MO_MOFCR_TXIE_Msk,  /**< Message Object transmit event */
 391:C:/Users/VMORAIS/Documents/DAVE_WS/1p_inverter_200V/Libraries/XMCLib/inc\xmc_can.h ****   XMC_CAN_MO_EVENT_RECEIVE = CAN_MO_MOFCR_RXIE_Msk,   /**< Message Object receive event */
 392:C:/Users/VMORAIS/Documents/DAVE_WS/1p_inverter_200V/Libraries/XMCLib/inc\xmc_can.h ****   XMC_CAN_MO_EVENT_OVERFLOW = CAN_MO_MOFCR_OVIE_Msk,  /**< Message Object overflow event */
 393:C:/Users/VMORAIS/Documents/DAVE_WS/1p_inverter_200V/Libraries/XMCLib/inc\xmc_can.h **** } XMC_CAN_MO_EVENT_t;
 394:C:/Users/VMORAIS/Documents/DAVE_WS/1p_inverter_200V/Libraries/XMCLib/inc\xmc_can.h **** 
 395:C:/Users/VMORAIS/Documents/DAVE_WS/1p_inverter_200V/Libraries/XMCLib/inc\xmc_can.h **** /**
 396:C:/Users/VMORAIS/Documents/DAVE_WS/1p_inverter_200V/Libraries/XMCLib/inc\xmc_can.h ****  * Defines the possible receive inputs. Use type \a XMC_CAN_NODE_RECEIVE_INPUT_t for this enum.
 397:C:/Users/VMORAIS/Documents/DAVE_WS/1p_inverter_200V/Libraries/XMCLib/inc\xmc_can.h ****  */
 398:C:/Users/VMORAIS/Documents/DAVE_WS/1p_inverter_200V/Libraries/XMCLib/inc\xmc_can.h **** typedef enum XMC_CAN_NODE_RECEIVE_INPUT
 399:C:/Users/VMORAIS/Documents/DAVE_WS/1p_inverter_200V/Libraries/XMCLib/inc\xmc_can.h **** {
 400:C:/Users/VMORAIS/Documents/DAVE_WS/1p_inverter_200V/Libraries/XMCLib/inc\xmc_can.h ****   XMC_CAN_NODE_RECEIVE_INPUT_RXDCA, 	/**< CAN Receive Input A */
 401:C:/Users/VMORAIS/Documents/DAVE_WS/1p_inverter_200V/Libraries/XMCLib/inc\xmc_can.h ****   XMC_CAN_NODE_RECEIVE_INPUT_RXDCB,		/**< CAN Receive Input B */
 402:C:/Users/VMORAIS/Documents/DAVE_WS/1p_inverter_200V/Libraries/XMCLib/inc\xmc_can.h ****   XMC_CAN_NODE_RECEIVE_INPUT_RXDCC,		/**< CAN Receive Input C */
 403:C:/Users/VMORAIS/Documents/DAVE_WS/1p_inverter_200V/Libraries/XMCLib/inc\xmc_can.h ****   XMC_CAN_NODE_RECEIVE_INPUT_RXDCD,		/**< CAN Receive Input D */
 404:C:/Users/VMORAIS/Documents/DAVE_WS/1p_inverter_200V/Libraries/XMCLib/inc\xmc_can.h ****   XMC_CAN_NODE_RECEIVE_INPUT_RXDCE,		/**< CAN Receive Input E */
 405:C:/Users/VMORAIS/Documents/DAVE_WS/1p_inverter_200V/Libraries/XMCLib/inc\xmc_can.h ****   XMC_CAN_NODE_RECEIVE_INPUT_RXDCF,		/**< CAN Receive Input F */
 406:C:/Users/VMORAIS/Documents/DAVE_WS/1p_inverter_200V/Libraries/XMCLib/inc\xmc_can.h ****   XMC_CAN_NODE_RECEIVE_INPUT_RXDCG,		/**< CAN Receive Input G */
 407:C:/Users/VMORAIS/Documents/DAVE_WS/1p_inverter_200V/Libraries/XMCLib/inc\xmc_can.h ****   XMC_CAN_NODE_RECEIVE_INPUT_RXDCH		/**< CAN Receive Input H */
 408:C:/Users/VMORAIS/Documents/DAVE_WS/1p_inverter_200V/Libraries/XMCLib/inc\xmc_can.h **** } XMC_CAN_NODE_RECEIVE_INPUT_t;
 409:C:/Users/VMORAIS/Documents/DAVE_WS/1p_inverter_200V/Libraries/XMCLib/inc\xmc_can.h **** 
 410:C:/Users/VMORAIS/Documents/DAVE_WS/1p_inverter_200V/Libraries/XMCLib/inc\xmc_can.h **** /**
 411:C:/Users/VMORAIS/Documents/DAVE_WS/1p_inverter_200V/Libraries/XMCLib/inc\xmc_can.h ****  * Defines last error transfer direction. Use type \a XMC_CAN_NODE_LAST_ERROR_DIR_t for this enum.
 412:C:/Users/VMORAIS/Documents/DAVE_WS/1p_inverter_200V/Libraries/XMCLib/inc\xmc_can.h ****  */
 413:C:/Users/VMORAIS/Documents/DAVE_WS/1p_inverter_200V/Libraries/XMCLib/inc\xmc_can.h **** typedef enum XMC_CAN_NODE_LAST_ERROR_DIR
 414:C:/Users/VMORAIS/Documents/DAVE_WS/1p_inverter_200V/Libraries/XMCLib/inc\xmc_can.h **** {
 415:C:/Users/VMORAIS/Documents/DAVE_WS/1p_inverter_200V/Libraries/XMCLib/inc\xmc_can.h ****   XMC_CAN_NODE_LAST_ERROR_DIR_WHILE_NODE_RECEPCION,    /**< The last error occurred while the CAN n
 416:C:/Users/VMORAIS/Documents/DAVE_WS/1p_inverter_200V/Libraries/XMCLib/inc\xmc_can.h ****   XMC_CAN_NODE_LAST_ERROR_DIR_WHILE_NODE_TRANSMISSION  /**< The last error occurred while the CAN n
 417:C:/Users/VMORAIS/Documents/DAVE_WS/1p_inverter_200V/Libraries/XMCLib/inc\xmc_can.h **** } XMC_CAN_NODE_LAST_ERROR_DIR_t;
 418:C:/Users/VMORAIS/Documents/DAVE_WS/1p_inverter_200V/Libraries/XMCLib/inc\xmc_can.h **** 
 419:C:/Users/VMORAIS/Documents/DAVE_WS/1p_inverter_200V/Libraries/XMCLib/inc\xmc_can.h **** 
 420:C:/Users/VMORAIS/Documents/DAVE_WS/1p_inverter_200V/Libraries/XMCLib/inc\xmc_can.h **** /**
 421:C:/Users/VMORAIS/Documents/DAVE_WS/1p_inverter_200V/Libraries/XMCLib/inc\xmc_can.h ****  * Defines last error increment. Use type \a XMC_CAN_NODE_LAST_ERROR_INC_t for this enum.
 422:C:/Users/VMORAIS/Documents/DAVE_WS/1p_inverter_200V/Libraries/XMCLib/inc\xmc_can.h ****  */
 423:C:/Users/VMORAIS/Documents/DAVE_WS/1p_inverter_200V/Libraries/XMCLib/inc\xmc_can.h **** typedef enum XMC_CAN_NODE_LAST_ERROR_INC
 424:C:/Users/VMORAIS/Documents/DAVE_WS/1p_inverter_200V/Libraries/XMCLib/inc\xmc_can.h **** {
 425:C:/Users/VMORAIS/Documents/DAVE_WS/1p_inverter_200V/Libraries/XMCLib/inc\xmc_can.h ****   XMC_CAN_NODE_LAST_ERROR_INC_1, /**< The last error led to an error counter increment of 1. */
 426:C:/Users/VMORAIS/Documents/DAVE_WS/1p_inverter_200V/Libraries/XMCLib/inc\xmc_can.h ****   XMC_CAN_NODE_LAST_ERROR_INC_8  /**< The last error led to an error counter increment of 8. */
 427:C:/Users/VMORAIS/Documents/DAVE_WS/1p_inverter_200V/Libraries/XMCLib/inc\xmc_can.h **** } XMC_CAN_NODE_LAST_ERROR_INC_t;
 428:C:/Users/VMORAIS/Documents/DAVE_WS/1p_inverter_200V/Libraries/XMCLib/inc\xmc_can.h **** 
 429:C:/Users/VMORAIS/Documents/DAVE_WS/1p_inverter_200V/Libraries/XMCLib/inc\xmc_can.h **** /**
 430:C:/Users/VMORAIS/Documents/DAVE_WS/1p_inverter_200V/Libraries/XMCLib/inc\xmc_can.h ****  * Defines interrupt request on interrupt output line INT_O[n]. Use type \a XMC_CAN_NODE_INTERRUPT_
 431:C:/Users/VMORAIS/Documents/DAVE_WS/1p_inverter_200V/Libraries/XMCLib/inc\xmc_can.h ****  */
 432:C:/Users/VMORAIS/Documents/DAVE_WS/1p_inverter_200V/Libraries/XMCLib/inc\xmc_can.h **** typedef enum XMC_CAN_NODE_INTERRUPT_TRIGGER
 433:C:/Users/VMORAIS/Documents/DAVE_WS/1p_inverter_200V/Libraries/XMCLib/inc\xmc_can.h **** {
 434:C:/Users/VMORAIS/Documents/DAVE_WS/1p_inverter_200V/Libraries/XMCLib/inc\xmc_can.h ****   XMC_CAN_NODE_INTR_TRIGGER_0 = 0x1U,
 435:C:/Users/VMORAIS/Documents/DAVE_WS/1p_inverter_200V/Libraries/XMCLib/inc\xmc_can.h ****   XMC_CAN_NODE_INTR_TRIGGER_1 = 0x2U,
 436:C:/Users/VMORAIS/Documents/DAVE_WS/1p_inverter_200V/Libraries/XMCLib/inc\xmc_can.h ****   XMC_CAN_NODE_INTR_TRIGGER_2 = 0x4U,
 437:C:/Users/VMORAIS/Documents/DAVE_WS/1p_inverter_200V/Libraries/XMCLib/inc\xmc_can.h ****   XMC_CAN_NODE_INTR_TRIGGER_3 = 0x8U,
 438:C:/Users/VMORAIS/Documents/DAVE_WS/1p_inverter_200V/Libraries/XMCLib/inc\xmc_can.h ****   XMC_CAN_NODE_INTR_TRIGGER_4 = 0x16U,
 439:C:/Users/VMORAIS/Documents/DAVE_WS/1p_inverter_200V/Libraries/XMCLib/inc\xmc_can.h ****   XMC_CAN_NODE_INTR_TRIGGER_5 = 0x32U,
 440:C:/Users/VMORAIS/Documents/DAVE_WS/1p_inverter_200V/Libraries/XMCLib/inc\xmc_can.h ****   XMC_CAN_NODE_INTR_TRIGGER_6 = 0x64U,
 441:C:/Users/VMORAIS/Documents/DAVE_WS/1p_inverter_200V/Libraries/XMCLib/inc\xmc_can.h ****   XMC_CAN_NODE_INTR_TRIGGER_7 = 0x128U,
 442:C:/Users/VMORAIS/Documents/DAVE_WS/1p_inverter_200V/Libraries/XMCLib/inc\xmc_can.h **** } XMC_CAN_NODE_INTERRUPT_TRIGGER_t;
 443:C:/Users/VMORAIS/Documents/DAVE_WS/1p_inverter_200V/Libraries/XMCLib/inc\xmc_can.h **** 
 444:C:/Users/VMORAIS/Documents/DAVE_WS/1p_inverter_200V/Libraries/XMCLib/inc\xmc_can.h **** #if defined(MULTICAN_PLUS) || defined(DOXYGEN)
 445:C:/Users/VMORAIS/Documents/DAVE_WS/1p_inverter_200V/Libraries/XMCLib/inc\xmc_can.h **** /**
 446:C:/Users/VMORAIS/Documents/DAVE_WS/1p_inverter_200V/Libraries/XMCLib/inc\xmc_can.h ****  * Defines the Clock source used for the MCAN peripheral. @note Only available for XMC1400, XMC4800
 447:C:/Users/VMORAIS/Documents/DAVE_WS/1p_inverter_200V/Libraries/XMCLib/inc\xmc_can.h ****  */
 448:C:/Users/VMORAIS/Documents/DAVE_WS/1p_inverter_200V/Libraries/XMCLib/inc\xmc_can.h **** typedef enum XMC_CAN_CANCLKSRC
 449:C:/Users/VMORAIS/Documents/DAVE_WS/1p_inverter_200V/Libraries/XMCLib/inc\xmc_can.h **** {
 450:C:/Users/VMORAIS/Documents/DAVE_WS/1p_inverter_200V/Libraries/XMCLib/inc\xmc_can.h **** #if UC_FAMILY == XMC4
 451:C:/Users/VMORAIS/Documents/DAVE_WS/1p_inverter_200V/Libraries/XMCLib/inc\xmc_can.h ****   XMC_CAN_CANCLKSRC_FPERI = 0x1U,
 452:C:/Users/VMORAIS/Documents/DAVE_WS/1p_inverter_200V/Libraries/XMCLib/inc\xmc_can.h ****   XMC_CAN_CANCLKSRC_FOHP = 0x2U,
 453:C:/Users/VMORAIS/Documents/DAVE_WS/1p_inverter_200V/Libraries/XMCLib/inc\xmc_can.h **** #else
 454:C:/Users/VMORAIS/Documents/DAVE_WS/1p_inverter_200V/Libraries/XMCLib/inc\xmc_can.h ****   XMC_CAN_CANCLKSRC_MCLK = 0x1U,
 455:C:/Users/VMORAIS/Documents/DAVE_WS/1p_inverter_200V/Libraries/XMCLib/inc\xmc_can.h ****   XMC_CAN_CANCLKSRC_FOHP = 0x2U
 456:C:/Users/VMORAIS/Documents/DAVE_WS/1p_inverter_200V/Libraries/XMCLib/inc\xmc_can.h **** #endif
 457:C:/Users/VMORAIS/Documents/DAVE_WS/1p_inverter_200V/Libraries/XMCLib/inc\xmc_can.h **** } XMC_CAN_CANCLKSRC_t;
 458:C:/Users/VMORAIS/Documents/DAVE_WS/1p_inverter_200V/Libraries/XMCLib/inc\xmc_can.h **** #endif
 459:C:/Users/VMORAIS/Documents/DAVE_WS/1p_inverter_200V/Libraries/XMCLib/inc\xmc_can.h **** 
 460:C:/Users/VMORAIS/Documents/DAVE_WS/1p_inverter_200V/Libraries/XMCLib/inc\xmc_can.h **** /**************************************************************************************************
 461:C:/Users/VMORAIS/Documents/DAVE_WS/1p_inverter_200V/Libraries/XMCLib/inc\xmc_can.h ****  * DATA STRUCTURES
 462:C:/Users/VMORAIS/Documents/DAVE_WS/1p_inverter_200V/Libraries/XMCLib/inc\xmc_can.h ****  **************************************************************************************************
 463:C:/Users/VMORAIS/Documents/DAVE_WS/1p_inverter_200V/Libraries/XMCLib/inc\xmc_can.h **** /**
 464:C:/Users/VMORAIS/Documents/DAVE_WS/1p_inverter_200V/Libraries/XMCLib/inc\xmc_can.h ****  * Defines CAN node Nominal Bit Time. Use type \a XMC_CAN_NODE_NOMINAL_BIT_TIME_CONFIG_t for this s
 465:C:/Users/VMORAIS/Documents/DAVE_WS/1p_inverter_200V/Libraries/XMCLib/inc\xmc_can.h **** */
 466:C:/Users/VMORAIS/Documents/DAVE_WS/1p_inverter_200V/Libraries/XMCLib/inc\xmc_can.h **** typedef struct XMC_CAN_NODE_NOMINAL_BIT_TIME_CONFIG
 467:C:/Users/VMORAIS/Documents/DAVE_WS/1p_inverter_200V/Libraries/XMCLib/inc\xmc_can.h **** {
 468:C:/Users/VMORAIS/Documents/DAVE_WS/1p_inverter_200V/Libraries/XMCLib/inc\xmc_can.h ****   uint32_t can_frequency;       /**< Frequency of the CAN module(fCAN). \a can_frequency shall be r
 469:C:/Users/VMORAIS/Documents/DAVE_WS/1p_inverter_200V/Libraries/XMCLib/inc\xmc_can.h ****   uint32_t baudrate;        	/**< Specifies the node baud rate. Unit: baud \a baudrate shall be ran
 470:C:/Users/VMORAIS/Documents/DAVE_WS/1p_inverter_200V/Libraries/XMCLib/inc\xmc_can.h ****   uint16_t sample_point;    	/**< Sample point is used to compensate mismatch between transmitter a
 471:C:/Users/VMORAIS/Documents/DAVE_WS/1p_inverter_200V/Libraries/XMCLib/inc\xmc_can.h **** 									 the synchronization segment. Sample point. Range = [0, 10000] with respect [0%, 100%] of 
 472:C:/Users/VMORAIS/Documents/DAVE_WS/1p_inverter_200V/Libraries/XMCLib/inc\xmc_can.h ****   uint16_t sjw;             	/**< (Re) Synchronization Jump Width. Range:0-3 */
 473:C:/Users/VMORAIS/Documents/DAVE_WS/1p_inverter_200V/Libraries/XMCLib/inc\xmc_can.h **** } XMC_CAN_NODE_NOMINAL_BIT_TIME_CONFIG_t;
 474:C:/Users/VMORAIS/Documents/DAVE_WS/1p_inverter_200V/Libraries/XMCLib/inc\xmc_can.h **** 
 475:C:/Users/VMORAIS/Documents/DAVE_WS/1p_inverter_200V/Libraries/XMCLib/inc\xmc_can.h **** /**
 476:C:/Users/VMORAIS/Documents/DAVE_WS/1p_inverter_200V/Libraries/XMCLib/inc\xmc_can.h ****  * Defines base, top and bottom of CAN Message Object FIFO Structure. Use type \a XMC_CAN_FIFO_CONF
 477:C:/Users/VMORAIS/Documents/DAVE_WS/1p_inverter_200V/Libraries/XMCLib/inc\xmc_can.h ****  * A FIFO consists of one base object and n slave objects.
 478:C:/Users/VMORAIS/Documents/DAVE_WS/1p_inverter_200V/Libraries/XMCLib/inc\xmc_can.h ****  */
 479:C:/Users/VMORAIS/Documents/DAVE_WS/1p_inverter_200V/Libraries/XMCLib/inc\xmc_can.h **** typedef struct XMC_CAN_FIFO_CONFIG
 480:C:/Users/VMORAIS/Documents/DAVE_WS/1p_inverter_200V/Libraries/XMCLib/inc\xmc_can.h **** {
 481:C:/Users/VMORAIS/Documents/DAVE_WS/1p_inverter_200V/Libraries/XMCLib/inc\xmc_can.h ****   uint8_t fifo_bottom;		/**< points to the first element(slave object) in a FIFO structure.Range :0
 482:C:/Users/VMORAIS/Documents/DAVE_WS/1p_inverter_200V/Libraries/XMCLib/inc\xmc_can.h ****   uint8_t fifo_top;			/**< points to the last element(slave object) in a FIFO structure. Range :0-6
 483:C:/Users/VMORAIS/Documents/DAVE_WS/1p_inverter_200V/Libraries/XMCLib/inc\xmc_can.h ****   uint8_t fifo_base;		/**< points to the actual target object(Base object) within a FIFO/Gateway st
 484:C:/Users/VMORAIS/Documents/DAVE_WS/1p_inverter_200V/Libraries/XMCLib/inc\xmc_can.h **** } XMC_CAN_FIFO_CONFIG_t;
 485:C:/Users/VMORAIS/Documents/DAVE_WS/1p_inverter_200V/Libraries/XMCLib/inc\xmc_can.h **** 
 486:C:/Users/VMORAIS/Documents/DAVE_WS/1p_inverter_200V/Libraries/XMCLib/inc\xmc_can.h **** /**
 487:C:/Users/VMORAIS/Documents/DAVE_WS/1p_inverter_200V/Libraries/XMCLib/inc\xmc_can.h ****  * Defines CAN Gateway FIFO structure and provides additional options for gateway destination objec
 488:C:/Users/VMORAIS/Documents/DAVE_WS/1p_inverter_200V/Libraries/XMCLib/inc\xmc_can.h ****  * Use type \a XMC_CAN_GATEWAY_CONFIG_t for this structure.
 489:C:/Users/VMORAIS/Documents/DAVE_WS/1p_inverter_200V/Libraries/XMCLib/inc\xmc_can.h ****  */
 490:C:/Users/VMORAIS/Documents/DAVE_WS/1p_inverter_200V/Libraries/XMCLib/inc\xmc_can.h **** typedef struct XMC_CAN_GATEWAY_CONFIG
 491:C:/Users/VMORAIS/Documents/DAVE_WS/1p_inverter_200V/Libraries/XMCLib/inc\xmc_can.h **** {
 492:C:/Users/VMORAIS/Documents/DAVE_WS/1p_inverter_200V/Libraries/XMCLib/inc\xmc_can.h ****   uint8_t gateway_bottom; 			/**< points to the first element(gateway destination object) in a FIFO
 493:C:/Users/VMORAIS/Documents/DAVE_WS/1p_inverter_200V/Libraries/XMCLib/inc\xmc_can.h ****   uint8_t gateway_top;				/**< points to the last element(gateway destination object) in a FIFO str
 494:C:/Users/VMORAIS/Documents/DAVE_WS/1p_inverter_200V/Libraries/XMCLib/inc\xmc_can.h ****   uint8_t gateway_base;				/**< points to the actual target object within a FIFO/Gateway structure.
 495:C:/Users/VMORAIS/Documents/DAVE_WS/1p_inverter_200V/Libraries/XMCLib/inc\xmc_can.h ****   bool gateway_data_frame_send;		/**< TXRQ updated in the gateway destination object after the inte
 496:C:/Users/VMORAIS/Documents/DAVE_WS/1p_inverter_200V/Libraries/XMCLib/inc\xmc_can.h ****   	  	  	  	  	  	  	  	  	  	 to the gateway destination object */
 497:C:/Users/VMORAIS/Documents/DAVE_WS/1p_inverter_200V/Libraries/XMCLib/inc\xmc_can.h ****   bool gateway_identifier_copy;		/**< The identifier of the gateway source object (after storing th
 498:C:/Users/VMORAIS/Documents/DAVE_WS/1p_inverter_200V/Libraries/XMCLib/inc\xmc_can.h ****   	  	  	  	  	  	  	  	  	  	 to the gateway destination object. */
 499:C:/Users/VMORAIS/Documents/DAVE_WS/1p_inverter_200V/Libraries/XMCLib/inc\xmc_can.h **** 
 500:C:/Users/VMORAIS/Documents/DAVE_WS/1p_inverter_200V/Libraries/XMCLib/inc\xmc_can.h ****   bool gateway_data_length_code_copy; /**< Data length code of the gateway source object (after sto
 501:C:/Users/VMORAIS/Documents/DAVE_WS/1p_inverter_200V/Libraries/XMCLib/inc\xmc_can.h ****   	  	  	  	  	  	  	  	  	  	   gateway destination object */
 502:C:/Users/VMORAIS/Documents/DAVE_WS/1p_inverter_200V/Libraries/XMCLib/inc\xmc_can.h ****   bool gateway_data_copy;  /**< Data fields in registers MODATALn and MODATAHn of the gateway sourc
 503:C:/Users/VMORAIS/Documents/DAVE_WS/1p_inverter_200V/Libraries/XMCLib/inc\xmc_can.h ****   	  	  	  	  	  	  	  	are copied to the gateway destination.*/
 504:C:/Users/VMORAIS/Documents/DAVE_WS/1p_inverter_200V/Libraries/XMCLib/inc\xmc_can.h **** 
 505:C:/Users/VMORAIS/Documents/DAVE_WS/1p_inverter_200V/Libraries/XMCLib/inc\xmc_can.h **** } XMC_CAN_GATEWAY_CONFIG_t;
 506:C:/Users/VMORAIS/Documents/DAVE_WS/1p_inverter_200V/Libraries/XMCLib/inc\xmc_can.h **** 
 507:C:/Users/VMORAIS/Documents/DAVE_WS/1p_inverter_200V/Libraries/XMCLib/inc\xmc_can.h **** /**
 508:C:/Users/VMORAIS/Documents/DAVE_WS/1p_inverter_200V/Libraries/XMCLib/inc\xmc_can.h **** * Defines CAN Global Initialization structure
 509:C:/Users/VMORAIS/Documents/DAVE_WS/1p_inverter_200V/Libraries/XMCLib/inc\xmc_can.h **** */
 510:C:/Users/VMORAIS/Documents/DAVE_WS/1p_inverter_200V/Libraries/XMCLib/inc\xmc_can.h **** typedef CAN_GLOBAL_TypeDef XMC_CAN_t;
 511:C:/Users/VMORAIS/Documents/DAVE_WS/1p_inverter_200V/Libraries/XMCLib/inc\xmc_can.h **** 
 512:C:/Users/VMORAIS/Documents/DAVE_WS/1p_inverter_200V/Libraries/XMCLib/inc\xmc_can.h **** /*Anonymous structure/union guard start*/
 513:C:/Users/VMORAIS/Documents/DAVE_WS/1p_inverter_200V/Libraries/XMCLib/inc\xmc_can.h **** #if defined(__CC_ARM)
 514:C:/Users/VMORAIS/Documents/DAVE_WS/1p_inverter_200V/Libraries/XMCLib/inc\xmc_can.h ****   #pragma push
 515:C:/Users/VMORAIS/Documents/DAVE_WS/1p_inverter_200V/Libraries/XMCLib/inc\xmc_can.h ****   #pragma anon_unions
 516:C:/Users/VMORAIS/Documents/DAVE_WS/1p_inverter_200V/Libraries/XMCLib/inc\xmc_can.h **** #elif defined(__TASKING__)
 517:C:/Users/VMORAIS/Documents/DAVE_WS/1p_inverter_200V/Libraries/XMCLib/inc\xmc_can.h ****   #pragma warning 586
 518:C:/Users/VMORAIS/Documents/DAVE_WS/1p_inverter_200V/Libraries/XMCLib/inc\xmc_can.h **** #endif
 519:C:/Users/VMORAIS/Documents/DAVE_WS/1p_inverter_200V/Libraries/XMCLib/inc\xmc_can.h **** 
 520:C:/Users/VMORAIS/Documents/DAVE_WS/1p_inverter_200V/Libraries/XMCLib/inc\xmc_can.h **** /**
 521:C:/Users/VMORAIS/Documents/DAVE_WS/1p_inverter_200V/Libraries/XMCLib/inc\xmc_can.h ****  * Defines frame counter configuration. Use type \a XMC_CAN_NODE_FRAME_COUNTER_t for this structure
 522:C:/Users/VMORAIS/Documents/DAVE_WS/1p_inverter_200V/Libraries/XMCLib/inc\xmc_can.h ****  * It provides configuration of frame counter that counts transmitted/received CAN frames or obtain
 523:C:/Users/VMORAIS/Documents/DAVE_WS/1p_inverter_200V/Libraries/XMCLib/inc\xmc_can.h ****  * when a frame has been started to transmit or be received by the CAN node.
 524:C:/Users/VMORAIS/Documents/DAVE_WS/1p_inverter_200V/Libraries/XMCLib/inc\xmc_can.h **** */
 525:C:/Users/VMORAIS/Documents/DAVE_WS/1p_inverter_200V/Libraries/XMCLib/inc\xmc_can.h **** typedef struct XMC_CAN_NODE_FRAME_COUNTER
 526:C:/Users/VMORAIS/Documents/DAVE_WS/1p_inverter_200V/Libraries/XMCLib/inc\xmc_can.h **** {
 527:C:/Users/VMORAIS/Documents/DAVE_WS/1p_inverter_200V/Libraries/XMCLib/inc\xmc_can.h **** 
 528:C:/Users/VMORAIS/Documents/DAVE_WS/1p_inverter_200V/Libraries/XMCLib/inc\xmc_can.h ****   union{
 529:C:/Users/VMORAIS/Documents/DAVE_WS/1p_inverter_200V/Libraries/XMCLib/inc\xmc_can.h **** 	  struct{
 530:C:/Users/VMORAIS/Documents/DAVE_WS/1p_inverter_200V/Libraries/XMCLib/inc\xmc_can.h **** 		  uint32_t : 16;
 531:C:/Users/VMORAIS/Documents/DAVE_WS/1p_inverter_200V/Libraries/XMCLib/inc\xmc_can.h **** 		  uint32_t can_frame_count_selection:3;		/**<   Defines function of the frame counter  */
 532:C:/Users/VMORAIS/Documents/DAVE_WS/1p_inverter_200V/Libraries/XMCLib/inc\xmc_can.h **** 		  uint32_t can_frame_count_mode:2;			/**<   Determines the operation mode of the frame counter */
 533:C:/Users/VMORAIS/Documents/DAVE_WS/1p_inverter_200V/Libraries/XMCLib/inc\xmc_can.h **** 		  uint32_t : 11;
 534:C:/Users/VMORAIS/Documents/DAVE_WS/1p_inverter_200V/Libraries/XMCLib/inc\xmc_can.h **** 	  };
 535:C:/Users/VMORAIS/Documents/DAVE_WS/1p_inverter_200V/Libraries/XMCLib/inc\xmc_can.h **** 	  uint32_t nfcr;
 536:C:/Users/VMORAIS/Documents/DAVE_WS/1p_inverter_200V/Libraries/XMCLib/inc\xmc_can.h **** 
 537:C:/Users/VMORAIS/Documents/DAVE_WS/1p_inverter_200V/Libraries/XMCLib/inc\xmc_can.h ****   };
 538:C:/Users/VMORAIS/Documents/DAVE_WS/1p_inverter_200V/Libraries/XMCLib/inc\xmc_can.h **** } XMC_CAN_NODE_FRAME_COUNTER_t;
 539:C:/Users/VMORAIS/Documents/DAVE_WS/1p_inverter_200V/Libraries/XMCLib/inc\xmc_can.h **** 
 540:C:/Users/VMORAIS/Documents/DAVE_WS/1p_inverter_200V/Libraries/XMCLib/inc\xmc_can.h **** /**
 541:C:/Users/VMORAIS/Documents/DAVE_WS/1p_inverter_200V/Libraries/XMCLib/inc\xmc_can.h ****  *Defines Node Runtime structure.
 542:C:/Users/VMORAIS/Documents/DAVE_WS/1p_inverter_200V/Libraries/XMCLib/inc\xmc_can.h **** */
 543:C:/Users/VMORAIS/Documents/DAVE_WS/1p_inverter_200V/Libraries/XMCLib/inc\xmc_can.h **** typedef CAN_NODE_TypeDef  XMC_CAN_NODE_t;            /**<  pointer to the Node CAN register */
 544:C:/Users/VMORAIS/Documents/DAVE_WS/1p_inverter_200V/Libraries/XMCLib/inc\xmc_can.h **** 
 545:C:/Users/VMORAIS/Documents/DAVE_WS/1p_inverter_200V/Libraries/XMCLib/inc\xmc_can.h **** /**
 546:C:/Users/VMORAIS/Documents/DAVE_WS/1p_inverter_200V/Libraries/XMCLib/inc\xmc_can.h ****  * Defines CAN Message Object runtime elements. Use type \a XMC_CAN_MO_t for this structure.
 547:C:/Users/VMORAIS/Documents/DAVE_WS/1p_inverter_200V/Libraries/XMCLib/inc\xmc_can.h ****  */
 548:C:/Users/VMORAIS/Documents/DAVE_WS/1p_inverter_200V/Libraries/XMCLib/inc\xmc_can.h **** typedef struct XMC_CAN_MO
 549:C:/Users/VMORAIS/Documents/DAVE_WS/1p_inverter_200V/Libraries/XMCLib/inc\xmc_can.h **** {
 550:C:/Users/VMORAIS/Documents/DAVE_WS/1p_inverter_200V/Libraries/XMCLib/inc\xmc_can.h **** 	CAN_MO_TypeDef *can_mo_ptr;                     /**< Pointer to the Message Object CAN register */
 551:C:/Users/VMORAIS/Documents/DAVE_WS/1p_inverter_200V/Libraries/XMCLib/inc\xmc_can.h **** 	union{
 552:C:/Users/VMORAIS/Documents/DAVE_WS/1p_inverter_200V/Libraries/XMCLib/inc\xmc_can.h **** 		struct{
 553:C:/Users/VMORAIS/Documents/DAVE_WS/1p_inverter_200V/Libraries/XMCLib/inc\xmc_can.h **** 			uint32_t can_identifier:29;            /**< standard (11 bit)/Extended (29 bit) message identifi
 554:C:/Users/VMORAIS/Documents/DAVE_WS/1p_inverter_200V/Libraries/XMCLib/inc\xmc_can.h **** 			uint32_t can_id_mode:1;                /**< Standard/Extended identifier support */
 555:C:/Users/VMORAIS/Documents/DAVE_WS/1p_inverter_200V/Libraries/XMCLib/inc\xmc_can.h **** 			uint32_t can_priority:2;               /**< Arbitration Mode/Priority */
 556:C:/Users/VMORAIS/Documents/DAVE_WS/1p_inverter_200V/Libraries/XMCLib/inc\xmc_can.h **** 		};
 557:C:/Users/VMORAIS/Documents/DAVE_WS/1p_inverter_200V/Libraries/XMCLib/inc\xmc_can.h **** 		uint32_t mo_ar;
 558:C:/Users/VMORAIS/Documents/DAVE_WS/1p_inverter_200V/Libraries/XMCLib/inc\xmc_can.h **** 	};
 559:C:/Users/VMORAIS/Documents/DAVE_WS/1p_inverter_200V/Libraries/XMCLib/inc\xmc_can.h **** 	union{
 560:C:/Users/VMORAIS/Documents/DAVE_WS/1p_inverter_200V/Libraries/XMCLib/inc\xmc_can.h **** 		struct{
 561:C:/Users/VMORAIS/Documents/DAVE_WS/1p_inverter_200V/Libraries/XMCLib/inc\xmc_can.h **** 			uint32_t can_id_mask:29;              /**< CAN Identifier of Message Object */
 562:C:/Users/VMORAIS/Documents/DAVE_WS/1p_inverter_200V/Libraries/XMCLib/inc\xmc_can.h **** 			uint32_t can_ide_mask:1;              /**< Identifier Extension Bit of Message Object */
 563:C:/Users/VMORAIS/Documents/DAVE_WS/1p_inverter_200V/Libraries/XMCLib/inc\xmc_can.h **** 		};
 564:C:/Users/VMORAIS/Documents/DAVE_WS/1p_inverter_200V/Libraries/XMCLib/inc\xmc_can.h **** 		uint32_t mo_amr;
 565:C:/Users/VMORAIS/Documents/DAVE_WS/1p_inverter_200V/Libraries/XMCLib/inc\xmc_can.h **** 	};
 566:C:/Users/VMORAIS/Documents/DAVE_WS/1p_inverter_200V/Libraries/XMCLib/inc\xmc_can.h ****   uint8_t can_data_length;                        /**< Message data length, Range:0-8 */
 567:C:/Users/VMORAIS/Documents/DAVE_WS/1p_inverter_200V/Libraries/XMCLib/inc\xmc_can.h **** 
 568:C:/Users/VMORAIS/Documents/DAVE_WS/1p_inverter_200V/Libraries/XMCLib/inc\xmc_can.h ****   union{
 569:C:/Users/VMORAIS/Documents/DAVE_WS/1p_inverter_200V/Libraries/XMCLib/inc\xmc_can.h **** 
 570:C:/Users/VMORAIS/Documents/DAVE_WS/1p_inverter_200V/Libraries/XMCLib/inc\xmc_can.h ****   		uint8_t can_data_byte[8];                 /**< Each position of the array represents a data byt
 571:C:/Users/VMORAIS/Documents/DAVE_WS/1p_inverter_200V/Libraries/XMCLib/inc\xmc_can.h ****   		uint16_t can_data_word[4];                /**< Each position of the array represents a 16 bits 
 572:C:/Users/VMORAIS/Documents/DAVE_WS/1p_inverter_200V/Libraries/XMCLib/inc\xmc_can.h ****   		uint32_t can_data[2];                     /**< can_data[0] lower 4 bytes of the data. can_data[
 573:C:/Users/VMORAIS/Documents/DAVE_WS/1p_inverter_200V/Libraries/XMCLib/inc\xmc_can.h ****   		 	 	 	 	 	 	 	 	 	 	    of the data */
 574:C:/Users/VMORAIS/Documents/DAVE_WS/1p_inverter_200V/Libraries/XMCLib/inc\xmc_can.h ****   		uint64_t can_data_long;                   /** Data of the Message Object*/
 575:C:/Users/VMORAIS/Documents/DAVE_WS/1p_inverter_200V/Libraries/XMCLib/inc\xmc_can.h ****   	  };
 576:C:/Users/VMORAIS/Documents/DAVE_WS/1p_inverter_200V/Libraries/XMCLib/inc\xmc_can.h **** 
 577:C:/Users/VMORAIS/Documents/DAVE_WS/1p_inverter_200V/Libraries/XMCLib/inc\xmc_can.h ****   XMC_CAN_MO_TYPE_t can_mo_type;                  /**<  Message Type */
 578:C:/Users/VMORAIS/Documents/DAVE_WS/1p_inverter_200V/Libraries/XMCLib/inc\xmc_can.h **** 
 579:C:/Users/VMORAIS/Documents/DAVE_WS/1p_inverter_200V/Libraries/XMCLib/inc\xmc_can.h **** } XMC_CAN_MO_t;
 580:C:/Users/VMORAIS/Documents/DAVE_WS/1p_inverter_200V/Libraries/XMCLib/inc\xmc_can.h **** /*Anonymous structure/union guard end*/
 581:C:/Users/VMORAIS/Documents/DAVE_WS/1p_inverter_200V/Libraries/XMCLib/inc\xmc_can.h **** #if defined(__CC_ARM)
 582:C:/Users/VMORAIS/Documents/DAVE_WS/1p_inverter_200V/Libraries/XMCLib/inc\xmc_can.h ****   #pragma pop
 583:C:/Users/VMORAIS/Documents/DAVE_WS/1p_inverter_200V/Libraries/XMCLib/inc\xmc_can.h **** #elif defined(__TASKING__)
 584:C:/Users/VMORAIS/Documents/DAVE_WS/1p_inverter_200V/Libraries/XMCLib/inc\xmc_can.h ****   #pragma warning restore
 585:C:/Users/VMORAIS/Documents/DAVE_WS/1p_inverter_200V/Libraries/XMCLib/inc\xmc_can.h **** #endif
 586:C:/Users/VMORAIS/Documents/DAVE_WS/1p_inverter_200V/Libraries/XMCLib/inc\xmc_can.h **** /**************************************************************************************************
 587:C:/Users/VMORAIS/Documents/DAVE_WS/1p_inverter_200V/Libraries/XMCLib/inc\xmc_can.h ****  * API Prototypes
 588:C:/Users/VMORAIS/Documents/DAVE_WS/1p_inverter_200V/Libraries/XMCLib/inc\xmc_can.h ****  **************************************************************************************************
 589:C:/Users/VMORAIS/Documents/DAVE_WS/1p_inverter_200V/Libraries/XMCLib/inc\xmc_can.h **** #ifdef __cplusplus
 590:C:/Users/VMORAIS/Documents/DAVE_WS/1p_inverter_200V/Libraries/XMCLib/inc\xmc_can.h **** extern "C" {
 591:C:/Users/VMORAIS/Documents/DAVE_WS/1p_inverter_200V/Libraries/XMCLib/inc\xmc_can.h **** #endif
 592:C:/Users/VMORAIS/Documents/DAVE_WS/1p_inverter_200V/Libraries/XMCLib/inc\xmc_can.h **** 
 593:C:/Users/VMORAIS/Documents/DAVE_WS/1p_inverter_200V/Libraries/XMCLib/inc\xmc_can.h **** /**
 594:C:/Users/VMORAIS/Documents/DAVE_WS/1p_inverter_200V/Libraries/XMCLib/inc\xmc_can.h ****  *
 595:C:/Users/VMORAIS/Documents/DAVE_WS/1p_inverter_200V/Libraries/XMCLib/inc\xmc_can.h ****  * @param obj	Pointer pointing to XMC_CAN Global Initialization structure. Defines CAN global regis
 596:C:/Users/VMORAIS/Documents/DAVE_WS/1p_inverter_200V/Libraries/XMCLib/inc\xmc_can.h ****  * 				for details.
 597:C:/Users/VMORAIS/Documents/DAVE_WS/1p_inverter_200V/Libraries/XMCLib/inc\xmc_can.h ****  *
 598:C:/Users/VMORAIS/Documents/DAVE_WS/1p_inverter_200V/Libraries/XMCLib/inc\xmc_can.h ****  * @return None
 599:C:/Users/VMORAIS/Documents/DAVE_WS/1p_inverter_200V/Libraries/XMCLib/inc\xmc_can.h ****  *
 600:C:/Users/VMORAIS/Documents/DAVE_WS/1p_inverter_200V/Libraries/XMCLib/inc\xmc_can.h ****  * \par<b>Description:</b><br>
 601:C:/Users/VMORAIS/Documents/DAVE_WS/1p_inverter_200V/Libraries/XMCLib/inc\xmc_can.h ****  *  Disables CAN module. In disabled state, no registers of CAN module can be read or written excep
 602:C:/Users/VMORAIS/Documents/DAVE_WS/1p_inverter_200V/Libraries/XMCLib/inc\xmc_can.h ****  *
 603:C:/Users/VMORAIS/Documents/DAVE_WS/1p_inverter_200V/Libraries/XMCLib/inc\xmc_can.h ****  * \par<b>Related APIs:</b><BR>
 604:C:/Users/VMORAIS/Documents/DAVE_WS/1p_inverter_200V/Libraries/XMCLib/inc\xmc_can.h ****  * XMC_CAN_Enable()\n\n\n
 605:C:/Users/VMORAIS/Documents/DAVE_WS/1p_inverter_200V/Libraries/XMCLib/inc\xmc_can.h ****  *
 606:C:/Users/VMORAIS/Documents/DAVE_WS/1p_inverter_200V/Libraries/XMCLib/inc\xmc_can.h ****  */
 607:C:/Users/VMORAIS/Documents/DAVE_WS/1p_inverter_200V/Libraries/XMCLib/inc\xmc_can.h **** 
 608:C:/Users/VMORAIS/Documents/DAVE_WS/1p_inverter_200V/Libraries/XMCLib/inc\xmc_can.h **** void XMC_CAN_Disable(XMC_CAN_t *const obj);
 609:C:/Users/VMORAIS/Documents/DAVE_WS/1p_inverter_200V/Libraries/XMCLib/inc\xmc_can.h **** 
 610:C:/Users/VMORAIS/Documents/DAVE_WS/1p_inverter_200V/Libraries/XMCLib/inc\xmc_can.h **** /**
 611:C:/Users/VMORAIS/Documents/DAVE_WS/1p_inverter_200V/Libraries/XMCLib/inc\xmc_can.h ****  *
 612:C:/Users/VMORAIS/Documents/DAVE_WS/1p_inverter_200V/Libraries/XMCLib/inc\xmc_can.h ****  * @param obj Pointer pointing to XMC_CAN Global Initialization structure. Defines CAN global regis
 613:C:/Users/VMORAIS/Documents/DAVE_WS/1p_inverter_200V/Libraries/XMCLib/inc\xmc_can.h ****  * 			   for details.
 614:C:/Users/VMORAIS/Documents/DAVE_WS/1p_inverter_200V/Libraries/XMCLib/inc\xmc_can.h ****  *
 615:C:/Users/VMORAIS/Documents/DAVE_WS/1p_inverter_200V/Libraries/XMCLib/inc\xmc_can.h ****  * @return None
 616:C:/Users/VMORAIS/Documents/DAVE_WS/1p_inverter_200V/Libraries/XMCLib/inc\xmc_can.h ****  *
 617:C:/Users/VMORAIS/Documents/DAVE_WS/1p_inverter_200V/Libraries/XMCLib/inc\xmc_can.h ****  * \par<b>Description:</b><br>
 618:C:/Users/VMORAIS/Documents/DAVE_WS/1p_inverter_200V/Libraries/XMCLib/inc\xmc_can.h ****  *  Enables CAN module and initializes all CAN registers to reset values. It is required to re-conf
 619:C:/Users/VMORAIS/Documents/DAVE_WS/1p_inverter_200V/Libraries/XMCLib/inc\xmc_can.h ****  *  before any data transfer. It configures CAN_CLC.DISR bit.
 620:C:/Users/VMORAIS/Documents/DAVE_WS/1p_inverter_200V/Libraries/XMCLib/inc\xmc_can.h ****  *
 621:C:/Users/VMORAIS/Documents/DAVE_WS/1p_inverter_200V/Libraries/XMCLib/inc\xmc_can.h ****  * \par<b>Related APIs:</b><BR>
 622:C:/Users/VMORAIS/Documents/DAVE_WS/1p_inverter_200V/Libraries/XMCLib/inc\xmc_can.h ****  *  XMC_CAN_Disable()\n\n\n
 623:C:/Users/VMORAIS/Documents/DAVE_WS/1p_inverter_200V/Libraries/XMCLib/inc\xmc_can.h ****  *
 624:C:/Users/VMORAIS/Documents/DAVE_WS/1p_inverter_200V/Libraries/XMCLib/inc\xmc_can.h ****  */
 625:C:/Users/VMORAIS/Documents/DAVE_WS/1p_inverter_200V/Libraries/XMCLib/inc\xmc_can.h **** 
 626:C:/Users/VMORAIS/Documents/DAVE_WS/1p_inverter_200V/Libraries/XMCLib/inc\xmc_can.h **** void XMC_CAN_Enable(XMC_CAN_t *const obj);
 627:C:/Users/VMORAIS/Documents/DAVE_WS/1p_inverter_200V/Libraries/XMCLib/inc\xmc_can.h **** 
 628:C:/Users/VMORAIS/Documents/DAVE_WS/1p_inverter_200V/Libraries/XMCLib/inc\xmc_can.h **** /**
 629:C:/Users/VMORAIS/Documents/DAVE_WS/1p_inverter_200V/Libraries/XMCLib/inc\xmc_can.h ****  *
 630:C:/Users/VMORAIS/Documents/DAVE_WS/1p_inverter_200V/Libraries/XMCLib/inc\xmc_can.h ****  * @param obj Pointer pointing to XMC_CAN Global Initialization structure. Defines CAN global regis
 631:C:/Users/VMORAIS/Documents/DAVE_WS/1p_inverter_200V/Libraries/XMCLib/inc\xmc_can.h ****  * 		   for details.
 632:C:/Users/VMORAIS/Documents/DAVE_WS/1p_inverter_200V/Libraries/XMCLib/inc\xmc_can.h ****  *
 633:C:/Users/VMORAIS/Documents/DAVE_WS/1p_inverter_200V/Libraries/XMCLib/inc\xmc_can.h ****  * @param node_num	CAN node number,Range : 0-2
 634:C:/Users/VMORAIS/Documents/DAVE_WS/1p_inverter_200V/Libraries/XMCLib/inc\xmc_can.h ****  * @param mo_num 	CAN Message Object number,Range : 0-63
 635:C:/Users/VMORAIS/Documents/DAVE_WS/1p_inverter_200V/Libraries/XMCLib/inc\xmc_can.h ****  *
 636:C:/Users/VMORAIS/Documents/DAVE_WS/1p_inverter_200V/Libraries/XMCLib/inc\xmc_can.h ****  * @return None
 637:C:/Users/VMORAIS/Documents/DAVE_WS/1p_inverter_200V/Libraries/XMCLib/inc\xmc_can.h ****  *
 638:C:/Users/VMORAIS/Documents/DAVE_WS/1p_inverter_200V/Libraries/XMCLib/inc\xmc_can.h ****  * \par<b>Description:</b><br>
 639:C:/Users/VMORAIS/Documents/DAVE_WS/1p_inverter_200V/Libraries/XMCLib/inc\xmc_can.h ****  *  Allocates Message Object from free list to node list. Each \a node_num is linked to one unique 
 640:C:/Users/VMORAIS/Documents/DAVE_WS/1p_inverter_200V/Libraries/XMCLib/inc\xmc_can.h ****  *  A CAN node performs message transfer only with the \a mo_num message objects that are allocated
 641:C:/Users/VMORAIS/Documents/DAVE_WS/1p_inverter_200V/Libraries/XMCLib/inc\xmc_can.h ****  *  It configures PANCTR register.
 642:C:/Users/VMORAIS/Documents/DAVE_WS/1p_inverter_200V/Libraries/XMCLib/inc\xmc_can.h ****  *
 643:C:/Users/VMORAIS/Documents/DAVE_WS/1p_inverter_200V/Libraries/XMCLib/inc\xmc_can.h ****  * \par<b>Related APIs:</b><BR>
 644:C:/Users/VMORAIS/Documents/DAVE_WS/1p_inverter_200V/Libraries/XMCLib/inc\xmc_can.h ****  *  None
 645:C:/Users/VMORAIS/Documents/DAVE_WS/1p_inverter_200V/Libraries/XMCLib/inc\xmc_can.h ****  *
 646:C:/Users/VMORAIS/Documents/DAVE_WS/1p_inverter_200V/Libraries/XMCLib/inc\xmc_can.h ****  */
 647:C:/Users/VMORAIS/Documents/DAVE_WS/1p_inverter_200V/Libraries/XMCLib/inc\xmc_can.h **** 
 648:C:/Users/VMORAIS/Documents/DAVE_WS/1p_inverter_200V/Libraries/XMCLib/inc\xmc_can.h **** void XMC_CAN_AllocateMOtoNodeList(XMC_CAN_t *const obj, const uint8_t node_num, const uint8_t mo_nu
 649:C:/Users/VMORAIS/Documents/DAVE_WS/1p_inverter_200V/Libraries/XMCLib/inc\xmc_can.h **** 
 650:C:/Users/VMORAIS/Documents/DAVE_WS/1p_inverter_200V/Libraries/XMCLib/inc\xmc_can.h **** /**
 651:C:/Users/VMORAIS/Documents/DAVE_WS/1p_inverter_200V/Libraries/XMCLib/inc\xmc_can.h ****  *
 652:C:/Users/VMORAIS/Documents/DAVE_WS/1p_inverter_200V/Libraries/XMCLib/inc\xmc_can.h ****  * @param obj Pointer pointing to XMC_CAN Global Initialization structure. Defines CAN global regis
 653:C:/Users/VMORAIS/Documents/DAVE_WS/1p_inverter_200V/Libraries/XMCLib/inc\xmc_can.h ****  *       for details.
 654:C:/Users/VMORAIS/Documents/DAVE_WS/1p_inverter_200V/Libraries/XMCLib/inc\xmc_can.h ****  *
 655:C:/Users/VMORAIS/Documents/DAVE_WS/1p_inverter_200V/Libraries/XMCLib/inc\xmc_can.h ****  * @return Ready status of list controller
 656:C:/Users/VMORAIS/Documents/DAVE_WS/1p_inverter_200V/Libraries/XMCLib/inc\xmc_can.h ****  *
 657:C:/Users/VMORAIS/Documents/DAVE_WS/1p_inverter_200V/Libraries/XMCLib/inc\xmc_can.h ****  * \par<b>Description:</b><br>
 658:C:/Users/VMORAIS/Documents/DAVE_WS/1p_inverter_200V/Libraries/XMCLib/inc\xmc_can.h ****  *  Returns ready status of the list controller
 659:C:/Users/VMORAIS/Documents/DAVE_WS/1p_inverter_200V/Libraries/XMCLib/inc\xmc_can.h ****  *
 660:C:/Users/VMORAIS/Documents/DAVE_WS/1p_inverter_200V/Libraries/XMCLib/inc\xmc_can.h ****  * \par<b>Related APIs:</b><BR>
 661:C:/Users/VMORAIS/Documents/DAVE_WS/1p_inverter_200V/Libraries/XMCLib/inc\xmc_can.h ****  *  XMC_CAN_PanelControl()
 662:C:/Users/VMORAIS/Documents/DAVE_WS/1p_inverter_200V/Libraries/XMCLib/inc\xmc_can.h ****  *
 663:C:/Users/VMORAIS/Documents/DAVE_WS/1p_inverter_200V/Libraries/XMCLib/inc\xmc_can.h ****  */
 664:C:/Users/VMORAIS/Documents/DAVE_WS/1p_inverter_200V/Libraries/XMCLib/inc\xmc_can.h **** __STATIC_INLINE bool XMC_CAN_IsPanelControlReady(XMC_CAN_t *const obj)
 665:C:/Users/VMORAIS/Documents/DAVE_WS/1p_inverter_200V/Libraries/XMCLib/inc\xmc_can.h **** {
  27              	 .loc 1 665 0
  28              	 .cfi_startproc
  29              	 
  30              	 
  31              	 
  32 0000 80B4     	 push {r7}
  33              	.LCFI0:
  34              	 .cfi_def_cfa_offset 4
  35              	 .cfi_offset 7,-4
  36 0002 83B0     	 sub sp,sp,#12
  37              	.LCFI1:
  38              	 .cfi_def_cfa_offset 16
  39 0004 00AF     	 add r7,sp,#0
  40              	.LCFI2:
  41              	 .cfi_def_cfa_register 7
  42 0006 7860     	 str r0,[r7,#4]
 666:C:/Users/VMORAIS/Documents/DAVE_WS/1p_inverter_200V/Libraries/XMCLib/inc\xmc_can.h ****   return (bool)((obj->PANCTR & (CAN_PANCTR_BUSY_Msk | CAN_PANCTR_RBUSY_Msk)) == 0);
  43              	 .loc 1 666 0
  44 0008 7B68     	 ldr r3,[r7,#4]
  45 000a D3F8C431 	 ldr r3,[r3,#452]
  46 000e 03F44073 	 and r3,r3,#768
  47 0012 002B     	 cmp r3,#0
  48 0014 0CBF     	 ite eq
  49 0016 0123     	 moveq r3,#1
  50 0018 0023     	 movne r3,#0
  51 001a DBB2     	 uxtb r3,r3
 667:C:/Users/VMORAIS/Documents/DAVE_WS/1p_inverter_200V/Libraries/XMCLib/inc\xmc_can.h **** }
  52              	 .loc 1 667 0
  53 001c 1846     	 mov r0,r3
  54 001e 0C37     	 adds r7,r7,#12
  55              	.LCFI3:
  56              	 .cfi_def_cfa_offset 4
  57 0020 BD46     	 mov sp,r7
  58              	.LCFI4:
  59              	 .cfi_def_cfa_register 13
  60              	 
  61 0022 5DF8047B 	 ldr r7,[sp],#4
  62              	.LCFI5:
  63              	 .cfi_restore 7
  64              	 .cfi_def_cfa_offset 0
  65 0026 7047     	 bx lr
  66              	 .cfi_endproc
  67              	.LFE162:
  69              	 .section .text.XMC_CAN_PanelControl,"ax",%progbits
  70              	 .align 2
  71              	 .thumb
  72              	 .thumb_func
  74              	XMC_CAN_PanelControl:
  75              	.LFB163:
 668:C:/Users/VMORAIS/Documents/DAVE_WS/1p_inverter_200V/Libraries/XMCLib/inc\xmc_can.h **** 
 669:C:/Users/VMORAIS/Documents/DAVE_WS/1p_inverter_200V/Libraries/XMCLib/inc\xmc_can.h **** /**
 670:C:/Users/VMORAIS/Documents/DAVE_WS/1p_inverter_200V/Libraries/XMCLib/inc\xmc_can.h ****  *
 671:C:/Users/VMORAIS/Documents/DAVE_WS/1p_inverter_200V/Libraries/XMCLib/inc\xmc_can.h ****  * @param obj Pointer pointing to XMC_CAN Global Initialization structure. Defines CAN global regis
 672:C:/Users/VMORAIS/Documents/DAVE_WS/1p_inverter_200V/Libraries/XMCLib/inc\xmc_can.h ****  * 			  for details.
 673:C:/Users/VMORAIS/Documents/DAVE_WS/1p_inverter_200V/Libraries/XMCLib/inc\xmc_can.h ****  *
 674:C:/Users/VMORAIS/Documents/DAVE_WS/1p_inverter_200V/Libraries/XMCLib/inc\xmc_can.h ****  * @param pancmd panal command selection. Refer @ref XMC_CAN_PANCMD_t for valid values.
 675:C:/Users/VMORAIS/Documents/DAVE_WS/1p_inverter_200V/Libraries/XMCLib/inc\xmc_can.h ****  * @param arg1	 Panel Argument 1,Range : 0-2
 676:C:/Users/VMORAIS/Documents/DAVE_WS/1p_inverter_200V/Libraries/XMCLib/inc\xmc_can.h ****  * @param arg2 	 Panel Argument 2, Range : 0-63
 677:C:/Users/VMORAIS/Documents/DAVE_WS/1p_inverter_200V/Libraries/XMCLib/inc\xmc_can.h ****  *
 678:C:/Users/VMORAIS/Documents/DAVE_WS/1p_inverter_200V/Libraries/XMCLib/inc\xmc_can.h ****  * @return None
 679:C:/Users/VMORAIS/Documents/DAVE_WS/1p_inverter_200V/Libraries/XMCLib/inc\xmc_can.h ****  *
 680:C:/Users/VMORAIS/Documents/DAVE_WS/1p_inverter_200V/Libraries/XMCLib/inc\xmc_can.h ****  * \par<b>Description:</b><br>
 681:C:/Users/VMORAIS/Documents/DAVE_WS/1p_inverter_200V/Libraries/XMCLib/inc\xmc_can.h ****  *  Configures the panel command and panel arguments. A panel operation consists of a command code 
 682:C:/Users/VMORAIS/Documents/DAVE_WS/1p_inverter_200V/Libraries/XMCLib/inc\xmc_can.h ****  *  panel arguments (PANAR1, PANAR2). Commands that have a return value deliver it to the PANAR1 bi
 683:C:/Users/VMORAIS/Documents/DAVE_WS/1p_inverter_200V/Libraries/XMCLib/inc\xmc_can.h ****  *  return an error flag deliver it to bit 31 of the Panel Control Register, this means bit 7 of PA
 684:C:/Users/VMORAIS/Documents/DAVE_WS/1p_inverter_200V/Libraries/XMCLib/inc\xmc_can.h ****  *  panel argument PANAR1,\a arg2 represents panel argument PANAR2 and \a pancmd represents command
 685:C:/Users/VMORAIS/Documents/DAVE_WS/1p_inverter_200V/Libraries/XMCLib/inc\xmc_can.h ****  *  register.
 686:C:/Users/VMORAIS/Documents/DAVE_WS/1p_inverter_200V/Libraries/XMCLib/inc\xmc_can.h ****  *
 687:C:/Users/VMORAIS/Documents/DAVE_WS/1p_inverter_200V/Libraries/XMCLib/inc\xmc_can.h ****  * \par<b>Related APIs:</b><BR>
 688:C:/Users/VMORAIS/Documents/DAVE_WS/1p_inverter_200V/Libraries/XMCLib/inc\xmc_can.h ****  *  None
 689:C:/Users/VMORAIS/Documents/DAVE_WS/1p_inverter_200V/Libraries/XMCLib/inc\xmc_can.h ****  *
 690:C:/Users/VMORAIS/Documents/DAVE_WS/1p_inverter_200V/Libraries/XMCLib/inc\xmc_can.h ****  */
 691:C:/Users/VMORAIS/Documents/DAVE_WS/1p_inverter_200V/Libraries/XMCLib/inc\xmc_can.h **** 
 692:C:/Users/VMORAIS/Documents/DAVE_WS/1p_inverter_200V/Libraries/XMCLib/inc\xmc_can.h **** __STATIC_INLINE void XMC_CAN_PanelControl(XMC_CAN_t *const obj,
 693:C:/Users/VMORAIS/Documents/DAVE_WS/1p_inverter_200V/Libraries/XMCLib/inc\xmc_can.h ****                                           const XMC_CAN_PANCMD_t pancmd,
 694:C:/Users/VMORAIS/Documents/DAVE_WS/1p_inverter_200V/Libraries/XMCLib/inc\xmc_can.h **** 		                                  const uint8_t arg1,
 695:C:/Users/VMORAIS/Documents/DAVE_WS/1p_inverter_200V/Libraries/XMCLib/inc\xmc_can.h **** 		                                  const uint8_t arg2)
 696:C:/Users/VMORAIS/Documents/DAVE_WS/1p_inverter_200V/Libraries/XMCLib/inc\xmc_can.h **** {
  76              	 .loc 1 696 0
  77              	 .cfi_startproc
  78              	 
  79              	 
  80              	 
  81 0000 80B4     	 push {r7}
  82              	.LCFI6:
  83              	 .cfi_def_cfa_offset 4
  84              	 .cfi_offset 7,-4
  85 0002 83B0     	 sub sp,sp,#12
  86              	.LCFI7:
  87              	 .cfi_def_cfa_offset 16
  88 0004 00AF     	 add r7,sp,#0
  89              	.LCFI8:
  90              	 .cfi_def_cfa_register 7
  91 0006 7860     	 str r0,[r7,#4]
  92 0008 0846     	 mov r0,r1
  93 000a 1146     	 mov r1,r2
  94 000c 1A46     	 mov r2,r3
  95 000e 0346     	 mov r3,r0
  96 0010 FB70     	 strb r3,[r7,#3]
  97 0012 0B46     	 mov r3,r1
  98 0014 BB70     	 strb r3,[r7,#2]
  99 0016 1346     	 mov r3,r2
 100 0018 7B70     	 strb r3,[r7,#1]
 697:C:/Users/VMORAIS/Documents/DAVE_WS/1p_inverter_200V/Libraries/XMCLib/inc\xmc_can.h ****   obj->PANCTR = (((uint32_t)pancmd << CAN_PANCTR_PANCMD_Pos) & (uint32_t)CAN_PANCTR_PANCMD_Msk) |
 101              	 .loc 1 697 0
 102 001a FA78     	 ldrb r2,[r7,#3]
 698:C:/Users/VMORAIS/Documents/DAVE_WS/1p_inverter_200V/Libraries/XMCLib/inc\xmc_can.h **** 		        (((uint32_t)arg1 << CAN_PANCTR_PANAR1_Pos) & (uint32_t)CAN_PANCTR_PANAR1_Msk) |
 103              	 .loc 1 698 0
 104 001c BB78     	 ldrb r3,[r7,#2]
 105 001e 1B04     	 lsls r3,r3,#16
 106 0020 03F47F03 	 and r3,r3,#16711680
 697:C:/Users/VMORAIS/Documents/DAVE_WS/1p_inverter_200V/Libraries/XMCLib/inc\xmc_can.h ****   obj->PANCTR = (((uint32_t)pancmd << CAN_PANCTR_PANCMD_Pos) & (uint32_t)CAN_PANCTR_PANCMD_Msk) |
 107              	 .loc 1 697 0
 108 0024 1A43     	 orrs r2,r2,r3
 699:C:/Users/VMORAIS/Documents/DAVE_WS/1p_inverter_200V/Libraries/XMCLib/inc\xmc_can.h **** 		        (((uint32_t)arg2 << CAN_PANCTR_PANAR2_Pos) & (uint32_t)CAN_PANCTR_PANAR2_Msk);
 109              	 .loc 1 699 0
 110 0026 7B78     	 ldrb r3,[r7,#1]
 111 0028 1B06     	 lsls r3,r3,#24
 698:C:/Users/VMORAIS/Documents/DAVE_WS/1p_inverter_200V/Libraries/XMCLib/inc\xmc_can.h **** 		        (((uint32_t)arg1 << CAN_PANCTR_PANAR1_Pos) & (uint32_t)CAN_PANCTR_PANAR1_Msk) |
 112              	 .loc 1 698 0
 113 002a 1A43     	 orrs r2,r2,r3
 697:C:/Users/VMORAIS/Documents/DAVE_WS/1p_inverter_200V/Libraries/XMCLib/inc\xmc_can.h ****   obj->PANCTR = (((uint32_t)pancmd << CAN_PANCTR_PANCMD_Pos) & (uint32_t)CAN_PANCTR_PANCMD_Msk) |
 114              	 .loc 1 697 0
 115 002c 7B68     	 ldr r3,[r7,#4]
 116 002e C3F8C421 	 str r2,[r3,#452]
 700:C:/Users/VMORAIS/Documents/DAVE_WS/1p_inverter_200V/Libraries/XMCLib/inc\xmc_can.h **** }
 117              	 .loc 1 700 0
 118 0032 0C37     	 adds r7,r7,#12
 119              	.LCFI9:
 120              	 .cfi_def_cfa_offset 4
 121 0034 BD46     	 mov sp,r7
 122              	.LCFI10:
 123              	 .cfi_def_cfa_register 13
 124              	 
 125 0036 5DF8047B 	 ldr r7,[sp],#4
 126              	.LCFI11:
 127              	 .cfi_restore 7
 128              	 .cfi_def_cfa_offset 0
 129 003a 7047     	 bx lr
 130              	 .cfi_endproc
 131              	.LFE163:
 133              	 .section .text.XMC_CAN_NODE_EnableConfigurationChange,"ax",%progbits
 134              	 .align 2
 135              	 .thumb
 136              	 .thumb_func
 138              	XMC_CAN_NODE_EnableConfigurationChange:
 139              	.LFB179:
 701:C:/Users/VMORAIS/Documents/DAVE_WS/1p_inverter_200V/Libraries/XMCLib/inc\xmc_can.h **** 
 702:C:/Users/VMORAIS/Documents/DAVE_WS/1p_inverter_200V/Libraries/XMCLib/inc\xmc_can.h **** 
 703:C:/Users/VMORAIS/Documents/DAVE_WS/1p_inverter_200V/Libraries/XMCLib/inc\xmc_can.h **** /**
 704:C:/Users/VMORAIS/Documents/DAVE_WS/1p_inverter_200V/Libraries/XMCLib/inc\xmc_can.h ****  *
 705:C:/Users/VMORAIS/Documents/DAVE_WS/1p_inverter_200V/Libraries/XMCLib/inc\xmc_can.h ****  * @param obj Pointer pointing to XMC_CAN Global Initialization structure. Defines CAN global regis
 706:C:/Users/VMORAIS/Documents/DAVE_WS/1p_inverter_200V/Libraries/XMCLib/inc\xmc_can.h ****  * 			  for details.
 707:C:/Users/VMORAIS/Documents/DAVE_WS/1p_inverter_200V/Libraries/XMCLib/inc\xmc_can.h ****  *
 708:C:/Users/VMORAIS/Documents/DAVE_WS/1p_inverter_200V/Libraries/XMCLib/inc\xmc_can.h ****  * @param service_requestr	Interrupt trigger number selection. Refer @ref XMC_CAN_NODE_INTERRUPT_TR
 709:C:/Users/VMORAIS/Documents/DAVE_WS/1p_inverter_200V/Libraries/XMCLib/inc\xmc_can.h ****  * 							 Multiple interrupt trigger events can be ORed.
 710:C:/Users/VMORAIS/Documents/DAVE_WS/1p_inverter_200V/Libraries/XMCLib/inc\xmc_can.h ****  *
 711:C:/Users/VMORAIS/Documents/DAVE_WS/1p_inverter_200V/Libraries/XMCLib/inc\xmc_can.h ****  * @return None
 712:C:/Users/VMORAIS/Documents/DAVE_WS/1p_inverter_200V/Libraries/XMCLib/inc\xmc_can.h ****  *
 713:C:/Users/VMORAIS/Documents/DAVE_WS/1p_inverter_200V/Libraries/XMCLib/inc\xmc_can.h ****  * \par<b>Description:</b><br>
 714:C:/Users/VMORAIS/Documents/DAVE_WS/1p_inverter_200V/Libraries/XMCLib/inc\xmc_can.h ****  *  Configures multiple interrupt requests with a single write operation. \a service_requestr repre
 715:C:/Users/VMORAIS/Documents/DAVE_WS/1p_inverter_200V/Libraries/XMCLib/inc\xmc_can.h ****  *  request or multiple.It configures MITR register.
 716:C:/Users/VMORAIS/Documents/DAVE_WS/1p_inverter_200V/Libraries/XMCLib/inc\xmc_can.h ****  *
 717:C:/Users/VMORAIS/Documents/DAVE_WS/1p_inverter_200V/Libraries/XMCLib/inc\xmc_can.h ****  * \par<b>Related APIs:</b><BR>
 718:C:/Users/VMORAIS/Documents/DAVE_WS/1p_inverter_200V/Libraries/XMCLib/inc\xmc_can.h ****  *  None
 719:C:/Users/VMORAIS/Documents/DAVE_WS/1p_inverter_200V/Libraries/XMCLib/inc\xmc_can.h ****  *
 720:C:/Users/VMORAIS/Documents/DAVE_WS/1p_inverter_200V/Libraries/XMCLib/inc\xmc_can.h ****  */
 721:C:/Users/VMORAIS/Documents/DAVE_WS/1p_inverter_200V/Libraries/XMCLib/inc\xmc_can.h **** 
 722:C:/Users/VMORAIS/Documents/DAVE_WS/1p_inverter_200V/Libraries/XMCLib/inc\xmc_can.h **** __STATIC_INLINE void XMC_CAN_EventTrigger(XMC_CAN_t *const obj,const XMC_CAN_NODE_INTERRUPT_TRIGGER
 723:C:/Users/VMORAIS/Documents/DAVE_WS/1p_inverter_200V/Libraries/XMCLib/inc\xmc_can.h **** {
 724:C:/Users/VMORAIS/Documents/DAVE_WS/1p_inverter_200V/Libraries/XMCLib/inc\xmc_can.h ****   obj->MITR = ((uint32_t)service_requestr << CAN_MITR_IT_Pos) & (uint32_t)CAN_MITR_IT_Msk;
 725:C:/Users/VMORAIS/Documents/DAVE_WS/1p_inverter_200V/Libraries/XMCLib/inc\xmc_can.h **** }
 726:C:/Users/VMORAIS/Documents/DAVE_WS/1p_inverter_200V/Libraries/XMCLib/inc\xmc_can.h **** 
 727:C:/Users/VMORAIS/Documents/DAVE_WS/1p_inverter_200V/Libraries/XMCLib/inc\xmc_can.h **** 
 728:C:/Users/VMORAIS/Documents/DAVE_WS/1p_inverter_200V/Libraries/XMCLib/inc\xmc_can.h **** 
 729:C:/Users/VMORAIS/Documents/DAVE_WS/1p_inverter_200V/Libraries/XMCLib/inc\xmc_can.h **** 								/*INIT APIs*/
 730:C:/Users/VMORAIS/Documents/DAVE_WS/1p_inverter_200V/Libraries/XMCLib/inc\xmc_can.h **** 
 731:C:/Users/VMORAIS/Documents/DAVE_WS/1p_inverter_200V/Libraries/XMCLib/inc\xmc_can.h **** /**
 732:C:/Users/VMORAIS/Documents/DAVE_WS/1p_inverter_200V/Libraries/XMCLib/inc\xmc_can.h ****  *
 733:C:/Users/VMORAIS/Documents/DAVE_WS/1p_inverter_200V/Libraries/XMCLib/inc\xmc_can.h ****  * @param obj Pointer pointing to XMC_CAN Global Initialization structure. Defines CAN global regis
 734:C:/Users/VMORAIS/Documents/DAVE_WS/1p_inverter_200V/Libraries/XMCLib/inc\xmc_can.h ****  * 			  for details.
 735:C:/Users/VMORAIS/Documents/DAVE_WS/1p_inverter_200V/Libraries/XMCLib/inc\xmc_can.h ****  *
 736:C:/Users/VMORAIS/Documents/DAVE_WS/1p_inverter_200V/Libraries/XMCLib/inc\xmc_can.h ****  * @param can_frequency	CAN module frequency(fCAN). Range : 5MHz to 120MHz
 737:C:/Users/VMORAIS/Documents/DAVE_WS/1p_inverter_200V/Libraries/XMCLib/inc\xmc_can.h ****  *
 738:C:/Users/VMORAIS/Documents/DAVE_WS/1p_inverter_200V/Libraries/XMCLib/inc\xmc_can.h ****  * @return None
 739:C:/Users/VMORAIS/Documents/DAVE_WS/1p_inverter_200V/Libraries/XMCLib/inc\xmc_can.h ****  *
 740:C:/Users/VMORAIS/Documents/DAVE_WS/1p_inverter_200V/Libraries/XMCLib/inc\xmc_can.h ****  * \par<b>Description:</b><br>
 741:C:/Users/VMORAIS/Documents/DAVE_WS/1p_inverter_200V/Libraries/XMCLib/inc\xmc_can.h ****  * Configures clock rate of the module timer clock fCAN. Altering CAN module \a can_frequency shall
 742:C:/Users/VMORAIS/Documents/DAVE_WS/1p_inverter_200V/Libraries/XMCLib/inc\xmc_can.h ****  * call XMC_CAN_NODE_NominalBitTimeConfigure() to configure baud rate for current CAN frequency.It 
 743:C:/Users/VMORAIS/Documents/DAVE_WS/1p_inverter_200V/Libraries/XMCLib/inc\xmc_can.h ****  *
 744:C:/Users/VMORAIS/Documents/DAVE_WS/1p_inverter_200V/Libraries/XMCLib/inc\xmc_can.h ****  * \par<b>Related APIs:</b><BR>
 745:C:/Users/VMORAIS/Documents/DAVE_WS/1p_inverter_200V/Libraries/XMCLib/inc\xmc_can.h ****  * XMC_CAN_NODE_NominalBitTimeConfigure()\n\n\n
 746:C:/Users/VMORAIS/Documents/DAVE_WS/1p_inverter_200V/Libraries/XMCLib/inc\xmc_can.h ****  *
 747:C:/Users/VMORAIS/Documents/DAVE_WS/1p_inverter_200V/Libraries/XMCLib/inc\xmc_can.h ****  */
 748:C:/Users/VMORAIS/Documents/DAVE_WS/1p_inverter_200V/Libraries/XMCLib/inc\xmc_can.h **** 
 749:C:/Users/VMORAIS/Documents/DAVE_WS/1p_inverter_200V/Libraries/XMCLib/inc\xmc_can.h **** 
 750:C:/Users/VMORAIS/Documents/DAVE_WS/1p_inverter_200V/Libraries/XMCLib/inc\xmc_can.h **** #if defined(MULTICAN_PLUS)
 751:C:/Users/VMORAIS/Documents/DAVE_WS/1p_inverter_200V/Libraries/XMCLib/inc\xmc_can.h **** void XMC_CAN_Init(XMC_CAN_t *const obj, XMC_CAN_CANCLKSRC_t clksrc, uint32_t can_frequency);
 752:C:/Users/VMORAIS/Documents/DAVE_WS/1p_inverter_200V/Libraries/XMCLib/inc\xmc_can.h **** /**
 753:C:/Users/VMORAIS/Documents/DAVE_WS/1p_inverter_200V/Libraries/XMCLib/inc\xmc_can.h ****  *
 754:C:/Users/VMORAIS/Documents/DAVE_WS/1p_inverter_200V/Libraries/XMCLib/inc\xmc_can.h ****  */
 755:C:/Users/VMORAIS/Documents/DAVE_WS/1p_inverter_200V/Libraries/XMCLib/inc\xmc_can.h **** XMC_CAN_CANCLKSRC_t XMC_CAN_GetBaudrateClockSource(XMC_CAN_t *const obj);
 756:C:/Users/VMORAIS/Documents/DAVE_WS/1p_inverter_200V/Libraries/XMCLib/inc\xmc_can.h **** /**
 757:C:/Users/VMORAIS/Documents/DAVE_WS/1p_inverter_200V/Libraries/XMCLib/inc\xmc_can.h ****  *
 758:C:/Users/VMORAIS/Documents/DAVE_WS/1p_inverter_200V/Libraries/XMCLib/inc\xmc_can.h ****  */
 759:C:/Users/VMORAIS/Documents/DAVE_WS/1p_inverter_200V/Libraries/XMCLib/inc\xmc_can.h **** void XMC_CAN_SetBaudrateClockSource(XMC_CAN_t *const obj,const XMC_CAN_CANCLKSRC_t source);
 760:C:/Users/VMORAIS/Documents/DAVE_WS/1p_inverter_200V/Libraries/XMCLib/inc\xmc_can.h **** /**
 761:C:/Users/VMORAIS/Documents/DAVE_WS/1p_inverter_200V/Libraries/XMCLib/inc\xmc_can.h ****  *
 762:C:/Users/VMORAIS/Documents/DAVE_WS/1p_inverter_200V/Libraries/XMCLib/inc\xmc_can.h ****  */
 763:C:/Users/VMORAIS/Documents/DAVE_WS/1p_inverter_200V/Libraries/XMCLib/inc\xmc_can.h **** uint32_t XMC_CAN_GetBaudrateClockFrequency(XMC_CAN_t *const obj);
 764:C:/Users/VMORAIS/Documents/DAVE_WS/1p_inverter_200V/Libraries/XMCLib/inc\xmc_can.h **** #else
 765:C:/Users/VMORAIS/Documents/DAVE_WS/1p_inverter_200V/Libraries/XMCLib/inc\xmc_can.h **** void XMC_CAN_Init(XMC_CAN_t *const obj, uint32_t can_frequency);
 766:C:/Users/VMORAIS/Documents/DAVE_WS/1p_inverter_200V/Libraries/XMCLib/inc\xmc_can.h **** #endif
 767:C:/Users/VMORAIS/Documents/DAVE_WS/1p_inverter_200V/Libraries/XMCLib/inc\xmc_can.h **** 
 768:C:/Users/VMORAIS/Documents/DAVE_WS/1p_inverter_200V/Libraries/XMCLib/inc\xmc_can.h **** /**
 769:C:/Users/VMORAIS/Documents/DAVE_WS/1p_inverter_200V/Libraries/XMCLib/inc\xmc_can.h ****  *
 770:C:/Users/VMORAIS/Documents/DAVE_WS/1p_inverter_200V/Libraries/XMCLib/inc\xmc_can.h ****  * @param can_mo Pointer to Message Object structure. Refer @ref XMC_CAN_MO_t data structure for de
 771:C:/Users/VMORAIS/Documents/DAVE_WS/1p_inverter_200V/Libraries/XMCLib/inc\xmc_can.h ****  *
 772:C:/Users/VMORAIS/Documents/DAVE_WS/1p_inverter_200V/Libraries/XMCLib/inc\xmc_can.h ****  * @return None
 773:C:/Users/VMORAIS/Documents/DAVE_WS/1p_inverter_200V/Libraries/XMCLib/inc\xmc_can.h ****  *
 774:C:/Users/VMORAIS/Documents/DAVE_WS/1p_inverter_200V/Libraries/XMCLib/inc\xmc_can.h ****  * \par<b>Description:</b><br>
 775:C:/Users/VMORAIS/Documents/DAVE_WS/1p_inverter_200V/Libraries/XMCLib/inc\xmc_can.h ****  * Initializes CAN message object. Initialization includes configuring Message Object identifier ty
 776:C:/Users/VMORAIS/Documents/DAVE_WS/1p_inverter_200V/Libraries/XMCLib/inc\xmc_can.h ****  * identifier value, Message Object type, and transfer requests. It configures FDR register.
 777:C:/Users/VMORAIS/Documents/DAVE_WS/1p_inverter_200V/Libraries/XMCLib/inc\xmc_can.h ****  *
 778:C:/Users/VMORAIS/Documents/DAVE_WS/1p_inverter_200V/Libraries/XMCLib/inc\xmc_can.h ****  * \par<b>Related APIs:</b><BR>
 779:C:/Users/VMORAIS/Documents/DAVE_WS/1p_inverter_200V/Libraries/XMCLib/inc\xmc_can.h ****  * None
 780:C:/Users/VMORAIS/Documents/DAVE_WS/1p_inverter_200V/Libraries/XMCLib/inc\xmc_can.h ****  *
 781:C:/Users/VMORAIS/Documents/DAVE_WS/1p_inverter_200V/Libraries/XMCLib/inc\xmc_can.h ****  */
 782:C:/Users/VMORAIS/Documents/DAVE_WS/1p_inverter_200V/Libraries/XMCLib/inc\xmc_can.h **** 
 783:C:/Users/VMORAIS/Documents/DAVE_WS/1p_inverter_200V/Libraries/XMCLib/inc\xmc_can.h **** void XMC_CAN_MO_Config(const XMC_CAN_MO_t *const can_mo);
 784:C:/Users/VMORAIS/Documents/DAVE_WS/1p_inverter_200V/Libraries/XMCLib/inc\xmc_can.h **** 
 785:C:/Users/VMORAIS/Documents/DAVE_WS/1p_inverter_200V/Libraries/XMCLib/inc\xmc_can.h **** 
 786:C:/Users/VMORAIS/Documents/DAVE_WS/1p_inverter_200V/Libraries/XMCLib/inc\xmc_can.h **** 	  /*NODE APIs*/
 787:C:/Users/VMORAIS/Documents/DAVE_WS/1p_inverter_200V/Libraries/XMCLib/inc\xmc_can.h **** 
 788:C:/Users/VMORAIS/Documents/DAVE_WS/1p_inverter_200V/Libraries/XMCLib/inc\xmc_can.h **** 
 789:C:/Users/VMORAIS/Documents/DAVE_WS/1p_inverter_200V/Libraries/XMCLib/inc\xmc_can.h **** /**
 790:C:/Users/VMORAIS/Documents/DAVE_WS/1p_inverter_200V/Libraries/XMCLib/inc\xmc_can.h ****  *
 791:C:/Users/VMORAIS/Documents/DAVE_WS/1p_inverter_200V/Libraries/XMCLib/inc\xmc_can.h ****  * @param can_node  	  Pointer pointing to CAN_NODE Structure. Defines CAN_NODE registers.
 792:C:/Users/VMORAIS/Documents/DAVE_WS/1p_inverter_200V/Libraries/XMCLib/inc\xmc_can.h ****  * @param ptr_event		  CAN_NODE interrupt pointer position. Refer @ref XMC_CAN_NODE_POINTER_EVENT_t
 793:C:/Users/VMORAIS/Documents/DAVE_WS/1p_inverter_200V/Libraries/XMCLib/inc\xmc_can.h ****  * @param service_request Interrupt service request number. Range : 0-7
 794:C:/Users/VMORAIS/Documents/DAVE_WS/1p_inverter_200V/Libraries/XMCLib/inc\xmc_can.h ****  *
 795:C:/Users/VMORAIS/Documents/DAVE_WS/1p_inverter_200V/Libraries/XMCLib/inc\xmc_can.h ****  * @return None
 796:C:/Users/VMORAIS/Documents/DAVE_WS/1p_inverter_200V/Libraries/XMCLib/inc\xmc_can.h ****  *
 797:C:/Users/VMORAIS/Documents/DAVE_WS/1p_inverter_200V/Libraries/XMCLib/inc\xmc_can.h ****  * \par<b>Description:</b><br>
 798:C:/Users/VMORAIS/Documents/DAVE_WS/1p_inverter_200V/Libraries/XMCLib/inc\xmc_can.h ****  *  Configures node interrupt pointer \a service_request for CAN Node events \a ptr_event. It confi
 799:C:/Users/VMORAIS/Documents/DAVE_WS/1p_inverter_200V/Libraries/XMCLib/inc\xmc_can.h ****  *
 800:C:/Users/VMORAIS/Documents/DAVE_WS/1p_inverter_200V/Libraries/XMCLib/inc\xmc_can.h ****  * \par<b>Related APIs:</b><BR>
 801:C:/Users/VMORAIS/Documents/DAVE_WS/1p_inverter_200V/Libraries/XMCLib/inc\xmc_can.h ****  * None
 802:C:/Users/VMORAIS/Documents/DAVE_WS/1p_inverter_200V/Libraries/XMCLib/inc\xmc_can.h ****  *
 803:C:/Users/VMORAIS/Documents/DAVE_WS/1p_inverter_200V/Libraries/XMCLib/inc\xmc_can.h ****  */
 804:C:/Users/VMORAIS/Documents/DAVE_WS/1p_inverter_200V/Libraries/XMCLib/inc\xmc_can.h **** 
 805:C:/Users/VMORAIS/Documents/DAVE_WS/1p_inverter_200V/Libraries/XMCLib/inc\xmc_can.h **** __STATIC_INLINE void XMC_CAN_NODE_SetEventNodePointer(XMC_CAN_NODE_t *const can_node,
 806:C:/Users/VMORAIS/Documents/DAVE_WS/1p_inverter_200V/Libraries/XMCLib/inc\xmc_can.h **** 		                                      const XMC_CAN_NODE_POINTER_EVENT_t ptr_event,
 807:C:/Users/VMORAIS/Documents/DAVE_WS/1p_inverter_200V/Libraries/XMCLib/inc\xmc_can.h **** 		                                      const uint32_t service_request)
 808:C:/Users/VMORAIS/Documents/DAVE_WS/1p_inverter_200V/Libraries/XMCLib/inc\xmc_can.h **** {
 809:C:/Users/VMORAIS/Documents/DAVE_WS/1p_inverter_200V/Libraries/XMCLib/inc\xmc_can.h ****   can_node->NIPR = (uint32_t)((can_node->NIPR) & ~(uint32_t)(CAN_NODE_NIPR_Msk << (uint32_t)ptr_eve
 810:C:/Users/VMORAIS/Documents/DAVE_WS/1p_inverter_200V/Libraries/XMCLib/inc\xmc_can.h **** }
 811:C:/Users/VMORAIS/Documents/DAVE_WS/1p_inverter_200V/Libraries/XMCLib/inc\xmc_can.h **** 
 812:C:/Users/VMORAIS/Documents/DAVE_WS/1p_inverter_200V/Libraries/XMCLib/inc\xmc_can.h **** 
 813:C:/Users/VMORAIS/Documents/DAVE_WS/1p_inverter_200V/Libraries/XMCLib/inc\xmc_can.h **** /**
 814:C:/Users/VMORAIS/Documents/DAVE_WS/1p_inverter_200V/Libraries/XMCLib/inc\xmc_can.h ****  *
 815:C:/Users/VMORAIS/Documents/DAVE_WS/1p_inverter_200V/Libraries/XMCLib/inc\xmc_can.h ****  * @param can_node		Pointer pointing to CAN_NODE Structure. Defines CAN_NODE registers. Range :CAN_
 816:C:/Users/VMORAIS/Documents/DAVE_WS/1p_inverter_200V/Libraries/XMCLib/inc\xmc_can.h ****  * @param can_bit_time	Nominal bit time configuration data structure. Refer @ref XMC_CAN_NODE_NOMIN
 817:C:/Users/VMORAIS/Documents/DAVE_WS/1p_inverter_200V/Libraries/XMCLib/inc\xmc_can.h ****  *
 818:C:/Users/VMORAIS/Documents/DAVE_WS/1p_inverter_200V/Libraries/XMCLib/inc\xmc_can.h ****  * @return None
 819:C:/Users/VMORAIS/Documents/DAVE_WS/1p_inverter_200V/Libraries/XMCLib/inc\xmc_can.h ****  *
 820:C:/Users/VMORAIS/Documents/DAVE_WS/1p_inverter_200V/Libraries/XMCLib/inc\xmc_can.h ****  * \par<b>Description:</b><br>
 821:C:/Users/VMORAIS/Documents/DAVE_WS/1p_inverter_200V/Libraries/XMCLib/inc\xmc_can.h ****  * Configures CAN node Baudrate. \a can_bit_time specifies required baudrate for a specified \a can
 822:C:/Users/VMORAIS/Documents/DAVE_WS/1p_inverter_200V/Libraries/XMCLib/inc\xmc_can.h ****  * It configures NBTR register.
 823:C:/Users/VMORAIS/Documents/DAVE_WS/1p_inverter_200V/Libraries/XMCLib/inc\xmc_can.h ****  *
 824:C:/Users/VMORAIS/Documents/DAVE_WS/1p_inverter_200V/Libraries/XMCLib/inc\xmc_can.h ****  * \par<b>Related APIs:</b><BR>
 825:C:/Users/VMORAIS/Documents/DAVE_WS/1p_inverter_200V/Libraries/XMCLib/inc\xmc_can.h ****  * None
 826:C:/Users/VMORAIS/Documents/DAVE_WS/1p_inverter_200V/Libraries/XMCLib/inc\xmc_can.h ****  *
 827:C:/Users/VMORAIS/Documents/DAVE_WS/1p_inverter_200V/Libraries/XMCLib/inc\xmc_can.h ****  */
 828:C:/Users/VMORAIS/Documents/DAVE_WS/1p_inverter_200V/Libraries/XMCLib/inc\xmc_can.h **** void XMC_CAN_NODE_NominalBitTimeConfigure (XMC_CAN_NODE_t *const can_node,
 829:C:/Users/VMORAIS/Documents/DAVE_WS/1p_inverter_200V/Libraries/XMCLib/inc\xmc_can.h ****                                            const XMC_CAN_NODE_NOMINAL_BIT_TIME_CONFIG_t *const can_
 830:C:/Users/VMORAIS/Documents/DAVE_WS/1p_inverter_200V/Libraries/XMCLib/inc\xmc_can.h **** 
 831:C:/Users/VMORAIS/Documents/DAVE_WS/1p_inverter_200V/Libraries/XMCLib/inc\xmc_can.h **** /**
 832:C:/Users/VMORAIS/Documents/DAVE_WS/1p_inverter_200V/Libraries/XMCLib/inc\xmc_can.h ****  * @param can_node Pointer pointing to CAN_NODE Structure. Defines CAN_NODE registers, Range :CAN_N
 833:C:/Users/VMORAIS/Documents/DAVE_WS/1p_inverter_200V/Libraries/XMCLib/inc\xmc_can.h ****  * @param input    CAN receive input selection. Refer @ref XMC_CAN_NODE_RECEIVE_INPUT_t for details
 834:C:/Users/VMORAIS/Documents/DAVE_WS/1p_inverter_200V/Libraries/XMCLib/inc\xmc_can.h ****  *
 835:C:/Users/VMORAIS/Documents/DAVE_WS/1p_inverter_200V/Libraries/XMCLib/inc\xmc_can.h ****  * @return None
 836:C:/Users/VMORAIS/Documents/DAVE_WS/1p_inverter_200V/Libraries/XMCLib/inc\xmc_can.h ****  *
 837:C:/Users/VMORAIS/Documents/DAVE_WS/1p_inverter_200V/Libraries/XMCLib/inc\xmc_can.h ****  * \par<b>Description:</b><br>
 838:C:/Users/VMORAIS/Documents/DAVE_WS/1p_inverter_200V/Libraries/XMCLib/inc\xmc_can.h ****  * \a input specifies CAN input receive pin. This API Configures NPCRx register,it is required to c
 839:C:/Users/VMORAIS/Documents/DAVE_WS/1p_inverter_200V/Libraries/XMCLib/inc\xmc_can.h ****  * XMC_CAN_NODE_EnableConfigurationChange(), before configuring NPCRx register, call XMC_CAN_NODE_D
 840:C:/Users/VMORAIS/Documents/DAVE_WS/1p_inverter_200V/Libraries/XMCLib/inc\xmc_can.h ****  * API after configuring NPCRx register. CAN input receive pins which falls under analog port pins 
 841:C:/Users/VMORAIS/Documents/DAVE_WS/1p_inverter_200V/Libraries/XMCLib/inc\xmc_can.h ****  * XMC_GPIO_EnableDigitalInput(),to enable digital pad.
 842:C:/Users/VMORAIS/Documents/DAVE_WS/1p_inverter_200V/Libraries/XMCLib/inc\xmc_can.h ****  *
 843:C:/Users/VMORAIS/Documents/DAVE_WS/1p_inverter_200V/Libraries/XMCLib/inc\xmc_can.h ****  *\par<b>Related APIs:</b><BR>
 844:C:/Users/VMORAIS/Documents/DAVE_WS/1p_inverter_200V/Libraries/XMCLib/inc\xmc_can.h ****  * None
 845:C:/Users/VMORAIS/Documents/DAVE_WS/1p_inverter_200V/Libraries/XMCLib/inc\xmc_can.h ****  *
 846:C:/Users/VMORAIS/Documents/DAVE_WS/1p_inverter_200V/Libraries/XMCLib/inc\xmc_can.h ****  * \par<b>Note:</b><br>
 847:C:/Users/VMORAIS/Documents/DAVE_WS/1p_inverter_200V/Libraries/XMCLib/inc\xmc_can.h ****  * NPCRx can be written only if bit NCRx.CCE is set.
 848:C:/Users/VMORAIS/Documents/DAVE_WS/1p_inverter_200V/Libraries/XMCLib/inc\xmc_can.h ****  *
 849:C:/Users/VMORAIS/Documents/DAVE_WS/1p_inverter_200V/Libraries/XMCLib/inc\xmc_can.h ****  */
 850:C:/Users/VMORAIS/Documents/DAVE_WS/1p_inverter_200V/Libraries/XMCLib/inc\xmc_can.h **** 
 851:C:/Users/VMORAIS/Documents/DAVE_WS/1p_inverter_200V/Libraries/XMCLib/inc\xmc_can.h **** __STATIC_INLINE void XMC_CAN_NODE_SetReceiveInput(XMC_CAN_NODE_t *const can_node,
 852:C:/Users/VMORAIS/Documents/DAVE_WS/1p_inverter_200V/Libraries/XMCLib/inc\xmc_can.h **** 		                                          const XMC_CAN_NODE_RECEIVE_INPUT_t input)
 853:C:/Users/VMORAIS/Documents/DAVE_WS/1p_inverter_200V/Libraries/XMCLib/inc\xmc_can.h **** {
 854:C:/Users/VMORAIS/Documents/DAVE_WS/1p_inverter_200V/Libraries/XMCLib/inc\xmc_can.h ****   can_node->NPCR = ((can_node->NPCR) & ~(uint32_t)(CAN_NODE_NPCR_RXSEL_Msk)) |
 855:C:/Users/VMORAIS/Documents/DAVE_WS/1p_inverter_200V/Libraries/XMCLib/inc\xmc_can.h ****                    (((uint32_t)input << CAN_NODE_NPCR_RXSEL_Pos) & (uint32_t)CAN_NODE_NPCR_RXSEL_Ms
 856:C:/Users/VMORAIS/Documents/DAVE_WS/1p_inverter_200V/Libraries/XMCLib/inc\xmc_can.h **** }
 857:C:/Users/VMORAIS/Documents/DAVE_WS/1p_inverter_200V/Libraries/XMCLib/inc\xmc_can.h **** 
 858:C:/Users/VMORAIS/Documents/DAVE_WS/1p_inverter_200V/Libraries/XMCLib/inc\xmc_can.h **** 
 859:C:/Users/VMORAIS/Documents/DAVE_WS/1p_inverter_200V/Libraries/XMCLib/inc\xmc_can.h **** /**
 860:C:/Users/VMORAIS/Documents/DAVE_WS/1p_inverter_200V/Libraries/XMCLib/inc\xmc_can.h ****  * @param can_node	Pointer Pointing to CAN_NODE Structure. Defines CAN_NODE registers, Range :CAN_N
 861:C:/Users/VMORAIS/Documents/DAVE_WS/1p_inverter_200V/Libraries/XMCLib/inc\xmc_can.h ****  *
 862:C:/Users/VMORAIS/Documents/DAVE_WS/1p_inverter_200V/Libraries/XMCLib/inc\xmc_can.h ****  * @return None
 863:C:/Users/VMORAIS/Documents/DAVE_WS/1p_inverter_200V/Libraries/XMCLib/inc\xmc_can.h ****  *
 864:C:/Users/VMORAIS/Documents/DAVE_WS/1p_inverter_200V/Libraries/XMCLib/inc\xmc_can.h ****  * \par<b>Description:</b><br>
 865:C:/Users/VMORAIS/Documents/DAVE_WS/1p_inverter_200V/Libraries/XMCLib/inc\xmc_can.h ****  * Enable Node \a can_node in Loop-Back Mode. A Node is connected to an internal (virtual) loop-bac
 866:C:/Users/VMORAIS/Documents/DAVE_WS/1p_inverter_200V/Libraries/XMCLib/inc\xmc_can.h ****  * nodes which are in Loop- Back Mode are connected to this virtual CAN bus so that they can commun
 867:C:/Users/VMORAIS/Documents/DAVE_WS/1p_inverter_200V/Libraries/XMCLib/inc\xmc_can.h ****  * other internally. The external transmit line is forced recessive in Loop-Back Mode. This API Con
 868:C:/Users/VMORAIS/Documents/DAVE_WS/1p_inverter_200V/Libraries/XMCLib/inc\xmc_can.h ****  * call XMC_CAN_NODE_EnableConfigurationChange() API before NPCRx configuration, same way XMC_CAN_N
 869:C:/Users/VMORAIS/Documents/DAVE_WS/1p_inverter_200V/Libraries/XMCLib/inc\xmc_can.h ****  * API after NPCRx configuration configuration.
 870:C:/Users/VMORAIS/Documents/DAVE_WS/1p_inverter_200V/Libraries/XMCLib/inc\xmc_can.h ****  *
 871:C:/Users/VMORAIS/Documents/DAVE_WS/1p_inverter_200V/Libraries/XMCLib/inc\xmc_can.h ****  * \par<b>Related APIs:</b><BR>]
 872:C:/Users/VMORAIS/Documents/DAVE_WS/1p_inverter_200V/Libraries/XMCLib/inc\xmc_can.h ****  *  XMC_CAN_NODE_DisableLoopBack().
 873:C:/Users/VMORAIS/Documents/DAVE_WS/1p_inverter_200V/Libraries/XMCLib/inc\xmc_can.h ****  *
 874:C:/Users/VMORAIS/Documents/DAVE_WS/1p_inverter_200V/Libraries/XMCLib/inc\xmc_can.h ****  *  \par<b>Note:</b><br>
 875:C:/Users/VMORAIS/Documents/DAVE_WS/1p_inverter_200V/Libraries/XMCLib/inc\xmc_can.h ****  *  NPCRx can be written only if bit NCRx.CCE is set.
 876:C:/Users/VMORAIS/Documents/DAVE_WS/1p_inverter_200V/Libraries/XMCLib/inc\xmc_can.h ****  *
 877:C:/Users/VMORAIS/Documents/DAVE_WS/1p_inverter_200V/Libraries/XMCLib/inc\xmc_can.h ****  */
 878:C:/Users/VMORAIS/Documents/DAVE_WS/1p_inverter_200V/Libraries/XMCLib/inc\xmc_can.h **** 
 879:C:/Users/VMORAIS/Documents/DAVE_WS/1p_inverter_200V/Libraries/XMCLib/inc\xmc_can.h **** __STATIC_INLINE void XMC_CAN_NODE_EnableLoopBack(XMC_CAN_NODE_t *const can_node)
 880:C:/Users/VMORAIS/Documents/DAVE_WS/1p_inverter_200V/Libraries/XMCLib/inc\xmc_can.h **** {
 881:C:/Users/VMORAIS/Documents/DAVE_WS/1p_inverter_200V/Libraries/XMCLib/inc\xmc_can.h ****   can_node->NPCR |= (uint32_t)CAN_NODE_NPCR_LBM_Msk;
 882:C:/Users/VMORAIS/Documents/DAVE_WS/1p_inverter_200V/Libraries/XMCLib/inc\xmc_can.h **** }
 883:C:/Users/VMORAIS/Documents/DAVE_WS/1p_inverter_200V/Libraries/XMCLib/inc\xmc_can.h **** 
 884:C:/Users/VMORAIS/Documents/DAVE_WS/1p_inverter_200V/Libraries/XMCLib/inc\xmc_can.h **** 
 885:C:/Users/VMORAIS/Documents/DAVE_WS/1p_inverter_200V/Libraries/XMCLib/inc\xmc_can.h **** /**
 886:C:/Users/VMORAIS/Documents/DAVE_WS/1p_inverter_200V/Libraries/XMCLib/inc\xmc_can.h ****  * @param can_node Pointer Pointing to CAN_NODE Structure. Defines CAN_NODE registers, Range :CAN_N
 887:C:/Users/VMORAIS/Documents/DAVE_WS/1p_inverter_200V/Libraries/XMCLib/inc\xmc_can.h ****  *
 888:C:/Users/VMORAIS/Documents/DAVE_WS/1p_inverter_200V/Libraries/XMCLib/inc\xmc_can.h ****  * @return None
 889:C:/Users/VMORAIS/Documents/DAVE_WS/1p_inverter_200V/Libraries/XMCLib/inc\xmc_can.h ****  *
 890:C:/Users/VMORAIS/Documents/DAVE_WS/1p_inverter_200V/Libraries/XMCLib/inc\xmc_can.h ****  * \par<b>Description:</b><br>
 891:C:/Users/VMORAIS/Documents/DAVE_WS/1p_inverter_200V/Libraries/XMCLib/inc\xmc_can.h ****  * Disable Node Loop-Back Mode, disables internal (virtual) loop-back CAN bus. This API Configures 
 892:C:/Users/VMORAIS/Documents/DAVE_WS/1p_inverter_200V/Libraries/XMCLib/inc\xmc_can.h ****  * Call XMC_CAN_NODE_EnableConfigurationChange() API before NPCRx configuration, same way XMC_CAN_N
 893:C:/Users/VMORAIS/Documents/DAVE_WS/1p_inverter_200V/Libraries/XMCLib/inc\xmc_can.h ****  * API after NPCRx configuration.
 894:C:/Users/VMORAIS/Documents/DAVE_WS/1p_inverter_200V/Libraries/XMCLib/inc\xmc_can.h ****  *
 895:C:/Users/VMORAIS/Documents/DAVE_WS/1p_inverter_200V/Libraries/XMCLib/inc\xmc_can.h ****  * \par<b>Related APIs:</b><BR>]
 896:C:/Users/VMORAIS/Documents/DAVE_WS/1p_inverter_200V/Libraries/XMCLib/inc\xmc_can.h ****  * XMC_CAN_NODE_EnableLoopBack()
 897:C:/Users/VMORAIS/Documents/DAVE_WS/1p_inverter_200V/Libraries/XMCLib/inc\xmc_can.h ****  *
 898:C:/Users/VMORAIS/Documents/DAVE_WS/1p_inverter_200V/Libraries/XMCLib/inc\xmc_can.h ****  *
 899:C:/Users/VMORAIS/Documents/DAVE_WS/1p_inverter_200V/Libraries/XMCLib/inc\xmc_can.h ****  * \par<b>Note:</b><br>
 900:C:/Users/VMORAIS/Documents/DAVE_WS/1p_inverter_200V/Libraries/XMCLib/inc\xmc_can.h ****  * NPCRx can be written only if bit NCRx.CCE is set.
 901:C:/Users/VMORAIS/Documents/DAVE_WS/1p_inverter_200V/Libraries/XMCLib/inc\xmc_can.h ****  *
 902:C:/Users/VMORAIS/Documents/DAVE_WS/1p_inverter_200V/Libraries/XMCLib/inc\xmc_can.h ****  */
 903:C:/Users/VMORAIS/Documents/DAVE_WS/1p_inverter_200V/Libraries/XMCLib/inc\xmc_can.h **** 
 904:C:/Users/VMORAIS/Documents/DAVE_WS/1p_inverter_200V/Libraries/XMCLib/inc\xmc_can.h **** __STATIC_INLINE void XMC_CAN_NODE_DisableLoopBack(XMC_CAN_NODE_t *const can_node)
 905:C:/Users/VMORAIS/Documents/DAVE_WS/1p_inverter_200V/Libraries/XMCLib/inc\xmc_can.h **** {
 906:C:/Users/VMORAIS/Documents/DAVE_WS/1p_inverter_200V/Libraries/XMCLib/inc\xmc_can.h ****   can_node->NPCR &= ~(uint32_t)CAN_NODE_NPCR_LBM_Msk;
 907:C:/Users/VMORAIS/Documents/DAVE_WS/1p_inverter_200V/Libraries/XMCLib/inc\xmc_can.h **** }
 908:C:/Users/VMORAIS/Documents/DAVE_WS/1p_inverter_200V/Libraries/XMCLib/inc\xmc_can.h **** 
 909:C:/Users/VMORAIS/Documents/DAVE_WS/1p_inverter_200V/Libraries/XMCLib/inc\xmc_can.h **** 
 910:C:/Users/VMORAIS/Documents/DAVE_WS/1p_inverter_200V/Libraries/XMCLib/inc\xmc_can.h **** /**
 911:C:/Users/VMORAIS/Documents/DAVE_WS/1p_inverter_200V/Libraries/XMCLib/inc\xmc_can.h ****  *
 912:C:/Users/VMORAIS/Documents/DAVE_WS/1p_inverter_200V/Libraries/XMCLib/inc\xmc_can.h ****  * @param can_node Pointer Pointing to CAN_NODE Structure. Defines CAN_NODE registers, Range :CAN_N
 913:C:/Users/VMORAIS/Documents/DAVE_WS/1p_inverter_200V/Libraries/XMCLib/inc\xmc_can.h ****  * @param event	   CAN node event mask value. Refer @ref XMC_CAN_NODE_EVENT_t structure for valid v
 914:C:/Users/VMORAIS/Documents/DAVE_WS/1p_inverter_200V/Libraries/XMCLib/inc\xmc_can.h ****  * 				   multiple events can be ORed.
 915:C:/Users/VMORAIS/Documents/DAVE_WS/1p_inverter_200V/Libraries/XMCLib/inc\xmc_can.h ****  *
 916:C:/Users/VMORAIS/Documents/DAVE_WS/1p_inverter_200V/Libraries/XMCLib/inc\xmc_can.h ****  * @return None
 917:C:/Users/VMORAIS/Documents/DAVE_WS/1p_inverter_200V/Libraries/XMCLib/inc\xmc_can.h ****  *
 918:C:/Users/VMORAIS/Documents/DAVE_WS/1p_inverter_200V/Libraries/XMCLib/inc\xmc_can.h ****  * \par<b>Description:</b><br>
 919:C:/Users/VMORAIS/Documents/DAVE_WS/1p_inverter_200V/Libraries/XMCLib/inc\xmc_can.h ****  *  Enable CAN Node events. It configures NFCR register.
 920:C:/Users/VMORAIS/Documents/DAVE_WS/1p_inverter_200V/Libraries/XMCLib/inc\xmc_can.h ****  *
 921:C:/Users/VMORAIS/Documents/DAVE_WS/1p_inverter_200V/Libraries/XMCLib/inc\xmc_can.h ****  * \par<b>Related APIs:</b><BR>
 922:C:/Users/VMORAIS/Documents/DAVE_WS/1p_inverter_200V/Libraries/XMCLib/inc\xmc_can.h ****  * XMC_CAN_NODE_DisableEvent()
 923:C:/Users/VMORAIS/Documents/DAVE_WS/1p_inverter_200V/Libraries/XMCLib/inc\xmc_can.h ****  *
 924:C:/Users/VMORAIS/Documents/DAVE_WS/1p_inverter_200V/Libraries/XMCLib/inc\xmc_can.h ****  */
 925:C:/Users/VMORAIS/Documents/DAVE_WS/1p_inverter_200V/Libraries/XMCLib/inc\xmc_can.h **** 
 926:C:/Users/VMORAIS/Documents/DAVE_WS/1p_inverter_200V/Libraries/XMCLib/inc\xmc_can.h **** void XMC_CAN_NODE_EnableEvent(XMC_CAN_NODE_t *const can_node, const XMC_CAN_NODE_EVENT_t event);
 927:C:/Users/VMORAIS/Documents/DAVE_WS/1p_inverter_200V/Libraries/XMCLib/inc\xmc_can.h **** 
 928:C:/Users/VMORAIS/Documents/DAVE_WS/1p_inverter_200V/Libraries/XMCLib/inc\xmc_can.h **** 
 929:C:/Users/VMORAIS/Documents/DAVE_WS/1p_inverter_200V/Libraries/XMCLib/inc\xmc_can.h **** /**
 930:C:/Users/VMORAIS/Documents/DAVE_WS/1p_inverter_200V/Libraries/XMCLib/inc\xmc_can.h ****  *
 931:C:/Users/VMORAIS/Documents/DAVE_WS/1p_inverter_200V/Libraries/XMCLib/inc\xmc_can.h ****  * @param can_node Pointer Pointing to CAN_NODE Structure. Defines CAN_NODE registers, Range :CAN_N
 932:C:/Users/VMORAIS/Documents/DAVE_WS/1p_inverter_200V/Libraries/XMCLib/inc\xmc_can.h ****  * @param event	   CAN node event mask value. Refer @ref XMC_CAN_NODE_EVENT_t structure for valid v
 933:C:/Users/VMORAIS/Documents/DAVE_WS/1p_inverter_200V/Libraries/XMCLib/inc\xmc_can.h ****  * 				   multiple events can be ORed.
 934:C:/Users/VMORAIS/Documents/DAVE_WS/1p_inverter_200V/Libraries/XMCLib/inc\xmc_can.h ****  *
 935:C:/Users/VMORAIS/Documents/DAVE_WS/1p_inverter_200V/Libraries/XMCLib/inc\xmc_can.h ****  * @return None
 936:C:/Users/VMORAIS/Documents/DAVE_WS/1p_inverter_200V/Libraries/XMCLib/inc\xmc_can.h ****  *
 937:C:/Users/VMORAIS/Documents/DAVE_WS/1p_inverter_200V/Libraries/XMCLib/inc\xmc_can.h ****  * \par<b>Description:</b><br>
 938:C:/Users/VMORAIS/Documents/DAVE_WS/1p_inverter_200V/Libraries/XMCLib/inc\xmc_can.h ****  *  Disable CAN Node events. It configures NFCR register.
 939:C:/Users/VMORAIS/Documents/DAVE_WS/1p_inverter_200V/Libraries/XMCLib/inc\xmc_can.h ****  *
 940:C:/Users/VMORAIS/Documents/DAVE_WS/1p_inverter_200V/Libraries/XMCLib/inc\xmc_can.h ****  * \par<b>Related APIs:</b><BR>
 941:C:/Users/VMORAIS/Documents/DAVE_WS/1p_inverter_200V/Libraries/XMCLib/inc\xmc_can.h ****  * XMC_CAN_NODE_EnableEvent()
 942:C:/Users/VMORAIS/Documents/DAVE_WS/1p_inverter_200V/Libraries/XMCLib/inc\xmc_can.h ****  *
 943:C:/Users/VMORAIS/Documents/DAVE_WS/1p_inverter_200V/Libraries/XMCLib/inc\xmc_can.h ****  */
 944:C:/Users/VMORAIS/Documents/DAVE_WS/1p_inverter_200V/Libraries/XMCLib/inc\xmc_can.h **** 
 945:C:/Users/VMORAIS/Documents/DAVE_WS/1p_inverter_200V/Libraries/XMCLib/inc\xmc_can.h **** void XMC_CAN_NODE_DisableEvent(XMC_CAN_NODE_t *const can_node, const XMC_CAN_NODE_EVENT_t event);
 946:C:/Users/VMORAIS/Documents/DAVE_WS/1p_inverter_200V/Libraries/XMCLib/inc\xmc_can.h **** 
 947:C:/Users/VMORAIS/Documents/DAVE_WS/1p_inverter_200V/Libraries/XMCLib/inc\xmc_can.h **** 
 948:C:/Users/VMORAIS/Documents/DAVE_WS/1p_inverter_200V/Libraries/XMCLib/inc\xmc_can.h **** /**
 949:C:/Users/VMORAIS/Documents/DAVE_WS/1p_inverter_200V/Libraries/XMCLib/inc\xmc_can.h ****  *
 950:C:/Users/VMORAIS/Documents/DAVE_WS/1p_inverter_200V/Libraries/XMCLib/inc\xmc_can.h ****  * @param node Pointer Pointing to CAN_NODE Structure. Defines CAN_NODE registers, Range :CAN_NODE0
 951:C:/Users/VMORAIS/Documents/DAVE_WS/1p_inverter_200V/Libraries/XMCLib/inc\xmc_can.h ****  *
 952:C:/Users/VMORAIS/Documents/DAVE_WS/1p_inverter_200V/Libraries/XMCLib/inc\xmc_can.h ****  * @return XMC_CAN_NODE_LAST_ERROR_DIR_t Last error transfer direction. Refer @ref XMC_CAN_NODE_LAS
 953:C:/Users/VMORAIS/Documents/DAVE_WS/1p_inverter_200V/Libraries/XMCLib/inc\xmc_can.h ****  *
 954:C:/Users/VMORAIS/Documents/DAVE_WS/1p_inverter_200V/Libraries/XMCLib/inc\xmc_can.h ****  * \par<b>Description:</b><br>
 955:C:/Users/VMORAIS/Documents/DAVE_WS/1p_inverter_200V/Libraries/XMCLib/inc\xmc_can.h ****  * Returns NODE Last Error occurred during Transmit/receive direction. It returns value of NFCR reg
 956:C:/Users/VMORAIS/Documents/DAVE_WS/1p_inverter_200V/Libraries/XMCLib/inc\xmc_can.h ****  *
 957:C:/Users/VMORAIS/Documents/DAVE_WS/1p_inverter_200V/Libraries/XMCLib/inc\xmc_can.h ****  * \par<b>Related APIs:</b><BR>
 958:C:/Users/VMORAIS/Documents/DAVE_WS/1p_inverter_200V/Libraries/XMCLib/inc\xmc_can.h ****  * XMC_CAN_NODE_GetLastErrTransferInc()\n\n\n
 959:C:/Users/VMORAIS/Documents/DAVE_WS/1p_inverter_200V/Libraries/XMCLib/inc\xmc_can.h ****  *
 960:C:/Users/VMORAIS/Documents/DAVE_WS/1p_inverter_200V/Libraries/XMCLib/inc\xmc_can.h ****  */
 961:C:/Users/VMORAIS/Documents/DAVE_WS/1p_inverter_200V/Libraries/XMCLib/inc\xmc_can.h **** 
 962:C:/Users/VMORAIS/Documents/DAVE_WS/1p_inverter_200V/Libraries/XMCLib/inc\xmc_can.h **** __STATIC_INLINE XMC_CAN_NODE_LAST_ERROR_DIR_t XMC_CAN_NODE_GetLastErrTransferDir(XMC_CAN_NODE_t *co
 963:C:/Users/VMORAIS/Documents/DAVE_WS/1p_inverter_200V/Libraries/XMCLib/inc\xmc_can.h **** {
 964:C:/Users/VMORAIS/Documents/DAVE_WS/1p_inverter_200V/Libraries/XMCLib/inc\xmc_can.h ****   return (XMC_CAN_NODE_LAST_ERROR_DIR_t)(((node->NECNT) & CAN_NODE_NECNT_LETD_Msk) >> CAN_NODE_NECN
 965:C:/Users/VMORAIS/Documents/DAVE_WS/1p_inverter_200V/Libraries/XMCLib/inc\xmc_can.h **** }
 966:C:/Users/VMORAIS/Documents/DAVE_WS/1p_inverter_200V/Libraries/XMCLib/inc\xmc_can.h **** 
 967:C:/Users/VMORAIS/Documents/DAVE_WS/1p_inverter_200V/Libraries/XMCLib/inc\xmc_can.h **** 
 968:C:/Users/VMORAIS/Documents/DAVE_WS/1p_inverter_200V/Libraries/XMCLib/inc\xmc_can.h **** /**
 969:C:/Users/VMORAIS/Documents/DAVE_WS/1p_inverter_200V/Libraries/XMCLib/inc\xmc_can.h ****  *
 970:C:/Users/VMORAIS/Documents/DAVE_WS/1p_inverter_200V/Libraries/XMCLib/inc\xmc_can.h ****  * @param node Pointer Pointing to CAN_NODE Structure. Defines CAN_NODE registers, Range :CAN_NODE0
 971:C:/Users/VMORAIS/Documents/DAVE_WS/1p_inverter_200V/Libraries/XMCLib/inc\xmc_can.h ****  *
 972:C:/Users/VMORAIS/Documents/DAVE_WS/1p_inverter_200V/Libraries/XMCLib/inc\xmc_can.h ****  * @return XMC_CAN_NODE_LAST_ERROR_INC_t Last error transfer increment. Refer @ref XMC_CAN_NODE_LAS
 973:C:/Users/VMORAIS/Documents/DAVE_WS/1p_inverter_200V/Libraries/XMCLib/inc\xmc_can.h ****  *
 974:C:/Users/VMORAIS/Documents/DAVE_WS/1p_inverter_200V/Libraries/XMCLib/inc\xmc_can.h ****  * \par<b>Description:</b><br>
 975:C:/Users/VMORAIS/Documents/DAVE_WS/1p_inverter_200V/Libraries/XMCLib/inc\xmc_can.h ****  *  Returns NODE Last Error Transfer Increment. It returns value of NFCR register.
 976:C:/Users/VMORAIS/Documents/DAVE_WS/1p_inverter_200V/Libraries/XMCLib/inc\xmc_can.h ****  *
 977:C:/Users/VMORAIS/Documents/DAVE_WS/1p_inverter_200V/Libraries/XMCLib/inc\xmc_can.h ****  * \par<b>Related APIs:</b><BR>
 978:C:/Users/VMORAIS/Documents/DAVE_WS/1p_inverter_200V/Libraries/XMCLib/inc\xmc_can.h ****  * XMC_CAN_NODE_GetLastErrTransferDir()\n\n\n
 979:C:/Users/VMORAIS/Documents/DAVE_WS/1p_inverter_200V/Libraries/XMCLib/inc\xmc_can.h ****  *
 980:C:/Users/VMORAIS/Documents/DAVE_WS/1p_inverter_200V/Libraries/XMCLib/inc\xmc_can.h ****  */
 981:C:/Users/VMORAIS/Documents/DAVE_WS/1p_inverter_200V/Libraries/XMCLib/inc\xmc_can.h **** 
 982:C:/Users/VMORAIS/Documents/DAVE_WS/1p_inverter_200V/Libraries/XMCLib/inc\xmc_can.h **** __STATIC_INLINE XMC_CAN_NODE_LAST_ERROR_INC_t XMC_CAN_NODE_GetLastErrTransferInc(XMC_CAN_NODE_t *co
 983:C:/Users/VMORAIS/Documents/DAVE_WS/1p_inverter_200V/Libraries/XMCLib/inc\xmc_can.h **** {
 984:C:/Users/VMORAIS/Documents/DAVE_WS/1p_inverter_200V/Libraries/XMCLib/inc\xmc_can.h ****   return (XMC_CAN_NODE_LAST_ERROR_INC_t)(((node->NECNT) & CAN_NODE_NECNT_LEINC_Msk)>> CAN_NODE_NECN
 985:C:/Users/VMORAIS/Documents/DAVE_WS/1p_inverter_200V/Libraries/XMCLib/inc\xmc_can.h **** }
 986:C:/Users/VMORAIS/Documents/DAVE_WS/1p_inverter_200V/Libraries/XMCLib/inc\xmc_can.h **** 
 987:C:/Users/VMORAIS/Documents/DAVE_WS/1p_inverter_200V/Libraries/XMCLib/inc\xmc_can.h **** 
 988:C:/Users/VMORAIS/Documents/DAVE_WS/1p_inverter_200V/Libraries/XMCLib/inc\xmc_can.h **** /**
 989:C:/Users/VMORAIS/Documents/DAVE_WS/1p_inverter_200V/Libraries/XMCLib/inc\xmc_can.h ****  *
 990:C:/Users/VMORAIS/Documents/DAVE_WS/1p_inverter_200V/Libraries/XMCLib/inc\xmc_can.h ****  * @param can_node Pointer Pointing to CAN_NODE Structure. Defines CAN_NODE registers, Range :CAN_N
 991:C:/Users/VMORAIS/Documents/DAVE_WS/1p_inverter_200V/Libraries/XMCLib/inc\xmc_can.h ****  * @param  error_warning_level	Error Warning level value. Range :0-255.
 992:C:/Users/VMORAIS/Documents/DAVE_WS/1p_inverter_200V/Libraries/XMCLib/inc\xmc_can.h ****  *
 993:C:/Users/VMORAIS/Documents/DAVE_WS/1p_inverter_200V/Libraries/XMCLib/inc\xmc_can.h ****  * @return None
 994:C:/Users/VMORAIS/Documents/DAVE_WS/1p_inverter_200V/Libraries/XMCLib/inc\xmc_can.h ****  *
 995:C:/Users/VMORAIS/Documents/DAVE_WS/1p_inverter_200V/Libraries/XMCLib/inc\xmc_can.h ****  * \par<b>Description:</b><br>
 996:C:/Users/VMORAIS/Documents/DAVE_WS/1p_inverter_200V/Libraries/XMCLib/inc\xmc_can.h ****  * Configures error warning level in order to set the corresponding error warning bit EWRN. It conf
 997:C:/Users/VMORAIS/Documents/DAVE_WS/1p_inverter_200V/Libraries/XMCLib/inc\xmc_can.h ****  * into NECNT register. Before this configuration call XMC_CAN_NODE_EnableConfigurationChange() API
 998:C:/Users/VMORAIS/Documents/DAVE_WS/1p_inverter_200V/Libraries/XMCLib/inc\xmc_can.h ****  *
 999:C:/Users/VMORAIS/Documents/DAVE_WS/1p_inverter_200V/Libraries/XMCLib/inc\xmc_can.h ****  * \par<b>Related APIs:</b><BR>
1000:C:/Users/VMORAIS/Documents/DAVE_WS/1p_inverter_200V/Libraries/XMCLib/inc\xmc_can.h ****  * XMC_CAN_NODE_GetErrorWarningLevel()\n\n\n
1001:C:/Users/VMORAIS/Documents/DAVE_WS/1p_inverter_200V/Libraries/XMCLib/inc\xmc_can.h ****  *
1002:C:/Users/VMORAIS/Documents/DAVE_WS/1p_inverter_200V/Libraries/XMCLib/inc\xmc_can.h ****  * \par<b>Note:</b><br>
1003:C:/Users/VMORAIS/Documents/DAVE_WS/1p_inverter_200V/Libraries/XMCLib/inc\xmc_can.h ****  *  NECNTx can be written only if bit NCRx.CCE is set.
1004:C:/Users/VMORAIS/Documents/DAVE_WS/1p_inverter_200V/Libraries/XMCLib/inc\xmc_can.h ****  *
1005:C:/Users/VMORAIS/Documents/DAVE_WS/1p_inverter_200V/Libraries/XMCLib/inc\xmc_can.h ****  */
1006:C:/Users/VMORAIS/Documents/DAVE_WS/1p_inverter_200V/Libraries/XMCLib/inc\xmc_can.h **** 
1007:C:/Users/VMORAIS/Documents/DAVE_WS/1p_inverter_200V/Libraries/XMCLib/inc\xmc_can.h **** __STATIC_INLINE void XMC_CAN_NODE_SetErrorWarningLevel(XMC_CAN_NODE_t *const can_node, uint8_t erro
1008:C:/Users/VMORAIS/Documents/DAVE_WS/1p_inverter_200V/Libraries/XMCLib/inc\xmc_can.h **** {
1009:C:/Users/VMORAIS/Documents/DAVE_WS/1p_inverter_200V/Libraries/XMCLib/inc\xmc_can.h ****   can_node->NECNT = ((can_node->NECNT) & ~(uint32_t)(CAN_NODE_NECNT_EWRNLVL_Msk)) |
1010:C:/Users/VMORAIS/Documents/DAVE_WS/1p_inverter_200V/Libraries/XMCLib/inc\xmc_can.h ****                     (((uint32_t)error_warning_level << CAN_NODE_NECNT_EWRNLVL_Pos) & (uint32_t)CAN_
1011:C:/Users/VMORAIS/Documents/DAVE_WS/1p_inverter_200V/Libraries/XMCLib/inc\xmc_can.h **** }
1012:C:/Users/VMORAIS/Documents/DAVE_WS/1p_inverter_200V/Libraries/XMCLib/inc\xmc_can.h **** 
1013:C:/Users/VMORAIS/Documents/DAVE_WS/1p_inverter_200V/Libraries/XMCLib/inc\xmc_can.h **** 
1014:C:/Users/VMORAIS/Documents/DAVE_WS/1p_inverter_200V/Libraries/XMCLib/inc\xmc_can.h **** /**
1015:C:/Users/VMORAIS/Documents/DAVE_WS/1p_inverter_200V/Libraries/XMCLib/inc\xmc_can.h ****  *
1016:C:/Users/VMORAIS/Documents/DAVE_WS/1p_inverter_200V/Libraries/XMCLib/inc\xmc_can.h ****  * @param can_node Pointer Pointing to CAN_NODE Structure. Defines CAN_NODE registers, Range :CAN_N
1017:C:/Users/VMORAIS/Documents/DAVE_WS/1p_inverter_200V/Libraries/XMCLib/inc\xmc_can.h ****  * @param can_tec  transmit error counter value. Range :0-255
1018:C:/Users/VMORAIS/Documents/DAVE_WS/1p_inverter_200V/Libraries/XMCLib/inc\xmc_can.h ****  *
1019:C:/Users/VMORAIS/Documents/DAVE_WS/1p_inverter_200V/Libraries/XMCLib/inc\xmc_can.h ****  * @return None
1020:C:/Users/VMORAIS/Documents/DAVE_WS/1p_inverter_200V/Libraries/XMCLib/inc\xmc_can.h ****  *
1021:C:/Users/VMORAIS/Documents/DAVE_WS/1p_inverter_200V/Libraries/XMCLib/inc\xmc_can.h ****  * \par<b>Description:</b><br>
1022:C:/Users/VMORAIS/Documents/DAVE_WS/1p_inverter_200V/Libraries/XMCLib/inc\xmc_can.h ****  *  Configures Transmit error counter. It configures \a can_tec into NECNT register. Before this co
1023:C:/Users/VMORAIS/Documents/DAVE_WS/1p_inverter_200V/Libraries/XMCLib/inc\xmc_can.h ****  *  XMC_CAN_NODE_EnableConfigurationChange() API.
1024:C:/Users/VMORAIS/Documents/DAVE_WS/1p_inverter_200V/Libraries/XMCLib/inc\xmc_can.h ****  *
1025:C:/Users/VMORAIS/Documents/DAVE_WS/1p_inverter_200V/Libraries/XMCLib/inc\xmc_can.h ****  * \par<b>Related APIs:</b><BR>
1026:C:/Users/VMORAIS/Documents/DAVE_WS/1p_inverter_200V/Libraries/XMCLib/inc\xmc_can.h ****  * XMC_CAN_NODE_GetTransmitErrorCounter()\n\n\n
1027:C:/Users/VMORAIS/Documents/DAVE_WS/1p_inverter_200V/Libraries/XMCLib/inc\xmc_can.h ****  *
1028:C:/Users/VMORAIS/Documents/DAVE_WS/1p_inverter_200V/Libraries/XMCLib/inc\xmc_can.h ****  *  \par<b>Note:</b><br>
1029:C:/Users/VMORAIS/Documents/DAVE_WS/1p_inverter_200V/Libraries/XMCLib/inc\xmc_can.h ****  *  NECNTx can be written only if bit NCRx.CCE is set.
1030:C:/Users/VMORAIS/Documents/DAVE_WS/1p_inverter_200V/Libraries/XMCLib/inc\xmc_can.h ****  *
1031:C:/Users/VMORAIS/Documents/DAVE_WS/1p_inverter_200V/Libraries/XMCLib/inc\xmc_can.h ****  */
1032:C:/Users/VMORAIS/Documents/DAVE_WS/1p_inverter_200V/Libraries/XMCLib/inc\xmc_can.h **** 
1033:C:/Users/VMORAIS/Documents/DAVE_WS/1p_inverter_200V/Libraries/XMCLib/inc\xmc_can.h **** 
1034:C:/Users/VMORAIS/Documents/DAVE_WS/1p_inverter_200V/Libraries/XMCLib/inc\xmc_can.h **** __STATIC_INLINE void XMC_CAN_NODE_SetTransmitErrorCounter(XMC_CAN_NODE_t *const can_node, uint8_t c
1035:C:/Users/VMORAIS/Documents/DAVE_WS/1p_inverter_200V/Libraries/XMCLib/inc\xmc_can.h **** {
1036:C:/Users/VMORAIS/Documents/DAVE_WS/1p_inverter_200V/Libraries/XMCLib/inc\xmc_can.h ****   can_node->NECNT = ((can_node->NECNT) & ~(uint32_t)(CAN_NODE_NECNT_TEC_Msk)) |
1037:C:/Users/VMORAIS/Documents/DAVE_WS/1p_inverter_200V/Libraries/XMCLib/inc\xmc_can.h ****                     (((uint32_t)can_tec << CAN_NODE_NECNT_TEC_Pos) & (uint32_t)CAN_NODE_NECNT_TEC_M
1038:C:/Users/VMORAIS/Documents/DAVE_WS/1p_inverter_200V/Libraries/XMCLib/inc\xmc_can.h **** }
1039:C:/Users/VMORAIS/Documents/DAVE_WS/1p_inverter_200V/Libraries/XMCLib/inc\xmc_can.h **** 
1040:C:/Users/VMORAIS/Documents/DAVE_WS/1p_inverter_200V/Libraries/XMCLib/inc\xmc_can.h **** 
1041:C:/Users/VMORAIS/Documents/DAVE_WS/1p_inverter_200V/Libraries/XMCLib/inc\xmc_can.h **** /**
1042:C:/Users/VMORAIS/Documents/DAVE_WS/1p_inverter_200V/Libraries/XMCLib/inc\xmc_can.h ****  *
1043:C:/Users/VMORAIS/Documents/DAVE_WS/1p_inverter_200V/Libraries/XMCLib/inc\xmc_can.h ****  * @param can_node Pointer Pointing to CAN_NODE Structure. Defines CAN_NODE registers, Range :CAN_N
1044:C:/Users/VMORAIS/Documents/DAVE_WS/1p_inverter_200V/Libraries/XMCLib/inc\xmc_can.h ****  * @param can_rec  receive error counter value. Range :0-255
1045:C:/Users/VMORAIS/Documents/DAVE_WS/1p_inverter_200V/Libraries/XMCLib/inc\xmc_can.h ****  *
1046:C:/Users/VMORAIS/Documents/DAVE_WS/1p_inverter_200V/Libraries/XMCLib/inc\xmc_can.h ****  * @return None
1047:C:/Users/VMORAIS/Documents/DAVE_WS/1p_inverter_200V/Libraries/XMCLib/inc\xmc_can.h ****  *
1048:C:/Users/VMORAIS/Documents/DAVE_WS/1p_inverter_200V/Libraries/XMCLib/inc\xmc_can.h ****  * \par<b>Description:</b><br>
1049:C:/Users/VMORAIS/Documents/DAVE_WS/1p_inverter_200V/Libraries/XMCLib/inc\xmc_can.h ****  * Configures Receive Error Counter. It configures \a can_rec into NECNT register. Before this conf
1050:C:/Users/VMORAIS/Documents/DAVE_WS/1p_inverter_200V/Libraries/XMCLib/inc\xmc_can.h ****  * XMC_CAN_NODE_EnableConfigurationChange() API.
1051:C:/Users/VMORAIS/Documents/DAVE_WS/1p_inverter_200V/Libraries/XMCLib/inc\xmc_can.h ****  *
1052:C:/Users/VMORAIS/Documents/DAVE_WS/1p_inverter_200V/Libraries/XMCLib/inc\xmc_can.h ****  * \par<b>Related APIs:</b><BR>
1053:C:/Users/VMORAIS/Documents/DAVE_WS/1p_inverter_200V/Libraries/XMCLib/inc\xmc_can.h ****  * XMC_CAN_NODE_GetReceiveErrorCounter()\n\n\n
1054:C:/Users/VMORAIS/Documents/DAVE_WS/1p_inverter_200V/Libraries/XMCLib/inc\xmc_can.h ****  *
1055:C:/Users/VMORAIS/Documents/DAVE_WS/1p_inverter_200V/Libraries/XMCLib/inc\xmc_can.h ****  * \par<b>Note:</b><br>
1056:C:/Users/VMORAIS/Documents/DAVE_WS/1p_inverter_200V/Libraries/XMCLib/inc\xmc_can.h ****  *  NECNTx can be written only if bit NCRx.CCE is set.
1057:C:/Users/VMORAIS/Documents/DAVE_WS/1p_inverter_200V/Libraries/XMCLib/inc\xmc_can.h ****  *
1058:C:/Users/VMORAIS/Documents/DAVE_WS/1p_inverter_200V/Libraries/XMCLib/inc\xmc_can.h ****  */
1059:C:/Users/VMORAIS/Documents/DAVE_WS/1p_inverter_200V/Libraries/XMCLib/inc\xmc_can.h **** 
1060:C:/Users/VMORAIS/Documents/DAVE_WS/1p_inverter_200V/Libraries/XMCLib/inc\xmc_can.h **** __STATIC_INLINE void XMC_CAN_NODE_SetReceiveErrorCounter(XMC_CAN_NODE_t *const can_node, uint8_t ca
1061:C:/Users/VMORAIS/Documents/DAVE_WS/1p_inverter_200V/Libraries/XMCLib/inc\xmc_can.h **** {
1062:C:/Users/VMORAIS/Documents/DAVE_WS/1p_inverter_200V/Libraries/XMCLib/inc\xmc_can.h ****  can_node->NECNT = ((can_node->NECNT) & ~(uint32_t)(CAN_NODE_NECNT_REC_Msk)) |
1063:C:/Users/VMORAIS/Documents/DAVE_WS/1p_inverter_200V/Libraries/XMCLib/inc\xmc_can.h ****                    (((uint32_t)can_rec << CAN_NODE_NECNT_REC_Pos) & (uint32_t)CAN_NODE_NECNT_REC_Ms
1064:C:/Users/VMORAIS/Documents/DAVE_WS/1p_inverter_200V/Libraries/XMCLib/inc\xmc_can.h **** }
1065:C:/Users/VMORAIS/Documents/DAVE_WS/1p_inverter_200V/Libraries/XMCLib/inc\xmc_can.h **** 
1066:C:/Users/VMORAIS/Documents/DAVE_WS/1p_inverter_200V/Libraries/XMCLib/inc\xmc_can.h **** 
1067:C:/Users/VMORAIS/Documents/DAVE_WS/1p_inverter_200V/Libraries/XMCLib/inc\xmc_can.h **** /**
1068:C:/Users/VMORAIS/Documents/DAVE_WS/1p_inverter_200V/Libraries/XMCLib/inc\xmc_can.h ****  *
1069:C:/Users/VMORAIS/Documents/DAVE_WS/1p_inverter_200V/Libraries/XMCLib/inc\xmc_can.h ****  * @param can_node Pointer Pointing to CAN_NODE Structure. Defines CAN_NODE registers, Range :CAN_N
1070:C:/Users/VMORAIS/Documents/DAVE_WS/1p_inverter_200V/Libraries/XMCLib/inc\xmc_can.h ****  *
1071:C:/Users/VMORAIS/Documents/DAVE_WS/1p_inverter_200V/Libraries/XMCLib/inc\xmc_can.h ****  * @return uint8_t Error Warning Level. Range :0 - 255
1072:C:/Users/VMORAIS/Documents/DAVE_WS/1p_inverter_200V/Libraries/XMCLib/inc\xmc_can.h ****  *
1073:C:/Users/VMORAIS/Documents/DAVE_WS/1p_inverter_200V/Libraries/XMCLib/inc\xmc_can.h ****  * \par<b>Description:</b><br>
1074:C:/Users/VMORAIS/Documents/DAVE_WS/1p_inverter_200V/Libraries/XMCLib/inc\xmc_can.h ****  *	Returns error warning level. This determines the threshold value (warning level, default 96) to 
1075:C:/Users/VMORAIS/Documents/DAVE_WS/1p_inverter_200V/Libraries/XMCLib/inc\xmc_can.h ****  *	to set the corresponding error warning bit EWRN. It reads NECNT register.
1076:C:/Users/VMORAIS/Documents/DAVE_WS/1p_inverter_200V/Libraries/XMCLib/inc\xmc_can.h ****  *
1077:C:/Users/VMORAIS/Documents/DAVE_WS/1p_inverter_200V/Libraries/XMCLib/inc\xmc_can.h ****  * \par<b>Related APIs:</b><BR>
1078:C:/Users/VMORAIS/Documents/DAVE_WS/1p_inverter_200V/Libraries/XMCLib/inc\xmc_can.h ****  * XMC_CAN_NODE_SetErrorWarningLevel()\n\n\n
1079:C:/Users/VMORAIS/Documents/DAVE_WS/1p_inverter_200V/Libraries/XMCLib/inc\xmc_can.h ****  *
1080:C:/Users/VMORAIS/Documents/DAVE_WS/1p_inverter_200V/Libraries/XMCLib/inc\xmc_can.h ****  */
1081:C:/Users/VMORAIS/Documents/DAVE_WS/1p_inverter_200V/Libraries/XMCLib/inc\xmc_can.h **** 
1082:C:/Users/VMORAIS/Documents/DAVE_WS/1p_inverter_200V/Libraries/XMCLib/inc\xmc_can.h **** 
1083:C:/Users/VMORAIS/Documents/DAVE_WS/1p_inverter_200V/Libraries/XMCLib/inc\xmc_can.h **** __STATIC_INLINE uint8_t XMC_CAN_NODE_GetErrorWarningLevel(XMC_CAN_NODE_t *const can_node)
1084:C:/Users/VMORAIS/Documents/DAVE_WS/1p_inverter_200V/Libraries/XMCLib/inc\xmc_can.h **** {
1085:C:/Users/VMORAIS/Documents/DAVE_WS/1p_inverter_200V/Libraries/XMCLib/inc\xmc_can.h ****  return (uint8_t)((uint32_t)((can_node->NECNT)  & CAN_NODE_NECNT_EWRNLVL_Msk) >> CAN_NODE_NECNT_EWR
1086:C:/Users/VMORAIS/Documents/DAVE_WS/1p_inverter_200V/Libraries/XMCLib/inc\xmc_can.h **** }
1087:C:/Users/VMORAIS/Documents/DAVE_WS/1p_inverter_200V/Libraries/XMCLib/inc\xmc_can.h **** 
1088:C:/Users/VMORAIS/Documents/DAVE_WS/1p_inverter_200V/Libraries/XMCLib/inc\xmc_can.h **** 
1089:C:/Users/VMORAIS/Documents/DAVE_WS/1p_inverter_200V/Libraries/XMCLib/inc\xmc_can.h **** /**
1090:C:/Users/VMORAIS/Documents/DAVE_WS/1p_inverter_200V/Libraries/XMCLib/inc\xmc_can.h ****  *
1091:C:/Users/VMORAIS/Documents/DAVE_WS/1p_inverter_200V/Libraries/XMCLib/inc\xmc_can.h ****  * @param can_node Pointer Pointing to CAN_NODE Structure. Defines CAN_NODE registers, Range :CAN_N
1092:C:/Users/VMORAIS/Documents/DAVE_WS/1p_inverter_200V/Libraries/XMCLib/inc\xmc_can.h ****  *
1093:C:/Users/VMORAIS/Documents/DAVE_WS/1p_inverter_200V/Libraries/XMCLib/inc\xmc_can.h ****  * @return uint8_t transmit error counter value. Range :0 - 255
1094:C:/Users/VMORAIS/Documents/DAVE_WS/1p_inverter_200V/Libraries/XMCLib/inc\xmc_can.h ****  *
1095:C:/Users/VMORAIS/Documents/DAVE_WS/1p_inverter_200V/Libraries/XMCLib/inc\xmc_can.h ****  * \par<b>Description:</b><br>
1096:C:/Users/VMORAIS/Documents/DAVE_WS/1p_inverter_200V/Libraries/XMCLib/inc\xmc_can.h ****  *	Returns Transmit Error Counter value. If the Bitstream Processor detects an error while a transm
1097:C:/Users/VMORAIS/Documents/DAVE_WS/1p_inverter_200V/Libraries/XMCLib/inc\xmc_can.h ****  *	running, the Transmit Error Counter is incremented by 8. An increment of 1 is used when the erro
1098:C:/Users/VMORAIS/Documents/DAVE_WS/1p_inverter_200V/Libraries/XMCLib/inc\xmc_can.h ****  *	reported by an external CAN node via an Error Frame generation. It reads NECNT register.
1099:C:/Users/VMORAIS/Documents/DAVE_WS/1p_inverter_200V/Libraries/XMCLib/inc\xmc_can.h ****  *
1100:C:/Users/VMORAIS/Documents/DAVE_WS/1p_inverter_200V/Libraries/XMCLib/inc\xmc_can.h ****  * \par<b>Related APIs:</b><BR>
1101:C:/Users/VMORAIS/Documents/DAVE_WS/1p_inverter_200V/Libraries/XMCLib/inc\xmc_can.h ****  * XMC_CAN_NODE_SetTransmitErrorCounter()
1102:C:/Users/VMORAIS/Documents/DAVE_WS/1p_inverter_200V/Libraries/XMCLib/inc\xmc_can.h ****  *
1103:C:/Users/VMORAIS/Documents/DAVE_WS/1p_inverter_200V/Libraries/XMCLib/inc\xmc_can.h ****  * \par<b>Note:</b><br>
1104:C:/Users/VMORAIS/Documents/DAVE_WS/1p_inverter_200V/Libraries/XMCLib/inc\xmc_can.h ****  *  NECNTx can be written only if bit NCRx.CCE is set.
1105:C:/Users/VMORAIS/Documents/DAVE_WS/1p_inverter_200V/Libraries/XMCLib/inc\xmc_can.h ****  *
1106:C:/Users/VMORAIS/Documents/DAVE_WS/1p_inverter_200V/Libraries/XMCLib/inc\xmc_can.h ****  */
1107:C:/Users/VMORAIS/Documents/DAVE_WS/1p_inverter_200V/Libraries/XMCLib/inc\xmc_can.h **** 
1108:C:/Users/VMORAIS/Documents/DAVE_WS/1p_inverter_200V/Libraries/XMCLib/inc\xmc_can.h **** __STATIC_INLINE uint8_t XMC_CAN_NODE_GetTransmitErrorCounter(XMC_CAN_NODE_t *const can_node)
1109:C:/Users/VMORAIS/Documents/DAVE_WS/1p_inverter_200V/Libraries/XMCLib/inc\xmc_can.h **** {
1110:C:/Users/VMORAIS/Documents/DAVE_WS/1p_inverter_200V/Libraries/XMCLib/inc\xmc_can.h ****   return (uint8_t)((uint32_t)((can_node->NECNT)  & CAN_NODE_NECNT_TEC_Msk) >> CAN_NODE_NECNT_TEC_Po
1111:C:/Users/VMORAIS/Documents/DAVE_WS/1p_inverter_200V/Libraries/XMCLib/inc\xmc_can.h **** }
1112:C:/Users/VMORAIS/Documents/DAVE_WS/1p_inverter_200V/Libraries/XMCLib/inc\xmc_can.h **** 
1113:C:/Users/VMORAIS/Documents/DAVE_WS/1p_inverter_200V/Libraries/XMCLib/inc\xmc_can.h **** 
1114:C:/Users/VMORAIS/Documents/DAVE_WS/1p_inverter_200V/Libraries/XMCLib/inc\xmc_can.h **** /**
1115:C:/Users/VMORAIS/Documents/DAVE_WS/1p_inverter_200V/Libraries/XMCLib/inc\xmc_can.h ****  *
1116:C:/Users/VMORAIS/Documents/DAVE_WS/1p_inverter_200V/Libraries/XMCLib/inc\xmc_can.h ****  * @param can_node Pointer Pointing to CAN_NODE Structure. Defines CAN_NODE registers, Range :CAN_N
1117:C:/Users/VMORAIS/Documents/DAVE_WS/1p_inverter_200V/Libraries/XMCLib/inc\xmc_can.h ****  *
1118:C:/Users/VMORAIS/Documents/DAVE_WS/1p_inverter_200V/Libraries/XMCLib/inc\xmc_can.h ****  * @return uint8_t	receive error counter value.
1119:C:/Users/VMORAIS/Documents/DAVE_WS/1p_inverter_200V/Libraries/XMCLib/inc\xmc_can.h ****  *
1120:C:/Users/VMORAIS/Documents/DAVE_WS/1p_inverter_200V/Libraries/XMCLib/inc\xmc_can.h ****  * \par<b>Description:</b><br>
1121:C:/Users/VMORAIS/Documents/DAVE_WS/1p_inverter_200V/Libraries/XMCLib/inc\xmc_can.h ****  *	Returns Receive Error Counter value. It reads NECNT register.
1122:C:/Users/VMORAIS/Documents/DAVE_WS/1p_inverter_200V/Libraries/XMCLib/inc\xmc_can.h ****  *
1123:C:/Users/VMORAIS/Documents/DAVE_WS/1p_inverter_200V/Libraries/XMCLib/inc\xmc_can.h ****  * \par<b>Related APIs:</b><BR>
1124:C:/Users/VMORAIS/Documents/DAVE_WS/1p_inverter_200V/Libraries/XMCLib/inc\xmc_can.h ****  * XMC_CAN_NODE_SetReceiveErrorCounter()
1125:C:/Users/VMORAIS/Documents/DAVE_WS/1p_inverter_200V/Libraries/XMCLib/inc\xmc_can.h ****  *
1126:C:/Users/VMORAIS/Documents/DAVE_WS/1p_inverter_200V/Libraries/XMCLib/inc\xmc_can.h ****  */
1127:C:/Users/VMORAIS/Documents/DAVE_WS/1p_inverter_200V/Libraries/XMCLib/inc\xmc_can.h **** 
1128:C:/Users/VMORAIS/Documents/DAVE_WS/1p_inverter_200V/Libraries/XMCLib/inc\xmc_can.h **** __STATIC_INLINE uint8_t XMC_CAN_NODE_GetReceiveErrorCounter(XMC_CAN_NODE_t *const can_node)
1129:C:/Users/VMORAIS/Documents/DAVE_WS/1p_inverter_200V/Libraries/XMCLib/inc\xmc_can.h **** {
1130:C:/Users/VMORAIS/Documents/DAVE_WS/1p_inverter_200V/Libraries/XMCLib/inc\xmc_can.h ****   return (uint8_t)((uint32_t)((can_node->NECNT)  & CAN_NODE_NECNT_REC_Msk) >> CAN_NODE_NECNT_REC_Po
1131:C:/Users/VMORAIS/Documents/DAVE_WS/1p_inverter_200V/Libraries/XMCLib/inc\xmc_can.h **** }
1132:C:/Users/VMORAIS/Documents/DAVE_WS/1p_inverter_200V/Libraries/XMCLib/inc\xmc_can.h **** 
1133:C:/Users/VMORAIS/Documents/DAVE_WS/1p_inverter_200V/Libraries/XMCLib/inc\xmc_can.h **** 
1134:C:/Users/VMORAIS/Documents/DAVE_WS/1p_inverter_200V/Libraries/XMCLib/inc\xmc_can.h **** /**
1135:C:/Users/VMORAIS/Documents/DAVE_WS/1p_inverter_200V/Libraries/XMCLib/inc\xmc_can.h ****  *
1136:C:/Users/VMORAIS/Documents/DAVE_WS/1p_inverter_200V/Libraries/XMCLib/inc\xmc_can.h ****  * @param can_node Pointer Pointing to CAN_NODE Structure. Defines CAN_NODE registers, Range :CAN_N
1137:C:/Users/VMORAIS/Documents/DAVE_WS/1p_inverter_200V/Libraries/XMCLib/inc\xmc_can.h ****  *
1138:C:/Users/VMORAIS/Documents/DAVE_WS/1p_inverter_200V/Libraries/XMCLib/inc\xmc_can.h ****  * @return uint32_t Current status of the node.
1139:C:/Users/VMORAIS/Documents/DAVE_WS/1p_inverter_200V/Libraries/XMCLib/inc\xmc_can.h ****  *
1140:C:/Users/VMORAIS/Documents/DAVE_WS/1p_inverter_200V/Libraries/XMCLib/inc\xmc_can.h ****  * \par<b>Description:</b><br>
1141:C:/Users/VMORAIS/Documents/DAVE_WS/1p_inverter_200V/Libraries/XMCLib/inc\xmc_can.h ****  * Returns errors status as well as successfully transferred CAN frames status.
1142:C:/Users/VMORAIS/Documents/DAVE_WS/1p_inverter_200V/Libraries/XMCLib/inc\xmc_can.h ****  *
1143:C:/Users/VMORAIS/Documents/DAVE_WS/1p_inverter_200V/Libraries/XMCLib/inc\xmc_can.h ****  * \par<b>Related APIs:</b><BR>
1144:C:/Users/VMORAIS/Documents/DAVE_WS/1p_inverter_200V/Libraries/XMCLib/inc\xmc_can.h ****  *  XMC_CAN_NODE_ClearStatus()
1145:C:/Users/VMORAIS/Documents/DAVE_WS/1p_inverter_200V/Libraries/XMCLib/inc\xmc_can.h ****  *
1146:C:/Users/VMORAIS/Documents/DAVE_WS/1p_inverter_200V/Libraries/XMCLib/inc\xmc_can.h ****  */
1147:C:/Users/VMORAIS/Documents/DAVE_WS/1p_inverter_200V/Libraries/XMCLib/inc\xmc_can.h **** 
1148:C:/Users/VMORAIS/Documents/DAVE_WS/1p_inverter_200V/Libraries/XMCLib/inc\xmc_can.h **** __STATIC_INLINE uint32_t XMC_CAN_NODE_GetStatus(XMC_CAN_NODE_t *const can_node)
1149:C:/Users/VMORAIS/Documents/DAVE_WS/1p_inverter_200V/Libraries/XMCLib/inc\xmc_can.h **** {
1150:C:/Users/VMORAIS/Documents/DAVE_WS/1p_inverter_200V/Libraries/XMCLib/inc\xmc_can.h ****   return ((can_node->NSR));
1151:C:/Users/VMORAIS/Documents/DAVE_WS/1p_inverter_200V/Libraries/XMCLib/inc\xmc_can.h **** }
1152:C:/Users/VMORAIS/Documents/DAVE_WS/1p_inverter_200V/Libraries/XMCLib/inc\xmc_can.h **** 
1153:C:/Users/VMORAIS/Documents/DAVE_WS/1p_inverter_200V/Libraries/XMCLib/inc\xmc_can.h **** /**
1154:C:/Users/VMORAIS/Documents/DAVE_WS/1p_inverter_200V/Libraries/XMCLib/inc\xmc_can.h ****  *
1155:C:/Users/VMORAIS/Documents/DAVE_WS/1p_inverter_200V/Libraries/XMCLib/inc\xmc_can.h ****  * @param can_node Pointer Pointing to CAN_NODE Structure. Defines CAN_NODE registers, Range :CAN_N
1156:C:/Users/VMORAIS/Documents/DAVE_WS/1p_inverter_200V/Libraries/XMCLib/inc\xmc_can.h ****  * @param can_node_status Status to clear.Refer @ref XMC_CAN_NODE_STATUS_t for valid values.
1157:C:/Users/VMORAIS/Documents/DAVE_WS/1p_inverter_200V/Libraries/XMCLib/inc\xmc_can.h ****  *
1158:C:/Users/VMORAIS/Documents/DAVE_WS/1p_inverter_200V/Libraries/XMCLib/inc\xmc_can.h ****  * @return None
1159:C:/Users/VMORAIS/Documents/DAVE_WS/1p_inverter_200V/Libraries/XMCLib/inc\xmc_can.h ****  *
1160:C:/Users/VMORAIS/Documents/DAVE_WS/1p_inverter_200V/Libraries/XMCLib/inc\xmc_can.h ****  * \par<b>Description:</b><br>
1161:C:/Users/VMORAIS/Documents/DAVE_WS/1p_inverter_200V/Libraries/XMCLib/inc\xmc_can.h ****  * Clear errors status as well as successfully transferred CAN frames status.
1162:C:/Users/VMORAIS/Documents/DAVE_WS/1p_inverter_200V/Libraries/XMCLib/inc\xmc_can.h ****  *
1163:C:/Users/VMORAIS/Documents/DAVE_WS/1p_inverter_200V/Libraries/XMCLib/inc\xmc_can.h ****  * \par<b>Related APIs:</b><BR>
1164:C:/Users/VMORAIS/Documents/DAVE_WS/1p_inverter_200V/Libraries/XMCLib/inc\xmc_can.h ****  * XMC_CAN_NODE_GetStatus()
1165:C:/Users/VMORAIS/Documents/DAVE_WS/1p_inverter_200V/Libraries/XMCLib/inc\xmc_can.h ****  *
1166:C:/Users/VMORAIS/Documents/DAVE_WS/1p_inverter_200V/Libraries/XMCLib/inc\xmc_can.h ****  */
1167:C:/Users/VMORAIS/Documents/DAVE_WS/1p_inverter_200V/Libraries/XMCLib/inc\xmc_can.h **** 
1168:C:/Users/VMORAIS/Documents/DAVE_WS/1p_inverter_200V/Libraries/XMCLib/inc\xmc_can.h **** __STATIC_INLINE void XMC_CAN_NODE_ClearStatus(XMC_CAN_NODE_t *const can_node,XMC_CAN_NODE_STATUS_t 
1169:C:/Users/VMORAIS/Documents/DAVE_WS/1p_inverter_200V/Libraries/XMCLib/inc\xmc_can.h **** {
1170:C:/Users/VMORAIS/Documents/DAVE_WS/1p_inverter_200V/Libraries/XMCLib/inc\xmc_can.h ****    can_node->NSR &= ~(uint32_t)can_node_status;
1171:C:/Users/VMORAIS/Documents/DAVE_WS/1p_inverter_200V/Libraries/XMCLib/inc\xmc_can.h **** }
1172:C:/Users/VMORAIS/Documents/DAVE_WS/1p_inverter_200V/Libraries/XMCLib/inc\xmc_can.h **** 
1173:C:/Users/VMORAIS/Documents/DAVE_WS/1p_inverter_200V/Libraries/XMCLib/inc\xmc_can.h **** 
1174:C:/Users/VMORAIS/Documents/DAVE_WS/1p_inverter_200V/Libraries/XMCLib/inc\xmc_can.h **** /**
1175:C:/Users/VMORAIS/Documents/DAVE_WS/1p_inverter_200V/Libraries/XMCLib/inc\xmc_can.h ****  *
1176:C:/Users/VMORAIS/Documents/DAVE_WS/1p_inverter_200V/Libraries/XMCLib/inc\xmc_can.h ****  * @param can_node Pointer Pointing to CAN_NODE Structure. Defines CAN_NODE registers, Range :CAN_N
1177:C:/Users/VMORAIS/Documents/DAVE_WS/1p_inverter_200V/Libraries/XMCLib/inc\xmc_can.h ****  *
1178:C:/Users/VMORAIS/Documents/DAVE_WS/1p_inverter_200V/Libraries/XMCLib/inc\xmc_can.h ****  * @return None
1179:C:/Users/VMORAIS/Documents/DAVE_WS/1p_inverter_200V/Libraries/XMCLib/inc\xmc_can.h ****  *
1180:C:/Users/VMORAIS/Documents/DAVE_WS/1p_inverter_200V/Libraries/XMCLib/inc\xmc_can.h ****  * \par<b>Description:</b><br>
1181:C:/Users/VMORAIS/Documents/DAVE_WS/1p_inverter_200V/Libraries/XMCLib/inc\xmc_can.h ****  * Allow to change the configuration of the CAN node, like bit timing, CAN bus transmit/receive por
1182:C:/Users/VMORAIS/Documents/DAVE_WS/1p_inverter_200V/Libraries/XMCLib/inc\xmc_can.h ****  * counters read. It configures NCRx.CCE bit.
1183:C:/Users/VMORAIS/Documents/DAVE_WS/1p_inverter_200V/Libraries/XMCLib/inc\xmc_can.h ****  *
1184:C:/Users/VMORAIS/Documents/DAVE_WS/1p_inverter_200V/Libraries/XMCLib/inc\xmc_can.h ****  * \par<b>Related APIs:</b><BR>
1185:C:/Users/VMORAIS/Documents/DAVE_WS/1p_inverter_200V/Libraries/XMCLib/inc\xmc_can.h ****  * XMC_CAN_NODE_DisableConfigurationChange()
1186:C:/Users/VMORAIS/Documents/DAVE_WS/1p_inverter_200V/Libraries/XMCLib/inc\xmc_can.h ****  *
1187:C:/Users/VMORAIS/Documents/DAVE_WS/1p_inverter_200V/Libraries/XMCLib/inc\xmc_can.h ****  */
1188:C:/Users/VMORAIS/Documents/DAVE_WS/1p_inverter_200V/Libraries/XMCLib/inc\xmc_can.h **** 
1189:C:/Users/VMORAIS/Documents/DAVE_WS/1p_inverter_200V/Libraries/XMCLib/inc\xmc_can.h **** __STATIC_INLINE void XMC_CAN_NODE_EnableConfigurationChange(XMC_CAN_NODE_t *const can_node)
1190:C:/Users/VMORAIS/Documents/DAVE_WS/1p_inverter_200V/Libraries/XMCLib/inc\xmc_can.h **** {
 140              	 .loc 1 1190 0
 141              	 .cfi_startproc
 142              	 
 143              	 
 144              	 
 145 0000 80B4     	 push {r7}
 146              	.LCFI12:
 147              	 .cfi_def_cfa_offset 4
 148              	 .cfi_offset 7,-4
 149 0002 83B0     	 sub sp,sp,#12
 150              	.LCFI13:
 151              	 .cfi_def_cfa_offset 16
 152 0004 00AF     	 add r7,sp,#0
 153              	.LCFI14:
 154              	 .cfi_def_cfa_register 7
 155 0006 7860     	 str r0,[r7,#4]
1191:C:/Users/VMORAIS/Documents/DAVE_WS/1p_inverter_200V/Libraries/XMCLib/inc\xmc_can.h ****   can_node->NCR |= (uint32_t)CAN_NODE_NCR_CCE_Msk;
 156              	 .loc 1 1191 0
 157 0008 7B68     	 ldr r3,[r7,#4]
 158 000a 1B68     	 ldr r3,[r3]
 159 000c 43F04002 	 orr r2,r3,#64
 160 0010 7B68     	 ldr r3,[r7,#4]
 161 0012 1A60     	 str r2,[r3]
1192:C:/Users/VMORAIS/Documents/DAVE_WS/1p_inverter_200V/Libraries/XMCLib/inc\xmc_can.h **** }
 162              	 .loc 1 1192 0
 163 0014 0C37     	 adds r7,r7,#12
 164              	.LCFI15:
 165              	 .cfi_def_cfa_offset 4
 166 0016 BD46     	 mov sp,r7
 167              	.LCFI16:
 168              	 .cfi_def_cfa_register 13
 169              	 
 170 0018 5DF8047B 	 ldr r7,[sp],#4
 171              	.LCFI17:
 172              	 .cfi_restore 7
 173              	 .cfi_def_cfa_offset 0
 174 001c 7047     	 bx lr
 175              	 .cfi_endproc
 176              	.LFE179:
 178 001e 00BF     	 .section .text.XMC_CAN_NODE_DisableConfigurationChange,"ax",%progbits
 179              	 .align 2
 180              	 .thumb
 181              	 .thumb_func
 183              	XMC_CAN_NODE_DisableConfigurationChange:
 184              	.LFB180:
1193:C:/Users/VMORAIS/Documents/DAVE_WS/1p_inverter_200V/Libraries/XMCLib/inc\xmc_can.h **** 
1194:C:/Users/VMORAIS/Documents/DAVE_WS/1p_inverter_200V/Libraries/XMCLib/inc\xmc_can.h **** 
1195:C:/Users/VMORAIS/Documents/DAVE_WS/1p_inverter_200V/Libraries/XMCLib/inc\xmc_can.h **** /**
1196:C:/Users/VMORAIS/Documents/DAVE_WS/1p_inverter_200V/Libraries/XMCLib/inc\xmc_can.h ****  *
1197:C:/Users/VMORAIS/Documents/DAVE_WS/1p_inverter_200V/Libraries/XMCLib/inc\xmc_can.h ****  * @param can_node Pointer Pointing to CAN_NODE Structure. Defines CAN_NODE registers, Range :CAN_N
1198:C:/Users/VMORAIS/Documents/DAVE_WS/1p_inverter_200V/Libraries/XMCLib/inc\xmc_can.h ****  *
1199:C:/Users/VMORAIS/Documents/DAVE_WS/1p_inverter_200V/Libraries/XMCLib/inc\xmc_can.h ****  * @return None
1200:C:/Users/VMORAIS/Documents/DAVE_WS/1p_inverter_200V/Libraries/XMCLib/inc\xmc_can.h ****  *
1201:C:/Users/VMORAIS/Documents/DAVE_WS/1p_inverter_200V/Libraries/XMCLib/inc\xmc_can.h ****  * \par<b>Description:</b><br>
1202:C:/Users/VMORAIS/Documents/DAVE_WS/1p_inverter_200V/Libraries/XMCLib/inc\xmc_can.h ****  *	Forbid to change the configuration of the CAN node. It configures NCRx.CCE bit.
1203:C:/Users/VMORAIS/Documents/DAVE_WS/1p_inverter_200V/Libraries/XMCLib/inc\xmc_can.h ****  *
1204:C:/Users/VMORAIS/Documents/DAVE_WS/1p_inverter_200V/Libraries/XMCLib/inc\xmc_can.h ****  * \par<b>Related API's:</b><br>
1205:C:/Users/VMORAIS/Documents/DAVE_WS/1p_inverter_200V/Libraries/XMCLib/inc\xmc_can.h ****  * XMC_CAN_NODE_EnableConfigurationChange()
1206:C:/Users/VMORAIS/Documents/DAVE_WS/1p_inverter_200V/Libraries/XMCLib/inc\xmc_can.h ****  *
1207:C:/Users/VMORAIS/Documents/DAVE_WS/1p_inverter_200V/Libraries/XMCLib/inc\xmc_can.h ****  */
1208:C:/Users/VMORAIS/Documents/DAVE_WS/1p_inverter_200V/Libraries/XMCLib/inc\xmc_can.h **** 
1209:C:/Users/VMORAIS/Documents/DAVE_WS/1p_inverter_200V/Libraries/XMCLib/inc\xmc_can.h **** __STATIC_INLINE void XMC_CAN_NODE_DisableConfigurationChange(XMC_CAN_NODE_t *const can_node)
1210:C:/Users/VMORAIS/Documents/DAVE_WS/1p_inverter_200V/Libraries/XMCLib/inc\xmc_can.h **** {
 185              	 .loc 1 1210 0
 186              	 .cfi_startproc
 187              	 
 188              	 
 189              	 
 190 0000 80B4     	 push {r7}
 191              	.LCFI18:
 192              	 .cfi_def_cfa_offset 4
 193              	 .cfi_offset 7,-4
 194 0002 83B0     	 sub sp,sp,#12
 195              	.LCFI19:
 196              	 .cfi_def_cfa_offset 16
 197 0004 00AF     	 add r7,sp,#0
 198              	.LCFI20:
 199              	 .cfi_def_cfa_register 7
 200 0006 7860     	 str r0,[r7,#4]
1211:C:/Users/VMORAIS/Documents/DAVE_WS/1p_inverter_200V/Libraries/XMCLib/inc\xmc_can.h ****   can_node->NCR &= ~(uint32_t)CAN_NODE_NCR_CCE_Msk;
 201              	 .loc 1 1211 0
 202 0008 7B68     	 ldr r3,[r7,#4]
 203 000a 1B68     	 ldr r3,[r3]
 204 000c 23F04002 	 bic r2,r3,#64
 205 0010 7B68     	 ldr r3,[r7,#4]
 206 0012 1A60     	 str r2,[r3]
1212:C:/Users/VMORAIS/Documents/DAVE_WS/1p_inverter_200V/Libraries/XMCLib/inc\xmc_can.h **** }
 207              	 .loc 1 1212 0
 208 0014 0C37     	 adds r7,r7,#12
 209              	.LCFI21:
 210              	 .cfi_def_cfa_offset 4
 211 0016 BD46     	 mov sp,r7
 212              	.LCFI22:
 213              	 .cfi_def_cfa_register 13
 214              	 
 215 0018 5DF8047B 	 ldr r7,[sp],#4
 216              	.LCFI23:
 217              	 .cfi_restore 7
 218              	 .cfi_def_cfa_offset 0
 219 001c 7047     	 bx lr
 220              	 .cfi_endproc
 221              	.LFE180:
 223 001e 00BF     	 .section .text.max,"ax",%progbits
 224              	 .align 2
 225              	 .thumb
 226              	 .thumb_func
 228              	max:
 229              	.LFB215:
 230              	 .file 2 "../Libraries/XMCLib/src/xmc_can.c"
   1:../Libraries/XMCLib/src/xmc_can.c **** /**
   2:../Libraries/XMCLib/src/xmc_can.c ****  * @file xmc_can.c
   3:../Libraries/XMCLib/src/xmc_can.c ****  * @date 2016-06-20
   4:../Libraries/XMCLib/src/xmc_can.c ****  *
   5:../Libraries/XMCLib/src/xmc_can.c ****  * @cond
   6:../Libraries/XMCLib/src/xmc_can.c ****  **************************************************************************************************
   7:../Libraries/XMCLib/src/xmc_can.c ****  * XMClib v2.1.12 - XMC Peripheral Driver Library 
   8:../Libraries/XMCLib/src/xmc_can.c ****  *
   9:../Libraries/XMCLib/src/xmc_can.c ****  * Copyright (c) 2015-2017, Infineon Technologies AG
  10:../Libraries/XMCLib/src/xmc_can.c ****  * All rights reserved.                        
  11:../Libraries/XMCLib/src/xmc_can.c ****  *                                             
  12:../Libraries/XMCLib/src/xmc_can.c ****  * Redistribution and use in source and binary forms, with or without modification,are permitted pr
  13:../Libraries/XMCLib/src/xmc_can.c ****  * following conditions are met:   
  14:../Libraries/XMCLib/src/xmc_can.c ****  *                                                                              
  15:../Libraries/XMCLib/src/xmc_can.c ****  * Redistributions of source code must retain the above copyright notice, this list of conditions a
  16:../Libraries/XMCLib/src/xmc_can.c ****  * disclaimer.                        
  17:../Libraries/XMCLib/src/xmc_can.c ****  * 
  18:../Libraries/XMCLib/src/xmc_can.c ****  * Redistributions in binary form must reproduce the above copyright notice, this list of condition
  19:../Libraries/XMCLib/src/xmc_can.c ****  * disclaimer in the documentation and/or other materials provided with the distribution.          
  20:../Libraries/XMCLib/src/xmc_can.c ****  * 
  21:../Libraries/XMCLib/src/xmc_can.c ****  * Neither the name of the copyright holders nor the names of its contributors may be used to endor
  22:../Libraries/XMCLib/src/xmc_can.c ****  * products derived from this software without specific prior written permission.                  
  23:../Libraries/XMCLib/src/xmc_can.c ****  *                                                                              
  24:../Libraries/XMCLib/src/xmc_can.c ****  * THIS SOFTWARE IS PROVIDED BY THE COPYRIGHT HOLDERS AND CONTRIBUTORS "AS IS" AND ANY EXPRESS OR I
  25:../Libraries/XMCLib/src/xmc_can.c ****  * INCLUDING, BUT NOT LIMITED TO, THE IMPLIED WARRANTIES OF MERCHANTABILITY AND FITNESS FOR A PARTI
  26:../Libraries/XMCLib/src/xmc_can.c ****  * DISCLAIMED. IN NO EVENT SHALL THE COPYRIGHT HOLDER OR CONTRIBUTORS BE LIABLE  FOR ANY DIRECT, IN
  27:../Libraries/XMCLib/src/xmc_can.c ****  * SPECIAL, EXEMPLARY, OR CONSEQUENTIAL DAMAGES (INCLUDING, BUT NOT LIMITED TO, PROCUREMENT OF SUBS
  28:../Libraries/XMCLib/src/xmc_can.c ****  * SERVICES; LOSS OF USE, DATA, OR PROFITS; OR BUSINESS INTERRUPTION) HOWEVER CAUSED AND ON ANY THE
  29:../Libraries/XMCLib/src/xmc_can.c ****  * WHETHER IN CONTRACT, STRICT LIABILITY,OR TORT (INCLUDING NEGLIGENCE OR OTHERWISE) ARISING IN ANY
  30:../Libraries/XMCLib/src/xmc_can.c ****  * OF THIS SOFTWARE, EVEN IF ADVISED OF THE POSSIBILITY OF SUCH DAMAGE.                            
  31:../Libraries/XMCLib/src/xmc_can.c ****  *                                                                              
  32:../Libraries/XMCLib/src/xmc_can.c ****  * To improve the quality of the software, users are encouraged to share modifications, enhancement
  33:../Libraries/XMCLib/src/xmc_can.c ****  * Infineon Technologies AG dave@infineon.com).                                                    
  34:../Libraries/XMCLib/src/xmc_can.c ****  **************************************************************************************************
  35:../Libraries/XMCLib/src/xmc_can.c ****  *
  36:../Libraries/XMCLib/src/xmc_can.c ****  * Change History
  37:../Libraries/XMCLib/src/xmc_can.c ****  * --------------
  38:../Libraries/XMCLib/src/xmc_can.c ****  *
  39:../Libraries/XMCLib/src/xmc_can.c ****  * 2015-02-20:
  40:../Libraries/XMCLib/src/xmc_can.c ****  *     - Initial draft <br>
  41:../Libraries/XMCLib/src/xmc_can.c ****  *
  42:../Libraries/XMCLib/src/xmc_can.c ****  * 2015-05-20:
  43:../Libraries/XMCLib/src/xmc_can.c ****  *     - New API added: XMC_CAN_MO_ReceiveData() <br>
  44:../Libraries/XMCLib/src/xmc_can.c ****  *     - XMC_CAN_MO_Config() signature has changed <br>
  45:../Libraries/XMCLib/src/xmc_can.c ****  *     - Minor fix in XMC_CAN_TXFIFO_ConfigMOSlaveObject(). <br>
  46:../Libraries/XMCLib/src/xmc_can.c ****  *
  47:../Libraries/XMCLib/src/xmc_can.c ****  * 2015-06-20:
  48:../Libraries/XMCLib/src/xmc_can.c ****  *     - Removed version macros and declaration of GetDriverVersion API
  49:../Libraries/XMCLib/src/xmc_can.c ****  *
  50:../Libraries/XMCLib/src/xmc_can.c ****  * 2015-09-01:
  51:../Libraries/XMCLib/src/xmc_can.c ****  *     - Removed  fCANB clock support <br>
  52:../Libraries/XMCLib/src/xmc_can.c ****  *
  53:../Libraries/XMCLib/src/xmc_can.c ****  * 2015-09-08:
  54:../Libraries/XMCLib/src/xmc_can.c ****  *     - Fixed bug in XMC_CAN_Init() <br>
  55:../Libraries/XMCLib/src/xmc_can.c ****  *
  56:../Libraries/XMCLib/src/xmc_can.c ****  * 2016-06-07:
  57:../Libraries/XMCLib/src/xmc_can.c ****  *     - Changed XMC_CAN_AllocateMOtoNodeList to wait for ready status of list controller
  58:../Libraries/XMCLib/src/xmc_can.c ****  *
  59:../Libraries/XMCLib/src/xmc_can.c ****  * 2015-06-20:
  60:../Libraries/XMCLib/src/xmc_can.c ****  *     - Fixed bug in XMC_CAN_MO_Config() <br> 
  61:../Libraries/XMCLib/src/xmc_can.c ****  * @endcond
  62:../Libraries/XMCLib/src/xmc_can.c ****  *
  63:../Libraries/XMCLib/src/xmc_can.c ****  */ 
  64:../Libraries/XMCLib/src/xmc_can.c **** 
  65:../Libraries/XMCLib/src/xmc_can.c **** /*******************************************************************************
  66:../Libraries/XMCLib/src/xmc_can.c ****  * HEADER FILES
  67:../Libraries/XMCLib/src/xmc_can.c ****  *******************************************************************************/
  68:../Libraries/XMCLib/src/xmc_can.c **** #include "xmc_can.h"
  69:../Libraries/XMCLib/src/xmc_can.c **** 
  70:../Libraries/XMCLib/src/xmc_can.c **** #if defined(CAN)
  71:../Libraries/XMCLib/src/xmc_can.c **** #include "xmc_scu.h"
  72:../Libraries/XMCLib/src/xmc_can.c **** 
  73:../Libraries/XMCLib/src/xmc_can.c **** __STATIC_INLINE uint32_t max(uint32_t a, uint32_t b)
  74:../Libraries/XMCLib/src/xmc_can.c **** {
 231              	 .loc 2 74 0
 232              	 .cfi_startproc
 233              	 
 234              	 
 235              	 
 236 0000 80B4     	 push {r7}
 237              	.LCFI24:
 238              	 .cfi_def_cfa_offset 4
 239              	 .cfi_offset 7,-4
 240 0002 83B0     	 sub sp,sp,#12
 241              	.LCFI25:
 242              	 .cfi_def_cfa_offset 16
 243 0004 00AF     	 add r7,sp,#0
 244              	.LCFI26:
 245              	 .cfi_def_cfa_register 7
 246 0006 7860     	 str r0,[r7,#4]
 247 0008 3960     	 str r1,[r7]
  75:../Libraries/XMCLib/src/xmc_can.c ****   return (a > b) ? a : b;
 248              	 .loc 2 75 0
 249 000a 3A68     	 ldr r2,[r7]
 250 000c 7B68     	 ldr r3,[r7,#4]
 251 000e 9342     	 cmp r3,r2
 252 0010 38BF     	 it cc
 253 0012 1346     	 movcc r3,r2
  76:../Libraries/XMCLib/src/xmc_can.c **** }
 254              	 .loc 2 76 0
 255 0014 1846     	 mov r0,r3
 256 0016 0C37     	 adds r7,r7,#12
 257              	.LCFI27:
 258              	 .cfi_def_cfa_offset 4
 259 0018 BD46     	 mov sp,r7
 260              	.LCFI28:
 261              	 .cfi_def_cfa_register 13
 262              	 
 263 001a 5DF8047B 	 ldr r7,[sp],#4
 264              	.LCFI29:
 265              	 .cfi_restore 7
 266              	 .cfi_def_cfa_offset 0
 267 001e 7047     	 bx lr
 268              	 .cfi_endproc
 269              	.LFE215:
 271              	 .section .text.min,"ax",%progbits
 272              	 .align 2
 273              	 .thumb
 274              	 .thumb_func
 276              	min:
 277              	.LFB216:
  77:../Libraries/XMCLib/src/xmc_can.c **** 
  78:../Libraries/XMCLib/src/xmc_can.c **** __STATIC_INLINE uint32_t min(uint32_t a, uint32_t b)
  79:../Libraries/XMCLib/src/xmc_can.c **** {
 278              	 .loc 2 79 0
 279              	 .cfi_startproc
 280              	 
 281              	 
 282              	 
 283 0000 80B4     	 push {r7}
 284              	.LCFI30:
 285              	 .cfi_def_cfa_offset 4
 286              	 .cfi_offset 7,-4
 287 0002 83B0     	 sub sp,sp,#12
 288              	.LCFI31:
 289              	 .cfi_def_cfa_offset 16
 290 0004 00AF     	 add r7,sp,#0
 291              	.LCFI32:
 292              	 .cfi_def_cfa_register 7
 293 0006 7860     	 str r0,[r7,#4]
 294 0008 3960     	 str r1,[r7]
  80:../Libraries/XMCLib/src/xmc_can.c ****   return (a < b) ? a : b;
 295              	 .loc 2 80 0
 296 000a 3A68     	 ldr r2,[r7]
 297 000c 7B68     	 ldr r3,[r7,#4]
 298 000e 9342     	 cmp r3,r2
 299 0010 28BF     	 it cs
 300 0012 1346     	 movcs r3,r2
  81:../Libraries/XMCLib/src/xmc_can.c **** }
 301              	 .loc 2 81 0
 302 0014 1846     	 mov r0,r3
 303 0016 0C37     	 adds r7,r7,#12
 304              	.LCFI33:
 305              	 .cfi_def_cfa_offset 4
 306 0018 BD46     	 mov sp,r7
 307              	.LCFI34:
 308              	 .cfi_def_cfa_register 13
 309              	 
 310 001a 5DF8047B 	 ldr r7,[sp],#4
 311              	.LCFI35:
 312              	 .cfi_restore 7
 313              	 .cfi_def_cfa_offset 0
 314 001e 7047     	 bx lr
 315              	 .cfi_endproc
 316              	.LFE216:
 318              	 .section .text.XMC_CAN_NODE_NominalBitTimeConfigure,"ax",%progbits
 319              	 .align 2
 320              	 .global XMC_CAN_NODE_NominalBitTimeConfigure
 321              	 .thumb
 322              	 .thumb_func
 324              	XMC_CAN_NODE_NominalBitTimeConfigure:
 325              	.LFB217:
  82:../Libraries/XMCLib/src/xmc_can.c **** 
  83:../Libraries/XMCLib/src/xmc_can.c **** /*******************************************************************************
  84:../Libraries/XMCLib/src/xmc_can.c ****  * API IMPLEMENTATION
  85:../Libraries/XMCLib/src/xmc_can.c ****  *******************************************************************************/
  86:../Libraries/XMCLib/src/xmc_can.c **** 
  87:../Libraries/XMCLib/src/xmc_can.c **** /* Baudrate Configuration */
  88:../Libraries/XMCLib/src/xmc_can.c **** void XMC_CAN_NODE_NominalBitTimeConfigure (XMC_CAN_NODE_t *const can_node,
  89:../Libraries/XMCLib/src/xmc_can.c ****                                            const XMC_CAN_NODE_NOMINAL_BIT_TIME_CONFIG_t *const can_
  90:../Libraries/XMCLib/src/xmc_can.c **** {
 326              	 .loc 2 90 0
 327              	 .cfi_startproc
 328              	 
 329              	 
 330 0000 80B5     	 push {r7,lr}
 331              	.LCFI36:
 332              	 .cfi_def_cfa_offset 8
 333              	 .cfi_offset 7,-8
 334              	 .cfi_offset 14,-4
 335 0002 90B0     	 sub sp,sp,#64
 336              	.LCFI37:
 337              	 .cfi_def_cfa_offset 72
 338 0004 00AF     	 add r7,sp,#0
 339              	.LCFI38:
 340              	 .cfi_def_cfa_register 7
 341 0006 7860     	 str r0,[r7,#4]
 342 0008 3960     	 str r1,[r7]
  91:../Libraries/XMCLib/src/xmc_can.c ****   uint32_t temp_brp = 12U ;
 343              	 .loc 2 91 0
 344 000a 0C23     	 movs r3,#12
 345 000c FB63     	 str r3,[r7,#60]
  92:../Libraries/XMCLib/src/xmc_can.c ****   uint32_t temp_tseg1 = 12U;
 346              	 .loc 2 92 0
 347 000e 0C23     	 movs r3,#12
 348 0010 BB63     	 str r3,[r7,#56]
  93:../Libraries/XMCLib/src/xmc_can.c ****   uint32_t best_brp = 0U;
 349              	 .loc 2 93 0
 350 0012 0023     	 movs r3,#0
 351 0014 7B63     	 str r3,[r7,#52]
  94:../Libraries/XMCLib/src/xmc_can.c ****   uint32_t best_tseg1 = 1U;
 352              	 .loc 2 94 0
 353 0016 0123     	 movs r3,#1
 354 0018 3B63     	 str r3,[r7,#48]
  95:../Libraries/XMCLib/src/xmc_can.c ****   uint32_t best_tseg2 = 0U;
 355              	 .loc 2 95 0
 356 001a 0023     	 movs r3,#0
 357 001c 7B61     	 str r3,[r7,#20]
  96:../Libraries/XMCLib/src/xmc_can.c ****   uint32_t best_tbaud = 0U;
 358              	 .loc 2 96 0
 359 001e 0023     	 movs r3,#0
 360 0020 FB62     	 str r3,[r7,#44]
  97:../Libraries/XMCLib/src/xmc_can.c ****   uint32_t best_error = 10000U;
 361              	 .loc 2 97 0
 362 0022 42F21073 	 movw r3,#10000
 363 0026 BB62     	 str r3,[r7,#40]
  98:../Libraries/XMCLib/src/xmc_can.c **** 
  99:../Libraries/XMCLib/src/xmc_can.c ****   XMC_ASSERT("XMC_CAN_NODE_NOMINAL_BIT_TIME_Configure: rate not supported", (can_bit_time->baudrate
 100:../Libraries/XMCLib/src/xmc_can.c ****              (can_bit_time->baudrate >= 100000U));
 101:../Libraries/XMCLib/src/xmc_can.c ****   XMC_ASSERT("XMC_CAN_NODE_NOMINAL_BIT_TIME_Configure: fCAN not supported",
 102:../Libraries/XMCLib/src/xmc_can.c ****              can_bit_time->can_frequency <= 120000000U);
 103:../Libraries/XMCLib/src/xmc_can.c ****   XMC_ASSERT("XMC_CAN_NODE_NOMINAL_BIT_TIME_Configure: fCAN not supported",
 104:../Libraries/XMCLib/src/xmc_can.c ****              can_bit_time->can_frequency > 5000000U);
 105:../Libraries/XMCLib/src/xmc_can.c ****   XMC_ASSERT("XMC_CAN_NODE_NOMINAL_BIT_TIME_Configure: sample point not supported",
 106:../Libraries/XMCLib/src/xmc_can.c ****              (can_bit_time->sample_point < 10000U) && ((can_bit_time->sample_point > 0U)));
 107:../Libraries/XMCLib/src/xmc_can.c **** 			 
 108:../Libraries/XMCLib/src/xmc_can.c ****   /*
 109:../Libraries/XMCLib/src/xmc_can.c ****    * Bit timing & sampling
 110:../Libraries/XMCLib/src/xmc_can.c ****    * Tq = (BRP+1)/Fcan if DIV8 = 0
 111:../Libraries/XMCLib/src/xmc_can.c ****    * Tq = 8*(BRP+1)/Fcan if DIV8 = 1
 112:../Libraries/XMCLib/src/xmc_can.c ****    * TSync = 1.Tq
 113:../Libraries/XMCLib/src/xmc_can.c ****    * TSeg1 = (TSEG1+1)*Tq                >= 3Tq
 114:../Libraries/XMCLib/src/xmc_can.c ****    * TSeg2 = (TSEG2+1)*Tq                >= 2Tq
 115:../Libraries/XMCLib/src/xmc_can.c ****    * Bit Time = TSync + TSeg1 + TSeg2    >= 8Tq
 116:../Libraries/XMCLib/src/xmc_can.c ****    *
 117:../Libraries/XMCLib/src/xmc_can.c ****    * Resynchronization:
 118:../Libraries/XMCLib/src/xmc_can.c ****    *
 119:../Libraries/XMCLib/src/xmc_can.c ****    * Tsjw = (SJW + 1)*Tq
 120:../Libraries/XMCLib/src/xmc_can.c ****    * TSeg1 >= Tsjw + Tprop
 121:../Libraries/XMCLib/src/xmc_can.c ****    * TSeg2 >= Tsjw
 122:../Libraries/XMCLib/src/xmc_can.c ****    */
 123:../Libraries/XMCLib/src/xmc_can.c ****   /* search for best baudrate */
 124:../Libraries/XMCLib/src/xmc_can.c ****   for (temp_brp = 1U; temp_brp <= 64U; temp_brp++)
 364              	 .loc 2 124 0
 365 0028 0123     	 movs r3,#1
 366 002a FB63     	 str r3,[r7,#60]
 367 002c 67E0     	 b .L11
 368              	.L20:
 369              	.LBB2:
 125:../Libraries/XMCLib/src/xmc_can.c ****   {
 126:../Libraries/XMCLib/src/xmc_can.c **** 
 127:../Libraries/XMCLib/src/xmc_can.c ****     uint32_t f_quanta = (uint32_t)((can_bit_time->can_frequency * 10U) / temp_brp);
 370              	 .loc 2 127 0
 371 002e 3B68     	 ldr r3,[r7]
 372 0030 1A68     	 ldr r2,[r3]
 373 0032 1346     	 mov r3,r2
 374 0034 9B00     	 lsls r3,r3,#2
 375 0036 1344     	 add r3,r3,r2
 376 0038 5B00     	 lsls r3,r3,#1
 377 003a 1A46     	 mov r2,r3
 378 003c FB6B     	 ldr r3,[r7,#60]
 379 003e B2FBF3F3 	 udiv r3,r2,r3
 380 0042 3B61     	 str r3,[r7,#16]
 128:../Libraries/XMCLib/src/xmc_can.c ****     uint32_t temp_tbaud = (uint32_t)(f_quanta / (can_bit_time->baudrate));
 381              	 .loc 2 128 0
 382 0044 3B68     	 ldr r3,[r7]
 383 0046 5B68     	 ldr r3,[r3,#4]
 384 0048 3A69     	 ldr r2,[r7,#16]
 385 004a B2FBF3F3 	 udiv r3,r2,r3
 386 004e 7B62     	 str r3,[r7,#36]
 129:../Libraries/XMCLib/src/xmc_can.c ****     uint32_t temp_baudrate;
 130:../Libraries/XMCLib/src/xmc_can.c ****     uint32_t error;
 131:../Libraries/XMCLib/src/xmc_can.c **** 
 132:../Libraries/XMCLib/src/xmc_can.c ****   if((temp_tbaud % 10U) > 5U)
 387              	 .loc 2 132 0
 388 0050 796A     	 ldr r1,[r7,#36]
 389 0052 5B4B     	 ldr r3,.L28
 390 0054 A3FB0123 	 umull r2,r3,r3,r1
 391 0058 DA08     	 lsrs r2,r3,#3
 392 005a 1346     	 mov r3,r2
 393 005c 9B00     	 lsls r3,r3,#2
 394 005e 1344     	 add r3,r3,r2
 395 0060 5B00     	 lsls r3,r3,#1
 396 0062 CA1A     	 subs r2,r1,r3
 397 0064 052A     	 cmp r2,#5
 398 0066 09D9     	 bls .L12
 133:../Libraries/XMCLib/src/xmc_can.c ****   {
 134:../Libraries/XMCLib/src/xmc_can.c **** 	temp_tbaud = (uint32_t)(temp_tbaud / 10U);
 399              	 .loc 2 134 0
 400 0068 7B6A     	 ldr r3,[r7,#36]
 401 006a 554A     	 ldr r2,.L28
 402 006c A2FB0323 	 umull r2,r3,r2,r3
 403 0070 DB08     	 lsrs r3,r3,#3
 404 0072 7B62     	 str r3,[r7,#36]
 135:../Libraries/XMCLib/src/xmc_can.c **** 	temp_tbaud++;
 405              	 .loc 2 135 0
 406 0074 7B6A     	 ldr r3,[r7,#36]
 407 0076 0133     	 adds r3,r3,#1
 408 0078 7B62     	 str r3,[r7,#36]
 409 007a 05E0     	 b .L13
 410              	.L12:
 136:../Libraries/XMCLib/src/xmc_can.c ****   }
 137:../Libraries/XMCLib/src/xmc_can.c ****   else
 138:../Libraries/XMCLib/src/xmc_can.c ****   {
 139:../Libraries/XMCLib/src/xmc_can.c **** 	temp_tbaud = (uint32_t)(temp_tbaud / 10U);
 411              	 .loc 2 139 0
 412 007c 7B6A     	 ldr r3,[r7,#36]
 413 007e 504A     	 ldr r2,.L28
 414 0080 A2FB0323 	 umull r2,r3,r2,r3
 415 0084 DB08     	 lsrs r3,r3,#3
 416 0086 7B62     	 str r3,[r7,#36]
 417              	.L13:
 140:../Libraries/XMCLib/src/xmc_can.c ****   }
 141:../Libraries/XMCLib/src/xmc_can.c **** 
 142:../Libraries/XMCLib/src/xmc_can.c ****   if(temp_tbaud > 0U)
 418              	 .loc 2 142 0
 419 0088 7B6A     	 ldr r3,[r7,#36]
 420 008a 002B     	 cmp r3,#0
 421 008c 0AD0     	 beq .L14
 143:../Libraries/XMCLib/src/xmc_can.c ****   {
 144:../Libraries/XMCLib/src/xmc_can.c ****     temp_baudrate = (uint32_t) (f_quanta / (temp_tbaud * 10U));
 422              	 .loc 2 144 0
 423 008e 7A6A     	 ldr r2,[r7,#36]
 424 0090 1346     	 mov r3,r2
 425 0092 9B00     	 lsls r3,r3,#2
 426 0094 1344     	 add r3,r3,r2
 427 0096 5B00     	 lsls r3,r3,#1
 428 0098 1A46     	 mov r2,r3
 429 009a 3B69     	 ldr r3,[r7,#16]
 430 009c B3FBF2F3 	 udiv r3,r3,r2
 431 00a0 3B62     	 str r3,[r7,#32]
 432 00a2 07E0     	 b .L15
 433              	.L14:
 145:../Libraries/XMCLib/src/xmc_can.c ****   }
 146:../Libraries/XMCLib/src/xmc_can.c ****   else
 147:../Libraries/XMCLib/src/xmc_can.c ****   {
 148:../Libraries/XMCLib/src/xmc_can.c ****     temp_baudrate = f_quanta / 10U;
 434              	 .loc 2 148 0
 435 00a4 3B69     	 ldr r3,[r7,#16]
 436 00a6 464A     	 ldr r2,.L28
 437 00a8 A2FB0323 	 umull r2,r3,r2,r3
 438 00ac DB08     	 lsrs r3,r3,#3
 439 00ae 3B62     	 str r3,[r7,#32]
 149:../Libraries/XMCLib/src/xmc_can.c **** 	temp_tbaud = 1;
 440              	 .loc 2 149 0
 441 00b0 0123     	 movs r3,#1
 442 00b2 7B62     	 str r3,[r7,#36]
 443              	.L15:
 150:../Libraries/XMCLib/src/xmc_can.c ****   }
 151:../Libraries/XMCLib/src/xmc_can.c **** 
 152:../Libraries/XMCLib/src/xmc_can.c ****   if(temp_baudrate >= can_bit_time->baudrate)
 444              	 .loc 2 152 0
 445 00b4 3B68     	 ldr r3,[r7]
 446 00b6 5A68     	 ldr r2,[r3,#4]
 447 00b8 3B6A     	 ldr r3,[r7,#32]
 448 00ba 9A42     	 cmp r2,r3
 449 00bc 05D8     	 bhi .L16
 153:../Libraries/XMCLib/src/xmc_can.c ****   {
 154:../Libraries/XMCLib/src/xmc_can.c **** 	error = temp_baudrate - can_bit_time->baudrate;
 450              	 .loc 2 154 0
 451 00be 3B68     	 ldr r3,[r7]
 452 00c0 5B68     	 ldr r3,[r3,#4]
 453 00c2 3A6A     	 ldr r2,[r7,#32]
 454 00c4 D31A     	 subs r3,r2,r3
 455 00c6 FB61     	 str r3,[r7,#28]
 456 00c8 04E0     	 b .L17
 457              	.L16:
 155:../Libraries/XMCLib/src/xmc_can.c ****   }
 156:../Libraries/XMCLib/src/xmc_can.c ****   else
 157:../Libraries/XMCLib/src/xmc_can.c ****   {
 158:../Libraries/XMCLib/src/xmc_can.c **** 	error = can_bit_time->baudrate - temp_baudrate;
 458              	 .loc 2 158 0
 459 00ca 3B68     	 ldr r3,[r7]
 460 00cc 5A68     	 ldr r2,[r3,#4]
 461 00ce 3B6A     	 ldr r3,[r7,#32]
 462 00d0 D31A     	 subs r3,r2,r3
 463 00d2 FB61     	 str r3,[r7,#28]
 464              	.L17:
 159:../Libraries/XMCLib/src/xmc_can.c ****   }
 160:../Libraries/XMCLib/src/xmc_can.c **** 
 161:../Libraries/XMCLib/src/xmc_can.c ****   if ((temp_tbaud <= 20U) && (best_error > error))
 465              	 .loc 2 161 0
 466 00d4 7B6A     	 ldr r3,[r7,#36]
 467 00d6 142B     	 cmp r3,#20
 468 00d8 0ED8     	 bhi .L18
 469              	 .loc 2 161 0 is_stmt 0 discriminator 1
 470 00da BA6A     	 ldr r2,[r7,#40]
 471 00dc FB69     	 ldr r3,[r7,#28]
 472 00de 9A42     	 cmp r2,r3
 473 00e0 0AD9     	 bls .L18
 162:../Libraries/XMCLib/src/xmc_can.c ****   {
 163:../Libraries/XMCLib/src/xmc_can.c ****     best_brp = temp_brp;
 474              	 .loc 2 163 0 is_stmt 1
 475 00e2 FB6B     	 ldr r3,[r7,#60]
 476 00e4 7B63     	 str r3,[r7,#52]
 164:../Libraries/XMCLib/src/xmc_can.c ****     best_tbaud = temp_tbaud;
 477              	 .loc 2 164 0
 478 00e6 7B6A     	 ldr r3,[r7,#36]
 479 00e8 FB62     	 str r3,[r7,#44]
 165:../Libraries/XMCLib/src/xmc_can.c ****     best_error = (error);
 480              	 .loc 2 165 0
 481 00ea FB69     	 ldr r3,[r7,#28]
 482 00ec BB62     	 str r3,[r7,#40]
 166:../Libraries/XMCLib/src/xmc_can.c **** 
 167:../Libraries/XMCLib/src/xmc_can.c ****     if (error < 1000U)
 483              	 .loc 2 167 0
 484 00ee FB69     	 ldr r3,[r7,#28]
 485 00f0 B3F57A7F 	 cmp r3,#1000
 486 00f4 00D2     	 bcs .L18
 168:../Libraries/XMCLib/src/xmc_can.c ****     {
 169:../Libraries/XMCLib/src/xmc_can.c ****       break;
 487              	 .loc 2 169 0
 488 00f6 05E0     	 b .L19
 489              	.L18:
 490              	.LBE2:
 124:../Libraries/XMCLib/src/xmc_can.c ****   {
 491              	 .loc 2 124 0 discriminator 2
 492 00f8 FB6B     	 ldr r3,[r7,#60]
 493 00fa 0133     	 adds r3,r3,#1
 494 00fc FB63     	 str r3,[r7,#60]
 495              	.L11:
 124:../Libraries/XMCLib/src/xmc_can.c ****   {
 496              	 .loc 2 124 0 is_stmt 0 discriminator 1
 497 00fe FB6B     	 ldr r3,[r7,#60]
 498 0100 402B     	 cmp r3,#64
 499 0102 94D9     	 bls .L20
 500              	.L19:
 170:../Libraries/XMCLib/src/xmc_can.c ****     }
 171:../Libraries/XMCLib/src/xmc_can.c ****    }
 172:../Libraries/XMCLib/src/xmc_can.c ****   }
 173:../Libraries/XMCLib/src/xmc_can.c ****   /* search for best sample point */
 174:../Libraries/XMCLib/src/xmc_can.c ****   best_error = 10000U;
 501              	 .loc 2 174 0 is_stmt 1
 502 0104 42F21073 	 movw r3,#10000
 503 0108 BB62     	 str r3,[r7,#40]
 175:../Libraries/XMCLib/src/xmc_can.c **** 
 176:../Libraries/XMCLib/src/xmc_can.c ****   for (temp_tseg1 = 64U; temp_tseg1 >= 3U; temp_tseg1--)
 504              	 .loc 2 176 0
 505 010a 4023     	 movs r3,#64
 506 010c BB63     	 str r3,[r7,#56]
 507 010e 2EE0     	 b .L21
 508              	.L27:
 509              	.LBB3:
 177:../Libraries/XMCLib/src/xmc_can.c ****   {
 178:../Libraries/XMCLib/src/xmc_can.c ****     uint32_t tempSamplePoint = ((temp_tseg1 + 1U) * 10000U) / best_tbaud;
 510              	 .loc 2 178 0
 511 0110 BB6B     	 ldr r3,[r7,#56]
 512 0112 0133     	 adds r3,r3,#1
 513 0114 42F21072 	 movw r2,#10000
 514 0118 02FB03F2 	 mul r2,r2,r3
 515 011c FB6A     	 ldr r3,[r7,#44]
 516 011e B2FBF3F3 	 udiv r3,r2,r3
 517 0122 FB60     	 str r3,[r7,#12]
 179:../Libraries/XMCLib/src/xmc_can.c **** 	uint32_t error;
 180:../Libraries/XMCLib/src/xmc_can.c **** 	if (tempSamplePoint >= can_bit_time->sample_point)
 518              	 .loc 2 180 0
 519 0124 3B68     	 ldr r3,[r7]
 520 0126 1B89     	 ldrh r3,[r3,#8]
 521 0128 1A46     	 mov r2,r3
 522 012a FB68     	 ldr r3,[r7,#12]
 523 012c 9A42     	 cmp r2,r3
 524 012e 06D8     	 bhi .L22
 181:../Libraries/XMCLib/src/xmc_can.c **** 	{
 182:../Libraries/XMCLib/src/xmc_can.c ****       error = tempSamplePoint  - can_bit_time->sample_point;
 525              	 .loc 2 182 0
 526 0130 3B68     	 ldr r3,[r7]
 527 0132 1B89     	 ldrh r3,[r3,#8]
 528 0134 1A46     	 mov r2,r3
 529 0136 FB68     	 ldr r3,[r7,#12]
 530 0138 9B1A     	 subs r3,r3,r2
 531 013a BB61     	 str r3,[r7,#24]
 532 013c 05E0     	 b .L23
 533              	.L22:
 183:../Libraries/XMCLib/src/xmc_can.c **** 	}
 184:../Libraries/XMCLib/src/xmc_can.c **** 	else
 185:../Libraries/XMCLib/src/xmc_can.c **** 	{
 186:../Libraries/XMCLib/src/xmc_can.c **** 	  error = can_bit_time->sample_point  - tempSamplePoint;
 534              	 .loc 2 186 0
 535 013e 3B68     	 ldr r3,[r7]
 536 0140 1B89     	 ldrh r3,[r3,#8]
 537 0142 1A46     	 mov r2,r3
 538 0144 FB68     	 ldr r3,[r7,#12]
 539 0146 D31A     	 subs r3,r2,r3
 540 0148 BB61     	 str r3,[r7,#24]
 541              	.L23:
 187:../Libraries/XMCLib/src/xmc_can.c **** 	}
 188:../Libraries/XMCLib/src/xmc_can.c ****     if (best_error > error)
 542              	 .loc 2 188 0
 543 014a BA6A     	 ldr r2,[r7,#40]
 544 014c BB69     	 ldr r3,[r7,#24]
 545 014e 9A42     	 cmp r2,r3
 546 0150 03D9     	 bls .L24
 189:../Libraries/XMCLib/src/xmc_can.c ****     {
 190:../Libraries/XMCLib/src/xmc_can.c ****       best_tseg1 = temp_tseg1;
 547              	 .loc 2 190 0
 548 0152 BB6B     	 ldr r3,[r7,#56]
 549 0154 3B63     	 str r3,[r7,#48]
 191:../Libraries/XMCLib/src/xmc_can.c ****       best_error = error;
 550              	 .loc 2 191 0
 551 0156 BB69     	 ldr r3,[r7,#24]
 552 0158 BB62     	 str r3,[r7,#40]
 553              	.L24:
 192:../Libraries/XMCLib/src/xmc_can.c ****     }
 193:../Libraries/XMCLib/src/xmc_can.c ****     if (tempSamplePoint < (can_bit_time->sample_point))
 554              	 .loc 2 193 0
 555 015a 3B68     	 ldr r3,[r7]
 556 015c 1B89     	 ldrh r3,[r3,#8]
 557 015e 1A46     	 mov r2,r3
 558 0160 FB68     	 ldr r3,[r7,#12]
 559 0162 9A42     	 cmp r2,r3
 560 0164 00D9     	 bls .L25
 194:../Libraries/XMCLib/src/xmc_can.c ****     {
 195:../Libraries/XMCLib/src/xmc_can.c ****       break;
 561              	 .loc 2 195 0
 562 0166 05E0     	 b .L26
 563              	.L25:
 564              	.LBE3:
 176:../Libraries/XMCLib/src/xmc_can.c ****   {
 565              	 .loc 2 176 0 discriminator 2
 566 0168 BB6B     	 ldr r3,[r7,#56]
 567 016a 013B     	 subs r3,r3,#1
 568 016c BB63     	 str r3,[r7,#56]
 569              	.L21:
 176:../Libraries/XMCLib/src/xmc_can.c ****   {
 570              	 .loc 2 176 0 is_stmt 0 discriminator 1
 571 016e BB6B     	 ldr r3,[r7,#56]
 572 0170 022B     	 cmp r3,#2
 573 0172 CDD8     	 bhi .L27
 574              	.L26:
 196:../Libraries/XMCLib/src/xmc_can.c ****     }
 197:../Libraries/XMCLib/src/xmc_can.c ****   }
 198:../Libraries/XMCLib/src/xmc_can.c **** 
 199:../Libraries/XMCLib/src/xmc_can.c ****   best_tseg2 = best_tbaud - best_tseg1 - 1U;
 575              	 .loc 2 199 0 is_stmt 1
 576 0174 FA6A     	 ldr r2,[r7,#44]
 577 0176 3B6B     	 ldr r3,[r7,#48]
 578 0178 D31A     	 subs r3,r2,r3
 579 017a 013B     	 subs r3,r3,#1
 580 017c 7B61     	 str r3,[r7,#20]
 200:../Libraries/XMCLib/src/xmc_can.c **** 
 201:../Libraries/XMCLib/src/xmc_can.c ****   XMC_CAN_NODE_EnableConfigurationChange(can_node);
 581              	 .loc 2 201 0
 582 017e 7868     	 ldr r0,[r7,#4]
 583 0180 FFF7FEFF 	 bl XMC_CAN_NODE_EnableConfigurationChange
 202:../Libraries/XMCLib/src/xmc_can.c ****   /* Configure bit timing register */
 203:../Libraries/XMCLib/src/xmc_can.c ****   can_node->NBTR = (((uint32_t)(best_tseg2 - 1u) << CAN_NODE_NBTR_TSEG2_Pos) & (uint32_t)CAN_NODE_N
 584              	 .loc 2 203 0
 585 0184 7B69     	 ldr r3,[r7,#20]
 586 0186 013B     	 subs r3,r3,#1
 587 0188 1B03     	 lsls r3,r3,#12
 588 018a 03F4E042 	 and r2,r3,#28672
 204:../Libraries/XMCLib/src/xmc_can.c ****                    ((((uint32_t)((uint32_t)(can_bit_time->sjw)-1U) << CAN_NODE_NBTR_SJW_Pos)) & (ui
 589              	 .loc 2 204 0
 590 018e 3B68     	 ldr r3,[r7]
 591 0190 5B89     	 ldrh r3,[r3,#10]
 592 0192 013B     	 subs r3,r3,#1
 593 0194 9B01     	 lsls r3,r3,#6
 594 0196 DBB2     	 uxtb r3,r3
 203:../Libraries/XMCLib/src/xmc_can.c ****                    ((((uint32_t)((uint32_t)(can_bit_time->sjw)-1U) << CAN_NODE_NBTR_SJW_Pos)) & (ui
 595              	 .loc 2 203 0
 596 0198 1A43     	 orrs r2,r2,r3
 205:../Libraries/XMCLib/src/xmc_can.c ****                    (((uint32_t)(best_tseg1-1U) << CAN_NODE_NBTR_TSEG1_Pos) & (uint32_t)CAN_NODE_NBT
 597              	 .loc 2 205 0
 598 019a 3B6B     	 ldr r3,[r7,#48]
 599 019c 013B     	 subs r3,r3,#1
 600 019e 1B02     	 lsls r3,r3,#8
 601 01a0 03F47063 	 and r3,r3,#3840
 204:../Libraries/XMCLib/src/xmc_can.c ****                    ((((uint32_t)((uint32_t)(can_bit_time->sjw)-1U) << CAN_NODE_NBTR_SJW_Pos)) & (ui
 602              	 .loc 2 204 0
 603 01a4 1A43     	 orrs r2,r2,r3
 206:../Libraries/XMCLib/src/xmc_can.c ****                    (((uint32_t)(best_brp - 1U) << CAN_NODE_NBTR_BRP_Pos) & (uint32_t)CAN_NODE_NBTR_
 604              	 .loc 2 206 0
 605 01a6 7B6B     	 ldr r3,[r7,#52]
 606 01a8 013B     	 subs r3,r3,#1
 607 01aa 03F03F03 	 and r3,r3,#63
 608 01ae 1A43     	 orrs r2,r2,r3
 203:../Libraries/XMCLib/src/xmc_can.c ****                    ((((uint32_t)((uint32_t)(can_bit_time->sjw)-1U) << CAN_NODE_NBTR_SJW_Pos)) & (ui
 609              	 .loc 2 203 0
 610 01b0 7B68     	 ldr r3,[r7,#4]
 611 01b2 1A61     	 str r2,[r3,#16]
 207:../Libraries/XMCLib/src/xmc_can.c ****                    (((uint32_t)0U << CAN_NODE_NBTR_DIV8_Pos) & (uint32_t)CAN_NODE_NBTR_DIV8_Msk);
 208:../Libraries/XMCLib/src/xmc_can.c ****   XMC_CAN_NODE_DisableConfigurationChange(can_node);
 612              	 .loc 2 208 0
 613 01b4 7868     	 ldr r0,[r7,#4]
 614 01b6 FFF7FEFF 	 bl XMC_CAN_NODE_DisableConfigurationChange
 209:../Libraries/XMCLib/src/xmc_can.c **** }
 615              	 .loc 2 209 0
 616 01ba 4037     	 adds r7,r7,#64
 617              	.LCFI39:
 618              	 .cfi_def_cfa_offset 8
 619 01bc BD46     	 mov sp,r7
 620              	.LCFI40:
 621              	 .cfi_def_cfa_register 13
 622              	 
 623 01be 80BD     	 pop {r7,pc}
 624              	.L29:
 625              	 .align 2
 626              	.L28:
 627 01c0 CDCCCCCC 	 .word -858993459
 628              	 .cfi_endproc
 629              	.LFE217:
 631              	 .section .text.XMC_CAN_AllocateMOtoNodeList,"ax",%progbits
 632              	 .align 2
 633              	 .global XMC_CAN_AllocateMOtoNodeList
 634              	 .thumb
 635              	 .thumb_func
 637              	XMC_CAN_AllocateMOtoNodeList:
 638              	.LFB218:
 210:../Libraries/XMCLib/src/xmc_can.c **** /* Function to allocate message object from free list to node list */
 211:../Libraries/XMCLib/src/xmc_can.c **** void XMC_CAN_AllocateMOtoNodeList(XMC_CAN_t *const obj, const uint8_t node_num, const uint8_t mo_nu
 212:../Libraries/XMCLib/src/xmc_can.c **** {
 639              	 .loc 2 212 0
 640              	 .cfi_startproc
 641              	 
 642              	 
 643 0000 80B5     	 push {r7,lr}
 644              	.LCFI41:
 645              	 .cfi_def_cfa_offset 8
 646              	 .cfi_offset 7,-8
 647              	 .cfi_offset 14,-4
 648 0002 82B0     	 sub sp,sp,#8
 649              	.LCFI42:
 650              	 .cfi_def_cfa_offset 16
 651 0004 00AF     	 add r7,sp,#0
 652              	.LCFI43:
 653              	 .cfi_def_cfa_register 7
 654 0006 7860     	 str r0,[r7,#4]
 655 0008 0B46     	 mov r3,r1
 656 000a FB70     	 strb r3,[r7,#3]
 657 000c 1346     	 mov r3,r2
 658 000e BB70     	 strb r3,[r7,#2]
 213:../Libraries/XMCLib/src/xmc_can.c ****   /* wait while panel operation is in progress. */
 214:../Libraries/XMCLib/src/xmc_can.c ****   while (XMC_CAN_IsPanelControlReady(obj) == false)
 659              	 .loc 2 214 0
 660 0010 00BF     	 nop
 661              	.L31:
 662              	 .loc 2 214 0 is_stmt 0 discriminator 1
 663 0012 7868     	 ldr r0,[r7,#4]
 664 0014 FFF7FEFF 	 bl XMC_CAN_IsPanelControlReady
 665 0018 0346     	 mov r3,r0
 666 001a 83F00103 	 eor r3,r3,#1
 667 001e DBB2     	 uxtb r3,r3
 668 0020 002B     	 cmp r3,#0
 669 0022 F6D1     	 bne .L31
 215:../Libraries/XMCLib/src/xmc_can.c ****   {
 216:../Libraries/XMCLib/src/xmc_can.c ****     /*Do nothing*/
 217:../Libraries/XMCLib/src/xmc_can.c ****   };
 218:../Libraries/XMCLib/src/xmc_can.c **** 
 219:../Libraries/XMCLib/src/xmc_can.c ****   /* Panel Command for  allocation of MO to node list */
 220:../Libraries/XMCLib/src/xmc_can.c ****   XMC_CAN_PanelControl(obj, XMC_CAN_PANCMD_STATIC_ALLOCATE,mo_num,(node_num + 1U));
 670              	 .loc 2 220 0 is_stmt 1
 671 0024 FB78     	 ldrb r3,[r7,#3]
 672 0026 0133     	 adds r3,r3,#1
 673 0028 DBB2     	 uxtb r3,r3
 674 002a BA78     	 ldrb r2,[r7,#2]
 675 002c 7868     	 ldr r0,[r7,#4]
 676 002e 0221     	 movs r1,#2
 677 0030 FFF7FEFF 	 bl XMC_CAN_PanelControl
 221:../Libraries/XMCLib/src/xmc_can.c **** }
 678              	 .loc 2 221 0
 679 0034 0837     	 adds r7,r7,#8
 680              	.LCFI44:
 681              	 .cfi_def_cfa_offset 8
 682 0036 BD46     	 mov sp,r7
 683              	.LCFI45:
 684              	 .cfi_def_cfa_register 13
 685              	 
 686 0038 80BD     	 pop {r7,pc}
 687              	 .cfi_endproc
 688              	.LFE218:
 690 003a 00BF     	 .section .text.XMC_CAN_Disable,"ax",%progbits
 691              	 .align 2
 692              	 .global XMC_CAN_Disable
 693              	 .thumb
 694              	 .thumb_func
 696              	XMC_CAN_Disable:
 697              	.LFB219:
 222:../Libraries/XMCLib/src/xmc_can.c **** 
 223:../Libraries/XMCLib/src/xmc_can.c **** /* Disable XMC_CAN Peripheral */
 224:../Libraries/XMCLib/src/xmc_can.c **** void XMC_CAN_Disable(XMC_CAN_t *const obj)
 225:../Libraries/XMCLib/src/xmc_can.c **** {
 698              	 .loc 2 225 0
 699              	 .cfi_startproc
 700              	 
 701              	 
 702 0000 80B5     	 push {r7,lr}
 703              	.LCFI46:
 704              	 .cfi_def_cfa_offset 8
 705              	 .cfi_offset 7,-8
 706              	 .cfi_offset 14,-4
 707 0002 82B0     	 sub sp,sp,#8
 708              	.LCFI47:
 709              	 .cfi_def_cfa_offset 16
 710 0004 00AF     	 add r7,sp,#0
 711              	.LCFI48:
 712              	 .cfi_def_cfa_register 7
 713 0006 7860     	 str r0,[r7,#4]
 226:../Libraries/XMCLib/src/xmc_can.c ****   /* Disable CAN Module */
 227:../Libraries/XMCLib/src/xmc_can.c ****   obj->CLC = CAN_CLC_DISR_Msk;
 714              	 .loc 2 227 0
 715 0008 7B68     	 ldr r3,[r7,#4]
 716 000a 0122     	 movs r2,#1
 717 000c 1A60     	 str r2,[r3]
 228:../Libraries/XMCLib/src/xmc_can.c **** #if defined(PERIPHERAL_RESET_SUPPORTED)
 229:../Libraries/XMCLib/src/xmc_can.c ****   XMC_SCU_RESET_AssertPeripheralReset(XMC_SCU_PERIPHERAL_RESET_MCAN);
 718              	 .loc 2 229 0
 719 000e 0348     	 ldr r0,.L33
 720 0010 FFF7FEFF 	 bl XMC_SCU_RESET_AssertPeripheralReset
 230:../Libraries/XMCLib/src/xmc_can.c **** #endif
 231:../Libraries/XMCLib/src/xmc_can.c **** #if defined(CLOCK_GATING_SUPPORTED)
 232:../Libraries/XMCLib/src/xmc_can.c ****   XMC_SCU_CLOCK_GatePeripheralClock(XMC_SCU_PERIPHERAL_CLOCK_MCAN);
 233:../Libraries/XMCLib/src/xmc_can.c **** #endif
 234:../Libraries/XMCLib/src/xmc_can.c **** }
 721              	 .loc 2 234 0
 722 0014 0837     	 adds r7,r7,#8
 723              	.LCFI49:
 724              	 .cfi_def_cfa_offset 8
 725 0016 BD46     	 mov sp,r7
 726              	.LCFI50:
 727              	 .cfi_def_cfa_register 13
 728              	 
 729 0018 80BD     	 pop {r7,pc}
 730              	.L34:
 731 001a 00BF     	 .align 2
 732              	.L33:
 733 001c 10000010 	 .word 268435472
 734              	 .cfi_endproc
 735              	.LFE219:
 737              	 .section .text.XMC_CAN_Enable,"ax",%progbits
 738              	 .align 2
 739              	 .global XMC_CAN_Enable
 740              	 .thumb
 741              	 .thumb_func
 743              	XMC_CAN_Enable:
 744              	.LFB220:
 235:../Libraries/XMCLib/src/xmc_can.c **** 
 236:../Libraries/XMCLib/src/xmc_can.c **** /* Enable XMC_CAN Peripheral */
 237:../Libraries/XMCLib/src/xmc_can.c **** void XMC_CAN_Enable(XMC_CAN_t *const obj)
 238:../Libraries/XMCLib/src/xmc_can.c **** {
 745              	 .loc 2 238 0
 746              	 .cfi_startproc
 747              	 
 748              	 
 749 0000 80B5     	 push {r7,lr}
 750              	.LCFI51:
 751              	 .cfi_def_cfa_offset 8
 752              	 .cfi_offset 7,-8
 753              	 .cfi_offset 14,-4
 754 0002 82B0     	 sub sp,sp,#8
 755              	.LCFI52:
 756              	 .cfi_def_cfa_offset 16
 757 0004 00AF     	 add r7,sp,#0
 758              	.LCFI53:
 759              	 .cfi_def_cfa_register 7
 760 0006 7860     	 str r0,[r7,#4]
 239:../Libraries/XMCLib/src/xmc_can.c **** #if defined(CLOCK_GATING_SUPPORTED)
 240:../Libraries/XMCLib/src/xmc_can.c ****   XMC_SCU_CLOCK_UngatePeripheralClock(XMC_SCU_PERIPHERAL_CLOCK_MCAN);
 241:../Libraries/XMCLib/src/xmc_can.c **** #endif
 242:../Libraries/XMCLib/src/xmc_can.c **** #if defined(PERIPHERAL_RESET_SUPPORTED)
 243:../Libraries/XMCLib/src/xmc_can.c ****   XMC_SCU_RESET_DeassertPeripheralReset(XMC_SCU_PERIPHERAL_RESET_MCAN);
 761              	 .loc 2 243 0
 762 0008 0948     	 ldr r0,.L37
 763 000a FFF7FEFF 	 bl XMC_SCU_RESET_DeassertPeripheralReset
 244:../Libraries/XMCLib/src/xmc_can.c **** #endif
 245:../Libraries/XMCLib/src/xmc_can.c ****   /* Enable CAN Module */
 246:../Libraries/XMCLib/src/xmc_can.c ****   obj->CLC &= ~(uint32_t)CAN_CLC_DISR_Msk;
 764              	 .loc 2 246 0
 765 000e 7B68     	 ldr r3,[r7,#4]
 766 0010 1B68     	 ldr r3,[r3]
 767 0012 23F00102 	 bic r2,r3,#1
 768 0016 7B68     	 ldr r3,[r7,#4]
 769 0018 1A60     	 str r2,[r3]
 247:../Libraries/XMCLib/src/xmc_can.c ****   while (obj->CLC & CAN_CLC_DISS_Msk)
 770              	 .loc 2 247 0
 771 001a 00BF     	 nop
 772              	.L36:
 773              	 .loc 2 247 0 is_stmt 0 discriminator 1
 774 001c 7B68     	 ldr r3,[r7,#4]
 775 001e 1B68     	 ldr r3,[r3]
 776 0020 03F00203 	 and r3,r3,#2
 777 0024 002B     	 cmp r3,#0
 778 0026 F9D1     	 bne .L36
 248:../Libraries/XMCLib/src/xmc_can.c ****   {
 249:../Libraries/XMCLib/src/xmc_can.c ****     /*Do nothing*/
 250:../Libraries/XMCLib/src/xmc_can.c ****   };
 251:../Libraries/XMCLib/src/xmc_can.c **** }
 779              	 .loc 2 251 0 is_stmt 1
 780 0028 0837     	 adds r7,r7,#8
 781              	.LCFI54:
 782              	 .cfi_def_cfa_offset 8
 783 002a BD46     	 mov sp,r7
 784              	.LCFI55:
 785              	 .cfi_def_cfa_register 13
 786              	 
 787 002c 80BD     	 pop {r7,pc}
 788              	.L38:
 789 002e 00BF     	 .align 2
 790              	.L37:
 791 0030 10000010 	 .word 268435472
 792              	 .cfi_endproc
 793              	.LFE220:
 795              	 .section .text.XMC_CAN_Init,"ax",%progbits
 796              	 .align 2
 797              	 .global XMC_CAN_Init
 798              	 .thumb
 799              	 .thumb_func
 801              	XMC_CAN_Init:
 802              	.LFB221:
 252:../Libraries/XMCLib/src/xmc_can.c **** #if defined(MULTICAN_PLUS)
 253:../Libraries/XMCLib/src/xmc_can.c **** uint32_t XMC_CAN_GetBaudrateClockFrequency(XMC_CAN_t *const obj)
 254:../Libraries/XMCLib/src/xmc_can.c **** {
 255:../Libraries/XMCLib/src/xmc_can.c ****   uint32_t frequency;
 256:../Libraries/XMCLib/src/xmc_can.c **** 
 257:../Libraries/XMCLib/src/xmc_can.c ****   switch(XMC_CAN_GetBaudrateClockSource(obj))
 258:../Libraries/XMCLib/src/xmc_can.c ****   {
 259:../Libraries/XMCLib/src/xmc_can.c **** #if UC_FAMILY == XMC4
 260:../Libraries/XMCLib/src/xmc_can.c ****     case XMC_CAN_CANCLKSRC_FPERI:
 261:../Libraries/XMCLib/src/xmc_can.c ****          frequency = XMC_SCU_CLOCK_GetPeripheralClockFrequency();
 262:../Libraries/XMCLib/src/xmc_can.c ****          break;
 263:../Libraries/XMCLib/src/xmc_can.c **** #else
 264:../Libraries/XMCLib/src/xmc_can.c ****     case XMC_CAN_CANCLKSRC_MCLK:
 265:../Libraries/XMCLib/src/xmc_can.c ****            frequency = XMC_SCU_CLOCK_GetPeripheralClockFrequency();
 266:../Libraries/XMCLib/src/xmc_can.c ****            break;
 267:../Libraries/XMCLib/src/xmc_can.c **** #endif
 268:../Libraries/XMCLib/src/xmc_can.c ****     case XMC_CAN_CANCLKSRC_FOHP:
 269:../Libraries/XMCLib/src/xmc_can.c ****          frequency = OSCHP_GetFrequency();
 270:../Libraries/XMCLib/src/xmc_can.c ****          break;
 271:../Libraries/XMCLib/src/xmc_can.c **** 
 272:../Libraries/XMCLib/src/xmc_can.c ****     default:
 273:../Libraries/XMCLib/src/xmc_can.c ****          frequency = 0;
 274:../Libraries/XMCLib/src/xmc_can.c ****          break;
 275:../Libraries/XMCLib/src/xmc_can.c ****   }
 276:../Libraries/XMCLib/src/xmc_can.c **** 
 277:../Libraries/XMCLib/src/xmc_can.c ****   return frequency;
 278:../Libraries/XMCLib/src/xmc_can.c **** }
 279:../Libraries/XMCLib/src/xmc_can.c **** 
 280:../Libraries/XMCLib/src/xmc_can.c **** void XMC_CAN_Init(XMC_CAN_t *const obj, XMC_CAN_CANCLKSRC_t clksrc, uint32_t can_frequency)
 281:../Libraries/XMCLib/src/xmc_can.c **** {
 282:../Libraries/XMCLib/src/xmc_can.c ****   uint32_t  step_n, step_f;
 283:../Libraries/XMCLib/src/xmc_can.c ****   bool normal_divider;
 284:../Libraries/XMCLib/src/xmc_can.c ****   uint32_t freq_n, freq_f;
 285:../Libraries/XMCLib/src/xmc_can.c ****   uint32_t step;
 286:../Libraries/XMCLib/src/xmc_can.c ****   uint32_t can_frequency_khz;
 287:../Libraries/XMCLib/src/xmc_can.c ****   uint32_t peripheral_frequency_khz;
 288:../Libraries/XMCLib/src/xmc_can.c ****   XMC_CAN_DM_t can_divider_mode;
 289:../Libraries/XMCLib/src/xmc_can.c **** 
 290:../Libraries/XMCLib/src/xmc_can.c ****   uint32_t peripheral_frequency;
 291:../Libraries/XMCLib/src/xmc_can.c ****   /*Enabling the module*/
 292:../Libraries/XMCLib/src/xmc_can.c ****   XMC_CAN_Enable(obj);
 293:../Libraries/XMCLib/src/xmc_can.c **** 
 294:../Libraries/XMCLib/src/xmc_can.c ****   XMC_CAN_SetBaudrateClockSource(obj, clksrc);
 295:../Libraries/XMCLib/src/xmc_can.c **** 
 296:../Libraries/XMCLib/src/xmc_can.c ****   peripheral_frequency = XMC_CAN_GetBaudrateClockFrequency(obj);
 297:../Libraries/XMCLib/src/xmc_can.c **** 
 298:../Libraries/XMCLib/src/xmc_can.c ****   XMC_ASSERT("XMC_CAN_Init: frequency not supported", can_frequency <= peripheral_frequency);
 299:../Libraries/XMCLib/src/xmc_can.c **** 
 300:../Libraries/XMCLib/src/xmc_can.c ****   /* Normal divider mode */
 301:../Libraries/XMCLib/src/xmc_can.c ****   step_n = (uint32_t)min(max(0U, (1024U - (peripheral_frequency / can_frequency))), 1023U);
 302:../Libraries/XMCLib/src/xmc_can.c ****   freq_n = (uint32_t) (peripheral_frequency / (1024U - step_n));
 303:../Libraries/XMCLib/src/xmc_can.c **** 
 304:../Libraries/XMCLib/src/xmc_can.c ****   /* Fractional divider mode */
 305:../Libraries/XMCLib/src/xmc_can.c ****   can_frequency_khz = (uint32_t) (can_frequency >> 6);
 306:../Libraries/XMCLib/src/xmc_can.c ****   peripheral_frequency_khz = (uint32_t)(peripheral_frequency >> 6);
 307:../Libraries/XMCLib/src/xmc_can.c **** 
 308:../Libraries/XMCLib/src/xmc_can.c ****   step_f = (uint32_t)(min( (((1024U * can_frequency_khz) / peripheral_frequency_khz) ), 1023U ));
 309:../Libraries/XMCLib/src/xmc_can.c ****   freq_f = (uint32_t)((peripheral_frequency_khz * step_f) / 1024U);
 310:../Libraries/XMCLib/src/xmc_can.c ****   freq_f = freq_f << 6;
 311:../Libraries/XMCLib/src/xmc_can.c **** 
 312:../Libraries/XMCLib/src/xmc_can.c ****   normal_divider  = (uint32_t)(can_frequency - freq_n) <= (can_frequency - freq_f);
 313:../Libraries/XMCLib/src/xmc_can.c **** 
 314:../Libraries/XMCLib/src/xmc_can.c ****   step   = (normal_divider != 0U) ? step_n : step_f;
 315:../Libraries/XMCLib/src/xmc_can.c ****   can_divider_mode = (normal_divider != 0U) ? XMC_CAN_DM_NORMAL : XMC_CAN_DM_FRACTIONAL;
 316:../Libraries/XMCLib/src/xmc_can.c **** 
 317:../Libraries/XMCLib/src/xmc_can.c ****   obj->FDR &= (uint32_t) ~(CAN_FDR_DM_Msk | CAN_FDR_STEP_Msk);
 318:../Libraries/XMCLib/src/xmc_can.c ****   obj->FDR |= ((uint32_t)can_divider_mode << CAN_FDR_DM_Pos) | ((uint32_t)step << CAN_FDR_STEP_Pos)
 319:../Libraries/XMCLib/src/xmc_can.c **** 
 320:../Libraries/XMCLib/src/xmc_can.c **** }
 321:../Libraries/XMCLib/src/xmc_can.c **** 
 322:../Libraries/XMCLib/src/xmc_can.c **** void XMC_CAN_SetBaudrateClockSource(XMC_CAN_t *const obj,const XMC_CAN_CANCLKSRC_t source)
 323:../Libraries/XMCLib/src/xmc_can.c **** {
 324:../Libraries/XMCLib/src/xmc_can.c ****   obj->MCR = (obj->MCR & ~CAN_MCR_CLKSEL_Msk) | source ;
 325:../Libraries/XMCLib/src/xmc_can.c **** }
 326:../Libraries/XMCLib/src/xmc_can.c **** 
 327:../Libraries/XMCLib/src/xmc_can.c **** XMC_CAN_CANCLKSRC_t XMC_CAN_GetBaudrateClockSource(XMC_CAN_t *const obj)
 328:../Libraries/XMCLib/src/xmc_can.c **** {
 329:../Libraries/XMCLib/src/xmc_can.c ****   return ((XMC_CAN_CANCLKSRC_t)((obj->MCR & CAN_MCR_CLKSEL_Msk) >> CAN_MCR_CLKSEL_Pos));
 330:../Libraries/XMCLib/src/xmc_can.c **** }
 331:../Libraries/XMCLib/src/xmc_can.c **** 
 332:../Libraries/XMCLib/src/xmc_can.c **** #else
 333:../Libraries/XMCLib/src/xmc_can.c **** /* Initialization of XMC_CAN GLOBAL Object */
 334:../Libraries/XMCLib/src/xmc_can.c **** void XMC_CAN_Init(XMC_CAN_t *const obj, uint32_t can_frequency)
 335:../Libraries/XMCLib/src/xmc_can.c **** {
 803              	 .loc 2 335 0
 804              	 .cfi_startproc
 805              	 
 806              	 
 807 0000 80B5     	 push {r7,lr}
 808              	.LCFI56:
 809              	 .cfi_def_cfa_offset 8
 810              	 .cfi_offset 7,-8
 811              	 .cfi_offset 14,-4
 812 0002 8CB0     	 sub sp,sp,#48
 813              	.LCFI57:
 814              	 .cfi_def_cfa_offset 56
 815 0004 00AF     	 add r7,sp,#0
 816              	.LCFI58:
 817              	 .cfi_def_cfa_register 7
 818 0006 7860     	 str r0,[r7,#4]
 819 0008 3960     	 str r1,[r7]
 336:../Libraries/XMCLib/src/xmc_can.c ****   uint32_t  step_n, step_f;
 337:../Libraries/XMCLib/src/xmc_can.c ****   bool normal_divider;
 338:../Libraries/XMCLib/src/xmc_can.c ****   uint32_t freq_n, freq_f;
 339:../Libraries/XMCLib/src/xmc_can.c ****   uint32_t step;
 340:../Libraries/XMCLib/src/xmc_can.c ****   uint32_t can_frequency_khz;
 341:../Libraries/XMCLib/src/xmc_can.c ****   uint32_t peripheral_frequency_khz;
 342:../Libraries/XMCLib/src/xmc_can.c ****   XMC_CAN_DM_t can_divider_mode;
 343:../Libraries/XMCLib/src/xmc_can.c **** 
 344:../Libraries/XMCLib/src/xmc_can.c ****   uint32_t peripheral_frequency = (XMC_SCU_CLOCK_GetPeripheralClockFrequency());
 820              	 .loc 2 344 0
 821 000a FFF7FEFF 	 bl XMC_SCU_CLOCK_GetPeripheralClockFrequency
 822 000e F862     	 str r0,[r7,#44]
 345:../Libraries/XMCLib/src/xmc_can.c **** 
 346:../Libraries/XMCLib/src/xmc_can.c ****   XMC_ASSERT("XMC_CAN_Init: frequency not supported", can_frequency <= peripheral_frequency);
 347:../Libraries/XMCLib/src/xmc_can.c **** 
 348:../Libraries/XMCLib/src/xmc_can.c ****   /*Enabling the module*/
 349:../Libraries/XMCLib/src/xmc_can.c ****   XMC_CAN_Enable(obj);
 823              	 .loc 2 349 0
 824 0010 7868     	 ldr r0,[r7,#4]
 825 0012 FFF7FEFF 	 bl XMC_CAN_Enable
 350:../Libraries/XMCLib/src/xmc_can.c **** 
 351:../Libraries/XMCLib/src/xmc_can.c ****   /* Normal divider mode */
 352:../Libraries/XMCLib/src/xmc_can.c ****   step_n = (uint32_t)min(max(0U, (1024U - (peripheral_frequency / can_frequency))), 1023U);
 826              	 .loc 2 352 0
 827 0016 FA6A     	 ldr r2,[r7,#44]
 828 0018 3B68     	 ldr r3,[r7]
 829 001a B2FBF3F3 	 udiv r3,r2,r3
 830 001e C3F58063 	 rsb r3,r3,#1024
 831 0022 0020     	 movs r0,#0
 832 0024 1946     	 mov r1,r3
 833 0026 FFF7FEFF 	 bl max
 834 002a 0346     	 mov r3,r0
 835 002c 1846     	 mov r0,r3
 836 002e 40F2FF31 	 movw r1,#1023
 837 0032 FFF7FEFF 	 bl min
 838 0036 B862     	 str r0,[r7,#40]
 353:../Libraries/XMCLib/src/xmc_can.c ****   freq_n = (uint32_t) (peripheral_frequency / (1024U - step_n));
 839              	 .loc 2 353 0
 840 0038 BB6A     	 ldr r3,[r7,#40]
 841 003a C3F58063 	 rsb r3,r3,#1024
 842 003e FA6A     	 ldr r2,[r7,#44]
 843 0040 B2FBF3F3 	 udiv r3,r2,r3
 844 0044 7B62     	 str r3,[r7,#36]
 354:../Libraries/XMCLib/src/xmc_can.c **** 
 355:../Libraries/XMCLib/src/xmc_can.c ****   /* Fractional divider mode */
 356:../Libraries/XMCLib/src/xmc_can.c ****   can_frequency_khz = (uint32_t) (can_frequency >> 6);
 845              	 .loc 2 356 0
 846 0046 3B68     	 ldr r3,[r7]
 847 0048 9B09     	 lsrs r3,r3,#6
 848 004a 3B62     	 str r3,[r7,#32]
 357:../Libraries/XMCLib/src/xmc_can.c ****   peripheral_frequency_khz = (uint32_t)(peripheral_frequency >> 6);
 849              	 .loc 2 357 0
 850 004c FB6A     	 ldr r3,[r7,#44]
 851 004e 9B09     	 lsrs r3,r3,#6
 852 0050 FB61     	 str r3,[r7,#28]
 358:../Libraries/XMCLib/src/xmc_can.c **** 
 359:../Libraries/XMCLib/src/xmc_can.c ****   step_f = (uint32_t)(min( (((1024U * can_frequency_khz) / peripheral_frequency_khz) ), 1023U ));
 853              	 .loc 2 359 0
 854 0052 3B6A     	 ldr r3,[r7,#32]
 855 0054 9A02     	 lsls r2,r3,#10
 856 0056 FB69     	 ldr r3,[r7,#28]
 857 0058 B2FBF3F3 	 udiv r3,r2,r3
 858 005c 1846     	 mov r0,r3
 859 005e 40F2FF31 	 movw r1,#1023
 860 0062 FFF7FEFF 	 bl min
 861 0066 B861     	 str r0,[r7,#24]
 360:../Libraries/XMCLib/src/xmc_can.c ****   freq_f = (uint32_t)((peripheral_frequency_khz * step_f) / 1024U);
 862              	 .loc 2 360 0
 863 0068 FB69     	 ldr r3,[r7,#28]
 864 006a BA69     	 ldr r2,[r7,#24]
 865 006c 02FB03F3 	 mul r3,r2,r3
 866 0070 9B0A     	 lsrs r3,r3,#10
 867 0072 7B61     	 str r3,[r7,#20]
 361:../Libraries/XMCLib/src/xmc_can.c ****   freq_f = freq_f << 6;
 868              	 .loc 2 361 0
 869 0074 7B69     	 ldr r3,[r7,#20]
 870 0076 9B01     	 lsls r3,r3,#6
 871 0078 7B61     	 str r3,[r7,#20]
 362:../Libraries/XMCLib/src/xmc_can.c **** 
 363:../Libraries/XMCLib/src/xmc_can.c ****   normal_divider  = (uint32_t)(can_frequency - freq_n) <= (can_frequency - freq_f);
 872              	 .loc 2 363 0
 873 007a 3A68     	 ldr r2,[r7]
 874 007c 7B6A     	 ldr r3,[r7,#36]
 875 007e D21A     	 subs r2,r2,r3
 876 0080 3968     	 ldr r1,[r7]
 877 0082 7B69     	 ldr r3,[r7,#20]
 878 0084 CB1A     	 subs r3,r1,r3
 879 0086 9A42     	 cmp r2,r3
 880 0088 94BF     	 ite ls
 881 008a 0123     	 movls r3,#1
 882 008c 0023     	 movhi r3,#0
 883 008e FB74     	 strb r3,[r7,#19]
 364:../Libraries/XMCLib/src/xmc_can.c **** 
 365:../Libraries/XMCLib/src/xmc_can.c ****   step   = (normal_divider != 0U) ? step_n : step_f;
 884              	 .loc 2 365 0
 885 0090 FB7C     	 ldrb r3,[r7,#19]
 886 0092 002B     	 cmp r3,#0
 887 0094 01D0     	 beq .L40
 888              	 .loc 2 365 0 is_stmt 0 discriminator 1
 889 0096 BB6A     	 ldr r3,[r7,#40]
 890 0098 00E0     	 b .L41
 891              	.L40:
 892              	 .loc 2 365 0 discriminator 2
 893 009a BB69     	 ldr r3,[r7,#24]
 894              	.L41:
 895              	 .loc 2 365 0 discriminator 4
 896 009c FB60     	 str r3,[r7,#12]
 366:../Libraries/XMCLib/src/xmc_can.c ****   can_divider_mode = (normal_divider != 0U) ? XMC_CAN_DM_NORMAL : XMC_CAN_DM_FRACTIONAL;
 897              	 .loc 2 366 0 is_stmt 1 discriminator 4
 898 009e FB7C     	 ldrb r3,[r7,#19]
 899 00a0 002B     	 cmp r3,#0
 900 00a2 01D0     	 beq .L42
 901              	 .loc 2 366 0 is_stmt 0 discriminator 1
 902 00a4 0123     	 movs r3,#1
 903 00a6 00E0     	 b .L43
 904              	.L42:
 905              	 .loc 2 366 0 discriminator 2
 906 00a8 0223     	 movs r3,#2
 907              	.L43:
 908              	 .loc 2 366 0 discriminator 4
 909 00aa FB72     	 strb r3,[r7,#11]
 367:../Libraries/XMCLib/src/xmc_can.c **** 
 368:../Libraries/XMCLib/src/xmc_can.c ****   obj->FDR &= (uint32_t) ~(CAN_FDR_DM_Msk | CAN_FDR_STEP_Msk);
 910              	 .loc 2 368 0 is_stmt 1 discriminator 4
 911 00ac 7B68     	 ldr r3,[r7,#4]
 912 00ae DB68     	 ldr r3,[r3,#12]
 913 00b0 23F44343 	 bic r3,r3,#49920
 914 00b4 23F0FF03 	 bic r3,r3,#255
 915 00b8 7A68     	 ldr r2,[r7,#4]
 916 00ba D360     	 str r3,[r2,#12]
 369:../Libraries/XMCLib/src/xmc_can.c ****   obj->FDR |= ((uint32_t)can_divider_mode << CAN_FDR_DM_Pos) | ((uint32_t)step << CAN_FDR_STEP_Pos)
 917              	 .loc 2 369 0 discriminator 4
 918 00bc 7B68     	 ldr r3,[r7,#4]
 919 00be DA68     	 ldr r2,[r3,#12]
 920 00c0 FB7A     	 ldrb r3,[r7,#11]
 921 00c2 9903     	 lsls r1,r3,#14
 922 00c4 FB68     	 ldr r3,[r7,#12]
 923 00c6 0B43     	 orrs r3,r3,r1
 924 00c8 1A43     	 orrs r2,r2,r3
 925 00ca 7B68     	 ldr r3,[r7,#4]
 926 00cc DA60     	 str r2,[r3,#12]
 370:../Libraries/XMCLib/src/xmc_can.c **** }
 927              	 .loc 2 370 0 discriminator 4
 928 00ce 3037     	 adds r7,r7,#48
 929              	.LCFI59:
 930              	 .cfi_def_cfa_offset 8
 931 00d0 BD46     	 mov sp,r7
 932              	.LCFI60:
 933              	 .cfi_def_cfa_register 13
 934              	 
 935 00d2 80BD     	 pop {r7,pc}
 936              	 .cfi_endproc
 937              	.LFE221:
 939              	 .section .text.XMC_CAN_MO_SetIdentifier,"ax",%progbits
 940              	 .align 2
 941              	 .global XMC_CAN_MO_SetIdentifier
 942              	 .thumb
 943              	 .thumb_func
 945              	XMC_CAN_MO_SetIdentifier:
 946              	.LFB222:
 371:../Libraries/XMCLib/src/xmc_can.c **** #endif
 372:../Libraries/XMCLib/src/xmc_can.c **** 
 373:../Libraries/XMCLib/src/xmc_can.c **** /* Sets the Identifier of the MO */
 374:../Libraries/XMCLib/src/xmc_can.c **** void XMC_CAN_MO_SetIdentifier(XMC_CAN_MO_t *const can_mo, const uint32_t can_identifier)
 375:../Libraries/XMCLib/src/xmc_can.c **** {
 947              	 .loc 2 375 0
 948              	 .cfi_startproc
 949              	 
 950              	 
 951              	 
 952 0000 80B4     	 push {r7}
 953              	.LCFI61:
 954              	 .cfi_def_cfa_offset 4
 955              	 .cfi_offset 7,-4
 956 0002 83B0     	 sub sp,sp,#12
 957              	.LCFI62:
 958              	 .cfi_def_cfa_offset 16
 959 0004 00AF     	 add r7,sp,#0
 960              	.LCFI63:
 961              	 .cfi_def_cfa_register 7
 962 0006 7860     	 str r0,[r7,#4]
 963 0008 3960     	 str r1,[r7]
 376:../Libraries/XMCLib/src/xmc_can.c ****   if ((can_mo->can_mo_ptr->MOAR & CAN_MO_MOAR_IDE_Msk) != (uint32_t)CAN_MO_MOAR_IDE_Msk)
 964              	 .loc 2 376 0
 965 000a 7B68     	 ldr r3,[r7,#4]
 966 000c 1B68     	 ldr r3,[r3]
 967 000e 9B69     	 ldr r3,[r3,#24]
 968 0010 03F00053 	 and r3,r3,#536870912
 969 0014 002B     	 cmp r3,#0
 970 0016 0DD1     	 bne .L45
 377:../Libraries/XMCLib/src/xmc_can.c ****   {
 378:../Libraries/XMCLib/src/xmc_can.c ****     can_mo->can_mo_ptr->MOAR = ((can_mo->can_mo_ptr->MOAR) & ~(uint32_t)(CAN_MO_MOAR_ID_Msk)) |
 971              	 .loc 2 378 0
 972 0018 7B68     	 ldr r3,[r7,#4]
 973 001a 1B68     	 ldr r3,[r3]
 974 001c 7A68     	 ldr r2,[r7,#4]
 975 001e 1268     	 ldr r2,[r2]
 976 0020 9269     	 ldr r2,[r2,#24]
 977 0022 02F06041 	 and r1,r2,#-536870912
 379:../Libraries/XMCLib/src/xmc_can.c **** 	                           ((can_identifier << XMC_CAN_MO_MOAR_STDID_Pos) & (uint32_t)CAN_MO_MOAR_
 978              	 .loc 2 379 0
 979 0026 3A68     	 ldr r2,[r7]
 980 0028 9204     	 lsls r2,r2,#18
 981 002a 22F06042 	 bic r2,r2,#-536870912
 378:../Libraries/XMCLib/src/xmc_can.c **** 	                           ((can_identifier << XMC_CAN_MO_MOAR_STDID_Pos) & (uint32_t)CAN_MO_MOAR_
 982              	 .loc 2 378 0
 983 002e 0A43     	 orrs r2,r2,r1
 984 0030 9A61     	 str r2,[r3,#24]
 985 0032 0BE0     	 b .L46
 986              	.L45:
 380:../Libraries/XMCLib/src/xmc_can.c ****   }
 381:../Libraries/XMCLib/src/xmc_can.c ****   else
 382:../Libraries/XMCLib/src/xmc_can.c ****   {
 383:../Libraries/XMCLib/src/xmc_can.c ****     can_mo->can_mo_ptr->MOAR = ((can_mo->can_mo_ptr->MOAR) & ~(uint32_t)(CAN_MO_MOAR_ID_Msk)) |
 987              	 .loc 2 383 0
 988 0034 7B68     	 ldr r3,[r7,#4]
 989 0036 1B68     	 ldr r3,[r3]
 990 0038 7A68     	 ldr r2,[r7,#4]
 991 003a 1268     	 ldr r2,[r2]
 992 003c 9269     	 ldr r2,[r2,#24]
 993 003e 02F06041 	 and r1,r2,#-536870912
 384:../Libraries/XMCLib/src/xmc_can.c ****     		                   (can_identifier & (uint32_t)CAN_MO_MOAR_ID_Msk);
 994              	 .loc 2 384 0
 995 0042 3A68     	 ldr r2,[r7]
 996 0044 22F06042 	 bic r2,r2,#-536870912
 383:../Libraries/XMCLib/src/xmc_can.c ****     		                   (can_identifier & (uint32_t)CAN_MO_MOAR_ID_Msk);
 997              	 .loc 2 383 0
 998 0048 0A43     	 orrs r2,r2,r1
 999 004a 9A61     	 str r2,[r3,#24]
 1000              	.L46:
 385:../Libraries/XMCLib/src/xmc_can.c ****   }
 386:../Libraries/XMCLib/src/xmc_can.c ****   can_mo->can_identifier = can_identifier;
 1001              	 .loc 2 386 0
 1002 004c 3B68     	 ldr r3,[r7]
 1003 004e 23F06041 	 bic r1,r3,#-536870912
 1004 0052 7A68     	 ldr r2,[r7,#4]
 1005 0054 5368     	 ldr r3,[r2,#4]
 1006 0056 61F31C03 	 bfi r3,r1,#0,#29
 1007 005a 5360     	 str r3,[r2,#4]
 387:../Libraries/XMCLib/src/xmc_can.c **** }
 1008              	 .loc 2 387 0
 1009 005c 0C37     	 adds r7,r7,#12
 1010              	.LCFI64:
 1011              	 .cfi_def_cfa_offset 4
 1012 005e BD46     	 mov sp,r7
 1013              	.LCFI65:
 1014              	 .cfi_def_cfa_register 13
 1015              	 
 1016 0060 5DF8047B 	 ldr r7,[sp],#4
 1017              	.LCFI66:
 1018              	 .cfi_restore 7
 1019              	 .cfi_def_cfa_offset 0
 1020 0064 7047     	 bx lr
 1021              	 .cfi_endproc
 1022              	.LFE222:
 1024 0066 00BF     	 .section .text.XMC_CAN_MO_GetIdentifier,"ax",%progbits
 1025              	 .align 2
 1026              	 .global XMC_CAN_MO_GetIdentifier
 1027              	 .thumb
 1028              	 .thumb_func
 1030              	XMC_CAN_MO_GetIdentifier:
 1031              	.LFB223:
 388:../Libraries/XMCLib/src/xmc_can.c **** 
 389:../Libraries/XMCLib/src/xmc_can.c **** 
 390:../Libraries/XMCLib/src/xmc_can.c **** /* Gets the Identifier of the MO */
 391:../Libraries/XMCLib/src/xmc_can.c **** uint32_t XMC_CAN_MO_GetIdentifier(const XMC_CAN_MO_t *const can_mo)
 392:../Libraries/XMCLib/src/xmc_can.c **** {
 1032              	 .loc 2 392 0
 1033              	 .cfi_startproc
 1034              	 
 1035              	 
 1036              	 
 1037 0000 80B4     	 push {r7}
 1038              	.LCFI67:
 1039              	 .cfi_def_cfa_offset 4
 1040              	 .cfi_offset 7,-4
 1041 0002 85B0     	 sub sp,sp,#20
 1042              	.LCFI68:
 1043              	 .cfi_def_cfa_offset 24
 1044 0004 00AF     	 add r7,sp,#0
 1045              	.LCFI69:
 1046              	 .cfi_def_cfa_register 7
 1047 0006 7860     	 str r0,[r7,#4]
 393:../Libraries/XMCLib/src/xmc_can.c ****   uint32_t identifier;
 394:../Libraries/XMCLib/src/xmc_can.c ****   if ((can_mo->can_mo_ptr->MOAR & CAN_MO_MOAR_IDE_Msk) != (uint32_t)CAN_MO_MOAR_IDE_Msk)
 1048              	 .loc 2 394 0
 1049 0008 7B68     	 ldr r3,[r7,#4]
 1050 000a 1B68     	 ldr r3,[r3]
 1051 000c 9B69     	 ldr r3,[r3,#24]
 1052 000e 03F00053 	 and r3,r3,#536870912
 1053 0012 002B     	 cmp r3,#0
 1054 0014 07D1     	 bne .L48
 395:../Libraries/XMCLib/src/xmc_can.c ****   {
 396:../Libraries/XMCLib/src/xmc_can.c **** 	identifier = ((can_mo->can_mo_ptr->MOAR) & (uint32_t)(CAN_MO_MOAR_ID_Msk)) >> XMC_CAN_MO_MOAR_STDI
 1055              	 .loc 2 396 0
 1056 0016 7B68     	 ldr r3,[r7,#4]
 1057 0018 1B68     	 ldr r3,[r3]
 1058 001a 9B69     	 ldr r3,[r3,#24]
 1059 001c 23F06043 	 bic r3,r3,#-536870912
 1060 0020 9B0C     	 lsrs r3,r3,#18
 1061 0022 FB60     	 str r3,[r7,#12]
 1062 0024 05E0     	 b .L49
 1063              	.L48:
 397:../Libraries/XMCLib/src/xmc_can.c ****   }
 398:../Libraries/XMCLib/src/xmc_can.c ****   else
 399:../Libraries/XMCLib/src/xmc_can.c ****   {
 400:../Libraries/XMCLib/src/xmc_can.c **** 	identifier = ((can_mo->can_mo_ptr->MOAR) & (uint32_t)(CAN_MO_MOAR_ID_Msk));
 1064              	 .loc 2 400 0
 1065 0026 7B68     	 ldr r3,[r7,#4]
 1066 0028 1B68     	 ldr r3,[r3]
 1067 002a 9B69     	 ldr r3,[r3,#24]
 1068 002c 23F06043 	 bic r3,r3,#-536870912
 1069 0030 FB60     	 str r3,[r7,#12]
 1070              	.L49:
 401:../Libraries/XMCLib/src/xmc_can.c ****   }
 402:../Libraries/XMCLib/src/xmc_can.c ****   return identifier;
 1071              	 .loc 2 402 0
 1072 0032 FB68     	 ldr r3,[r7,#12]
 403:../Libraries/XMCLib/src/xmc_can.c **** }
 1073              	 .loc 2 403 0
 1074 0034 1846     	 mov r0,r3
 1075 0036 1437     	 adds r7,r7,#20
 1076              	.LCFI70:
 1077              	 .cfi_def_cfa_offset 4
 1078 0038 BD46     	 mov sp,r7
 1079              	.LCFI71:
 1080              	 .cfi_def_cfa_register 13
 1081              	 
 1082 003a 5DF8047B 	 ldr r7,[sp],#4
 1083              	.LCFI72:
 1084              	 .cfi_restore 7
 1085              	 .cfi_def_cfa_offset 0
 1086 003e 7047     	 bx lr
 1087              	 .cfi_endproc
 1088              	.LFE223:
 1090              	 .section .text.XMC_CAN_MO_GetAcceptanceMask,"ax",%progbits
 1091              	 .align 2
 1092              	 .global XMC_CAN_MO_GetAcceptanceMask
 1093              	 .thumb
 1094              	 .thumb_func
 1096              	XMC_CAN_MO_GetAcceptanceMask:
 1097              	.LFB224:
 404:../Libraries/XMCLib/src/xmc_can.c **** 
 405:../Libraries/XMCLib/src/xmc_can.c **** /* Gets the acceptance mask for the CAN MO. */
 406:../Libraries/XMCLib/src/xmc_can.c **** uint32_t XMC_CAN_MO_GetAcceptanceMask(const XMC_CAN_MO_t *const can_mo)
 407:../Libraries/XMCLib/src/xmc_can.c **** {
 1098              	 .loc 2 407 0
 1099              	 .cfi_startproc
 1100              	 
 1101              	 
 1102              	 
 1103 0000 80B4     	 push {r7}
 1104              	.LCFI73:
 1105              	 .cfi_def_cfa_offset 4
 1106              	 .cfi_offset 7,-4
 1107 0002 85B0     	 sub sp,sp,#20
 1108              	.LCFI74:
 1109              	 .cfi_def_cfa_offset 24
 1110 0004 00AF     	 add r7,sp,#0
 1111              	.LCFI75:
 1112              	 .cfi_def_cfa_register 7
 1113 0006 7860     	 str r0,[r7,#4]
 408:../Libraries/XMCLib/src/xmc_can.c ****   uint32_t identifier_mask;
 409:../Libraries/XMCLib/src/xmc_can.c ****   if (((can_mo->can_mo_ptr->MOAMR & CAN_MO_MOAMR_MIDE_Msk) != (uint32_t)CAN_MO_MOAMR_MIDE_Msk)
 1114              	 .loc 2 409 0
 1115 0008 7B68     	 ldr r3,[r7,#4]
 1116 000a 1B68     	 ldr r3,[r3]
 1117 000c DB68     	 ldr r3,[r3,#12]
 1118 000e 03F00053 	 and r3,r3,#536870912
 1119 0012 002B     	 cmp r3,#0
 1120 0014 0ED1     	 bne .L52
 410:../Libraries/XMCLib/src/xmc_can.c ****             && ((can_mo->can_mo_ptr->MOAR & CAN_MO_MOAR_IDE_Msk) != (uint32_t)CAN_MO_MOAR_IDE_Msk))
 1121              	 .loc 2 410 0
 1122 0016 7B68     	 ldr r3,[r7,#4]
 1123 0018 1B68     	 ldr r3,[r3]
 1124 001a 9B69     	 ldr r3,[r3,#24]
 1125 001c 03F00053 	 and r3,r3,#536870912
 1126 0020 002B     	 cmp r3,#0
 1127 0022 07D1     	 bne .L52
 411:../Libraries/XMCLib/src/xmc_can.c ****   {
 412:../Libraries/XMCLib/src/xmc_can.c ****     identifier_mask = ((can_mo->can_mo_ptr->MOAMR) & (uint32_t)(CAN_MO_MOAMR_AM_Msk)) >> XMC_CAN_MO
 1128              	 .loc 2 412 0
 1129 0024 7B68     	 ldr r3,[r7,#4]
 1130 0026 1B68     	 ldr r3,[r3]
 1131 0028 DB68     	 ldr r3,[r3,#12]
 1132 002a 23F06043 	 bic r3,r3,#-536870912
 1133 002e 9B0C     	 lsrs r3,r3,#18
 1134 0030 FB60     	 str r3,[r7,#12]
 1135 0032 05E0     	 b .L53
 1136              	.L52:
 413:../Libraries/XMCLib/src/xmc_can.c ****   }
 414:../Libraries/XMCLib/src/xmc_can.c ****   else
 415:../Libraries/XMCLib/src/xmc_can.c ****   {
 416:../Libraries/XMCLib/src/xmc_can.c ****     identifier_mask = ((can_mo->can_mo_ptr->MOAMR) & (uint32_t)(CAN_MO_MOAMR_AM_Msk));
 1137              	 .loc 2 416 0
 1138 0034 7B68     	 ldr r3,[r7,#4]
 1139 0036 1B68     	 ldr r3,[r3]
 1140 0038 DB68     	 ldr r3,[r3,#12]
 1141 003a 23F06043 	 bic r3,r3,#-536870912
 1142 003e FB60     	 str r3,[r7,#12]
 1143              	.L53:
 417:../Libraries/XMCLib/src/xmc_can.c ****   }
 418:../Libraries/XMCLib/src/xmc_can.c ****   return identifier_mask;
 1144              	 .loc 2 418 0
 1145 0040 FB68     	 ldr r3,[r7,#12]
 419:../Libraries/XMCLib/src/xmc_can.c **** }
 1146              	 .loc 2 419 0
 1147 0042 1846     	 mov r0,r3
 1148 0044 1437     	 adds r7,r7,#20
 1149              	.LCFI76:
 1150              	 .cfi_def_cfa_offset 4
 1151 0046 BD46     	 mov sp,r7
 1152              	.LCFI77:
 1153              	 .cfi_def_cfa_register 13
 1154              	 
 1155 0048 5DF8047B 	 ldr r7,[sp],#4
 1156              	.LCFI78:
 1157              	 .cfi_restore 7
 1158              	 .cfi_def_cfa_offset 0
 1159 004c 7047     	 bx lr
 1160              	 .cfi_endproc
 1161              	.LFE224:
 1163 004e 00BF     	 .section .text.XMC_CAN_MO_SetAcceptanceMask,"ax",%progbits
 1164              	 .align 2
 1165              	 .global XMC_CAN_MO_SetAcceptanceMask
 1166              	 .thumb
 1167              	 .thumb_func
 1169              	XMC_CAN_MO_SetAcceptanceMask:
 1170              	.LFB225:
 420:../Libraries/XMCLib/src/xmc_can.c **** 
 421:../Libraries/XMCLib/src/xmc_can.c **** /* Gets the acceptance mask of the MO */
 422:../Libraries/XMCLib/src/xmc_can.c **** void XMC_CAN_MO_SetAcceptanceMask(XMC_CAN_MO_t *const can_mo,const uint32_t can_id_mask)
 423:../Libraries/XMCLib/src/xmc_can.c **** {
 1171              	 .loc 2 423 0
 1172              	 .cfi_startproc
 1173              	 
 1174              	 
 1175              	 
 1176 0000 80B4     	 push {r7}
 1177              	.LCFI79:
 1178              	 .cfi_def_cfa_offset 4
 1179              	 .cfi_offset 7,-4
 1180 0002 83B0     	 sub sp,sp,#12
 1181              	.LCFI80:
 1182              	 .cfi_def_cfa_offset 16
 1183 0004 00AF     	 add r7,sp,#0
 1184              	.LCFI81:
 1185              	 .cfi_def_cfa_register 7
 1186 0006 7860     	 str r0,[r7,#4]
 1187 0008 3960     	 str r1,[r7]
 424:../Libraries/XMCLib/src/xmc_can.c ****   if (((can_mo->can_mo_ptr->MOAMR & CAN_MO_MOAMR_MIDE_Msk) != (uint32_t)CAN_MO_MOAMR_MIDE_Msk)
 1188              	 .loc 2 424 0
 1189 000a 7B68     	 ldr r3,[r7,#4]
 1190 000c 1B68     	 ldr r3,[r3]
 1191 000e DB68     	 ldr r3,[r3,#12]
 1192 0010 03F00053 	 and r3,r3,#536870912
 1193 0014 002B     	 cmp r3,#0
 1194 0016 12D1     	 bne .L56
 425:../Libraries/XMCLib/src/xmc_can.c ****           && ((can_mo->can_mo_ptr->MOAR & CAN_MO_MOAR_IDE_Msk) != (uint32_t)CAN_MO_MOAR_IDE_Msk))
 1195              	 .loc 2 425 0
 1196 0018 7B68     	 ldr r3,[r7,#4]
 1197 001a 1B68     	 ldr r3,[r3]
 1198 001c 9B69     	 ldr r3,[r3,#24]
 1199 001e 03F00053 	 and r3,r3,#536870912
 1200 0022 002B     	 cmp r3,#0
 1201 0024 0BD1     	 bne .L56
 426:../Libraries/XMCLib/src/xmc_can.c ****   {
 427:../Libraries/XMCLib/src/xmc_can.c **** 	can_mo->can_mo_ptr->MOAMR = ((can_mo->can_mo_ptr->MOAMR) & ~(uint32_t)(CAN_MO_MOAMR_AM_Msk)) |
 1202              	 .loc 2 427 0
 1203 0026 7B68     	 ldr r3,[r7,#4]
 1204 0028 1B68     	 ldr r3,[r3]
 1205 002a 7A68     	 ldr r2,[r7,#4]
 1206 002c 1268     	 ldr r2,[r2]
 1207 002e D268     	 ldr r2,[r2,#12]
 1208 0030 02F06041 	 and r1,r2,#-536870912
 428:../Libraries/XMCLib/src/xmc_can.c **** 							    (can_id_mask << XMC_CAN_MO_MOAR_STDID_Pos);
 1209              	 .loc 2 428 0
 1210 0034 3A68     	 ldr r2,[r7]
 1211 0036 9204     	 lsls r2,r2,#18
 427:../Libraries/XMCLib/src/xmc_can.c **** 							    (can_id_mask << XMC_CAN_MO_MOAR_STDID_Pos);
 1212              	 .loc 2 427 0
 1213 0038 0A43     	 orrs r2,r2,r1
 1214 003a DA60     	 str r2,[r3,#12]
 1215 003c 0BE0     	 b .L57
 1216              	.L56:
 429:../Libraries/XMCLib/src/xmc_can.c ****   }
 430:../Libraries/XMCLib/src/xmc_can.c ****   else
 431:../Libraries/XMCLib/src/xmc_can.c ****   {
 432:../Libraries/XMCLib/src/xmc_can.c **** 	can_mo->can_mo_ptr->MOAMR = ((can_mo->can_mo_ptr->MOAMR) & ~(uint32_t)(CAN_MO_MOAMR_AM_Msk)) |
 1217              	 .loc 2 432 0
 1218 003e 7B68     	 ldr r3,[r7,#4]
 1219 0040 1B68     	 ldr r3,[r3]
 1220 0042 7A68     	 ldr r2,[r7,#4]
 1221 0044 1268     	 ldr r2,[r2]
 1222 0046 D268     	 ldr r2,[r2,#12]
 1223 0048 02F06041 	 and r1,r2,#-536870912
 433:../Libraries/XMCLib/src/xmc_can.c **** 							    (can_id_mask & (uint32_t)CAN_MO_MOAMR_AM_Msk);
 1224              	 .loc 2 433 0
 1225 004c 3A68     	 ldr r2,[r7]
 1226 004e 22F06042 	 bic r2,r2,#-536870912
 432:../Libraries/XMCLib/src/xmc_can.c **** 							    (can_id_mask & (uint32_t)CAN_MO_MOAMR_AM_Msk);
 1227              	 .loc 2 432 0
 1228 0052 0A43     	 orrs r2,r2,r1
 1229 0054 DA60     	 str r2,[r3,#12]
 1230              	.L57:
 434:../Libraries/XMCLib/src/xmc_can.c ****   }
 435:../Libraries/XMCLib/src/xmc_can.c ****   can_mo->can_id_mask = can_id_mask;
 1231              	 .loc 2 435 0
 1232 0056 3B68     	 ldr r3,[r7]
 1233 0058 23F06041 	 bic r1,r3,#-536870912
 1234 005c 7A68     	 ldr r2,[r7,#4]
 1235 005e 9368     	 ldr r3,[r2,#8]
 1236 0060 61F31C03 	 bfi r3,r1,#0,#29
 1237 0064 9360     	 str r3,[r2,#8]
 436:../Libraries/XMCLib/src/xmc_can.c **** }
 1238              	 .loc 2 436 0
 1239 0066 0C37     	 adds r7,r7,#12
 1240              	.LCFI82:
 1241              	 .cfi_def_cfa_offset 4
 1242 0068 BD46     	 mov sp,r7
 1243              	.LCFI83:
 1244              	 .cfi_def_cfa_register 13
 1245              	 
 1246 006a 5DF8047B 	 ldr r7,[sp],#4
 1247              	.LCFI84:
 1248              	 .cfi_restore 7
 1249              	 .cfi_def_cfa_offset 0
 1250 006e 7047     	 bx lr
 1251              	 .cfi_endproc
 1252              	.LFE225:
 1254              	 .section .text.XMC_CAN_MO_Config,"ax",%progbits
 1255              	 .align 2
 1256              	 .global XMC_CAN_MO_Config
 1257              	 .thumb
 1258              	 .thumb_func
 1260              	XMC_CAN_MO_Config:
 1261              	.LFB226:
 437:../Libraries/XMCLib/src/xmc_can.c **** 
 438:../Libraries/XMCLib/src/xmc_can.c **** /* Initialization of XMC_CAN MO Object */
 439:../Libraries/XMCLib/src/xmc_can.c **** void XMC_CAN_MO_Config(const XMC_CAN_MO_t *const can_mo)
 440:../Libraries/XMCLib/src/xmc_can.c **** {
 1262              	 .loc 2 440 0
 1263              	 .cfi_startproc
 1264              	 
 1265              	 
 1266 0000 80B5     	 push {r7,lr}
 1267              	.LCFI85:
 1268              	 .cfi_def_cfa_offset 8
 1269              	 .cfi_offset 7,-8
 1270              	 .cfi_offset 14,-4
 1271 0002 86B0     	 sub sp,sp,#24
 1272              	.LCFI86:
 1273              	 .cfi_def_cfa_offset 32
 1274 0004 00AF     	 add r7,sp,#0
 1275              	.LCFI87:
 1276              	 .cfi_def_cfa_register 7
 1277 0006 7860     	 str r0,[r7,#4]
 441:../Libraries/XMCLib/src/xmc_can.c ****   uint32_t reg;
 442:../Libraries/XMCLib/src/xmc_can.c ****   
 443:../Libraries/XMCLib/src/xmc_can.c ****   /* Configure MPN */
 444:../Libraries/XMCLib/src/xmc_can.c ****   uint32_t num = ((uint32_t)(can_mo->can_mo_ptr) - CAN_BASE - 0x1000U)/0x0020U;
 1278              	 .loc 2 444 0
 1279 0008 7B68     	 ldr r3,[r7,#4]
 1280 000a 1B68     	 ldr r3,[r3]
 1281 000c 03F13843 	 add r3,r3,#-1207959552
 1282 0010 A3F5A833 	 sub r3,r3,#86016
 1283 0014 5B09     	 lsrs r3,r3,#5
 1284 0016 7B61     	 str r3,[r7,#20]
 445:../Libraries/XMCLib/src/xmc_can.c ****   uint32_t set = (((uint32_t)(num/32) << (CAN_MO_MOIPR_MPN_Pos + 5U)) | ((uint32_t)(num%32) << CAN_
 1285              	 .loc 2 445 0
 1286 0018 7B69     	 ldr r3,[r7,#20]
 1287 001a 5B09     	 lsrs r3,r3,#5
 1288 001c 5A03     	 lsls r2,r3,#13
 1289 001e 7B69     	 ldr r3,[r7,#20]
 1290 0020 03F01F03 	 and r3,r3,#31
 1291 0024 1B02     	 lsls r3,r3,#8
 1292 0026 1343     	 orrs r3,r3,r2
 1293 0028 3B61     	 str r3,[r7,#16]
 446:../Libraries/XMCLib/src/xmc_can.c ****   can_mo->can_mo_ptr->MOIPR &= ~(CAN_MO_MOIPR_MPN_Msk);
 1294              	 .loc 2 446 0
 1295 002a 7B68     	 ldr r3,[r7,#4]
 1296 002c 1B68     	 ldr r3,[r3]
 1297 002e 7A68     	 ldr r2,[r7,#4]
 1298 0030 1268     	 ldr r2,[r2]
 1299 0032 9268     	 ldr r2,[r2,#8]
 1300 0034 22F47F42 	 bic r2,r2,#65280
 1301 0038 9A60     	 str r2,[r3,#8]
 447:../Libraries/XMCLib/src/xmc_can.c ****   can_mo->can_mo_ptr->MOIPR |= set;
 1302              	 .loc 2 447 0
 1303 003a 7B68     	 ldr r3,[r7,#4]
 1304 003c 1B68     	 ldr r3,[r3]
 1305 003e 7A68     	 ldr r2,[r7,#4]
 1306 0040 1268     	 ldr r2,[r2]
 1307 0042 9168     	 ldr r1,[r2,#8]
 1308 0044 3A69     	 ldr r2,[r7,#16]
 1309 0046 0A43     	 orrs r2,r2,r1
 1310 0048 9A60     	 str r2,[r3,#8]
 448:../Libraries/XMCLib/src/xmc_can.c ****   
 449:../Libraries/XMCLib/src/xmc_can.c ****   if (((can_mo->can_id_mode != (uint32_t) XMC_CAN_FRAME_TYPE_STANDARD_11BITS) &&
 1311              	 .loc 2 449 0
 1312 004a 7B68     	 ldr r3,[r7,#4]
 1313 004c DB79     	 ldrb r3,[r3,#7]
 1314 004e 03F02003 	 and r3,r3,#32
 1315 0052 DBB2     	 uxtb r3,r3
 1316 0054 002B     	 cmp r3,#0
 1317 0056 07D0     	 beq .L59
 450:../Libraries/XMCLib/src/xmc_can.c ****        (can_mo->can_id_mode != (uint32_t) XMC_CAN_FRAME_TYPE_EXTENDED_29BITS)) ||
 1318              	 .loc 2 450 0 discriminator 1
 1319 0058 7B68     	 ldr r3,[r7,#4]
 1320 005a DB79     	 ldrb r3,[r3,#7]
 1321 005c 03F02003 	 and r3,r3,#32
 1322 0060 DBB2     	 uxtb r3,r3
 449:../Libraries/XMCLib/src/xmc_can.c ****        (can_mo->can_id_mode != (uint32_t) XMC_CAN_FRAME_TYPE_EXTENDED_29BITS)) ||
 1323              	 .loc 2 449 0 discriminator 1
 1324 0062 002B     	 cmp r3,#0
 1325 0064 00D1     	 bne .L59
 449:../Libraries/XMCLib/src/xmc_can.c ****        (can_mo->can_id_mode != (uint32_t) XMC_CAN_FRAME_TYPE_EXTENDED_29BITS)) ||
 1326              	 .loc 2 449 0 is_stmt 0
 1327 0066 5CE0     	 b .L58
 1328              	.L59:
 451:../Libraries/XMCLib/src/xmc_can.c ****       ((can_mo->can_mo_type != XMC_CAN_MO_TYPE_RECMSGOBJ) &&
 1329              	 .loc 2 451 0 is_stmt 1
 1330 0068 7B68     	 ldr r3,[r7,#4]
 1331 006a 1B7E     	 ldrb r3,[r3,#24]
 450:../Libraries/XMCLib/src/xmc_can.c ****        (can_mo->can_id_mode != (uint32_t) XMC_CAN_FRAME_TYPE_EXTENDED_29BITS)) ||
 1332              	 .loc 2 450 0
 1333 006c 002B     	 cmp r3,#0
 1334 006e 04D0     	 beq .L61
 452:../Libraries/XMCLib/src/xmc_can.c ****        (can_mo->can_mo_type != XMC_CAN_MO_TYPE_TRANSMSGOBJ)))
 1335              	 .loc 2 452 0
 1336 0070 7B68     	 ldr r3,[r7,#4]
 1337 0072 1B7E     	 ldrb r3,[r3,#24]
 451:../Libraries/XMCLib/src/xmc_can.c ****       ((can_mo->can_mo_type != XMC_CAN_MO_TYPE_RECMSGOBJ) &&
 1338              	 .loc 2 451 0
 1339 0074 012B     	 cmp r3,#1
 1340 0076 00D0     	 beq .L61
 1341 0078 53E0     	 b .L58
 1342              	.L61:
 453:../Libraries/XMCLib/src/xmc_can.c ****   {
 454:../Libraries/XMCLib/src/xmc_can.c ****     ; /*Do nothing*/
 455:../Libraries/XMCLib/src/xmc_can.c ****   }
 456:../Libraries/XMCLib/src/xmc_can.c ****   else
 457:../Libraries/XMCLib/src/xmc_can.c ****   {
 458:../Libraries/XMCLib/src/xmc_can.c **** 
 459:../Libraries/XMCLib/src/xmc_can.c ****     /* Disable Message object */
 460:../Libraries/XMCLib/src/xmc_can.c ****     can_mo->can_mo_ptr->MOCTR = CAN_MO_MOCTR_RESMSGVAL_Msk;
 1343              	 .loc 2 460 0
 1344 007a 7B68     	 ldr r3,[r7,#4]
 1345 007c 1B68     	 ldr r3,[r3]
 1346 007e 2022     	 movs r2,#32
 1347 0080 DA61     	 str r2,[r3,#28]
 461:../Libraries/XMCLib/src/xmc_can.c ****     if (can_mo->can_id_mode == (uint32_t)XMC_CAN_FRAME_TYPE_STANDARD_11BITS)
 1348              	 .loc 2 461 0
 1349 0082 7B68     	 ldr r3,[r7,#4]
 1350 0084 DB79     	 ldrb r3,[r3,#7]
 1351 0086 03F02003 	 and r3,r3,#32
 1352 008a DBB2     	 uxtb r3,r3
 1353 008c 002B     	 cmp r3,#0
 1354 008e 28D1     	 bne .L62
 462:../Libraries/XMCLib/src/xmc_can.c ****     {
 463:../Libraries/XMCLib/src/xmc_can.c ****       reg = can_mo->mo_ar;
 1355              	 .loc 2 463 0
 1356 0090 7B68     	 ldr r3,[r7,#4]
 1357 0092 5B68     	 ldr r3,[r3,#4]
 1358 0094 FB60     	 str r3,[r7,#12]
 464:../Libraries/XMCLib/src/xmc_can.c ****       reg &= (uint32_t) ~(CAN_MO_MOAR_ID_Msk);
 1359              	 .loc 2 464 0
 1360 0096 FB68     	 ldr r3,[r7,#12]
 1361 0098 03F06043 	 and r3,r3,#-536870912
 1362 009c FB60     	 str r3,[r7,#12]
 465:../Libraries/XMCLib/src/xmc_can.c ****       reg |= (can_mo->can_identifier << XMC_CAN_MO_MOAR_STDID_Pos);
 1363              	 .loc 2 465 0
 1364 009e 7B68     	 ldr r3,[r7,#4]
 1365 00a0 5B68     	 ldr r3,[r3,#4]
 1366 00a2 C3F31C03 	 ubfx r3,r3,#0,#29
 1367 00a6 9B04     	 lsls r3,r3,#18
 1368 00a8 1A46     	 mov r2,r3
 1369 00aa FB68     	 ldr r3,[r7,#12]
 1370 00ac 1343     	 orrs r3,r3,r2
 1371 00ae FB60     	 str r3,[r7,#12]
 466:../Libraries/XMCLib/src/xmc_can.c ****       can_mo->can_mo_ptr->MOAR = reg;
 1372              	 .loc 2 466 0
 1373 00b0 7B68     	 ldr r3,[r7,#4]
 1374 00b2 1B68     	 ldr r3,[r3]
 1375 00b4 FA68     	 ldr r2,[r7,#12]
 1376 00b6 9A61     	 str r2,[r3,#24]
 467:../Libraries/XMCLib/src/xmc_can.c **** 
 468:../Libraries/XMCLib/src/xmc_can.c ****       reg = can_mo->mo_amr;
 1377              	 .loc 2 468 0
 1378 00b8 7B68     	 ldr r3,[r7,#4]
 1379 00ba 9B68     	 ldr r3,[r3,#8]
 1380 00bc FB60     	 str r3,[r7,#12]
 469:../Libraries/XMCLib/src/xmc_can.c ****       reg &= (uint32_t) ~(CAN_MO_MOAMR_AM_Msk);
 1381              	 .loc 2 469 0
 1382 00be FB68     	 ldr r3,[r7,#12]
 1383 00c0 03F06043 	 and r3,r3,#-536870912
 1384 00c4 FB60     	 str r3,[r7,#12]
 470:../Libraries/XMCLib/src/xmc_can.c ****       reg |= (can_mo->can_id_mask << XMC_CAN_MO_MOAR_STDID_Pos);
 1385              	 .loc 2 470 0
 1386 00c6 7B68     	 ldr r3,[r7,#4]
 1387 00c8 9B68     	 ldr r3,[r3,#8]
 1388 00ca C3F31C03 	 ubfx r3,r3,#0,#29
 1389 00ce 9B04     	 lsls r3,r3,#18
 1390 00d0 1A46     	 mov r2,r3
 1391 00d2 FB68     	 ldr r3,[r7,#12]
 1392 00d4 1343     	 orrs r3,r3,r2
 1393 00d6 FB60     	 str r3,[r7,#12]
 471:../Libraries/XMCLib/src/xmc_can.c ****       can_mo->can_mo_ptr->MOAMR = reg;
 1394              	 .loc 2 471 0
 1395 00d8 7B68     	 ldr r3,[r7,#4]
 1396 00da 1B68     	 ldr r3,[r3]
 1397 00dc FA68     	 ldr r2,[r7,#12]
 1398 00de DA60     	 str r2,[r3,#12]
 1399 00e0 09E0     	 b .L63
 1400              	.L62:
 472:../Libraries/XMCLib/src/xmc_can.c ****     }
 473:../Libraries/XMCLib/src/xmc_can.c ****     else
 474:../Libraries/XMCLib/src/xmc_can.c ****     {
 475:../Libraries/XMCLib/src/xmc_can.c ****       can_mo->can_mo_ptr->MOAR = can_mo->mo_ar;
 1401              	 .loc 2 475 0
 1402 00e2 7B68     	 ldr r3,[r7,#4]
 1403 00e4 1B68     	 ldr r3,[r3]
 1404 00e6 7A68     	 ldr r2,[r7,#4]
 1405 00e8 5268     	 ldr r2,[r2,#4]
 1406 00ea 9A61     	 str r2,[r3,#24]
 476:../Libraries/XMCLib/src/xmc_can.c ****       can_mo->can_mo_ptr->MOAMR = can_mo->mo_amr;
 1407              	 .loc 2 476 0
 1408 00ec 7B68     	 ldr r3,[r7,#4]
 1409 00ee 1B68     	 ldr r3,[r3]
 1410 00f0 7A68     	 ldr r2,[r7,#4]
 1411 00f2 9268     	 ldr r2,[r2,#8]
 1412 00f4 DA60     	 str r2,[r3,#12]
 1413              	.L63:
 477:../Libraries/XMCLib/src/xmc_can.c ****     }
 478:../Libraries/XMCLib/src/xmc_can.c ****     /* Check whether message object is transmit message object */
 479:../Libraries/XMCLib/src/xmc_can.c ****     if (can_mo->can_mo_type == XMC_CAN_MO_TYPE_TRANSMSGOBJ)
 1414              	 .loc 2 479 0
 1415 00f6 7B68     	 ldr r3,[r7,#4]
 1416 00f8 1B7E     	 ldrb r3,[r3,#24]
 1417 00fa 012B     	 cmp r3,#1
 1418 00fc 08D1     	 bne .L64
 480:../Libraries/XMCLib/src/xmc_can.c ****     {
 481:../Libraries/XMCLib/src/xmc_can.c ****       /* Set MO as Transmit message object  */
