   1              	 .syntax unified
   2              	 .cpu cortex-m4
   3              	 .eabi_attribute 27,3
   4              	 .fpu fpv4-sp-d16
   5              	 .eabi_attribute 20,1
   6              	 .eabi_attribute 21,1
   7              	 .eabi_attribute 23,3
   8              	 .eabi_attribute 24,1
   9              	 .eabi_attribute 25,1
  10              	 .eabi_attribute 26,1
  11              	 .eabi_attribute 30,4
  12              	 .eabi_attribute 34,1
  13              	 .eabi_attribute 18,4
  14              	 .thumb
  15              	 .file "arm_dct4_q31.c"
  16              	 .section .text.arm_dct4_q31,"ax",%progbits
  17              	 .align 1
  18              	 .global arm_dct4_q31
  19              	 .thumb
  20              	 .thumb_func
  22              	arm_dct4_q31:
  23              	 
  24              	 
  25 0000 2DE9F843 	 push {r3,r4,r5,r6,r7,r8,r9,lr}
  26 0004 0546     	 mov r5,r0
  27 0006 1646     	 mov r6,r2
  28 0008 0C46     	 mov r4,r1
  29 000a 8768     	 ldr r7,[r0,#8]
  30 000c E968     	 ldr r1,[r5,#12]
  31 000e 2B88     	 ldrh r3,[r5]
  32 0010 1046     	 mov r0,r2
  33 0012 FFF7FEFF 	 bl arm_mult_q31
  34 0016 3046     	 mov r0,r6
  35 0018 0121     	 movs r1,#1
  36 001a 3246     	 mov r2,r6
  37 001c 2B88     	 ldrh r3,[r5]
  38 001e FFF7FEFF 	 bl arm_shift_q31
  39 0022 2988     	 ldrh r1,[r5]
  40 0024 6888     	 ldrh r0,[r5,#2]
  41 0026 01F18043 	 add r3,r1,#1073741824
  42 002a 8008     	 lsrs r0,r0,#2
  43 002c 013B     	 subs r3,r3,#1
  44 002e 0138     	 subs r0,r0,#1
  45 0030 04EB8303 	 add r3,r4,r3,lsl#2
  46 0034 80B2     	 uxth r0,r0
  47 0036 04F1100E 	 add lr,r4,#16
  48 003a A3F1100C 	 sub ip,r3,#16
  49 003e A3EB0013 	 sub r3,r3,r0,lsl#4
  50 0042 06F12002 	 add r2,r6,#32
  51 0046 203B     	 subs r3,r3,#32
  52 0048 F046     	 mov r8,lr
  53              	.L2:
  54 004a 52F8200C 	 ldr r0,[r2,#-32]
  55 004e 48F8100C 	 str r0,[r8,#-16]
  56 0052 52F81C0C 	 ldr r0,[r2,#-28]
  57 0056 CCF81000 	 str r0,[ip,#16]
  58 005a 52F8180C 	 ldr r0,[r2,#-24]
  59 005e 48F80C0C 	 str r0,[r8,#-12]
  60 0062 52F8140C 	 ldr r0,[r2,#-20]
  61 0066 CCF80C00 	 str r0,[ip,#12]
  62 006a 52F8100C 	 ldr r0,[r2,#-16]
  63 006e 48F8080C 	 str r0,[r8,#-8]
  64 0072 52F80C0C 	 ldr r0,[r2,#-12]
  65 0076 CCF80800 	 str r0,[ip,#8]
  66 007a 52F8080C 	 ldr r0,[r2,#-8]
  67 007e 48F8040C 	 str r0,[r8,#-4]
  68 0082 52F8040C 	 ldr r0,[r2,#-4]
  69 0086 CCF80400 	 str r0,[ip,#4]
  70 008a ACF1100C 	 sub ip,ip,#16
  71 008e 9C45     	 cmp ip,r3
  72 0090 08F11008 	 add r8,r8,#16
  73 0094 02F12002 	 add r2,r2,#32
  74 0098 D7D1     	 bne .L2
  75 009a 06F11008 	 add r8,r6,#16
  76 009e 8908     	 lsrs r1,r1,#2
  77 00a0 4346     	 mov r3,r8
  78              	.L3:
  79 00a2 5EF8102C 	 ldr r2,[lr,#-16]
  80 00a6 43F8102C 	 str r2,[r3,#-16]
  81 00aa 5EF80C2C 	 ldr r2,[lr,#-12]
  82 00ae 43F80C2C 	 str r2,[r3,#-12]
  83 00b2 5EF8082C 	 ldr r2,[lr,#-8]
  84 00b6 43F8082C 	 str r2,[r3,#-8]
  85 00ba 0139     	 subs r1,r1,#1
  86 00bc 5EF8042C 	 ldr r2,[lr,#-4]
  87 00c0 43F8042C 	 str r2,[r3,#-4]
  88 00c4 89B2     	 uxth r1,r1
  89 00c6 1033     	 adds r3,r3,#16
  90 00c8 0EF1100E 	 add lr,lr,#16
  91 00cc 0029     	 cmp r1,#0
  92 00ce E8D1     	 bne .L3
  93 00d0 2246     	 mov r2,r4
  94 00d2 2869     	 ldr r0,[r5,#16]
  95 00d4 3146     	 mov r1,r6
  96 00d6 FFF7FEFF 	 bl arm_rfft_q31
  97 00da 2046     	 mov r0,r4
  98 00dc 2246     	 mov r2,r4
  99 00de 3946     	 mov r1,r7
 100 00e0 2B88     	 ldrh r3,[r5]
 101 00e2 FFF7FEFF 	 bl arm_cmplx_mult_cmplx_q31
 102 00e6 2B88     	 ldrh r3,[r5]
 103 00e8 2046     	 mov r0,r4
 104 00ea 2246     	 mov r2,r4
 105 00ec 0221     	 movs r1,#2
 106 00ee 5B00     	 lsls r3,r3,#1
 107 00f0 FFF7FEFF 	 bl arm_shift_q31
 108 00f4 2888     	 ldrh r0,[r5]
 109 00f6 A646     	 mov lr,r4
 110 00f8 00F1FF3C 	 add ip,r0,#-1
 111 00fc 5EF8083B 	 ldr r3,[lr],#8
 112 0100 4FEA9C02 	 lsr r2,ip,#2
 113 0104 3146     	 mov r1,r6
 114 0106 013A     	 subs r2,r2,#1
 115 0108 5B10     	 asrs r3,r3,#1
 116 010a 92B2     	 uxth r2,r2
 117 010c 06EB0219 	 add r9,r6,r2,lsl#4
 118 0110 41F8143B 	 str r3,[r1],#20
 119 0114 2834     	 adds r4,r4,#40
 120 0116 09F12409 	 add r9,r9,#36
 121              	.L4:
 122 011a 54F8207C 	 ldr r7,[r4,#-32]
 123 011e FB1A     	 subs r3,r7,r3
 124 0120 41F8103C 	 str r3,[r1,#-16]
 125 0124 54F8187C 	 ldr r7,[r4,#-24]
 126 0128 FF1A     	 subs r7,r7,r3
 127 012a 41F80C7C 	 str r7,[r1,#-12]
 128 012e 54F8103C 	 ldr r3,[r4,#-16]
 129 0132 DB1B     	 subs r3,r3,r7
 130 0134 41F8083C 	 str r3,[r1,#-8]
 131 0138 54F8087C 	 ldr r7,[r4,#-8]
 132 013c FB1A     	 subs r3,r7,r3
 133 013e 41F8043C 	 str r3,[r1,#-4]
 134 0142 1031     	 adds r1,r1,#16
 135 0144 4945     	 cmp r1,r9
 136 0146 04F12004 	 add r4,r4,#32
 137 014a E6D1     	 bne .L4
 138 014c 0132     	 adds r2,r2,#1
 139 014e 06EB0216 	 add r6,r6,r2,lsl#4
 140 0152 0436     	 adds r6,r6,#4
 141 0154 0EEB421E 	 add lr,lr,r2,lsl#5
 142 0158 0CF0030C 	 and ip,ip,#3
 143 015c 0021     	 movs r1,#0
 144              	.L5:
 145 015e 6145     	 cmp r1,ip
 146 0160 06D0     	 beq .L13
 147 0162 5EF83120 	 ldr r2,[lr,r1,lsl#3]
 148 0166 D31A     	 subs r3,r2,r3
 149 0168 46F82130 	 str r3,[r6,r1,lsl#2]
 150 016c 0131     	 adds r1,r1,#1
 151 016e F6E7     	 b .L5
 152              	.L13:
 153 0170 8008     	 lsrs r0,r0,#2
 154              	.L7:
 155 0172 6A68     	 ldr r2,[r5,#4]
 156 0174 58F8103C 	 ldr r3,[r8,#-16]
 157 0178 83FB0267 	 smull r6,r7,r3,r2
 158 017c F20F     	 lsrs r2,r6,#31
 159 017e 42EA4702 	 orr r2,r2,r7,lsl#1
 160 0182 48F8102C 	 str r2,[r8,#-16]
 161 0186 6A68     	 ldr r2,[r5,#4]
 162 0188 58F80C3C 	 ldr r3,[r8,#-12]
 163 018c 83FB0267 	 smull r6,r7,r3,r2
 164 0190 F20F     	 lsrs r2,r6,#31
 165 0192 42EA4702 	 orr r2,r2,r7,lsl#1
 166 0196 48F80C2C 	 str r2,[r8,#-12]
 167 019a 58F8083C 	 ldr r3,[r8,#-8]
 168 019e 6A68     	 ldr r2,[r5,#4]
 169 01a0 83FB0267 	 smull r6,r7,r3,r2
 170 01a4 F20F     	 lsrs r2,r6,#31
 171 01a6 42EA4702 	 orr r2,r2,r7,lsl#1
 172 01aa 48F8082C 	 str r2,[r8,#-8]
 173 01ae 58F8043C 	 ldr r3,[r8,#-4]
 174 01b2 6A68     	 ldr r2,[r5,#4]
 175 01b4 83FB0267 	 smull r6,r7,r3,r2
 176 01b8 F20F     	 lsrs r2,r6,#31
 177 01ba 0138     	 subs r0,r0,#1
 178 01bc 42EA4702 	 orr r2,r2,r7,lsl#1
 179 01c0 80B2     	 uxth r0,r0
 180 01c2 48F8042C 	 str r2,[r8,#-4]
 181 01c6 08F11008 	 add r8,r8,#16
 182 01ca 0028     	 cmp r0,#0
 183 01cc D1D1     	 bne .L7
 184 01ce BDE8F883 	 pop {r3,r4,r5,r6,r7,r8,r9,pc}
 186              	 .ident "GCC: (GNU Tools for ARM Embedded Processors) 4.9.3 20141119 (release) [ARM/embedded-4_9-branch revision 218278]"
DEFINED SYMBOLS
                            *ABS*:00000000 arm_dct4_q31.c
    {standard input}:17     .text.arm_dct4_q31:00000000 $t
    {standard input}:22     .text.arm_dct4_q31:00000000 arm_dct4_q31

UNDEFINED SYMBOLS
arm_mult_q31
arm_shift_q31
arm_rfft_q31
arm_cmplx_mult_cmplx_q31
