   1              	 .syntax unified
   2              	 .cpu cortex-m4
   3              	 .eabi_attribute 27,3
   4              	 .fpu fpv4-sp-d16
   5              	 .eabi_attribute 20,1
   6              	 .eabi_attribute 21,1
   7              	 .eabi_attribute 23,3
   8              	 .eabi_attribute 24,1
   9              	 .eabi_attribute 25,1
  10              	 .eabi_attribute 26,1
  11              	 .eabi_attribute 30,6
  12              	 .eabi_attribute 34,1
  13              	 .eabi_attribute 18,4
  14              	 .thumb
  15              	 .file "arm_sin_cos_q31.c"
  16              	 .text
  17              	.Ltext0:
  18              	 .cfi_sections .debug_frame
  19              	 .section .text.arm_sin_cos_q31,"ax",%progbits
  20              	 .align 2
  21              	 .global arm_sin_cos_q31
  22              	 .thumb
  23              	 .thumb_func
  25              	arm_sin_cos_q31:
  26              	.LFB135:
  27              	 .file 1 "../Dave/Generated/CMSIS_DSP/ControllerFunctions/arm_sin_cos_q31.c"
   1:../Dave/Generated/CMSIS_DSP/ControllerFunctions/arm_sin_cos_q31.c **** /* ----------------------------------------------------------------------
   2:../Dave/Generated/CMSIS_DSP/ControllerFunctions/arm_sin_cos_q31.c ****  * Project:      CMSIS DSP Library
   3:../Dave/Generated/CMSIS_DSP/ControllerFunctions/arm_sin_cos_q31.c ****  * Title:        arm_sin_cos_q31.c
   4:../Dave/Generated/CMSIS_DSP/ControllerFunctions/arm_sin_cos_q31.c ****  * Description:  Cosine & Sine calculation for Q31 values
   5:../Dave/Generated/CMSIS_DSP/ControllerFunctions/arm_sin_cos_q31.c ****  *
   6:../Dave/Generated/CMSIS_DSP/ControllerFunctions/arm_sin_cos_q31.c ****  * $Date:        27. January 2017
   7:../Dave/Generated/CMSIS_DSP/ControllerFunctions/arm_sin_cos_q31.c ****  * $Revision:    V.1.5.1
   8:../Dave/Generated/CMSIS_DSP/ControllerFunctions/arm_sin_cos_q31.c ****  *
   9:../Dave/Generated/CMSIS_DSP/ControllerFunctions/arm_sin_cos_q31.c ****  * Target Processor: Cortex-M cores
  10:../Dave/Generated/CMSIS_DSP/ControllerFunctions/arm_sin_cos_q31.c ****  * -------------------------------------------------------------------- */
  11:../Dave/Generated/CMSIS_DSP/ControllerFunctions/arm_sin_cos_q31.c **** /*
  12:../Dave/Generated/CMSIS_DSP/ControllerFunctions/arm_sin_cos_q31.c ****  * Copyright (C) 2010-2017 ARM Limited or its affiliates. All rights reserved.
  13:../Dave/Generated/CMSIS_DSP/ControllerFunctions/arm_sin_cos_q31.c ****  *
  14:../Dave/Generated/CMSIS_DSP/ControllerFunctions/arm_sin_cos_q31.c ****  * SPDX-License-Identifier: Apache-2.0
  15:../Dave/Generated/CMSIS_DSP/ControllerFunctions/arm_sin_cos_q31.c ****  *
  16:../Dave/Generated/CMSIS_DSP/ControllerFunctions/arm_sin_cos_q31.c ****  * Licensed under the Apache License, Version 2.0 (the License); you may
  17:../Dave/Generated/CMSIS_DSP/ControllerFunctions/arm_sin_cos_q31.c ****  * not use this file except in compliance with the License.
  18:../Dave/Generated/CMSIS_DSP/ControllerFunctions/arm_sin_cos_q31.c ****  * You may obtain a copy of the License at
  19:../Dave/Generated/CMSIS_DSP/ControllerFunctions/arm_sin_cos_q31.c ****  *
  20:../Dave/Generated/CMSIS_DSP/ControllerFunctions/arm_sin_cos_q31.c ****  * www.apache.org/licenses/LICENSE-2.0
  21:../Dave/Generated/CMSIS_DSP/ControllerFunctions/arm_sin_cos_q31.c ****  *
  22:../Dave/Generated/CMSIS_DSP/ControllerFunctions/arm_sin_cos_q31.c ****  * Unless required by applicable law or agreed to in writing, software
  23:../Dave/Generated/CMSIS_DSP/ControllerFunctions/arm_sin_cos_q31.c ****  * distributed under the License is distributed on an AS IS BASIS, WITHOUT
  24:../Dave/Generated/CMSIS_DSP/ControllerFunctions/arm_sin_cos_q31.c ****  * WARRANTIES OR CONDITIONS OF ANY KIND, either express or implied.
  25:../Dave/Generated/CMSIS_DSP/ControllerFunctions/arm_sin_cos_q31.c ****  * See the License for the specific language governing permissions and
  26:../Dave/Generated/CMSIS_DSP/ControllerFunctions/arm_sin_cos_q31.c ****  * limitations under the License.
  27:../Dave/Generated/CMSIS_DSP/ControllerFunctions/arm_sin_cos_q31.c ****  */
  28:../Dave/Generated/CMSIS_DSP/ControllerFunctions/arm_sin_cos_q31.c **** 
  29:../Dave/Generated/CMSIS_DSP/ControllerFunctions/arm_sin_cos_q31.c **** #include "CMSIS_DSP/cmsis_dsp.h"
  30:../Dave/Generated/CMSIS_DSP/ControllerFunctions/arm_sin_cos_q31.c **** #include "CMSIS_DSP/arm_common_tables.h"
  31:../Dave/Generated/CMSIS_DSP/ControllerFunctions/arm_sin_cos_q31.c **** 
  32:../Dave/Generated/CMSIS_DSP/ControllerFunctions/arm_sin_cos_q31.c **** /**
  33:../Dave/Generated/CMSIS_DSP/ControllerFunctions/arm_sin_cos_q31.c ****  * @ingroup groupController
  34:../Dave/Generated/CMSIS_DSP/ControllerFunctions/arm_sin_cos_q31.c ****  */
  35:../Dave/Generated/CMSIS_DSP/ControllerFunctions/arm_sin_cos_q31.c **** 
  36:../Dave/Generated/CMSIS_DSP/ControllerFunctions/arm_sin_cos_q31.c ****  /**
  37:../Dave/Generated/CMSIS_DSP/ControllerFunctions/arm_sin_cos_q31.c ****  * @addtogroup SinCos
  38:../Dave/Generated/CMSIS_DSP/ControllerFunctions/arm_sin_cos_q31.c ****  * @{
  39:../Dave/Generated/CMSIS_DSP/ControllerFunctions/arm_sin_cos_q31.c ****  */
  40:../Dave/Generated/CMSIS_DSP/ControllerFunctions/arm_sin_cos_q31.c **** 
  41:../Dave/Generated/CMSIS_DSP/ControllerFunctions/arm_sin_cos_q31.c **** /**
  42:../Dave/Generated/CMSIS_DSP/ControllerFunctions/arm_sin_cos_q31.c ****  * @brief  Q31 sin_cos function.
  43:../Dave/Generated/CMSIS_DSP/ControllerFunctions/arm_sin_cos_q31.c ****  * @param[in]  theta    scaled input value in degrees
  44:../Dave/Generated/CMSIS_DSP/ControllerFunctions/arm_sin_cos_q31.c ****  * @param[out] *pSinVal points to the processed sine output.
  45:../Dave/Generated/CMSIS_DSP/ControllerFunctions/arm_sin_cos_q31.c ****  * @param[out] *pCosVal points to the processed cosine output.
  46:../Dave/Generated/CMSIS_DSP/ControllerFunctions/arm_sin_cos_q31.c ****  * @return none.
  47:../Dave/Generated/CMSIS_DSP/ControllerFunctions/arm_sin_cos_q31.c ****  *
  48:../Dave/Generated/CMSIS_DSP/ControllerFunctions/arm_sin_cos_q31.c ****  * The Q31 input value is in the range [-1 0.999999] and is mapped to a degree value in the range [
  49:../Dave/Generated/CMSIS_DSP/ControllerFunctions/arm_sin_cos_q31.c ****  *
  50:../Dave/Generated/CMSIS_DSP/ControllerFunctions/arm_sin_cos_q31.c ****  */
  51:../Dave/Generated/CMSIS_DSP/ControllerFunctions/arm_sin_cos_q31.c **** 
  52:../Dave/Generated/CMSIS_DSP/ControllerFunctions/arm_sin_cos_q31.c **** void arm_sin_cos_q31(
  53:../Dave/Generated/CMSIS_DSP/ControllerFunctions/arm_sin_cos_q31.c ****   q31_t theta,
  54:../Dave/Generated/CMSIS_DSP/ControllerFunctions/arm_sin_cos_q31.c ****   q31_t * pSinVal,
  55:../Dave/Generated/CMSIS_DSP/ControllerFunctions/arm_sin_cos_q31.c ****   q31_t * pCosVal)
  56:../Dave/Generated/CMSIS_DSP/ControllerFunctions/arm_sin_cos_q31.c **** {
  28              	 .loc 1 56 0
  29              	 .cfi_startproc
  30              	 
  31              	 
  32              	 
  33 0000 2DE9B00F 	 push {r4,r5,r7,r8,r9,r10,fp}
  34              	.LCFI0:
  35              	 .cfi_def_cfa_offset 28
  36              	 .cfi_offset 4,-28
  37              	 .cfi_offset 5,-24
  38              	 .cfi_offset 7,-20
  39              	 .cfi_offset 8,-16
  40              	 .cfi_offset 9,-12
  41              	 .cfi_offset 10,-8
  42              	 .cfi_offset 11,-4
  43 0004 AFB0     	 sub sp,sp,#188
  44              	.LCFI1:
  45              	 .cfi_def_cfa_offset 216
  46 0006 00AF     	 add r7,sp,#0
  47              	.LCFI2:
  48              	 .cfi_def_cfa_register 7
  49 0008 F867     	 str r0,[r7,#124]
  50 000a B967     	 str r1,[r7,#120]
  51 000c 7A67     	 str r2,[r7,#116]
  57:../Dave/Generated/CMSIS_DSP/ControllerFunctions/arm_sin_cos_q31.c ****   q31_t fract;                                 /* Temporary variables for input, output */
  58:../Dave/Generated/CMSIS_DSP/ControllerFunctions/arm_sin_cos_q31.c ****   uint16_t indexS, indexC;                     /* Index variable */
  59:../Dave/Generated/CMSIS_DSP/ControllerFunctions/arm_sin_cos_q31.c ****   q31_t f1, f2, d1, d2;                        /* Two nearest output values */
  60:../Dave/Generated/CMSIS_DSP/ControllerFunctions/arm_sin_cos_q31.c ****   q31_t Dn, Df;
  61:../Dave/Generated/CMSIS_DSP/ControllerFunctions/arm_sin_cos_q31.c ****   q63_t temp;
  62:../Dave/Generated/CMSIS_DSP/ControllerFunctions/arm_sin_cos_q31.c **** 
  63:../Dave/Generated/CMSIS_DSP/ControllerFunctions/arm_sin_cos_q31.c ****   /* Calculate the nearest index */
  64:../Dave/Generated/CMSIS_DSP/ControllerFunctions/arm_sin_cos_q31.c ****   indexS = (uint32_t)theta >> CONTROLLER_Q31_SHIFT;
  52              	 .loc 1 64 0
  53 000e FB6F     	 ldr r3,[r7,#124]
  54 0010 DB0D     	 lsrs r3,r3,#23
  55 0012 A7F8B630 	 strh r3,[r7,#182]
  65:../Dave/Generated/CMSIS_DSP/ControllerFunctions/arm_sin_cos_q31.c ****   indexC = (indexS + 128) & 0x1ff;
  56              	 .loc 1 65 0
  57 0016 B7F8B630 	 ldrh r3,[r7,#182]
  58 001a 8033     	 adds r3,r3,#128
  59 001c 9BB2     	 uxth r3,r3
  60 001e C3F30803 	 ubfx r3,r3,#0,#9
  61 0022 A7F8B430 	 strh r3,[r7,#180]
  66:../Dave/Generated/CMSIS_DSP/ControllerFunctions/arm_sin_cos_q31.c **** 
  67:../Dave/Generated/CMSIS_DSP/ControllerFunctions/arm_sin_cos_q31.c ****   /* Calculation of fractional value */
  68:../Dave/Generated/CMSIS_DSP/ControllerFunctions/arm_sin_cos_q31.c ****   fract = (theta - (indexS << CONTROLLER_Q31_SHIFT)) << 8;
  62              	 .loc 1 68 0
  63 0026 B7F8B630 	 ldrh r3,[r7,#182]
  64 002a DA05     	 lsls r2,r3,#23
  65 002c FB6F     	 ldr r3,[r7,#124]
  66 002e 9B1A     	 subs r3,r3,r2
  67 0030 1B02     	 lsls r3,r3,#8
  68 0032 C7F8B030 	 str r3,[r7,#176]
  69:../Dave/Generated/CMSIS_DSP/ControllerFunctions/arm_sin_cos_q31.c **** 
  70:../Dave/Generated/CMSIS_DSP/ControllerFunctions/arm_sin_cos_q31.c ****   /* Read two nearest values of input value from the cos & sin tables */
  71:../Dave/Generated/CMSIS_DSP/ControllerFunctions/arm_sin_cos_q31.c ****   f1 = sinTable_q31[indexC+0];
  69              	 .loc 1 71 0
  70 0036 B7F8B420 	 ldrh r2,[r7,#180]
  71 003a 9D4B     	 ldr r3,.L8
  72 003c 53F82230 	 ldr r3,[r3,r2,lsl#2]
  73 0040 C7F8AC30 	 str r3,[r7,#172]
  72:../Dave/Generated/CMSIS_DSP/ControllerFunctions/arm_sin_cos_q31.c ****   f2 = sinTable_q31[indexC+1];
  74              	 .loc 1 72 0
  75 0044 B7F8B430 	 ldrh r3,[r7,#180]
  76 0048 5A1C     	 adds r2,r3,#1
  77 004a 994B     	 ldr r3,.L8
  78 004c 53F82230 	 ldr r3,[r3,r2,lsl#2]
  79 0050 C7F8A830 	 str r3,[r7,#168]
  73:../Dave/Generated/CMSIS_DSP/ControllerFunctions/arm_sin_cos_q31.c ****   d1 = -sinTable_q31[indexS+0];
  80              	 .loc 1 73 0
  81 0054 B7F8B620 	 ldrh r2,[r7,#182]
  82 0058 954B     	 ldr r3,.L8
  83 005a 53F82230 	 ldr r3,[r3,r2,lsl#2]
  84 005e 5B42     	 negs r3,r3
  85 0060 C7F8A430 	 str r3,[r7,#164]
  74:../Dave/Generated/CMSIS_DSP/ControllerFunctions/arm_sin_cos_q31.c ****   d2 = -sinTable_q31[indexS+1];
  86              	 .loc 1 74 0
  87 0064 B7F8B630 	 ldrh r3,[r7,#182]
  88 0068 5A1C     	 adds r2,r3,#1
  89 006a 914B     	 ldr r3,.L8
  90 006c 53F82230 	 ldr r3,[r3,r2,lsl#2]
  91 0070 5B42     	 negs r3,r3
  92 0072 C7F8A030 	 str r3,[r7,#160]
  75:../Dave/Generated/CMSIS_DSP/ControllerFunctions/arm_sin_cos_q31.c **** 
  76:../Dave/Generated/CMSIS_DSP/ControllerFunctions/arm_sin_cos_q31.c ****   Dn = 0x1921FB5; // delta between the two points (fixed), in this case 2*pi/FAST_MATH_TABLE_SIZE
  93              	 .loc 1 76 0
  94 0076 8F4B     	 ldr r3,.L8+4
  95 0078 C7F89C30 	 str r3,[r7,#156]
  77:../Dave/Generated/CMSIS_DSP/ControllerFunctions/arm_sin_cos_q31.c ****   Df = f2 - f1; // delta between the values of the functions
  96              	 .loc 1 77 0
  97 007c D7F8A820 	 ldr r2,[r7,#168]
  98 0080 D7F8AC30 	 ldr r3,[r7,#172]
  99 0084 D31A     	 subs r3,r2,r3
 100 0086 C7F89830 	 str r3,[r7,#152]
  78:../Dave/Generated/CMSIS_DSP/ControllerFunctions/arm_sin_cos_q31.c ****   temp = Dn*((q63_t)d1 + d2);
 101              	 .loc 1 78 0
 102 008a D7F89C30 	 ldr r3,[r7,#156]
 103 008e 1C46     	 mov r4,r3
 104 0090 4FEAE475 	 asr r5,r4,#31
 105 0094 D7F8A430 	 ldr r3,[r7,#164]
 106 0098 1846     	 mov r0,r3
 107 009a 4FEAE071 	 asr r1,r0,#31
 108 009e D7F8A030 	 ldr r3,[r7,#160]
 109 00a2 1A46     	 mov r2,r3
 110 00a4 4FEAE273 	 asr r3,r2,#31
 111 00a8 1218     	 adds r2,r2,r0
 112 00aa 43EB0103 	 adc r3,r3,r1
 113 00ae 02FB05F0 	 mul r0,r2,r5
 114 00b2 04FB03F1 	 mul r1,r4,r3
 115 00b6 0144     	 add r1,r1,r0
 116 00b8 A4FB0223 	 umull r2,r3,r4,r2
 117 00bc 1944     	 add r1,r1,r3
 118 00be 0B46     	 mov r3,r1
 119 00c0 C7E92423 	 strd r2,[r7,#144]
 120 00c4 C7E92423 	 strd r2,[r7,#144]
  79:../Dave/Generated/CMSIS_DSP/ControllerFunctions/arm_sin_cos_q31.c ****   temp = temp - ((q63_t)Df << 32);
 121              	 .loc 1 79 0
 122 00c8 D7F89830 	 ldr r3,[r7,#152]
 123 00cc 1A46     	 mov r2,r3
 124 00ce 4FEAE273 	 asr r3,r2,#31
 125 00d2 1300     	 movs r3,r2
 126 00d4 FB62     	 str r3,[r7,#44]
 127 00d6 0023     	 movs r3,#0
 128 00d8 BB62     	 str r3,[r7,#40]
 129 00da D7E92423 	 ldrd r2,[r7,#144]
 130 00de D7E90A01 	 ldrd r0,[r7,#40]
 131 00e2 101A     	 subs r0,r2,r0
 132 00e4 63EB0101 	 sbc r1,r3,r1
 133 00e8 0246     	 mov r2,r0
 134 00ea 0B46     	 mov r3,r1
 135 00ec C7E92423 	 strd r2,[r7,#144]
  80:../Dave/Generated/CMSIS_DSP/ControllerFunctions/arm_sin_cos_q31.c ****   temp = (q63_t)fract*(temp >> 31);
 136              	 .loc 1 80 0
 137 00f0 D7F8B030 	 ldr r3,[r7,#176]
 138 00f4 1846     	 mov r0,r3
 139 00f6 4FEAE071 	 asr r1,r0,#31
 140 00fa D7E92423 	 ldrd r2,[r7,#144]
 141 00fe 4FEAD278 	 lsr r8,r2,#31
 142 0102 48EA4308 	 orr r8,r8,r3,lsl#1
 143 0106 4FEAE379 	 asr r9,r3,#31
 144 010a 08FB01F2 	 mul r2,r8,r1
 145 010e 00FB09F3 	 mul r3,r0,r9
 146 0112 D418     	 adds r4,r2,r3
 147 0114 A0FB0823 	 umull r2,r3,r0,r8
 148 0118 E118     	 adds r1,r4,r3
 149 011a 0B46     	 mov r3,r1
 150 011c C7E92423 	 strd r2,[r7,#144]
 151 0120 C7E92423 	 strd r2,[r7,#144]
  81:../Dave/Generated/CMSIS_DSP/ControllerFunctions/arm_sin_cos_q31.c ****   temp = temp + ((3*(q63_t)Df << 31) - (d2 + ((q63_t)d1 << 1))*Dn);
 152              	 .loc 1 81 0
 153 0124 D7F89830 	 ldr r3,[r7,#152]
 154 0128 1846     	 mov r0,r3
 155 012a 4FEAE071 	 asr r1,r0,#31
 156 012e 0246     	 mov r2,r0
 157 0130 0B46     	 mov r3,r1
 158 0132 9218     	 adds r2,r2,r2
 159 0134 43EB0303 	 adc r3,r3,r3
 160 0138 1218     	 adds r2,r2,r0
 161 013a 43EB0103 	 adc r3,r3,r1
 162 013e D907     	 lsls r1,r3,#31
 163 0140 F966     	 str r1,[r7,#108]
 164 0142 F96E     	 ldr r1,[r7,#108]
 165 0144 41EA5201 	 orr r1,r1,r2,lsr#1
 166 0148 F966     	 str r1,[r7,#108]
 167 014a D307     	 lsls r3,r2,#31
 168 014c BB66     	 str r3,[r7,#104]
 169 014e D7F8A030 	 ldr r3,[r7,#160]
 170 0152 1846     	 mov r0,r3
 171 0154 4FEAE071 	 asr r1,r0,#31
 172 0158 D7F8A430 	 ldr r3,[r7,#164]
 173 015c 1A46     	 mov r2,r3
 174 015e 4FEAE273 	 asr r3,r2,#31
 175 0162 9218     	 adds r2,r2,r2
 176 0164 43EB0303 	 adc r3,r3,r3
 177 0168 8018     	 adds r0,r0,r2
 178 016a 41EB0301 	 adc r1,r1,r3
 179 016e D7F89C30 	 ldr r3,[r7,#156]
 180 0172 1A46     	 mov r2,r3
 181 0174 4FEAE273 	 asr r3,r2,#31
 182 0178 02FB01F5 	 mul r5,r2,r1
 183 017c 00FB03F4 	 mul r4,r0,r3
 184 0180 2C44     	 add r4,r4,r5
 185 0182 A0FB0201 	 umull r0,r1,r0,r2
 186 0186 6318     	 adds r3,r4,r1
 187 0188 1946     	 mov r1,r3
 188 018a D7E91A23 	 ldrd r2,[r7,#104]
 189 018e 121A     	 subs r2,r2,r0
 190 0190 63EB0103 	 sbc r3,r3,r1
 191 0194 1046     	 mov r0,r2
 192 0196 1946     	 mov r1,r3
 193 0198 D7E92423 	 ldrd r2,[r7,#144]
 194 019c 1218     	 adds r2,r2,r0
 195 019e 43EB0103 	 adc r3,r3,r1
 196 01a2 C7E92423 	 strd r2,[r7,#144]
  82:../Dave/Generated/CMSIS_DSP/ControllerFunctions/arm_sin_cos_q31.c ****   temp = (q63_t)fract*(temp >> 31);
 197              	 .loc 1 82 0
 198 01a6 D7F8B030 	 ldr r3,[r7,#176]
 199 01aa 1846     	 mov r0,r3
 200 01ac 4FEAE071 	 asr r1,r0,#31
 201 01b0 D7E92423 	 ldrd r2,[r7,#144]
 202 01b4 4FEAD27A 	 lsr r10,r2,#31
 203 01b8 4AEA430A 	 orr r10,r10,r3,lsl#1
 204 01bc 4FEAE37B 	 asr fp,r3,#31
 205 01c0 0AFB01F2 	 mul r2,r10,r1
 206 01c4 00FB0BF3 	 mul r3,r0,fp
 207 01c8 D418     	 adds r4,r2,r3
 208 01ca A0FB0A23 	 umull r2,r3,r0,r10
 209 01ce E118     	 adds r1,r4,r3
 210 01d0 0B46     	 mov r3,r1
 211 01d2 C7E92423 	 strd r2,[r7,#144]
 212 01d6 C7E92423 	 strd r2,[r7,#144]
  83:../Dave/Generated/CMSIS_DSP/ControllerFunctions/arm_sin_cos_q31.c ****   temp = temp + (q63_t)d1*Dn;
 213              	 .loc 1 83 0
 214 01da D7F8A430 	 ldr r3,[r7,#164]
 215 01de 1846     	 mov r0,r3
 216 01e0 4FEAE071 	 asr r1,r0,#31
 217 01e4 D7F89C30 	 ldr r3,[r7,#156]
 218 01e8 1A46     	 mov r2,r3
 219 01ea 4FEAE273 	 asr r3,r2,#31
 220 01ee 02FB01F5 	 mul r5,r2,r1
 221 01f2 00FB03F4 	 mul r4,r0,r3
 222 01f6 2C44     	 add r4,r4,r5
 223 01f8 A0FB0201 	 umull r0,r1,r0,r2
 224 01fc 6318     	 adds r3,r4,r1
 225 01fe 1946     	 mov r1,r3
 226 0200 D7E92423 	 ldrd r2,[r7,#144]
 227 0204 1218     	 adds r2,r2,r0
 228 0206 43EB0103 	 adc r3,r3,r1
 229 020a C7E92423 	 strd r2,[r7,#144]
  84:../Dave/Generated/CMSIS_DSP/ControllerFunctions/arm_sin_cos_q31.c ****   temp = (q63_t)fract*(temp >> 31);
 230              	 .loc 1 84 0
 231 020e D7F8B030 	 ldr r3,[r7,#176]
 232 0212 1846     	 mov r0,r3
 233 0214 4FEAE071 	 asr r1,r0,#31
 234 0218 D7E92423 	 ldrd r2,[r7,#144]
 235 021c D40F     	 lsrs r4,r2,#31
 236 021e 3C66     	 str r4,[r7,#96]
 237 0220 3C6E     	 ldr r4,[r7,#96]
 238 0222 44EA4304 	 orr r4,r4,r3,lsl#1
 239 0226 3C66     	 str r4,[r7,#96]
 240 0228 DB17     	 asrs r3,r3,#31
 241 022a 7B66     	 str r3,[r7,#100]
 242 022c D7E91889 	 ldrd r8,[r7,#96]
 243 0230 4346     	 mov r3,r8
 244 0232 03FB01F2 	 mul r2,r3,r1
 245 0236 4B46     	 mov r3,r9
 246 0238 00FB03F3 	 mul r3,r0,r3
 247 023c D418     	 adds r4,r2,r3
 248 023e 4346     	 mov r3,r8
 249 0240 A0FB0323 	 umull r2,r3,r0,r3
 250 0244 E118     	 adds r1,r4,r3
 251 0246 0B46     	 mov r3,r1
 252 0248 C7E92423 	 strd r2,[r7,#144]
 253 024c C7E92423 	 strd r2,[r7,#144]
  85:../Dave/Generated/CMSIS_DSP/ControllerFunctions/arm_sin_cos_q31.c **** 
  86:../Dave/Generated/CMSIS_DSP/ControllerFunctions/arm_sin_cos_q31.c ****   /* Calculation of cosine value */
  87:../Dave/Generated/CMSIS_DSP/ControllerFunctions/arm_sin_cos_q31.c ****   *pCosVal = clip_q63_to_q31((temp >> 31) + (q63_t)f1);
 254              	 .loc 1 87 0
 255 0250 D7E92423 	 ldrd r2,[r7,#144]
 256 0254 D10F     	 lsrs r1,r2,#31
 257 0256 B965     	 str r1,[r7,#88]
 258 0258 B96D     	 ldr r1,[r7,#88]
 259 025a 41EA4301 	 orr r1,r1,r3,lsl#1
 260 025e B965     	 str r1,[r7,#88]
 261 0260 DB17     	 asrs r3,r3,#31
 262 0262 FB65     	 str r3,[r7,#92]
 263 0264 D7F8AC30 	 ldr r3,[r7,#172]
 264 0268 1A46     	 mov r2,r3
 265 026a 4FEAE273 	 asr r3,r2,#31
 266 026e D7E91601 	 ldrd r0,[r7,#88]
 267 0272 8018     	 adds r0,r0,r2
 268 0274 41EB0301 	 adc r1,r1,r3
 269 0278 0246     	 mov r2,r0
 270 027a 0B46     	 mov r3,r1
 271 027c C7E92223 	 strd r2,[r7,#136]
 272              	.LBB6:
 273              	.LBB7:
 274              	 .file 2 "F:/Projects/20190909 - 3phase_inverter/3phase_inverter/4. Software_WS/OL_VSC_vitor/Dave/Generated/CMSIS_DSP/arm_math.h"
   1:F:/Projects/20190909 - 3phase_inverter/3phase_inverter/4. Software_WS/OL_VSC_vitor/Dave/Generated/CMSIS_DSP\arm_math.h **** /* ----------------------------------------------------------------------
   2:F:/Projects/20190909 - 3phase_inverter/3phase_inverter/4. Software_WS/OL_VSC_vitor/Dave/Generated/CMSIS_DSP\arm_math.h ****  * Project:      CMSIS DSP Library
   3:F:/Projects/20190909 - 3phase_inverter/3phase_inverter/4. Software_WS/OL_VSC_vitor/Dave/Generated/CMSIS_DSP\arm_math.h ****  * Title:        CMSIS_DSP/cmsis_dsp.h
   4:F:/Projects/20190909 - 3phase_inverter/3phase_inverter/4. Software_WS/OL_VSC_vitor/Dave/Generated/CMSIS_DSP\arm_math.h ****  * Description:  Public header file for CMSIS DSP Library
   5:F:/Projects/20190909 - 3phase_inverter/3phase_inverter/4. Software_WS/OL_VSC_vitor/Dave/Generated/CMSIS_DSP\arm_math.h ****  *
   6:F:/Projects/20190909 - 3phase_inverter/3phase_inverter/4. Software_WS/OL_VSC_vitor/Dave/Generated/CMSIS_DSP\arm_math.h ****  * $Date:        27. January 2017
   7:F:/Projects/20190909 - 3phase_inverter/3phase_inverter/4. Software_WS/OL_VSC_vitor/Dave/Generated/CMSIS_DSP\arm_math.h ****  * $Revision:    V.1.5.1
   8:F:/Projects/20190909 - 3phase_inverter/3phase_inverter/4. Software_WS/OL_VSC_vitor/Dave/Generated/CMSIS_DSP\arm_math.h ****  *
   9:F:/Projects/20190909 - 3phase_inverter/3phase_inverter/4. Software_WS/OL_VSC_vitor/Dave/Generated/CMSIS_DSP\arm_math.h ****  * Target Processor: Cortex-M cores
  10:F:/Projects/20190909 - 3phase_inverter/3phase_inverter/4. Software_WS/OL_VSC_vitor/Dave/Generated/CMSIS_DSP\arm_math.h ****  * -------------------------------------------------------------------- */
  11:F:/Projects/20190909 - 3phase_inverter/3phase_inverter/4. Software_WS/OL_VSC_vitor/Dave/Generated/CMSIS_DSP\arm_math.h **** /*
  12:F:/Projects/20190909 - 3phase_inverter/3phase_inverter/4. Software_WS/OL_VSC_vitor/Dave/Generated/CMSIS_DSP\arm_math.h ****  * Copyright (C) 2010-2017 ARM Limited or its affiliates. All rights reserved.
  13:F:/Projects/20190909 - 3phase_inverter/3phase_inverter/4. Software_WS/OL_VSC_vitor/Dave/Generated/CMSIS_DSP\arm_math.h ****  *
  14:F:/Projects/20190909 - 3phase_inverter/3phase_inverter/4. Software_WS/OL_VSC_vitor/Dave/Generated/CMSIS_DSP\arm_math.h ****  * SPDX-License-Identifier: Apache-2.0
  15:F:/Projects/20190909 - 3phase_inverter/3phase_inverter/4. Software_WS/OL_VSC_vitor/Dave/Generated/CMSIS_DSP\arm_math.h ****  *
  16:F:/Projects/20190909 - 3phase_inverter/3phase_inverter/4. Software_WS/OL_VSC_vitor/Dave/Generated/CMSIS_DSP\arm_math.h ****  * Licensed under the Apache License, Version 2.0 (the License); you may
  17:F:/Projects/20190909 - 3phase_inverter/3phase_inverter/4. Software_WS/OL_VSC_vitor/Dave/Generated/CMSIS_DSP\arm_math.h ****  * not use this file except in compliance with the License.
  18:F:/Projects/20190909 - 3phase_inverter/3phase_inverter/4. Software_WS/OL_VSC_vitor/Dave/Generated/CMSIS_DSP\arm_math.h ****  * You may obtain a copy of the License at
  19:F:/Projects/20190909 - 3phase_inverter/3phase_inverter/4. Software_WS/OL_VSC_vitor/Dave/Generated/CMSIS_DSP\arm_math.h ****  *
  20:F:/Projects/20190909 - 3phase_inverter/3phase_inverter/4. Software_WS/OL_VSC_vitor/Dave/Generated/CMSIS_DSP\arm_math.h ****  * www.apache.org/licenses/LICENSE-2.0
  21:F:/Projects/20190909 - 3phase_inverter/3phase_inverter/4. Software_WS/OL_VSC_vitor/Dave/Generated/CMSIS_DSP\arm_math.h ****  *
  22:F:/Projects/20190909 - 3phase_inverter/3phase_inverter/4. Software_WS/OL_VSC_vitor/Dave/Generated/CMSIS_DSP\arm_math.h ****  * Unless required by applicable law or agreed to in writing, software
  23:F:/Projects/20190909 - 3phase_inverter/3phase_inverter/4. Software_WS/OL_VSC_vitor/Dave/Generated/CMSIS_DSP\arm_math.h ****  * distributed under the License is distributed on an AS IS BASIS, WITHOUT
  24:F:/Projects/20190909 - 3phase_inverter/3phase_inverter/4. Software_WS/OL_VSC_vitor/Dave/Generated/CMSIS_DSP\arm_math.h ****  * WARRANTIES OR CONDITIONS OF ANY KIND, either express or implied.
  25:F:/Projects/20190909 - 3phase_inverter/3phase_inverter/4. Software_WS/OL_VSC_vitor/Dave/Generated/CMSIS_DSP\arm_math.h ****  * See the License for the specific language governing permissions and
  26:F:/Projects/20190909 - 3phase_inverter/3phase_inverter/4. Software_WS/OL_VSC_vitor/Dave/Generated/CMSIS_DSP\arm_math.h ****  * limitations under the License.
  27:F:/Projects/20190909 - 3phase_inverter/3phase_inverter/4. Software_WS/OL_VSC_vitor/Dave/Generated/CMSIS_DSP\arm_math.h ****  */
  28:F:/Projects/20190909 - 3phase_inverter/3phase_inverter/4. Software_WS/OL_VSC_vitor/Dave/Generated/CMSIS_DSP\arm_math.h **** 
  29:F:/Projects/20190909 - 3phase_inverter/3phase_inverter/4. Software_WS/OL_VSC_vitor/Dave/Generated/CMSIS_DSP\arm_math.h **** /**
  30:F:/Projects/20190909 - 3phase_inverter/3phase_inverter/4. Software_WS/OL_VSC_vitor/Dave/Generated/CMSIS_DSP\arm_math.h ****    \mainpage CMSIS DSP Software Library
  31:F:/Projects/20190909 - 3phase_inverter/3phase_inverter/4. Software_WS/OL_VSC_vitor/Dave/Generated/CMSIS_DSP\arm_math.h ****    *
  32:F:/Projects/20190909 - 3phase_inverter/3phase_inverter/4. Software_WS/OL_VSC_vitor/Dave/Generated/CMSIS_DSP\arm_math.h ****    * Introduction
  33:F:/Projects/20190909 - 3phase_inverter/3phase_inverter/4. Software_WS/OL_VSC_vitor/Dave/Generated/CMSIS_DSP\arm_math.h ****    * ------------
  34:F:/Projects/20190909 - 3phase_inverter/3phase_inverter/4. Software_WS/OL_VSC_vitor/Dave/Generated/CMSIS_DSP\arm_math.h ****    *
  35:F:/Projects/20190909 - 3phase_inverter/3phase_inverter/4. Software_WS/OL_VSC_vitor/Dave/Generated/CMSIS_DSP\arm_math.h ****    * This user manual describes the CMSIS DSP software library,
  36:F:/Projects/20190909 - 3phase_inverter/3phase_inverter/4. Software_WS/OL_VSC_vitor/Dave/Generated/CMSIS_DSP\arm_math.h ****    * a suite of common signal processing functions for use on Cortex-M processor based devices.
  37:F:/Projects/20190909 - 3phase_inverter/3phase_inverter/4. Software_WS/OL_VSC_vitor/Dave/Generated/CMSIS_DSP\arm_math.h ****    *
  38:F:/Projects/20190909 - 3phase_inverter/3phase_inverter/4. Software_WS/OL_VSC_vitor/Dave/Generated/CMSIS_DSP\arm_math.h ****    * The library is divided into a number of functions each covering a specific category:
  39:F:/Projects/20190909 - 3phase_inverter/3phase_inverter/4. Software_WS/OL_VSC_vitor/Dave/Generated/CMSIS_DSP\arm_math.h ****    * - Basic math functions
  40:F:/Projects/20190909 - 3phase_inverter/3phase_inverter/4. Software_WS/OL_VSC_vitor/Dave/Generated/CMSIS_DSP\arm_math.h ****    * - Fast math functions
  41:F:/Projects/20190909 - 3phase_inverter/3phase_inverter/4. Software_WS/OL_VSC_vitor/Dave/Generated/CMSIS_DSP\arm_math.h ****    * - Complex math functions
  42:F:/Projects/20190909 - 3phase_inverter/3phase_inverter/4. Software_WS/OL_VSC_vitor/Dave/Generated/CMSIS_DSP\arm_math.h ****    * - Filters
  43:F:/Projects/20190909 - 3phase_inverter/3phase_inverter/4. Software_WS/OL_VSC_vitor/Dave/Generated/CMSIS_DSP\arm_math.h ****    * - Matrix functions
  44:F:/Projects/20190909 - 3phase_inverter/3phase_inverter/4. Software_WS/OL_VSC_vitor/Dave/Generated/CMSIS_DSP\arm_math.h ****    * - Transforms
  45:F:/Projects/20190909 - 3phase_inverter/3phase_inverter/4. Software_WS/OL_VSC_vitor/Dave/Generated/CMSIS_DSP\arm_math.h ****    * - Motor control functions
  46:F:/Projects/20190909 - 3phase_inverter/3phase_inverter/4. Software_WS/OL_VSC_vitor/Dave/Generated/CMSIS_DSP\arm_math.h ****    * - Statistical functions
  47:F:/Projects/20190909 - 3phase_inverter/3phase_inverter/4. Software_WS/OL_VSC_vitor/Dave/Generated/CMSIS_DSP\arm_math.h ****    * - Support functions
  48:F:/Projects/20190909 - 3phase_inverter/3phase_inverter/4. Software_WS/OL_VSC_vitor/Dave/Generated/CMSIS_DSP\arm_math.h ****    * - Interpolation functions
  49:F:/Projects/20190909 - 3phase_inverter/3phase_inverter/4. Software_WS/OL_VSC_vitor/Dave/Generated/CMSIS_DSP\arm_math.h ****    *
  50:F:/Projects/20190909 - 3phase_inverter/3phase_inverter/4. Software_WS/OL_VSC_vitor/Dave/Generated/CMSIS_DSP\arm_math.h ****    * The library has separate functions for operating on 8-bit integers, 16-bit integers,
  51:F:/Projects/20190909 - 3phase_inverter/3phase_inverter/4. Software_WS/OL_VSC_vitor/Dave/Generated/CMSIS_DSP\arm_math.h ****    * 32-bit integer and 32-bit floating-point values.
  52:F:/Projects/20190909 - 3phase_inverter/3phase_inverter/4. Software_WS/OL_VSC_vitor/Dave/Generated/CMSIS_DSP\arm_math.h ****    *
  53:F:/Projects/20190909 - 3phase_inverter/3phase_inverter/4. Software_WS/OL_VSC_vitor/Dave/Generated/CMSIS_DSP\arm_math.h ****    * Using the Library
  54:F:/Projects/20190909 - 3phase_inverter/3phase_inverter/4. Software_WS/OL_VSC_vitor/Dave/Generated/CMSIS_DSP\arm_math.h ****    * ------------
  55:F:/Projects/20190909 - 3phase_inverter/3phase_inverter/4. Software_WS/OL_VSC_vitor/Dave/Generated/CMSIS_DSP\arm_math.h ****    *
  56:F:/Projects/20190909 - 3phase_inverter/3phase_inverter/4. Software_WS/OL_VSC_vitor/Dave/Generated/CMSIS_DSP\arm_math.h ****    * The library installer contains prebuilt versions of the libraries in the <code>Lib</code> fold
  57:F:/Projects/20190909 - 3phase_inverter/3phase_inverter/4. Software_WS/OL_VSC_vitor/Dave/Generated/CMSIS_DSP\arm_math.h ****    * - arm_cortexM7lfdp_math.lib (Cortex-M7, Little endian, Double Precision Floating Point Unit)
  58:F:/Projects/20190909 - 3phase_inverter/3phase_inverter/4. Software_WS/OL_VSC_vitor/Dave/Generated/CMSIS_DSP\arm_math.h ****    * - arm_cortexM7bfdp_math.lib (Cortex-M7, Big endian, Double Precision Floating Point Unit)
  59:F:/Projects/20190909 - 3phase_inverter/3phase_inverter/4. Software_WS/OL_VSC_vitor/Dave/Generated/CMSIS_DSP\arm_math.h ****    * - arm_cortexM7lfsp_math.lib (Cortex-M7, Little endian, Single Precision Floating Point Unit)
  60:F:/Projects/20190909 - 3phase_inverter/3phase_inverter/4. Software_WS/OL_VSC_vitor/Dave/Generated/CMSIS_DSP\arm_math.h ****    * - arm_cortexM7bfsp_math.lib (Cortex-M7, Big endian and Single Precision Floating Point Unit on
  61:F:/Projects/20190909 - 3phase_inverter/3phase_inverter/4. Software_WS/OL_VSC_vitor/Dave/Generated/CMSIS_DSP\arm_math.h ****    * - arm_cortexM7l_math.lib (Cortex-M7, Little endian)
  62:F:/Projects/20190909 - 3phase_inverter/3phase_inverter/4. Software_WS/OL_VSC_vitor/Dave/Generated/CMSIS_DSP\arm_math.h ****    * - arm_cortexM7b_math.lib (Cortex-M7, Big endian)
  63:F:/Projects/20190909 - 3phase_inverter/3phase_inverter/4. Software_WS/OL_VSC_vitor/Dave/Generated/CMSIS_DSP\arm_math.h ****    * - arm_cortexM4lf_math.lib (Cortex-M4, Little endian, Floating Point Unit)
  64:F:/Projects/20190909 - 3phase_inverter/3phase_inverter/4. Software_WS/OL_VSC_vitor/Dave/Generated/CMSIS_DSP\arm_math.h ****    * - arm_cortexM4bf_math.lib (Cortex-M4, Big endian, Floating Point Unit)
  65:F:/Projects/20190909 - 3phase_inverter/3phase_inverter/4. Software_WS/OL_VSC_vitor/Dave/Generated/CMSIS_DSP\arm_math.h ****    * - arm_cortexM4l_math.lib (Cortex-M4, Little endian)
  66:F:/Projects/20190909 - 3phase_inverter/3phase_inverter/4. Software_WS/OL_VSC_vitor/Dave/Generated/CMSIS_DSP\arm_math.h ****    * - arm_cortexM4b_math.lib (Cortex-M4, Big endian)
  67:F:/Projects/20190909 - 3phase_inverter/3phase_inverter/4. Software_WS/OL_VSC_vitor/Dave/Generated/CMSIS_DSP\arm_math.h ****    * - arm_cortexM3l_math.lib (Cortex-M3, Little endian)
  68:F:/Projects/20190909 - 3phase_inverter/3phase_inverter/4. Software_WS/OL_VSC_vitor/Dave/Generated/CMSIS_DSP\arm_math.h ****    * - arm_cortexM3b_math.lib (Cortex-M3, Big endian)
  69:F:/Projects/20190909 - 3phase_inverter/3phase_inverter/4. Software_WS/OL_VSC_vitor/Dave/Generated/CMSIS_DSP\arm_math.h ****    * - arm_cortexM0l_math.lib (Cortex-M0 / Cortex-M0+, Little endian)
  70:F:/Projects/20190909 - 3phase_inverter/3phase_inverter/4. Software_WS/OL_VSC_vitor/Dave/Generated/CMSIS_DSP\arm_math.h ****    * - arm_cortexM0b_math.lib (Cortex-M0 / Cortex-M0+, Big endian)
  71:F:/Projects/20190909 - 3phase_inverter/3phase_inverter/4. Software_WS/OL_VSC_vitor/Dave/Generated/CMSIS_DSP\arm_math.h ****    * - arm_ARMv8MBLl_math.lib (ARMv8M Baseline, Little endian)
  72:F:/Projects/20190909 - 3phase_inverter/3phase_inverter/4. Software_WS/OL_VSC_vitor/Dave/Generated/CMSIS_DSP\arm_math.h ****    * - arm_ARMv8MMLl_math.lib (ARMv8M Mainline, Little endian)
  73:F:/Projects/20190909 - 3phase_inverter/3phase_inverter/4. Software_WS/OL_VSC_vitor/Dave/Generated/CMSIS_DSP\arm_math.h ****    * - arm_ARMv8MMLlfsp_math.lib (ARMv8M Mainline, Little endian, Single Precision Floating Point U
  74:F:/Projects/20190909 - 3phase_inverter/3phase_inverter/4. Software_WS/OL_VSC_vitor/Dave/Generated/CMSIS_DSP\arm_math.h ****    * - arm_ARMv8MMLld_math.lib (ARMv8M Mainline, Little endian, DSP instructions)
  75:F:/Projects/20190909 - 3phase_inverter/3phase_inverter/4. Software_WS/OL_VSC_vitor/Dave/Generated/CMSIS_DSP\arm_math.h ****    * - arm_ARMv8MMLldfsp_math.lib (ARMv8M Mainline, Little endian, DSP instructions, Single Precisi
  76:F:/Projects/20190909 - 3phase_inverter/3phase_inverter/4. Software_WS/OL_VSC_vitor/Dave/Generated/CMSIS_DSP\arm_math.h ****    *
  77:F:/Projects/20190909 - 3phase_inverter/3phase_inverter/4. Software_WS/OL_VSC_vitor/Dave/Generated/CMSIS_DSP\arm_math.h ****    * The library functions are declared in the public file <code>CMSIS_DSP/cmsis_dsp.h</code> which
  78:F:/Projects/20190909 - 3phase_inverter/3phase_inverter/4. Software_WS/OL_VSC_vitor/Dave/Generated/CMSIS_DSP\arm_math.h ****    * Simply include this file and link the appropriate library in the application and begin calling
  79:F:/Projects/20190909 - 3phase_inverter/3phase_inverter/4. Software_WS/OL_VSC_vitor/Dave/Generated/CMSIS_DSP\arm_math.h ****    * public header file <code> CMSIS_DSP/cmsis_dsp.h</code> for Cortex-M cores with little endian a
  80:F:/Projects/20190909 - 3phase_inverter/3phase_inverter/4. Software_WS/OL_VSC_vitor/Dave/Generated/CMSIS_DSP\arm_math.h ****    * Define the appropriate pre processor MACRO ARM_MATH_CM7 or ARM_MATH_CM4 or  ARM_MATH_CM3 or
  81:F:/Projects/20190909 - 3phase_inverter/3phase_inverter/4. Software_WS/OL_VSC_vitor/Dave/Generated/CMSIS_DSP\arm_math.h ****    * ARM_MATH_CM0 or ARM_MATH_CM0PLUS depending on the target processor in the application.
  82:F:/Projects/20190909 - 3phase_inverter/3phase_inverter/4. Software_WS/OL_VSC_vitor/Dave/Generated/CMSIS_DSP\arm_math.h ****    * For ARMv8M cores define pre processor MACRO ARM_MATH_ARMV8MBL or ARM_MATH_ARMV8MML.
  83:F:/Projects/20190909 - 3phase_inverter/3phase_inverter/4. Software_WS/OL_VSC_vitor/Dave/Generated/CMSIS_DSP\arm_math.h ****    * Set Pre processor MACRO __DSP_PRESENT if ARMv8M Mainline core supports DSP instructions.
  84:F:/Projects/20190909 - 3phase_inverter/3phase_inverter/4. Software_WS/OL_VSC_vitor/Dave/Generated/CMSIS_DSP\arm_math.h ****    * 
  85:F:/Projects/20190909 - 3phase_inverter/3phase_inverter/4. Software_WS/OL_VSC_vitor/Dave/Generated/CMSIS_DSP\arm_math.h ****    *
  86:F:/Projects/20190909 - 3phase_inverter/3phase_inverter/4. Software_WS/OL_VSC_vitor/Dave/Generated/CMSIS_DSP\arm_math.h ****    * Examples
  87:F:/Projects/20190909 - 3phase_inverter/3phase_inverter/4. Software_WS/OL_VSC_vitor/Dave/Generated/CMSIS_DSP\arm_math.h ****    * --------
  88:F:/Projects/20190909 - 3phase_inverter/3phase_inverter/4. Software_WS/OL_VSC_vitor/Dave/Generated/CMSIS_DSP\arm_math.h ****    *
  89:F:/Projects/20190909 - 3phase_inverter/3phase_inverter/4. Software_WS/OL_VSC_vitor/Dave/Generated/CMSIS_DSP\arm_math.h ****    * The library ships with a number of examples which demonstrate how to use the library functions
  90:F:/Projects/20190909 - 3phase_inverter/3phase_inverter/4. Software_WS/OL_VSC_vitor/Dave/Generated/CMSIS_DSP\arm_math.h ****    *
  91:F:/Projects/20190909 - 3phase_inverter/3phase_inverter/4. Software_WS/OL_VSC_vitor/Dave/Generated/CMSIS_DSP\arm_math.h ****    * Toolchain Support
  92:F:/Projects/20190909 - 3phase_inverter/3phase_inverter/4. Software_WS/OL_VSC_vitor/Dave/Generated/CMSIS_DSP\arm_math.h ****    * ------------
  93:F:/Projects/20190909 - 3phase_inverter/3phase_inverter/4. Software_WS/OL_VSC_vitor/Dave/Generated/CMSIS_DSP\arm_math.h ****    *
  94:F:/Projects/20190909 - 3phase_inverter/3phase_inverter/4. Software_WS/OL_VSC_vitor/Dave/Generated/CMSIS_DSP\arm_math.h ****    * The library has been developed and tested with MDK-ARM version 5.14.0.0
  95:F:/Projects/20190909 - 3phase_inverter/3phase_inverter/4. Software_WS/OL_VSC_vitor/Dave/Generated/CMSIS_DSP\arm_math.h ****    * The library is being tested in GCC and IAR toolchains and updates on this activity will be mad
  96:F:/Projects/20190909 - 3phase_inverter/3phase_inverter/4. Software_WS/OL_VSC_vitor/Dave/Generated/CMSIS_DSP\arm_math.h ****    *
  97:F:/Projects/20190909 - 3phase_inverter/3phase_inverter/4. Software_WS/OL_VSC_vitor/Dave/Generated/CMSIS_DSP\arm_math.h ****    * Building the Library
  98:F:/Projects/20190909 - 3phase_inverter/3phase_inverter/4. Software_WS/OL_VSC_vitor/Dave/Generated/CMSIS_DSP\arm_math.h ****    * ------------
  99:F:/Projects/20190909 - 3phase_inverter/3phase_inverter/4. Software_WS/OL_VSC_vitor/Dave/Generated/CMSIS_DSP\arm_math.h ****    *
 100:F:/Projects/20190909 - 3phase_inverter/3phase_inverter/4. Software_WS/OL_VSC_vitor/Dave/Generated/CMSIS_DSP\arm_math.h ****    * The library installer contains a project file to re build libraries on MDK-ARM Tool chain in t
 101:F:/Projects/20190909 - 3phase_inverter/3phase_inverter/4. Software_WS/OL_VSC_vitor/Dave/Generated/CMSIS_DSP\arm_math.h ****    * - arm_cortexM_math.uvprojx
 102:F:/Projects/20190909 - 3phase_inverter/3phase_inverter/4. Software_WS/OL_VSC_vitor/Dave/Generated/CMSIS_DSP\arm_math.h ****    *
 103:F:/Projects/20190909 - 3phase_inverter/3phase_inverter/4. Software_WS/OL_VSC_vitor/Dave/Generated/CMSIS_DSP\arm_math.h ****    *
 104:F:/Projects/20190909 - 3phase_inverter/3phase_inverter/4. Software_WS/OL_VSC_vitor/Dave/Generated/CMSIS_DSP\arm_math.h ****    * The libraries can be built by opening the arm_cortexM_math.uvprojx project in MDK-ARM, selecti
 105:F:/Projects/20190909 - 3phase_inverter/3phase_inverter/4. Software_WS/OL_VSC_vitor/Dave/Generated/CMSIS_DSP\arm_math.h ****    *
 106:F:/Projects/20190909 - 3phase_inverter/3phase_inverter/4. Software_WS/OL_VSC_vitor/Dave/Generated/CMSIS_DSP\arm_math.h ****    * Pre-processor Macros
 107:F:/Projects/20190909 - 3phase_inverter/3phase_inverter/4. Software_WS/OL_VSC_vitor/Dave/Generated/CMSIS_DSP\arm_math.h ****    * ------------
 108:F:/Projects/20190909 - 3phase_inverter/3phase_inverter/4. Software_WS/OL_VSC_vitor/Dave/Generated/CMSIS_DSP\arm_math.h ****    *
 109:F:/Projects/20190909 - 3phase_inverter/3phase_inverter/4. Software_WS/OL_VSC_vitor/Dave/Generated/CMSIS_DSP\arm_math.h ****    * Each library project have differant pre-processor macros.
 110:F:/Projects/20190909 - 3phase_inverter/3phase_inverter/4. Software_WS/OL_VSC_vitor/Dave/Generated/CMSIS_DSP\arm_math.h ****    *
 111:F:/Projects/20190909 - 3phase_inverter/3phase_inverter/4. Software_WS/OL_VSC_vitor/Dave/Generated/CMSIS_DSP\arm_math.h ****    * - UNALIGNED_SUPPORT_DISABLE:
 112:F:/Projects/20190909 - 3phase_inverter/3phase_inverter/4. Software_WS/OL_VSC_vitor/Dave/Generated/CMSIS_DSP\arm_math.h ****    *
 113:F:/Projects/20190909 - 3phase_inverter/3phase_inverter/4. Software_WS/OL_VSC_vitor/Dave/Generated/CMSIS_DSP\arm_math.h ****    * Define macro UNALIGNED_SUPPORT_DISABLE, If the silicon does not support unaligned memory acces
 114:F:/Projects/20190909 - 3phase_inverter/3phase_inverter/4. Software_WS/OL_VSC_vitor/Dave/Generated/CMSIS_DSP\arm_math.h ****    *
 115:F:/Projects/20190909 - 3phase_inverter/3phase_inverter/4. Software_WS/OL_VSC_vitor/Dave/Generated/CMSIS_DSP\arm_math.h ****    * - ARM_MATH_BIG_ENDIAN:
 116:F:/Projects/20190909 - 3phase_inverter/3phase_inverter/4. Software_WS/OL_VSC_vitor/Dave/Generated/CMSIS_DSP\arm_math.h ****    *
 117:F:/Projects/20190909 - 3phase_inverter/3phase_inverter/4. Software_WS/OL_VSC_vitor/Dave/Generated/CMSIS_DSP\arm_math.h ****    * Define macro ARM_MATH_BIG_ENDIAN to build the library for big endian targets. By default libra
 118:F:/Projects/20190909 - 3phase_inverter/3phase_inverter/4. Software_WS/OL_VSC_vitor/Dave/Generated/CMSIS_DSP\arm_math.h ****    *
 119:F:/Projects/20190909 - 3phase_inverter/3phase_inverter/4. Software_WS/OL_VSC_vitor/Dave/Generated/CMSIS_DSP\arm_math.h ****    * - ARM_MATH_MATRIX_CHECK:
 120:F:/Projects/20190909 - 3phase_inverter/3phase_inverter/4. Software_WS/OL_VSC_vitor/Dave/Generated/CMSIS_DSP\arm_math.h ****    *
 121:F:/Projects/20190909 - 3phase_inverter/3phase_inverter/4. Software_WS/OL_VSC_vitor/Dave/Generated/CMSIS_DSP\arm_math.h ****    * Define macro ARM_MATH_MATRIX_CHECK for checking on the input and output sizes of matrices
 122:F:/Projects/20190909 - 3phase_inverter/3phase_inverter/4. Software_WS/OL_VSC_vitor/Dave/Generated/CMSIS_DSP\arm_math.h ****    *
 123:F:/Projects/20190909 - 3phase_inverter/3phase_inverter/4. Software_WS/OL_VSC_vitor/Dave/Generated/CMSIS_DSP\arm_math.h ****    * - ARM_MATH_ROUNDING:
 124:F:/Projects/20190909 - 3phase_inverter/3phase_inverter/4. Software_WS/OL_VSC_vitor/Dave/Generated/CMSIS_DSP\arm_math.h ****    *
 125:F:/Projects/20190909 - 3phase_inverter/3phase_inverter/4. Software_WS/OL_VSC_vitor/Dave/Generated/CMSIS_DSP\arm_math.h ****    * Define macro ARM_MATH_ROUNDING for rounding on support functions
 126:F:/Projects/20190909 - 3phase_inverter/3phase_inverter/4. Software_WS/OL_VSC_vitor/Dave/Generated/CMSIS_DSP\arm_math.h ****    *
 127:F:/Projects/20190909 - 3phase_inverter/3phase_inverter/4. Software_WS/OL_VSC_vitor/Dave/Generated/CMSIS_DSP\arm_math.h ****    * - ARM_MATH_CMx:
 128:F:/Projects/20190909 - 3phase_inverter/3phase_inverter/4. Software_WS/OL_VSC_vitor/Dave/Generated/CMSIS_DSP\arm_math.h ****    *
 129:F:/Projects/20190909 - 3phase_inverter/3phase_inverter/4. Software_WS/OL_VSC_vitor/Dave/Generated/CMSIS_DSP\arm_math.h ****    * Define macro ARM_MATH_CM4 for building the library on Cortex-M4 target, ARM_MATH_CM3 for build
 130:F:/Projects/20190909 - 3phase_inverter/3phase_inverter/4. Software_WS/OL_VSC_vitor/Dave/Generated/CMSIS_DSP\arm_math.h ****    * and ARM_MATH_CM0 for building library on Cortex-M0 target, ARM_MATH_CM0PLUS for building libra
 131:F:/Projects/20190909 - 3phase_inverter/3phase_inverter/4. Software_WS/OL_VSC_vitor/Dave/Generated/CMSIS_DSP\arm_math.h ****    * ARM_MATH_CM7 for building the library on cortex-M7.
 132:F:/Projects/20190909 - 3phase_inverter/3phase_inverter/4. Software_WS/OL_VSC_vitor/Dave/Generated/CMSIS_DSP\arm_math.h ****    *
 133:F:/Projects/20190909 - 3phase_inverter/3phase_inverter/4. Software_WS/OL_VSC_vitor/Dave/Generated/CMSIS_DSP\arm_math.h ****    * - ARM_MATH_ARMV8MxL:
 134:F:/Projects/20190909 - 3phase_inverter/3phase_inverter/4. Software_WS/OL_VSC_vitor/Dave/Generated/CMSIS_DSP\arm_math.h ****    *
 135:F:/Projects/20190909 - 3phase_inverter/3phase_inverter/4. Software_WS/OL_VSC_vitor/Dave/Generated/CMSIS_DSP\arm_math.h ****    * Define macro ARM_MATH_ARMV8MBL for building the library on ARMv8M Baseline target, ARM_MATH_AR
 136:F:/Projects/20190909 - 3phase_inverter/3phase_inverter/4. Software_WS/OL_VSC_vitor/Dave/Generated/CMSIS_DSP\arm_math.h ****    * on ARMv8M Mainline target.
 137:F:/Projects/20190909 - 3phase_inverter/3phase_inverter/4. Software_WS/OL_VSC_vitor/Dave/Generated/CMSIS_DSP\arm_math.h ****    *
 138:F:/Projects/20190909 - 3phase_inverter/3phase_inverter/4. Software_WS/OL_VSC_vitor/Dave/Generated/CMSIS_DSP\arm_math.h ****    * - __FPU_PRESENT:
 139:F:/Projects/20190909 - 3phase_inverter/3phase_inverter/4. Software_WS/OL_VSC_vitor/Dave/Generated/CMSIS_DSP\arm_math.h ****    *
 140:F:/Projects/20190909 - 3phase_inverter/3phase_inverter/4. Software_WS/OL_VSC_vitor/Dave/Generated/CMSIS_DSP\arm_math.h ****    * Initialize macro __FPU_PRESENT = 1 when building on FPU supported Targets. Enable this macro f
 141:F:/Projects/20190909 - 3phase_inverter/3phase_inverter/4. Software_WS/OL_VSC_vitor/Dave/Generated/CMSIS_DSP\arm_math.h ****    *
 142:F:/Projects/20190909 - 3phase_inverter/3phase_inverter/4. Software_WS/OL_VSC_vitor/Dave/Generated/CMSIS_DSP\arm_math.h ****    * - __DSP_PRESENT:
 143:F:/Projects/20190909 - 3phase_inverter/3phase_inverter/4. Software_WS/OL_VSC_vitor/Dave/Generated/CMSIS_DSP\arm_math.h ****    *
 144:F:/Projects/20190909 - 3phase_inverter/3phase_inverter/4. Software_WS/OL_VSC_vitor/Dave/Generated/CMSIS_DSP\arm_math.h ****    * Initialize macro __DSP_PRESENT = 1 when ARMv8M Mainline core supports DSP instructions.
 145:F:/Projects/20190909 - 3phase_inverter/3phase_inverter/4. Software_WS/OL_VSC_vitor/Dave/Generated/CMSIS_DSP\arm_math.h ****    *
 146:F:/Projects/20190909 - 3phase_inverter/3phase_inverter/4. Software_WS/OL_VSC_vitor/Dave/Generated/CMSIS_DSP\arm_math.h ****    * <hr>
 147:F:/Projects/20190909 - 3phase_inverter/3phase_inverter/4. Software_WS/OL_VSC_vitor/Dave/Generated/CMSIS_DSP\arm_math.h ****    * CMSIS-DSP in ARM::CMSIS Pack
 148:F:/Projects/20190909 - 3phase_inverter/3phase_inverter/4. Software_WS/OL_VSC_vitor/Dave/Generated/CMSIS_DSP\arm_math.h ****    * -----------------------------
 149:F:/Projects/20190909 - 3phase_inverter/3phase_inverter/4. Software_WS/OL_VSC_vitor/Dave/Generated/CMSIS_DSP\arm_math.h ****    *
 150:F:/Projects/20190909 - 3phase_inverter/3phase_inverter/4. Software_WS/OL_VSC_vitor/Dave/Generated/CMSIS_DSP\arm_math.h ****    * The following files relevant to CMSIS-DSP are present in the <b>ARM::CMSIS</b> Pack directorie
 151:F:/Projects/20190909 - 3phase_inverter/3phase_inverter/4. Software_WS/OL_VSC_vitor/Dave/Generated/CMSIS_DSP\arm_math.h ****    * |File/Folder                   |Content                                                       
 152:F:/Projects/20190909 - 3phase_inverter/3phase_inverter/4. Software_WS/OL_VSC_vitor/Dave/Generated/CMSIS_DSP\arm_math.h ****    * |------------------------------|--------------------------------------------------------------
 153:F:/Projects/20190909 - 3phase_inverter/3phase_inverter/4. Software_WS/OL_VSC_vitor/Dave/Generated/CMSIS_DSP\arm_math.h ****    * |\b CMSIS\\Documentation\\DSP  | This documentation                                           
 154:F:/Projects/20190909 - 3phase_inverter/3phase_inverter/4. Software_WS/OL_VSC_vitor/Dave/Generated/CMSIS_DSP\arm_math.h ****    * |\b CMSIS\\DSP_Lib             | Software license agreement (license.txt)                     
 155:F:/Projects/20190909 - 3phase_inverter/3phase_inverter/4. Software_WS/OL_VSC_vitor/Dave/Generated/CMSIS_DSP\arm_math.h ****    * |\b CMSIS\\DSP_Lib\\Examples   | Example projects demonstrating the usage of the library funct
 156:F:/Projects/20190909 - 3phase_inverter/3phase_inverter/4. Software_WS/OL_VSC_vitor/Dave/Generated/CMSIS_DSP\arm_math.h ****    * |\b CMSIS\\DSP_Lib\\Source     | Source files for rebuilding the library                      
 157:F:/Projects/20190909 - 3phase_inverter/3phase_inverter/4. Software_WS/OL_VSC_vitor/Dave/Generated/CMSIS_DSP\arm_math.h ****    *
 158:F:/Projects/20190909 - 3phase_inverter/3phase_inverter/4. Software_WS/OL_VSC_vitor/Dave/Generated/CMSIS_DSP\arm_math.h ****    * <hr>
 159:F:/Projects/20190909 - 3phase_inverter/3phase_inverter/4. Software_WS/OL_VSC_vitor/Dave/Generated/CMSIS_DSP\arm_math.h ****    * Revision History of CMSIS-DSP
 160:F:/Projects/20190909 - 3phase_inverter/3phase_inverter/4. Software_WS/OL_VSC_vitor/Dave/Generated/CMSIS_DSP\arm_math.h ****    * ------------
 161:F:/Projects/20190909 - 3phase_inverter/3phase_inverter/4. Software_WS/OL_VSC_vitor/Dave/Generated/CMSIS_DSP\arm_math.h ****    * Please refer to \ref ChangeLog_pg.
 162:F:/Projects/20190909 - 3phase_inverter/3phase_inverter/4. Software_WS/OL_VSC_vitor/Dave/Generated/CMSIS_DSP\arm_math.h ****    *
 163:F:/Projects/20190909 - 3phase_inverter/3phase_inverter/4. Software_WS/OL_VSC_vitor/Dave/Generated/CMSIS_DSP\arm_math.h ****    * Copyright Notice
 164:F:/Projects/20190909 - 3phase_inverter/3phase_inverter/4. Software_WS/OL_VSC_vitor/Dave/Generated/CMSIS_DSP\arm_math.h ****    * ------------
 165:F:/Projects/20190909 - 3phase_inverter/3phase_inverter/4. Software_WS/OL_VSC_vitor/Dave/Generated/CMSIS_DSP\arm_math.h ****    *
 166:F:/Projects/20190909 - 3phase_inverter/3phase_inverter/4. Software_WS/OL_VSC_vitor/Dave/Generated/CMSIS_DSP\arm_math.h ****    * Copyright (C) 2010-2015 ARM Limited. All rights reserved.
 167:F:/Projects/20190909 - 3phase_inverter/3phase_inverter/4. Software_WS/OL_VSC_vitor/Dave/Generated/CMSIS_DSP\arm_math.h ****    */
 168:F:/Projects/20190909 - 3phase_inverter/3phase_inverter/4. Software_WS/OL_VSC_vitor/Dave/Generated/CMSIS_DSP\arm_math.h **** 
 169:F:/Projects/20190909 - 3phase_inverter/3phase_inverter/4. Software_WS/OL_VSC_vitor/Dave/Generated/CMSIS_DSP\arm_math.h **** 
 170:F:/Projects/20190909 - 3phase_inverter/3phase_inverter/4. Software_WS/OL_VSC_vitor/Dave/Generated/CMSIS_DSP\arm_math.h **** /**
 171:F:/Projects/20190909 - 3phase_inverter/3phase_inverter/4. Software_WS/OL_VSC_vitor/Dave/Generated/CMSIS_DSP\arm_math.h ****  * @defgroup groupMath Basic Math Functions
 172:F:/Projects/20190909 - 3phase_inverter/3phase_inverter/4. Software_WS/OL_VSC_vitor/Dave/Generated/CMSIS_DSP\arm_math.h ****  */
 173:F:/Projects/20190909 - 3phase_inverter/3phase_inverter/4. Software_WS/OL_VSC_vitor/Dave/Generated/CMSIS_DSP\arm_math.h **** 
 174:F:/Projects/20190909 - 3phase_inverter/3phase_inverter/4. Software_WS/OL_VSC_vitor/Dave/Generated/CMSIS_DSP\arm_math.h **** /**
 175:F:/Projects/20190909 - 3phase_inverter/3phase_inverter/4. Software_WS/OL_VSC_vitor/Dave/Generated/CMSIS_DSP\arm_math.h ****  * @defgroup groupFastMath Fast Math Functions
 176:F:/Projects/20190909 - 3phase_inverter/3phase_inverter/4. Software_WS/OL_VSC_vitor/Dave/Generated/CMSIS_DSP\arm_math.h ****  * This set of functions provides a fast approximation to sine, cosine, and square root.
 177:F:/Projects/20190909 - 3phase_inverter/3phase_inverter/4. Software_WS/OL_VSC_vitor/Dave/Generated/CMSIS_DSP\arm_math.h ****  * As compared to most of the other functions in the CMSIS math library, the fast math functions
 178:F:/Projects/20190909 - 3phase_inverter/3phase_inverter/4. Software_WS/OL_VSC_vitor/Dave/Generated/CMSIS_DSP\arm_math.h ****  * operate on individual values and not arrays.
 179:F:/Projects/20190909 - 3phase_inverter/3phase_inverter/4. Software_WS/OL_VSC_vitor/Dave/Generated/CMSIS_DSP\arm_math.h ****  * There are separate functions for Q15, Q31, and floating-point data.
 180:F:/Projects/20190909 - 3phase_inverter/3phase_inverter/4. Software_WS/OL_VSC_vitor/Dave/Generated/CMSIS_DSP\arm_math.h ****  *
 181:F:/Projects/20190909 - 3phase_inverter/3phase_inverter/4. Software_WS/OL_VSC_vitor/Dave/Generated/CMSIS_DSP\arm_math.h ****  */
 182:F:/Projects/20190909 - 3phase_inverter/3phase_inverter/4. Software_WS/OL_VSC_vitor/Dave/Generated/CMSIS_DSP\arm_math.h **** 
 183:F:/Projects/20190909 - 3phase_inverter/3phase_inverter/4. Software_WS/OL_VSC_vitor/Dave/Generated/CMSIS_DSP\arm_math.h **** /**
 184:F:/Projects/20190909 - 3phase_inverter/3phase_inverter/4. Software_WS/OL_VSC_vitor/Dave/Generated/CMSIS_DSP\arm_math.h ****  * @defgroup groupCmplxMath Complex Math Functions
 185:F:/Projects/20190909 - 3phase_inverter/3phase_inverter/4. Software_WS/OL_VSC_vitor/Dave/Generated/CMSIS_DSP\arm_math.h ****  * This set of functions operates on complex data vectors.
 186:F:/Projects/20190909 - 3phase_inverter/3phase_inverter/4. Software_WS/OL_VSC_vitor/Dave/Generated/CMSIS_DSP\arm_math.h ****  * The data in the complex arrays is stored in an interleaved fashion
 187:F:/Projects/20190909 - 3phase_inverter/3phase_inverter/4. Software_WS/OL_VSC_vitor/Dave/Generated/CMSIS_DSP\arm_math.h ****  * (real, imag, real, imag, ...).
 188:F:/Projects/20190909 - 3phase_inverter/3phase_inverter/4. Software_WS/OL_VSC_vitor/Dave/Generated/CMSIS_DSP\arm_math.h ****  * In the API functions, the number of samples in a complex array refers
 189:F:/Projects/20190909 - 3phase_inverter/3phase_inverter/4. Software_WS/OL_VSC_vitor/Dave/Generated/CMSIS_DSP\arm_math.h ****  * to the number of complex values; the array contains twice this number of
 190:F:/Projects/20190909 - 3phase_inverter/3phase_inverter/4. Software_WS/OL_VSC_vitor/Dave/Generated/CMSIS_DSP\arm_math.h ****  * real values.
 191:F:/Projects/20190909 - 3phase_inverter/3phase_inverter/4. Software_WS/OL_VSC_vitor/Dave/Generated/CMSIS_DSP\arm_math.h ****  */
 192:F:/Projects/20190909 - 3phase_inverter/3phase_inverter/4. Software_WS/OL_VSC_vitor/Dave/Generated/CMSIS_DSP\arm_math.h **** 
 193:F:/Projects/20190909 - 3phase_inverter/3phase_inverter/4. Software_WS/OL_VSC_vitor/Dave/Generated/CMSIS_DSP\arm_math.h **** /**
 194:F:/Projects/20190909 - 3phase_inverter/3phase_inverter/4. Software_WS/OL_VSC_vitor/Dave/Generated/CMSIS_DSP\arm_math.h ****  * @defgroup groupFilters Filtering Functions
 195:F:/Projects/20190909 - 3phase_inverter/3phase_inverter/4. Software_WS/OL_VSC_vitor/Dave/Generated/CMSIS_DSP\arm_math.h ****  */
 196:F:/Projects/20190909 - 3phase_inverter/3phase_inverter/4. Software_WS/OL_VSC_vitor/Dave/Generated/CMSIS_DSP\arm_math.h **** 
 197:F:/Projects/20190909 - 3phase_inverter/3phase_inverter/4. Software_WS/OL_VSC_vitor/Dave/Generated/CMSIS_DSP\arm_math.h **** /**
 198:F:/Projects/20190909 - 3phase_inverter/3phase_inverter/4. Software_WS/OL_VSC_vitor/Dave/Generated/CMSIS_DSP\arm_math.h ****  * @defgroup groupMatrix Matrix Functions
 199:F:/Projects/20190909 - 3phase_inverter/3phase_inverter/4. Software_WS/OL_VSC_vitor/Dave/Generated/CMSIS_DSP\arm_math.h ****  *
 200:F:/Projects/20190909 - 3phase_inverter/3phase_inverter/4. Software_WS/OL_VSC_vitor/Dave/Generated/CMSIS_DSP\arm_math.h ****  * This set of functions provides basic matrix math operations.
 201:F:/Projects/20190909 - 3phase_inverter/3phase_inverter/4. Software_WS/OL_VSC_vitor/Dave/Generated/CMSIS_DSP\arm_math.h ****  * The functions operate on matrix data structures.  For example,
 202:F:/Projects/20190909 - 3phase_inverter/3phase_inverter/4. Software_WS/OL_VSC_vitor/Dave/Generated/CMSIS_DSP\arm_math.h ****  * the type
 203:F:/Projects/20190909 - 3phase_inverter/3phase_inverter/4. Software_WS/OL_VSC_vitor/Dave/Generated/CMSIS_DSP\arm_math.h ****  * definition for the floating-point matrix structure is shown
 204:F:/Projects/20190909 - 3phase_inverter/3phase_inverter/4. Software_WS/OL_VSC_vitor/Dave/Generated/CMSIS_DSP\arm_math.h ****  * below:
 205:F:/Projects/20190909 - 3phase_inverter/3phase_inverter/4. Software_WS/OL_VSC_vitor/Dave/Generated/CMSIS_DSP\arm_math.h ****  * <pre>
 206:F:/Projects/20190909 - 3phase_inverter/3phase_inverter/4. Software_WS/OL_VSC_vitor/Dave/Generated/CMSIS_DSP\arm_math.h ****  *     typedef struct
 207:F:/Projects/20190909 - 3phase_inverter/3phase_inverter/4. Software_WS/OL_VSC_vitor/Dave/Generated/CMSIS_DSP\arm_math.h ****  *     {
 208:F:/Projects/20190909 - 3phase_inverter/3phase_inverter/4. Software_WS/OL_VSC_vitor/Dave/Generated/CMSIS_DSP\arm_math.h ****  *       uint16_t numRows;     // number of rows of the matrix.
 209:F:/Projects/20190909 - 3phase_inverter/3phase_inverter/4. Software_WS/OL_VSC_vitor/Dave/Generated/CMSIS_DSP\arm_math.h ****  *       uint16_t numCols;     // number of columns of the matrix.
 210:F:/Projects/20190909 - 3phase_inverter/3phase_inverter/4. Software_WS/OL_VSC_vitor/Dave/Generated/CMSIS_DSP\arm_math.h ****  *       float32_t *pData;     // points to the data of the matrix.
 211:F:/Projects/20190909 - 3phase_inverter/3phase_inverter/4. Software_WS/OL_VSC_vitor/Dave/Generated/CMSIS_DSP\arm_math.h ****  *     } arm_matrix_instance_f32;
 212:F:/Projects/20190909 - 3phase_inverter/3phase_inverter/4. Software_WS/OL_VSC_vitor/Dave/Generated/CMSIS_DSP\arm_math.h ****  * </pre>
 213:F:/Projects/20190909 - 3phase_inverter/3phase_inverter/4. Software_WS/OL_VSC_vitor/Dave/Generated/CMSIS_DSP\arm_math.h ****  * There are similar definitions for Q15 and Q31 data types.
 214:F:/Projects/20190909 - 3phase_inverter/3phase_inverter/4. Software_WS/OL_VSC_vitor/Dave/Generated/CMSIS_DSP\arm_math.h ****  *
 215:F:/Projects/20190909 - 3phase_inverter/3phase_inverter/4. Software_WS/OL_VSC_vitor/Dave/Generated/CMSIS_DSP\arm_math.h ****  * The structure specifies the size of the matrix and then points to
 216:F:/Projects/20190909 - 3phase_inverter/3phase_inverter/4. Software_WS/OL_VSC_vitor/Dave/Generated/CMSIS_DSP\arm_math.h ****  * an array of data.  The array is of size <code>numRows X numCols</code>
 217:F:/Projects/20190909 - 3phase_inverter/3phase_inverter/4. Software_WS/OL_VSC_vitor/Dave/Generated/CMSIS_DSP\arm_math.h ****  * and the values are arranged in row order.  That is, the
 218:F:/Projects/20190909 - 3phase_inverter/3phase_inverter/4. Software_WS/OL_VSC_vitor/Dave/Generated/CMSIS_DSP\arm_math.h ****  * matrix element (i, j) is stored at:
 219:F:/Projects/20190909 - 3phase_inverter/3phase_inverter/4. Software_WS/OL_VSC_vitor/Dave/Generated/CMSIS_DSP\arm_math.h ****  * <pre>
 220:F:/Projects/20190909 - 3phase_inverter/3phase_inverter/4. Software_WS/OL_VSC_vitor/Dave/Generated/CMSIS_DSP\arm_math.h ****  *     pData[i*numCols + j]
 221:F:/Projects/20190909 - 3phase_inverter/3phase_inverter/4. Software_WS/OL_VSC_vitor/Dave/Generated/CMSIS_DSP\arm_math.h ****  * </pre>
 222:F:/Projects/20190909 - 3phase_inverter/3phase_inverter/4. Software_WS/OL_VSC_vitor/Dave/Generated/CMSIS_DSP\arm_math.h ****  *
 223:F:/Projects/20190909 - 3phase_inverter/3phase_inverter/4. Software_WS/OL_VSC_vitor/Dave/Generated/CMSIS_DSP\arm_math.h ****  * \par Init Functions
 224:F:/Projects/20190909 - 3phase_inverter/3phase_inverter/4. Software_WS/OL_VSC_vitor/Dave/Generated/CMSIS_DSP\arm_math.h ****  * There is an associated initialization function for each type of matrix
 225:F:/Projects/20190909 - 3phase_inverter/3phase_inverter/4. Software_WS/OL_VSC_vitor/Dave/Generated/CMSIS_DSP\arm_math.h ****  * data structure.
 226:F:/Projects/20190909 - 3phase_inverter/3phase_inverter/4. Software_WS/OL_VSC_vitor/Dave/Generated/CMSIS_DSP\arm_math.h ****  * The initialization function sets the values of the internal structure fields.
 227:F:/Projects/20190909 - 3phase_inverter/3phase_inverter/4. Software_WS/OL_VSC_vitor/Dave/Generated/CMSIS_DSP\arm_math.h ****  * Refer to the function <code>arm_mat_init_f32()</code>, <code>arm_mat_init_q31()</code>
 228:F:/Projects/20190909 - 3phase_inverter/3phase_inverter/4. Software_WS/OL_VSC_vitor/Dave/Generated/CMSIS_DSP\arm_math.h ****  * and <code>arm_mat_init_q15()</code> for floating-point, Q31 and Q15 types,  respectively.
 229:F:/Projects/20190909 - 3phase_inverter/3phase_inverter/4. Software_WS/OL_VSC_vitor/Dave/Generated/CMSIS_DSP\arm_math.h ****  *
 230:F:/Projects/20190909 - 3phase_inverter/3phase_inverter/4. Software_WS/OL_VSC_vitor/Dave/Generated/CMSIS_DSP\arm_math.h ****  * \par
 231:F:/Projects/20190909 - 3phase_inverter/3phase_inverter/4. Software_WS/OL_VSC_vitor/Dave/Generated/CMSIS_DSP\arm_math.h ****  * Use of the initialization function is optional. However, if initialization function is used
 232:F:/Projects/20190909 - 3phase_inverter/3phase_inverter/4. Software_WS/OL_VSC_vitor/Dave/Generated/CMSIS_DSP\arm_math.h ****  * then the instance structure cannot be placed into a const data section.
 233:F:/Projects/20190909 - 3phase_inverter/3phase_inverter/4. Software_WS/OL_VSC_vitor/Dave/Generated/CMSIS_DSP\arm_math.h ****  * To place the instance structure in a const data
 234:F:/Projects/20190909 - 3phase_inverter/3phase_inverter/4. Software_WS/OL_VSC_vitor/Dave/Generated/CMSIS_DSP\arm_math.h ****  * section, manually initialize the data structure.  For example:
 235:F:/Projects/20190909 - 3phase_inverter/3phase_inverter/4. Software_WS/OL_VSC_vitor/Dave/Generated/CMSIS_DSP\arm_math.h ****  * <pre>
 236:F:/Projects/20190909 - 3phase_inverter/3phase_inverter/4. Software_WS/OL_VSC_vitor/Dave/Generated/CMSIS_DSP\arm_math.h ****  * <code>arm_matrix_instance_f32 S = {nRows, nColumns, pData};</code>
 237:F:/Projects/20190909 - 3phase_inverter/3phase_inverter/4. Software_WS/OL_VSC_vitor/Dave/Generated/CMSIS_DSP\arm_math.h ****  * <code>arm_matrix_instance_q31 S = {nRows, nColumns, pData};</code>
 238:F:/Projects/20190909 - 3phase_inverter/3phase_inverter/4. Software_WS/OL_VSC_vitor/Dave/Generated/CMSIS_DSP\arm_math.h ****  * <code>arm_matrix_instance_q15 S = {nRows, nColumns, pData};</code>
 239:F:/Projects/20190909 - 3phase_inverter/3phase_inverter/4. Software_WS/OL_VSC_vitor/Dave/Generated/CMSIS_DSP\arm_math.h ****  * </pre>
 240:F:/Projects/20190909 - 3phase_inverter/3phase_inverter/4. Software_WS/OL_VSC_vitor/Dave/Generated/CMSIS_DSP\arm_math.h ****  * where <code>nRows</code> specifies the number of rows, <code>nColumns</code>
 241:F:/Projects/20190909 - 3phase_inverter/3phase_inverter/4. Software_WS/OL_VSC_vitor/Dave/Generated/CMSIS_DSP\arm_math.h ****  * specifies the number of columns, and <code>pData</code> points to the
 242:F:/Projects/20190909 - 3phase_inverter/3phase_inverter/4. Software_WS/OL_VSC_vitor/Dave/Generated/CMSIS_DSP\arm_math.h ****  * data array.
 243:F:/Projects/20190909 - 3phase_inverter/3phase_inverter/4. Software_WS/OL_VSC_vitor/Dave/Generated/CMSIS_DSP\arm_math.h ****  *
 244:F:/Projects/20190909 - 3phase_inverter/3phase_inverter/4. Software_WS/OL_VSC_vitor/Dave/Generated/CMSIS_DSP\arm_math.h ****  * \par Size Checking
 245:F:/Projects/20190909 - 3phase_inverter/3phase_inverter/4. Software_WS/OL_VSC_vitor/Dave/Generated/CMSIS_DSP\arm_math.h ****  * By default all of the matrix functions perform size checking on the input and
 246:F:/Projects/20190909 - 3phase_inverter/3phase_inverter/4. Software_WS/OL_VSC_vitor/Dave/Generated/CMSIS_DSP\arm_math.h ****  * output matrices.  For example, the matrix addition function verifies that the
 247:F:/Projects/20190909 - 3phase_inverter/3phase_inverter/4. Software_WS/OL_VSC_vitor/Dave/Generated/CMSIS_DSP\arm_math.h ****  * two input matrices and the output matrix all have the same number of rows and
 248:F:/Projects/20190909 - 3phase_inverter/3phase_inverter/4. Software_WS/OL_VSC_vitor/Dave/Generated/CMSIS_DSP\arm_math.h ****  * columns.  If the size check fails the functions return:
 249:F:/Projects/20190909 - 3phase_inverter/3phase_inverter/4. Software_WS/OL_VSC_vitor/Dave/Generated/CMSIS_DSP\arm_math.h ****  * <pre>
 250:F:/Projects/20190909 - 3phase_inverter/3phase_inverter/4. Software_WS/OL_VSC_vitor/Dave/Generated/CMSIS_DSP\arm_math.h ****  *     ARM_MATH_SIZE_MISMATCH
 251:F:/Projects/20190909 - 3phase_inverter/3phase_inverter/4. Software_WS/OL_VSC_vitor/Dave/Generated/CMSIS_DSP\arm_math.h ****  * </pre>
 252:F:/Projects/20190909 - 3phase_inverter/3phase_inverter/4. Software_WS/OL_VSC_vitor/Dave/Generated/CMSIS_DSP\arm_math.h ****  * Otherwise the functions return
 253:F:/Projects/20190909 - 3phase_inverter/3phase_inverter/4. Software_WS/OL_VSC_vitor/Dave/Generated/CMSIS_DSP\arm_math.h ****  * <pre>
 254:F:/Projects/20190909 - 3phase_inverter/3phase_inverter/4. Software_WS/OL_VSC_vitor/Dave/Generated/CMSIS_DSP\arm_math.h ****  *     ARM_MATH_SUCCESS
 255:F:/Projects/20190909 - 3phase_inverter/3phase_inverter/4. Software_WS/OL_VSC_vitor/Dave/Generated/CMSIS_DSP\arm_math.h ****  * </pre>
 256:F:/Projects/20190909 - 3phase_inverter/3phase_inverter/4. Software_WS/OL_VSC_vitor/Dave/Generated/CMSIS_DSP\arm_math.h ****  * There is some overhead associated with this matrix size checking.
 257:F:/Projects/20190909 - 3phase_inverter/3phase_inverter/4. Software_WS/OL_VSC_vitor/Dave/Generated/CMSIS_DSP\arm_math.h ****  * The matrix size checking is enabled via the \#define
 258:F:/Projects/20190909 - 3phase_inverter/3phase_inverter/4. Software_WS/OL_VSC_vitor/Dave/Generated/CMSIS_DSP\arm_math.h ****  * <pre>
 259:F:/Projects/20190909 - 3phase_inverter/3phase_inverter/4. Software_WS/OL_VSC_vitor/Dave/Generated/CMSIS_DSP\arm_math.h ****  *     ARM_MATH_MATRIX_CHECK
 260:F:/Projects/20190909 - 3phase_inverter/3phase_inverter/4. Software_WS/OL_VSC_vitor/Dave/Generated/CMSIS_DSP\arm_math.h ****  * </pre>
 261:F:/Projects/20190909 - 3phase_inverter/3phase_inverter/4. Software_WS/OL_VSC_vitor/Dave/Generated/CMSIS_DSP\arm_math.h ****  * within the library project settings.  By default this macro is defined
 262:F:/Projects/20190909 - 3phase_inverter/3phase_inverter/4. Software_WS/OL_VSC_vitor/Dave/Generated/CMSIS_DSP\arm_math.h ****  * and size checking is enabled.  By changing the project settings and
 263:F:/Projects/20190909 - 3phase_inverter/3phase_inverter/4. Software_WS/OL_VSC_vitor/Dave/Generated/CMSIS_DSP\arm_math.h ****  * undefining this macro size checking is eliminated and the functions
 264:F:/Projects/20190909 - 3phase_inverter/3phase_inverter/4. Software_WS/OL_VSC_vitor/Dave/Generated/CMSIS_DSP\arm_math.h ****  * run a bit faster.  With size checking disabled the functions always
 265:F:/Projects/20190909 - 3phase_inverter/3phase_inverter/4. Software_WS/OL_VSC_vitor/Dave/Generated/CMSIS_DSP\arm_math.h ****  * return <code>ARM_MATH_SUCCESS</code>.
 266:F:/Projects/20190909 - 3phase_inverter/3phase_inverter/4. Software_WS/OL_VSC_vitor/Dave/Generated/CMSIS_DSP\arm_math.h ****  */
 267:F:/Projects/20190909 - 3phase_inverter/3phase_inverter/4. Software_WS/OL_VSC_vitor/Dave/Generated/CMSIS_DSP\arm_math.h **** 
 268:F:/Projects/20190909 - 3phase_inverter/3phase_inverter/4. Software_WS/OL_VSC_vitor/Dave/Generated/CMSIS_DSP\arm_math.h **** /**
 269:F:/Projects/20190909 - 3phase_inverter/3phase_inverter/4. Software_WS/OL_VSC_vitor/Dave/Generated/CMSIS_DSP\arm_math.h ****  * @defgroup groupTransforms Transform Functions
 270:F:/Projects/20190909 - 3phase_inverter/3phase_inverter/4. Software_WS/OL_VSC_vitor/Dave/Generated/CMSIS_DSP\arm_math.h ****  */
 271:F:/Projects/20190909 - 3phase_inverter/3phase_inverter/4. Software_WS/OL_VSC_vitor/Dave/Generated/CMSIS_DSP\arm_math.h **** 
 272:F:/Projects/20190909 - 3phase_inverter/3phase_inverter/4. Software_WS/OL_VSC_vitor/Dave/Generated/CMSIS_DSP\arm_math.h **** /**
 273:F:/Projects/20190909 - 3phase_inverter/3phase_inverter/4. Software_WS/OL_VSC_vitor/Dave/Generated/CMSIS_DSP\arm_math.h ****  * @defgroup groupController Controller Functions
 274:F:/Projects/20190909 - 3phase_inverter/3phase_inverter/4. Software_WS/OL_VSC_vitor/Dave/Generated/CMSIS_DSP\arm_math.h ****  */
 275:F:/Projects/20190909 - 3phase_inverter/3phase_inverter/4. Software_WS/OL_VSC_vitor/Dave/Generated/CMSIS_DSP\arm_math.h **** 
 276:F:/Projects/20190909 - 3phase_inverter/3phase_inverter/4. Software_WS/OL_VSC_vitor/Dave/Generated/CMSIS_DSP\arm_math.h **** /**
 277:F:/Projects/20190909 - 3phase_inverter/3phase_inverter/4. Software_WS/OL_VSC_vitor/Dave/Generated/CMSIS_DSP\arm_math.h ****  * @defgroup groupStats Statistics Functions
 278:F:/Projects/20190909 - 3phase_inverter/3phase_inverter/4. Software_WS/OL_VSC_vitor/Dave/Generated/CMSIS_DSP\arm_math.h ****  */
 279:F:/Projects/20190909 - 3phase_inverter/3phase_inverter/4. Software_WS/OL_VSC_vitor/Dave/Generated/CMSIS_DSP\arm_math.h **** /**
 280:F:/Projects/20190909 - 3phase_inverter/3phase_inverter/4. Software_WS/OL_VSC_vitor/Dave/Generated/CMSIS_DSP\arm_math.h ****  * @defgroup groupSupport Support Functions
 281:F:/Projects/20190909 - 3phase_inverter/3phase_inverter/4. Software_WS/OL_VSC_vitor/Dave/Generated/CMSIS_DSP\arm_math.h ****  */
 282:F:/Projects/20190909 - 3phase_inverter/3phase_inverter/4. Software_WS/OL_VSC_vitor/Dave/Generated/CMSIS_DSP\arm_math.h **** 
 283:F:/Projects/20190909 - 3phase_inverter/3phase_inverter/4. Software_WS/OL_VSC_vitor/Dave/Generated/CMSIS_DSP\arm_math.h **** /**
 284:F:/Projects/20190909 - 3phase_inverter/3phase_inverter/4. Software_WS/OL_VSC_vitor/Dave/Generated/CMSIS_DSP\arm_math.h ****  * @defgroup groupInterpolation Interpolation Functions
 285:F:/Projects/20190909 - 3phase_inverter/3phase_inverter/4. Software_WS/OL_VSC_vitor/Dave/Generated/CMSIS_DSP\arm_math.h ****  * These functions perform 1- and 2-dimensional interpolation of data.
 286:F:/Projects/20190909 - 3phase_inverter/3phase_inverter/4. Software_WS/OL_VSC_vitor/Dave/Generated/CMSIS_DSP\arm_math.h ****  * Linear interpolation is used for 1-dimensional data and
 287:F:/Projects/20190909 - 3phase_inverter/3phase_inverter/4. Software_WS/OL_VSC_vitor/Dave/Generated/CMSIS_DSP\arm_math.h ****  * bilinear interpolation is used for 2-dimensional data.
 288:F:/Projects/20190909 - 3phase_inverter/3phase_inverter/4. Software_WS/OL_VSC_vitor/Dave/Generated/CMSIS_DSP\arm_math.h ****  */
 289:F:/Projects/20190909 - 3phase_inverter/3phase_inverter/4. Software_WS/OL_VSC_vitor/Dave/Generated/CMSIS_DSP\arm_math.h **** 
 290:F:/Projects/20190909 - 3phase_inverter/3phase_inverter/4. Software_WS/OL_VSC_vitor/Dave/Generated/CMSIS_DSP\arm_math.h **** /**
 291:F:/Projects/20190909 - 3phase_inverter/3phase_inverter/4. Software_WS/OL_VSC_vitor/Dave/Generated/CMSIS_DSP\arm_math.h ****  * @defgroup groupExamples Examples
 292:F:/Projects/20190909 - 3phase_inverter/3phase_inverter/4. Software_WS/OL_VSC_vitor/Dave/Generated/CMSIS_DSP\arm_math.h ****  */
 293:F:/Projects/20190909 - 3phase_inverter/3phase_inverter/4. Software_WS/OL_VSC_vitor/Dave/Generated/CMSIS_DSP\arm_math.h **** #ifndef _ARM_MATH_H
 294:F:/Projects/20190909 - 3phase_inverter/3phase_inverter/4. Software_WS/OL_VSC_vitor/Dave/Generated/CMSIS_DSP\arm_math.h **** #define _ARM_MATH_H
 295:F:/Projects/20190909 - 3phase_inverter/3phase_inverter/4. Software_WS/OL_VSC_vitor/Dave/Generated/CMSIS_DSP\arm_math.h **** 
 296:F:/Projects/20190909 - 3phase_inverter/3phase_inverter/4. Software_WS/OL_VSC_vitor/Dave/Generated/CMSIS_DSP\arm_math.h **** /* ignore some GCC warnings */
 297:F:/Projects/20190909 - 3phase_inverter/3phase_inverter/4. Software_WS/OL_VSC_vitor/Dave/Generated/CMSIS_DSP\arm_math.h **** #if defined ( __GNUC__ )
 298:F:/Projects/20190909 - 3phase_inverter/3phase_inverter/4. Software_WS/OL_VSC_vitor/Dave/Generated/CMSIS_DSP\arm_math.h **** #pragma GCC diagnostic push
 299:F:/Projects/20190909 - 3phase_inverter/3phase_inverter/4. Software_WS/OL_VSC_vitor/Dave/Generated/CMSIS_DSP\arm_math.h **** #pragma GCC diagnostic ignored "-Wsign-conversion"
 300:F:/Projects/20190909 - 3phase_inverter/3phase_inverter/4. Software_WS/OL_VSC_vitor/Dave/Generated/CMSIS_DSP\arm_math.h **** #pragma GCC diagnostic ignored "-Wconversion"
 301:F:/Projects/20190909 - 3phase_inverter/3phase_inverter/4. Software_WS/OL_VSC_vitor/Dave/Generated/CMSIS_DSP\arm_math.h **** #pragma GCC diagnostic ignored "-Wunused-parameter"
 302:F:/Projects/20190909 - 3phase_inverter/3phase_inverter/4. Software_WS/OL_VSC_vitor/Dave/Generated/CMSIS_DSP\arm_math.h **** #endif
 303:F:/Projects/20190909 - 3phase_inverter/3phase_inverter/4. Software_WS/OL_VSC_vitor/Dave/Generated/CMSIS_DSP\arm_math.h **** 
 304:F:/Projects/20190909 - 3phase_inverter/3phase_inverter/4. Software_WS/OL_VSC_vitor/Dave/Generated/CMSIS_DSP\arm_math.h **** #define __CMSIS_GENERIC         /* disable NVIC and Systick functions */
 305:F:/Projects/20190909 - 3phase_inverter/3phase_inverter/4. Software_WS/OL_VSC_vitor/Dave/Generated/CMSIS_DSP\arm_math.h **** 
 306:F:/Projects/20190909 - 3phase_inverter/3phase_inverter/4. Software_WS/OL_VSC_vitor/Dave/Generated/CMSIS_DSP\arm_math.h **** #if defined(ARM_MATH_CM7)
 307:F:/Projects/20190909 - 3phase_inverter/3phase_inverter/4. Software_WS/OL_VSC_vitor/Dave/Generated/CMSIS_DSP\arm_math.h ****   #include "core_cm7.h"
 308:F:/Projects/20190909 - 3phase_inverter/3phase_inverter/4. Software_WS/OL_VSC_vitor/Dave/Generated/CMSIS_DSP\arm_math.h ****   #define ARM_MATH_DSP
 309:F:/Projects/20190909 - 3phase_inverter/3phase_inverter/4. Software_WS/OL_VSC_vitor/Dave/Generated/CMSIS_DSP\arm_math.h **** #elif defined (ARM_MATH_CM4)
 310:F:/Projects/20190909 - 3phase_inverter/3phase_inverter/4. Software_WS/OL_VSC_vitor/Dave/Generated/CMSIS_DSP\arm_math.h ****   #include "core_cm4.h"
 311:F:/Projects/20190909 - 3phase_inverter/3phase_inverter/4. Software_WS/OL_VSC_vitor/Dave/Generated/CMSIS_DSP\arm_math.h ****   #define ARM_MATH_DSP
 312:F:/Projects/20190909 - 3phase_inverter/3phase_inverter/4. Software_WS/OL_VSC_vitor/Dave/Generated/CMSIS_DSP\arm_math.h **** #elif defined (ARM_MATH_CM3)
 313:F:/Projects/20190909 - 3phase_inverter/3phase_inverter/4. Software_WS/OL_VSC_vitor/Dave/Generated/CMSIS_DSP\arm_math.h ****   #include "core_cm3.h"
 314:F:/Projects/20190909 - 3phase_inverter/3phase_inverter/4. Software_WS/OL_VSC_vitor/Dave/Generated/CMSIS_DSP\arm_math.h **** #elif defined (ARM_MATH_CM0)
 315:F:/Projects/20190909 - 3phase_inverter/3phase_inverter/4. Software_WS/OL_VSC_vitor/Dave/Generated/CMSIS_DSP\arm_math.h ****   #include "core_cm0.h"
 316:F:/Projects/20190909 - 3phase_inverter/3phase_inverter/4. Software_WS/OL_VSC_vitor/Dave/Generated/CMSIS_DSP\arm_math.h ****   #define ARM_MATH_CM0_FAMILY
 317:F:/Projects/20190909 - 3phase_inverter/3phase_inverter/4. Software_WS/OL_VSC_vitor/Dave/Generated/CMSIS_DSP\arm_math.h **** #elif defined (ARM_MATH_CM0PLUS)
 318:F:/Projects/20190909 - 3phase_inverter/3phase_inverter/4. Software_WS/OL_VSC_vitor/Dave/Generated/CMSIS_DSP\arm_math.h ****   #include "core_cm0plus.h"
 319:F:/Projects/20190909 - 3phase_inverter/3phase_inverter/4. Software_WS/OL_VSC_vitor/Dave/Generated/CMSIS_DSP\arm_math.h ****   #define ARM_MATH_CM0_FAMILY
 320:F:/Projects/20190909 - 3phase_inverter/3phase_inverter/4. Software_WS/OL_VSC_vitor/Dave/Generated/CMSIS_DSP\arm_math.h **** #elif defined (ARM_MATH_ARMV8MBL)
 321:F:/Projects/20190909 - 3phase_inverter/3phase_inverter/4. Software_WS/OL_VSC_vitor/Dave/Generated/CMSIS_DSP\arm_math.h ****   #include "core_armv8mbl.h"
 322:F:/Projects/20190909 - 3phase_inverter/3phase_inverter/4. Software_WS/OL_VSC_vitor/Dave/Generated/CMSIS_DSP\arm_math.h ****   #define ARM_MATH_CM0_FAMILY
 323:F:/Projects/20190909 - 3phase_inverter/3phase_inverter/4. Software_WS/OL_VSC_vitor/Dave/Generated/CMSIS_DSP\arm_math.h **** #elif defined (ARM_MATH_ARMV8MML)
 324:F:/Projects/20190909 - 3phase_inverter/3phase_inverter/4. Software_WS/OL_VSC_vitor/Dave/Generated/CMSIS_DSP\arm_math.h ****   #include "core_armv8mml.h"
 325:F:/Projects/20190909 - 3phase_inverter/3phase_inverter/4. Software_WS/OL_VSC_vitor/Dave/Generated/CMSIS_DSP\arm_math.h ****   #if (defined (__DSP_PRESENT) && (__DSP_PRESENT == 1))
 326:F:/Projects/20190909 - 3phase_inverter/3phase_inverter/4. Software_WS/OL_VSC_vitor/Dave/Generated/CMSIS_DSP\arm_math.h ****     #define ARM_MATH_DSP
 327:F:/Projects/20190909 - 3phase_inverter/3phase_inverter/4. Software_WS/OL_VSC_vitor/Dave/Generated/CMSIS_DSP\arm_math.h ****   #endif
 328:F:/Projects/20190909 - 3phase_inverter/3phase_inverter/4. Software_WS/OL_VSC_vitor/Dave/Generated/CMSIS_DSP\arm_math.h **** #else
 329:F:/Projects/20190909 - 3phase_inverter/3phase_inverter/4. Software_WS/OL_VSC_vitor/Dave/Generated/CMSIS_DSP\arm_math.h ****   #error "Define according the used Cortex core ARM_MATH_CM7, ARM_MATH_CM4, ARM_MATH_CM3, ARM_MATH_
 330:F:/Projects/20190909 - 3phase_inverter/3phase_inverter/4. Software_WS/OL_VSC_vitor/Dave/Generated/CMSIS_DSP\arm_math.h **** #endif
 331:F:/Projects/20190909 - 3phase_inverter/3phase_inverter/4. Software_WS/OL_VSC_vitor/Dave/Generated/CMSIS_DSP\arm_math.h **** 
 332:F:/Projects/20190909 - 3phase_inverter/3phase_inverter/4. Software_WS/OL_VSC_vitor/Dave/Generated/CMSIS_DSP\arm_math.h **** #undef  __CMSIS_GENERIC         /* enable NVIC and Systick functions */
 333:F:/Projects/20190909 - 3phase_inverter/3phase_inverter/4. Software_WS/OL_VSC_vitor/Dave/Generated/CMSIS_DSP\arm_math.h **** #include "string.h"
 334:F:/Projects/20190909 - 3phase_inverter/3phase_inverter/4. Software_WS/OL_VSC_vitor/Dave/Generated/CMSIS_DSP\arm_math.h **** #include "math.h"
 335:F:/Projects/20190909 - 3phase_inverter/3phase_inverter/4. Software_WS/OL_VSC_vitor/Dave/Generated/CMSIS_DSP\arm_math.h **** #ifdef   __cplusplus
 336:F:/Projects/20190909 - 3phase_inverter/3phase_inverter/4. Software_WS/OL_VSC_vitor/Dave/Generated/CMSIS_DSP\arm_math.h **** extern "C"
 337:F:/Projects/20190909 - 3phase_inverter/3phase_inverter/4. Software_WS/OL_VSC_vitor/Dave/Generated/CMSIS_DSP\arm_math.h **** {
 338:F:/Projects/20190909 - 3phase_inverter/3phase_inverter/4. Software_WS/OL_VSC_vitor/Dave/Generated/CMSIS_DSP\arm_math.h **** #endif
 339:F:/Projects/20190909 - 3phase_inverter/3phase_inverter/4. Software_WS/OL_VSC_vitor/Dave/Generated/CMSIS_DSP\arm_math.h **** 
 340:F:/Projects/20190909 - 3phase_inverter/3phase_inverter/4. Software_WS/OL_VSC_vitor/Dave/Generated/CMSIS_DSP\arm_math.h **** 
 341:F:/Projects/20190909 - 3phase_inverter/3phase_inverter/4. Software_WS/OL_VSC_vitor/Dave/Generated/CMSIS_DSP\arm_math.h ****   /**
 342:F:/Projects/20190909 - 3phase_inverter/3phase_inverter/4. Software_WS/OL_VSC_vitor/Dave/Generated/CMSIS_DSP\arm_math.h ****    * @brief Macros required for reciprocal calculation in Normalized LMS
 343:F:/Projects/20190909 - 3phase_inverter/3phase_inverter/4. Software_WS/OL_VSC_vitor/Dave/Generated/CMSIS_DSP\arm_math.h ****    */
 344:F:/Projects/20190909 - 3phase_inverter/3phase_inverter/4. Software_WS/OL_VSC_vitor/Dave/Generated/CMSIS_DSP\arm_math.h **** 
 345:F:/Projects/20190909 - 3phase_inverter/3phase_inverter/4. Software_WS/OL_VSC_vitor/Dave/Generated/CMSIS_DSP\arm_math.h **** #define DELTA_Q31          (0x100)
 346:F:/Projects/20190909 - 3phase_inverter/3phase_inverter/4. Software_WS/OL_VSC_vitor/Dave/Generated/CMSIS_DSP\arm_math.h **** #define DELTA_Q15          0x5
 347:F:/Projects/20190909 - 3phase_inverter/3phase_inverter/4. Software_WS/OL_VSC_vitor/Dave/Generated/CMSIS_DSP\arm_math.h **** #define INDEX_MASK         0x0000003F
 348:F:/Projects/20190909 - 3phase_inverter/3phase_inverter/4. Software_WS/OL_VSC_vitor/Dave/Generated/CMSIS_DSP\arm_math.h **** #ifndef PI
 349:F:/Projects/20190909 - 3phase_inverter/3phase_inverter/4. Software_WS/OL_VSC_vitor/Dave/Generated/CMSIS_DSP\arm_math.h ****   #define PI               3.14159265358979f
 350:F:/Projects/20190909 - 3phase_inverter/3phase_inverter/4. Software_WS/OL_VSC_vitor/Dave/Generated/CMSIS_DSP\arm_math.h **** #endif
 351:F:/Projects/20190909 - 3phase_inverter/3phase_inverter/4. Software_WS/OL_VSC_vitor/Dave/Generated/CMSIS_DSP\arm_math.h **** 
 352:F:/Projects/20190909 - 3phase_inverter/3phase_inverter/4. Software_WS/OL_VSC_vitor/Dave/Generated/CMSIS_DSP\arm_math.h ****   /**
 353:F:/Projects/20190909 - 3phase_inverter/3phase_inverter/4. Software_WS/OL_VSC_vitor/Dave/Generated/CMSIS_DSP\arm_math.h ****    * @brief Macros required for SINE and COSINE Fast math approximations
 354:F:/Projects/20190909 - 3phase_inverter/3phase_inverter/4. Software_WS/OL_VSC_vitor/Dave/Generated/CMSIS_DSP\arm_math.h ****    */
 355:F:/Projects/20190909 - 3phase_inverter/3phase_inverter/4. Software_WS/OL_VSC_vitor/Dave/Generated/CMSIS_DSP\arm_math.h **** 
 356:F:/Projects/20190909 - 3phase_inverter/3phase_inverter/4. Software_WS/OL_VSC_vitor/Dave/Generated/CMSIS_DSP\arm_math.h **** #define FAST_MATH_TABLE_SIZE  512
 357:F:/Projects/20190909 - 3phase_inverter/3phase_inverter/4. Software_WS/OL_VSC_vitor/Dave/Generated/CMSIS_DSP\arm_math.h **** #define FAST_MATH_Q31_SHIFT   (32 - 10)
 358:F:/Projects/20190909 - 3phase_inverter/3phase_inverter/4. Software_WS/OL_VSC_vitor/Dave/Generated/CMSIS_DSP\arm_math.h **** #define FAST_MATH_Q15_SHIFT   (16 - 10)
 359:F:/Projects/20190909 - 3phase_inverter/3phase_inverter/4. Software_WS/OL_VSC_vitor/Dave/Generated/CMSIS_DSP\arm_math.h **** #define CONTROLLER_Q31_SHIFT  (32 - 9)
 360:F:/Projects/20190909 - 3phase_inverter/3phase_inverter/4. Software_WS/OL_VSC_vitor/Dave/Generated/CMSIS_DSP\arm_math.h **** #define TABLE_SPACING_Q31     0x400000
 361:F:/Projects/20190909 - 3phase_inverter/3phase_inverter/4. Software_WS/OL_VSC_vitor/Dave/Generated/CMSIS_DSP\arm_math.h **** #define TABLE_SPACING_Q15     0x80
 362:F:/Projects/20190909 - 3phase_inverter/3phase_inverter/4. Software_WS/OL_VSC_vitor/Dave/Generated/CMSIS_DSP\arm_math.h **** 
 363:F:/Projects/20190909 - 3phase_inverter/3phase_inverter/4. Software_WS/OL_VSC_vitor/Dave/Generated/CMSIS_DSP\arm_math.h ****   /**
 364:F:/Projects/20190909 - 3phase_inverter/3phase_inverter/4. Software_WS/OL_VSC_vitor/Dave/Generated/CMSIS_DSP\arm_math.h ****    * @brief Macros required for SINE and COSINE Controller functions
 365:F:/Projects/20190909 - 3phase_inverter/3phase_inverter/4. Software_WS/OL_VSC_vitor/Dave/Generated/CMSIS_DSP\arm_math.h ****    */
 366:F:/Projects/20190909 - 3phase_inverter/3phase_inverter/4. Software_WS/OL_VSC_vitor/Dave/Generated/CMSIS_DSP\arm_math.h ****   /* 1.31(q31) Fixed value of 2/360 */
 367:F:/Projects/20190909 - 3phase_inverter/3phase_inverter/4. Software_WS/OL_VSC_vitor/Dave/Generated/CMSIS_DSP\arm_math.h ****   /* -1 to +1 is divided into 360 values so total spacing is (2/360) */
 368:F:/Projects/20190909 - 3phase_inverter/3phase_inverter/4. Software_WS/OL_VSC_vitor/Dave/Generated/CMSIS_DSP\arm_math.h **** #define INPUT_SPACING         0xB60B61
 369:F:/Projects/20190909 - 3phase_inverter/3phase_inverter/4. Software_WS/OL_VSC_vitor/Dave/Generated/CMSIS_DSP\arm_math.h **** 
 370:F:/Projects/20190909 - 3phase_inverter/3phase_inverter/4. Software_WS/OL_VSC_vitor/Dave/Generated/CMSIS_DSP\arm_math.h ****   /**
 371:F:/Projects/20190909 - 3phase_inverter/3phase_inverter/4. Software_WS/OL_VSC_vitor/Dave/Generated/CMSIS_DSP\arm_math.h ****    * @brief Macro for Unaligned Support
 372:F:/Projects/20190909 - 3phase_inverter/3phase_inverter/4. Software_WS/OL_VSC_vitor/Dave/Generated/CMSIS_DSP\arm_math.h ****    */
 373:F:/Projects/20190909 - 3phase_inverter/3phase_inverter/4. Software_WS/OL_VSC_vitor/Dave/Generated/CMSIS_DSP\arm_math.h **** #ifndef UNALIGNED_SUPPORT_DISABLE
 374:F:/Projects/20190909 - 3phase_inverter/3phase_inverter/4. Software_WS/OL_VSC_vitor/Dave/Generated/CMSIS_DSP\arm_math.h ****     #define ALIGN4
 375:F:/Projects/20190909 - 3phase_inverter/3phase_inverter/4. Software_WS/OL_VSC_vitor/Dave/Generated/CMSIS_DSP\arm_math.h **** #else
 376:F:/Projects/20190909 - 3phase_inverter/3phase_inverter/4. Software_WS/OL_VSC_vitor/Dave/Generated/CMSIS_DSP\arm_math.h ****   #if defined  (__GNUC__)
 377:F:/Projects/20190909 - 3phase_inverter/3phase_inverter/4. Software_WS/OL_VSC_vitor/Dave/Generated/CMSIS_DSP\arm_math.h ****     #define ALIGN4 __attribute__((aligned(4)))
 378:F:/Projects/20190909 - 3phase_inverter/3phase_inverter/4. Software_WS/OL_VSC_vitor/Dave/Generated/CMSIS_DSP\arm_math.h ****   #else
 379:F:/Projects/20190909 - 3phase_inverter/3phase_inverter/4. Software_WS/OL_VSC_vitor/Dave/Generated/CMSIS_DSP\arm_math.h ****     #define ALIGN4 __align(4)
 380:F:/Projects/20190909 - 3phase_inverter/3phase_inverter/4. Software_WS/OL_VSC_vitor/Dave/Generated/CMSIS_DSP\arm_math.h ****   #endif
 381:F:/Projects/20190909 - 3phase_inverter/3phase_inverter/4. Software_WS/OL_VSC_vitor/Dave/Generated/CMSIS_DSP\arm_math.h **** #endif   /* #ifndef UNALIGNED_SUPPORT_DISABLE */
 382:F:/Projects/20190909 - 3phase_inverter/3phase_inverter/4. Software_WS/OL_VSC_vitor/Dave/Generated/CMSIS_DSP\arm_math.h **** 
 383:F:/Projects/20190909 - 3phase_inverter/3phase_inverter/4. Software_WS/OL_VSC_vitor/Dave/Generated/CMSIS_DSP\arm_math.h ****   /**
 384:F:/Projects/20190909 - 3phase_inverter/3phase_inverter/4. Software_WS/OL_VSC_vitor/Dave/Generated/CMSIS_DSP\arm_math.h ****    * @brief Error status returned by some functions in the library.
 385:F:/Projects/20190909 - 3phase_inverter/3phase_inverter/4. Software_WS/OL_VSC_vitor/Dave/Generated/CMSIS_DSP\arm_math.h ****    */
 386:F:/Projects/20190909 - 3phase_inverter/3phase_inverter/4. Software_WS/OL_VSC_vitor/Dave/Generated/CMSIS_DSP\arm_math.h **** 
 387:F:/Projects/20190909 - 3phase_inverter/3phase_inverter/4. Software_WS/OL_VSC_vitor/Dave/Generated/CMSIS_DSP\arm_math.h ****   typedef enum
 388:F:/Projects/20190909 - 3phase_inverter/3phase_inverter/4. Software_WS/OL_VSC_vitor/Dave/Generated/CMSIS_DSP\arm_math.h ****   {
 389:F:/Projects/20190909 - 3phase_inverter/3phase_inverter/4. Software_WS/OL_VSC_vitor/Dave/Generated/CMSIS_DSP\arm_math.h ****     ARM_MATH_SUCCESS = 0,                /**< No error */
 390:F:/Projects/20190909 - 3phase_inverter/3phase_inverter/4. Software_WS/OL_VSC_vitor/Dave/Generated/CMSIS_DSP\arm_math.h ****     ARM_MATH_ARGUMENT_ERROR = -1,        /**< One or more arguments are incorrect */
 391:F:/Projects/20190909 - 3phase_inverter/3phase_inverter/4. Software_WS/OL_VSC_vitor/Dave/Generated/CMSIS_DSP\arm_math.h ****     ARM_MATH_LENGTH_ERROR = -2,          /**< Length of data buffer is incorrect */
 392:F:/Projects/20190909 - 3phase_inverter/3phase_inverter/4. Software_WS/OL_VSC_vitor/Dave/Generated/CMSIS_DSP\arm_math.h ****     ARM_MATH_SIZE_MISMATCH = -3,         /**< Size of matrices is not compatible with the operation
 393:F:/Projects/20190909 - 3phase_inverter/3phase_inverter/4. Software_WS/OL_VSC_vitor/Dave/Generated/CMSIS_DSP\arm_math.h ****     ARM_MATH_NANINF = -4,                /**< Not-a-number (NaN) or infinity is generated */
 394:F:/Projects/20190909 - 3phase_inverter/3phase_inverter/4. Software_WS/OL_VSC_vitor/Dave/Generated/CMSIS_DSP\arm_math.h ****     ARM_MATH_SINGULAR = -5,              /**< Generated by matrix inversion if the input matrix is 
 395:F:/Projects/20190909 - 3phase_inverter/3phase_inverter/4. Software_WS/OL_VSC_vitor/Dave/Generated/CMSIS_DSP\arm_math.h ****     ARM_MATH_TEST_FAILURE = -6           /**< Test Failed  */
 396:F:/Projects/20190909 - 3phase_inverter/3phase_inverter/4. Software_WS/OL_VSC_vitor/Dave/Generated/CMSIS_DSP\arm_math.h ****   } arm_status;
 397:F:/Projects/20190909 - 3phase_inverter/3phase_inverter/4. Software_WS/OL_VSC_vitor/Dave/Generated/CMSIS_DSP\arm_math.h **** 
 398:F:/Projects/20190909 - 3phase_inverter/3phase_inverter/4. Software_WS/OL_VSC_vitor/Dave/Generated/CMSIS_DSP\arm_math.h ****   /**
 399:F:/Projects/20190909 - 3phase_inverter/3phase_inverter/4. Software_WS/OL_VSC_vitor/Dave/Generated/CMSIS_DSP\arm_math.h ****    * @brief 8-bit fractional data type in 1.7 format.
 400:F:/Projects/20190909 - 3phase_inverter/3phase_inverter/4. Software_WS/OL_VSC_vitor/Dave/Generated/CMSIS_DSP\arm_math.h ****    */
 401:F:/Projects/20190909 - 3phase_inverter/3phase_inverter/4. Software_WS/OL_VSC_vitor/Dave/Generated/CMSIS_DSP\arm_math.h ****   typedef int8_t q7_t;
 402:F:/Projects/20190909 - 3phase_inverter/3phase_inverter/4. Software_WS/OL_VSC_vitor/Dave/Generated/CMSIS_DSP\arm_math.h **** 
 403:F:/Projects/20190909 - 3phase_inverter/3phase_inverter/4. Software_WS/OL_VSC_vitor/Dave/Generated/CMSIS_DSP\arm_math.h ****   /**
 404:F:/Projects/20190909 - 3phase_inverter/3phase_inverter/4. Software_WS/OL_VSC_vitor/Dave/Generated/CMSIS_DSP\arm_math.h ****    * @brief 16-bit fractional data type in 1.15 format.
 405:F:/Projects/20190909 - 3phase_inverter/3phase_inverter/4. Software_WS/OL_VSC_vitor/Dave/Generated/CMSIS_DSP\arm_math.h ****    */
 406:F:/Projects/20190909 - 3phase_inverter/3phase_inverter/4. Software_WS/OL_VSC_vitor/Dave/Generated/CMSIS_DSP\arm_math.h ****   typedef int16_t q15_t;
 407:F:/Projects/20190909 - 3phase_inverter/3phase_inverter/4. Software_WS/OL_VSC_vitor/Dave/Generated/CMSIS_DSP\arm_math.h **** 
 408:F:/Projects/20190909 - 3phase_inverter/3phase_inverter/4. Software_WS/OL_VSC_vitor/Dave/Generated/CMSIS_DSP\arm_math.h ****   /**
 409:F:/Projects/20190909 - 3phase_inverter/3phase_inverter/4. Software_WS/OL_VSC_vitor/Dave/Generated/CMSIS_DSP\arm_math.h ****    * @brief 32-bit fractional data type in 1.31 format.
 410:F:/Projects/20190909 - 3phase_inverter/3phase_inverter/4. Software_WS/OL_VSC_vitor/Dave/Generated/CMSIS_DSP\arm_math.h ****    */
 411:F:/Projects/20190909 - 3phase_inverter/3phase_inverter/4. Software_WS/OL_VSC_vitor/Dave/Generated/CMSIS_DSP\arm_math.h ****   typedef int32_t q31_t;
 412:F:/Projects/20190909 - 3phase_inverter/3phase_inverter/4. Software_WS/OL_VSC_vitor/Dave/Generated/CMSIS_DSP\arm_math.h **** 
 413:F:/Projects/20190909 - 3phase_inverter/3phase_inverter/4. Software_WS/OL_VSC_vitor/Dave/Generated/CMSIS_DSP\arm_math.h ****   /**
 414:F:/Projects/20190909 - 3phase_inverter/3phase_inverter/4. Software_WS/OL_VSC_vitor/Dave/Generated/CMSIS_DSP\arm_math.h ****    * @brief 64-bit fractional data type in 1.63 format.
 415:F:/Projects/20190909 - 3phase_inverter/3phase_inverter/4. Software_WS/OL_VSC_vitor/Dave/Generated/CMSIS_DSP\arm_math.h ****    */
 416:F:/Projects/20190909 - 3phase_inverter/3phase_inverter/4. Software_WS/OL_VSC_vitor/Dave/Generated/CMSIS_DSP\arm_math.h ****   typedef int64_t q63_t;
 417:F:/Projects/20190909 - 3phase_inverter/3phase_inverter/4. Software_WS/OL_VSC_vitor/Dave/Generated/CMSIS_DSP\arm_math.h **** 
 418:F:/Projects/20190909 - 3phase_inverter/3phase_inverter/4. Software_WS/OL_VSC_vitor/Dave/Generated/CMSIS_DSP\arm_math.h ****   /**
 419:F:/Projects/20190909 - 3phase_inverter/3phase_inverter/4. Software_WS/OL_VSC_vitor/Dave/Generated/CMSIS_DSP\arm_math.h ****    * @brief 32-bit floating-point type definition.
 420:F:/Projects/20190909 - 3phase_inverter/3phase_inverter/4. Software_WS/OL_VSC_vitor/Dave/Generated/CMSIS_DSP\arm_math.h ****    */
 421:F:/Projects/20190909 - 3phase_inverter/3phase_inverter/4. Software_WS/OL_VSC_vitor/Dave/Generated/CMSIS_DSP\arm_math.h ****   typedef float float32_t;
 422:F:/Projects/20190909 - 3phase_inverter/3phase_inverter/4. Software_WS/OL_VSC_vitor/Dave/Generated/CMSIS_DSP\arm_math.h **** 
 423:F:/Projects/20190909 - 3phase_inverter/3phase_inverter/4. Software_WS/OL_VSC_vitor/Dave/Generated/CMSIS_DSP\arm_math.h ****   /**
 424:F:/Projects/20190909 - 3phase_inverter/3phase_inverter/4. Software_WS/OL_VSC_vitor/Dave/Generated/CMSIS_DSP\arm_math.h ****    * @brief 64-bit floating-point type definition.
 425:F:/Projects/20190909 - 3phase_inverter/3phase_inverter/4. Software_WS/OL_VSC_vitor/Dave/Generated/CMSIS_DSP\arm_math.h ****    */
 426:F:/Projects/20190909 - 3phase_inverter/3phase_inverter/4. Software_WS/OL_VSC_vitor/Dave/Generated/CMSIS_DSP\arm_math.h ****   typedef double float64_t;
 427:F:/Projects/20190909 - 3phase_inverter/3phase_inverter/4. Software_WS/OL_VSC_vitor/Dave/Generated/CMSIS_DSP\arm_math.h **** 
 428:F:/Projects/20190909 - 3phase_inverter/3phase_inverter/4. Software_WS/OL_VSC_vitor/Dave/Generated/CMSIS_DSP\arm_math.h ****   /**
 429:F:/Projects/20190909 - 3phase_inverter/3phase_inverter/4. Software_WS/OL_VSC_vitor/Dave/Generated/CMSIS_DSP\arm_math.h ****    * @brief definition to read/write two 16 bit values.
 430:F:/Projects/20190909 - 3phase_inverter/3phase_inverter/4. Software_WS/OL_VSC_vitor/Dave/Generated/CMSIS_DSP\arm_math.h ****    */
 431:F:/Projects/20190909 - 3phase_inverter/3phase_inverter/4. Software_WS/OL_VSC_vitor/Dave/Generated/CMSIS_DSP\arm_math.h **** #if   defined ( __CC_ARM )
 432:F:/Projects/20190909 - 3phase_inverter/3phase_inverter/4. Software_WS/OL_VSC_vitor/Dave/Generated/CMSIS_DSP\arm_math.h ****   #define __SIMD32_TYPE int32_t __packed
 433:F:/Projects/20190909 - 3phase_inverter/3phase_inverter/4. Software_WS/OL_VSC_vitor/Dave/Generated/CMSIS_DSP\arm_math.h ****   #define CMSIS_UNUSED __attribute__((unused))
 434:F:/Projects/20190909 - 3phase_inverter/3phase_inverter/4. Software_WS/OL_VSC_vitor/Dave/Generated/CMSIS_DSP\arm_math.h ****   #define CMSIS_INLINE __attribute__((always_inline))
 435:F:/Projects/20190909 - 3phase_inverter/3phase_inverter/4. Software_WS/OL_VSC_vitor/Dave/Generated/CMSIS_DSP\arm_math.h **** 
 436:F:/Projects/20190909 - 3phase_inverter/3phase_inverter/4. Software_WS/OL_VSC_vitor/Dave/Generated/CMSIS_DSP\arm_math.h **** #elif defined ( __ARMCC_VERSION ) && ( __ARMCC_VERSION >= 6010050 )
 437:F:/Projects/20190909 - 3phase_inverter/3phase_inverter/4. Software_WS/OL_VSC_vitor/Dave/Generated/CMSIS_DSP\arm_math.h ****   #define __SIMD32_TYPE int32_t
 438:F:/Projects/20190909 - 3phase_inverter/3phase_inverter/4. Software_WS/OL_VSC_vitor/Dave/Generated/CMSIS_DSP\arm_math.h ****   #define CMSIS_UNUSED __attribute__((unused))
 439:F:/Projects/20190909 - 3phase_inverter/3phase_inverter/4. Software_WS/OL_VSC_vitor/Dave/Generated/CMSIS_DSP\arm_math.h ****   #define CMSIS_INLINE __attribute__((always_inline))
 440:F:/Projects/20190909 - 3phase_inverter/3phase_inverter/4. Software_WS/OL_VSC_vitor/Dave/Generated/CMSIS_DSP\arm_math.h **** 
 441:F:/Projects/20190909 - 3phase_inverter/3phase_inverter/4. Software_WS/OL_VSC_vitor/Dave/Generated/CMSIS_DSP\arm_math.h **** #elif defined ( __GNUC__ )
 442:F:/Projects/20190909 - 3phase_inverter/3phase_inverter/4. Software_WS/OL_VSC_vitor/Dave/Generated/CMSIS_DSP\arm_math.h ****   #define __SIMD32_TYPE int32_t
 443:F:/Projects/20190909 - 3phase_inverter/3phase_inverter/4. Software_WS/OL_VSC_vitor/Dave/Generated/CMSIS_DSP\arm_math.h ****   #define CMSIS_UNUSED __attribute__((unused))
 444:F:/Projects/20190909 - 3phase_inverter/3phase_inverter/4. Software_WS/OL_VSC_vitor/Dave/Generated/CMSIS_DSP\arm_math.h ****   #define CMSIS_INLINE __attribute__((always_inline))
 445:F:/Projects/20190909 - 3phase_inverter/3phase_inverter/4. Software_WS/OL_VSC_vitor/Dave/Generated/CMSIS_DSP\arm_math.h **** 
 446:F:/Projects/20190909 - 3phase_inverter/3phase_inverter/4. Software_WS/OL_VSC_vitor/Dave/Generated/CMSIS_DSP\arm_math.h **** #elif defined ( __ICCARM__ )
 447:F:/Projects/20190909 - 3phase_inverter/3phase_inverter/4. Software_WS/OL_VSC_vitor/Dave/Generated/CMSIS_DSP\arm_math.h ****   #define __SIMD32_TYPE int32_t __packed
 448:F:/Projects/20190909 - 3phase_inverter/3phase_inverter/4. Software_WS/OL_VSC_vitor/Dave/Generated/CMSIS_DSP\arm_math.h ****   #define CMSIS_UNUSED
 449:F:/Projects/20190909 - 3phase_inverter/3phase_inverter/4. Software_WS/OL_VSC_vitor/Dave/Generated/CMSIS_DSP\arm_math.h ****   #define CMSIS_INLINE
 450:F:/Projects/20190909 - 3phase_inverter/3phase_inverter/4. Software_WS/OL_VSC_vitor/Dave/Generated/CMSIS_DSP\arm_math.h **** 
 451:F:/Projects/20190909 - 3phase_inverter/3phase_inverter/4. Software_WS/OL_VSC_vitor/Dave/Generated/CMSIS_DSP\arm_math.h **** #elif defined ( __TI_ARM__ )
 452:F:/Projects/20190909 - 3phase_inverter/3phase_inverter/4. Software_WS/OL_VSC_vitor/Dave/Generated/CMSIS_DSP\arm_math.h ****   #define __SIMD32_TYPE int32_t
 453:F:/Projects/20190909 - 3phase_inverter/3phase_inverter/4. Software_WS/OL_VSC_vitor/Dave/Generated/CMSIS_DSP\arm_math.h ****   #define CMSIS_UNUSED __attribute__((unused))
 454:F:/Projects/20190909 - 3phase_inverter/3phase_inverter/4. Software_WS/OL_VSC_vitor/Dave/Generated/CMSIS_DSP\arm_math.h ****   #define CMSIS_INLINE
 455:F:/Projects/20190909 - 3phase_inverter/3phase_inverter/4. Software_WS/OL_VSC_vitor/Dave/Generated/CMSIS_DSP\arm_math.h **** 
 456:F:/Projects/20190909 - 3phase_inverter/3phase_inverter/4. Software_WS/OL_VSC_vitor/Dave/Generated/CMSIS_DSP\arm_math.h **** #elif defined ( __CSMC__ )
 457:F:/Projects/20190909 - 3phase_inverter/3phase_inverter/4. Software_WS/OL_VSC_vitor/Dave/Generated/CMSIS_DSP\arm_math.h ****   #define __SIMD32_TYPE int32_t
 458:F:/Projects/20190909 - 3phase_inverter/3phase_inverter/4. Software_WS/OL_VSC_vitor/Dave/Generated/CMSIS_DSP\arm_math.h ****   #define CMSIS_UNUSED
 459:F:/Projects/20190909 - 3phase_inverter/3phase_inverter/4. Software_WS/OL_VSC_vitor/Dave/Generated/CMSIS_DSP\arm_math.h ****   #define CMSIS_INLINE
 460:F:/Projects/20190909 - 3phase_inverter/3phase_inverter/4. Software_WS/OL_VSC_vitor/Dave/Generated/CMSIS_DSP\arm_math.h **** 
 461:F:/Projects/20190909 - 3phase_inverter/3phase_inverter/4. Software_WS/OL_VSC_vitor/Dave/Generated/CMSIS_DSP\arm_math.h **** #elif defined ( __TASKING__ )
 462:F:/Projects/20190909 - 3phase_inverter/3phase_inverter/4. Software_WS/OL_VSC_vitor/Dave/Generated/CMSIS_DSP\arm_math.h ****   #define __SIMD32_TYPE __unaligned int32_t
 463:F:/Projects/20190909 - 3phase_inverter/3phase_inverter/4. Software_WS/OL_VSC_vitor/Dave/Generated/CMSIS_DSP\arm_math.h ****   #define CMSIS_UNUSED
 464:F:/Projects/20190909 - 3phase_inverter/3phase_inverter/4. Software_WS/OL_VSC_vitor/Dave/Generated/CMSIS_DSP\arm_math.h ****   #define CMSIS_INLINE
 465:F:/Projects/20190909 - 3phase_inverter/3phase_inverter/4. Software_WS/OL_VSC_vitor/Dave/Generated/CMSIS_DSP\arm_math.h **** 
 466:F:/Projects/20190909 - 3phase_inverter/3phase_inverter/4. Software_WS/OL_VSC_vitor/Dave/Generated/CMSIS_DSP\arm_math.h **** #else
 467:F:/Projects/20190909 - 3phase_inverter/3phase_inverter/4. Software_WS/OL_VSC_vitor/Dave/Generated/CMSIS_DSP\arm_math.h ****   #error Unknown compiler
 468:F:/Projects/20190909 - 3phase_inverter/3phase_inverter/4. Software_WS/OL_VSC_vitor/Dave/Generated/CMSIS_DSP\arm_math.h **** #endif
 469:F:/Projects/20190909 - 3phase_inverter/3phase_inverter/4. Software_WS/OL_VSC_vitor/Dave/Generated/CMSIS_DSP\arm_math.h **** 
 470:F:/Projects/20190909 - 3phase_inverter/3phase_inverter/4. Software_WS/OL_VSC_vitor/Dave/Generated/CMSIS_DSP\arm_math.h **** #define __SIMD32(addr)        (*(__SIMD32_TYPE **) & (addr))
 471:F:/Projects/20190909 - 3phase_inverter/3phase_inverter/4. Software_WS/OL_VSC_vitor/Dave/Generated/CMSIS_DSP\arm_math.h **** #define __SIMD32_CONST(addr)  ((__SIMD32_TYPE *)(addr))
 472:F:/Projects/20190909 - 3phase_inverter/3phase_inverter/4. Software_WS/OL_VSC_vitor/Dave/Generated/CMSIS_DSP\arm_math.h **** #define _SIMD32_OFFSET(addr)  (*(__SIMD32_TYPE *)  (addr))
 473:F:/Projects/20190909 - 3phase_inverter/3phase_inverter/4. Software_WS/OL_VSC_vitor/Dave/Generated/CMSIS_DSP\arm_math.h **** #define __SIMD64(addr)        (*(int64_t **) & (addr))
 474:F:/Projects/20190909 - 3phase_inverter/3phase_inverter/4. Software_WS/OL_VSC_vitor/Dave/Generated/CMSIS_DSP\arm_math.h **** 
 475:F:/Projects/20190909 - 3phase_inverter/3phase_inverter/4. Software_WS/OL_VSC_vitor/Dave/Generated/CMSIS_DSP\arm_math.h **** /* #if defined (ARM_MATH_CM3) || defined (ARM_MATH_CM0_FAMILY) */
 476:F:/Projects/20190909 - 3phase_inverter/3phase_inverter/4. Software_WS/OL_VSC_vitor/Dave/Generated/CMSIS_DSP\arm_math.h **** #if !defined (ARM_MATH_DSP)
 477:F:/Projects/20190909 - 3phase_inverter/3phase_inverter/4. Software_WS/OL_VSC_vitor/Dave/Generated/CMSIS_DSP\arm_math.h ****   /**
 478:F:/Projects/20190909 - 3phase_inverter/3phase_inverter/4. Software_WS/OL_VSC_vitor/Dave/Generated/CMSIS_DSP\arm_math.h ****    * @brief definition to pack two 16 bit values.
 479:F:/Projects/20190909 - 3phase_inverter/3phase_inverter/4. Software_WS/OL_VSC_vitor/Dave/Generated/CMSIS_DSP\arm_math.h ****    */
 480:F:/Projects/20190909 - 3phase_inverter/3phase_inverter/4. Software_WS/OL_VSC_vitor/Dave/Generated/CMSIS_DSP\arm_math.h **** #define __PKHBT(ARG1, ARG2, ARG3) ( (((int32_t)(ARG1) <<    0) & (int32_t)0x0000FFFF) | \
 481:F:/Projects/20190909 - 3phase_inverter/3phase_inverter/4. Software_WS/OL_VSC_vitor/Dave/Generated/CMSIS_DSP\arm_math.h ****                                     (((int32_t)(ARG2) << ARG3) & (int32_t)0xFFFF0000)  )
 482:F:/Projects/20190909 - 3phase_inverter/3phase_inverter/4. Software_WS/OL_VSC_vitor/Dave/Generated/CMSIS_DSP\arm_math.h **** #define __PKHTB(ARG1, ARG2, ARG3) ( (((int32_t)(ARG1) <<    0) & (int32_t)0xFFFF0000) | \
 483:F:/Projects/20190909 - 3phase_inverter/3phase_inverter/4. Software_WS/OL_VSC_vitor/Dave/Generated/CMSIS_DSP\arm_math.h ****                                     (((int32_t)(ARG2) >> ARG3) & (int32_t)0x0000FFFF)  )
 484:F:/Projects/20190909 - 3phase_inverter/3phase_inverter/4. Software_WS/OL_VSC_vitor/Dave/Generated/CMSIS_DSP\arm_math.h **** 
 485:F:/Projects/20190909 - 3phase_inverter/3phase_inverter/4. Software_WS/OL_VSC_vitor/Dave/Generated/CMSIS_DSP\arm_math.h **** /* #endif // defined (ARM_MATH_CM3) || defined (ARM_MATH_CM0_FAMILY) */
 486:F:/Projects/20190909 - 3phase_inverter/3phase_inverter/4. Software_WS/OL_VSC_vitor/Dave/Generated/CMSIS_DSP\arm_math.h **** #endif /* !defined (ARM_MATH_DSP) */
 487:F:/Projects/20190909 - 3phase_inverter/3phase_inverter/4. Software_WS/OL_VSC_vitor/Dave/Generated/CMSIS_DSP\arm_math.h **** 
 488:F:/Projects/20190909 - 3phase_inverter/3phase_inverter/4. Software_WS/OL_VSC_vitor/Dave/Generated/CMSIS_DSP\arm_math.h ****    /**
 489:F:/Projects/20190909 - 3phase_inverter/3phase_inverter/4. Software_WS/OL_VSC_vitor/Dave/Generated/CMSIS_DSP\arm_math.h ****    * @brief definition to pack four 8 bit values.
 490:F:/Projects/20190909 - 3phase_inverter/3phase_inverter/4. Software_WS/OL_VSC_vitor/Dave/Generated/CMSIS_DSP\arm_math.h ****    */
 491:F:/Projects/20190909 - 3phase_inverter/3phase_inverter/4. Software_WS/OL_VSC_vitor/Dave/Generated/CMSIS_DSP\arm_math.h **** #ifndef ARM_MATH_BIG_ENDIAN
 492:F:/Projects/20190909 - 3phase_inverter/3phase_inverter/4. Software_WS/OL_VSC_vitor/Dave/Generated/CMSIS_DSP\arm_math.h **** 
 493:F:/Projects/20190909 - 3phase_inverter/3phase_inverter/4. Software_WS/OL_VSC_vitor/Dave/Generated/CMSIS_DSP\arm_math.h **** #define __PACKq7(v0,v1,v2,v3) ( (((int32_t)(v0) <<  0) & (int32_t)0x000000FF) | \
 494:F:/Projects/20190909 - 3phase_inverter/3phase_inverter/4. Software_WS/OL_VSC_vitor/Dave/Generated/CMSIS_DSP\arm_math.h ****                                 (((int32_t)(v1) <<  8) & (int32_t)0x0000FF00) | \
 495:F:/Projects/20190909 - 3phase_inverter/3phase_inverter/4. Software_WS/OL_VSC_vitor/Dave/Generated/CMSIS_DSP\arm_math.h ****                                 (((int32_t)(v2) << 16) & (int32_t)0x00FF0000) | \
 496:F:/Projects/20190909 - 3phase_inverter/3phase_inverter/4. Software_WS/OL_VSC_vitor/Dave/Generated/CMSIS_DSP\arm_math.h ****                                 (((int32_t)(v3) << 24) & (int32_t)0xFF000000)  )
 497:F:/Projects/20190909 - 3phase_inverter/3phase_inverter/4. Software_WS/OL_VSC_vitor/Dave/Generated/CMSIS_DSP\arm_math.h **** #else
 498:F:/Projects/20190909 - 3phase_inverter/3phase_inverter/4. Software_WS/OL_VSC_vitor/Dave/Generated/CMSIS_DSP\arm_math.h **** 
 499:F:/Projects/20190909 - 3phase_inverter/3phase_inverter/4. Software_WS/OL_VSC_vitor/Dave/Generated/CMSIS_DSP\arm_math.h **** #define __PACKq7(v0,v1,v2,v3) ( (((int32_t)(v3) <<  0) & (int32_t)0x000000FF) | \
 500:F:/Projects/20190909 - 3phase_inverter/3phase_inverter/4. Software_WS/OL_VSC_vitor/Dave/Generated/CMSIS_DSP\arm_math.h ****                                 (((int32_t)(v2) <<  8) & (int32_t)0x0000FF00) | \
 501:F:/Projects/20190909 - 3phase_inverter/3phase_inverter/4. Software_WS/OL_VSC_vitor/Dave/Generated/CMSIS_DSP\arm_math.h ****                                 (((int32_t)(v1) << 16) & (int32_t)0x00FF0000) | \
 502:F:/Projects/20190909 - 3phase_inverter/3phase_inverter/4. Software_WS/OL_VSC_vitor/Dave/Generated/CMSIS_DSP\arm_math.h ****                                 (((int32_t)(v0) << 24) & (int32_t)0xFF000000)  )
 503:F:/Projects/20190909 - 3phase_inverter/3phase_inverter/4. Software_WS/OL_VSC_vitor/Dave/Generated/CMSIS_DSP\arm_math.h **** 
 504:F:/Projects/20190909 - 3phase_inverter/3phase_inverter/4. Software_WS/OL_VSC_vitor/Dave/Generated/CMSIS_DSP\arm_math.h **** #endif
 505:F:/Projects/20190909 - 3phase_inverter/3phase_inverter/4. Software_WS/OL_VSC_vitor/Dave/Generated/CMSIS_DSP\arm_math.h **** 
 506:F:/Projects/20190909 - 3phase_inverter/3phase_inverter/4. Software_WS/OL_VSC_vitor/Dave/Generated/CMSIS_DSP\arm_math.h **** 
 507:F:/Projects/20190909 - 3phase_inverter/3phase_inverter/4. Software_WS/OL_VSC_vitor/Dave/Generated/CMSIS_DSP\arm_math.h ****   /**
 508:F:/Projects/20190909 - 3phase_inverter/3phase_inverter/4. Software_WS/OL_VSC_vitor/Dave/Generated/CMSIS_DSP\arm_math.h ****    * @brief Clips Q63 to Q31 values.
 509:F:/Projects/20190909 - 3phase_inverter/3phase_inverter/4. Software_WS/OL_VSC_vitor/Dave/Generated/CMSIS_DSP\arm_math.h ****    */
 510:F:/Projects/20190909 - 3phase_inverter/3phase_inverter/4. Software_WS/OL_VSC_vitor/Dave/Generated/CMSIS_DSP\arm_math.h ****   CMSIS_INLINE __STATIC_INLINE q31_t clip_q63_to_q31(
 511:F:/Projects/20190909 - 3phase_inverter/3phase_inverter/4. Software_WS/OL_VSC_vitor/Dave/Generated/CMSIS_DSP\arm_math.h ****   q63_t x)
 512:F:/Projects/20190909 - 3phase_inverter/3phase_inverter/4. Software_WS/OL_VSC_vitor/Dave/Generated/CMSIS_DSP\arm_math.h ****   {
 513:F:/Projects/20190909 - 3phase_inverter/3phase_inverter/4. Software_WS/OL_VSC_vitor/Dave/Generated/CMSIS_DSP\arm_math.h ****     return ((q31_t) (x >> 32) != ((q31_t) x >> 31)) ?
 275              	 .loc 2 513 0
 276 0280 D7E92223 	 ldrd r2,[r7,#136]
 277 0284 1900     	 movs r1,r3
 278 0286 B961     	 str r1,[r7,#24]
 279 0288 DB17     	 asrs r3,r3,#31
 280 028a FB61     	 str r3,[r7,#28]
 281 028c BA69     	 ldr r2,[r7,#24]
 282 028e D7F88830 	 ldr r3,[r7,#136]
 283 0292 DB17     	 asrs r3,r3,#31
 514:F:/Projects/20190909 - 3phase_inverter/3phase_inverter/4. Software_WS/OL_VSC_vitor/Dave/Generated/CMSIS_DSP\arm_math.h ****       ((0x7FFFFFFF ^ ((q31_t) (x >> 63)))) : (q31_t) x;
 284              	 .loc 2 514 0
 285 0294 9A42     	 cmp r2,r3
 286 0296 0FD0     	 beq .L2
 287 0298 D7E92223 	 ldrd r2,[r7,#136]
 288 029c D917     	 asrs r1,r3,#31
 289 029e 3961     	 str r1,[r7,#16]
 290 02a0 DB17     	 asrs r3,r3,#31
 291 02a2 7B61     	 str r3,[r7,#20]
 292 02a4 3B69     	 ldr r3,[r7,#16]
 293 02a6 83F00042 	 eor r2,r3,#-2147483648
 294 02aa D243     	 mvns r2,r2
 295 02ac 06E0     	 b .L4
 296              	.L9:
 297 02ae 00BF     	 .align 2
 298              	.L8:
 299 02b0 00000000 	 .word sinTable_q31
 300 02b4 B51F9201 	 .word 26353589
 301              	.L2:
 302 02b8 D7F88820 	 ldr r2,[r7,#136]
 303              	.L4:
 304              	.LBE7:
 305              	.LBE6:
 306              	 .loc 1 87 0
 307 02bc 7B6F     	 ldr r3,[r7,#116]
 308 02be 1A60     	 str r2,[r3]
  88:../Dave/Generated/CMSIS_DSP/ControllerFunctions/arm_sin_cos_q31.c **** 
  89:../Dave/Generated/CMSIS_DSP/ControllerFunctions/arm_sin_cos_q31.c ****   /* Read two nearest values of input value from the cos & sin tables */
  90:../Dave/Generated/CMSIS_DSP/ControllerFunctions/arm_sin_cos_q31.c ****   f1 = sinTable_q31[indexS+0];
 309              	 .loc 1 90 0
 310 02c0 B7F8B620 	 ldrh r2,[r7,#182]
 311 02c4 A54B     	 ldr r3,.L10
 312 02c6 53F82230 	 ldr r3,[r3,r2,lsl#2]
 313 02ca C7F8AC30 	 str r3,[r7,#172]
  91:../Dave/Generated/CMSIS_DSP/ControllerFunctions/arm_sin_cos_q31.c ****   f2 = sinTable_q31[indexS+1];
 314              	 .loc 1 91 0
 315 02ce B7F8B630 	 ldrh r3,[r7,#182]
 316 02d2 5A1C     	 adds r2,r3,#1
 317 02d4 A14B     	 ldr r3,.L10
 318 02d6 53F82230 	 ldr r3,[r3,r2,lsl#2]
 319 02da C7F8A830 	 str r3,[r7,#168]
  92:../Dave/Generated/CMSIS_DSP/ControllerFunctions/arm_sin_cos_q31.c ****   d1 = sinTable_q31[indexC+0];
 320              	 .loc 1 92 0
 321 02de B7F8B420 	 ldrh r2,[r7,#180]
 322 02e2 9E4B     	 ldr r3,.L10
 323 02e4 53F82230 	 ldr r3,[r3,r2,lsl#2]
 324 02e8 C7F8A430 	 str r3,[r7,#164]
  93:../Dave/Generated/CMSIS_DSP/ControllerFunctions/arm_sin_cos_q31.c ****   d2 = sinTable_q31[indexC+1];
 325              	 .loc 1 93 0
 326 02ec B7F8B430 	 ldrh r3,[r7,#180]
 327 02f0 5A1C     	 adds r2,r3,#1
 328 02f2 9A4B     	 ldr r3,.L10
 329 02f4 53F82230 	 ldr r3,[r3,r2,lsl#2]
 330 02f8 C7F8A030 	 str r3,[r7,#160]
  94:../Dave/Generated/CMSIS_DSP/ControllerFunctions/arm_sin_cos_q31.c **** 
  95:../Dave/Generated/CMSIS_DSP/ControllerFunctions/arm_sin_cos_q31.c ****   Df = f2 - f1; // delta between the values of the functions
 331              	 .loc 1 95 0
 332 02fc D7F8A820 	 ldr r2,[r7,#168]
 333 0300 D7F8AC30 	 ldr r3,[r7,#172]
 334 0304 D31A     	 subs r3,r2,r3
 335 0306 C7F89830 	 str r3,[r7,#152]
  96:../Dave/Generated/CMSIS_DSP/ControllerFunctions/arm_sin_cos_q31.c ****   temp = Dn*((q63_t)d1 + d2);
 336              	 .loc 1 96 0
 337 030a D7F89C30 	 ldr r3,[r7,#156]
 338 030e 1C46     	 mov r4,r3
 339 0310 4FEAE475 	 asr r5,r4,#31
 340 0314 D7F8A430 	 ldr r3,[r7,#164]
 341 0318 1846     	 mov r0,r3
 342 031a 4FEAE071 	 asr r1,r0,#31
 343 031e D7F8A030 	 ldr r3,[r7,#160]
 344 0322 1A46     	 mov r2,r3
 345 0324 4FEAE273 	 asr r3,r2,#31
 346 0328 1218     	 adds r2,r2,r0
 347 032a 43EB0103 	 adc r3,r3,r1
 348 032e 02FB05F0 	 mul r0,r2,r5
 349 0332 04FB03F1 	 mul r1,r4,r3
 350 0336 0144     	 add r1,r1,r0
 351 0338 A4FB0223 	 umull r2,r3,r4,r2
 352 033c 1944     	 add r1,r1,r3
 353 033e 0B46     	 mov r3,r1
 354 0340 C7E92423 	 strd r2,[r7,#144]
 355 0344 C7E92423 	 strd r2,[r7,#144]
  97:../Dave/Generated/CMSIS_DSP/ControllerFunctions/arm_sin_cos_q31.c ****   temp = temp - ((q63_t)Df << 32);
 356              	 .loc 1 97 0
 357 0348 D7F89830 	 ldr r3,[r7,#152]
 358 034c 1A46     	 mov r2,r3
 359 034e 4FEAE273 	 asr r3,r2,#31
 360 0352 1300     	 movs r3,r2
 361 0354 7B62     	 str r3,[r7,#36]
 362 0356 0023     	 movs r3,#0
 363 0358 3B62     	 str r3,[r7,#32]
 364 035a D7E92423 	 ldrd r2,[r7,#144]
 365 035e D7E90801 	 ldrd r0,[r7,#32]
 366 0362 101A     	 subs r0,r2,r0
 367 0364 63EB0101 	 sbc r1,r3,r1
 368 0368 0246     	 mov r2,r0
 369 036a 0B46     	 mov r3,r1
 370 036c C7E92423 	 strd r2,[r7,#144]
  98:../Dave/Generated/CMSIS_DSP/ControllerFunctions/arm_sin_cos_q31.c ****   temp = (q63_t)fract*(temp >> 31);
 371              	 .loc 1 98 0
 372 0370 D7F8B030 	 ldr r3,[r7,#176]
 373 0374 1846     	 mov r0,r3
 374 0376 4FEAE071 	 asr r1,r0,#31
 375 037a D7E92423 	 ldrd r2,[r7,#144]
 376 037e D40F     	 lsrs r4,r2,#31
 377 0380 3C65     	 str r4,[r7,#80]
 378 0382 3C6D     	 ldr r4,[r7,#80]
 379 0384 44EA4304 	 orr r4,r4,r3,lsl#1
 380 0388 3C65     	 str r4,[r7,#80]
 381 038a DB17     	 asrs r3,r3,#31
 382 038c 7B65     	 str r3,[r7,#84]
 383 038e D7E91489 	 ldrd r8,[r7,#80]
 384 0392 4346     	 mov r3,r8
 385 0394 03FB01F2 	 mul r2,r3,r1
 386 0398 4B46     	 mov r3,r9
 387 039a 00FB03F3 	 mul r3,r0,r3
 388 039e D418     	 adds r4,r2,r3
 389 03a0 4346     	 mov r3,r8
 390 03a2 A0FB0323 	 umull r2,r3,r0,r3
 391 03a6 E118     	 adds r1,r4,r3
 392 03a8 0B46     	 mov r3,r1
 393 03aa C7E92423 	 strd r2,[r7,#144]
 394 03ae C7E92423 	 strd r2,[r7,#144]
  99:../Dave/Generated/CMSIS_DSP/ControllerFunctions/arm_sin_cos_q31.c ****   temp = temp + ((3*(q63_t)Df << 31) - (d2 + ((q63_t)d1 << 1))*Dn);
 395              	 .loc 1 99 0
 396 03b2 D7F89830 	 ldr r3,[r7,#152]
 397 03b6 1846     	 mov r0,r3
 398 03b8 4FEAE071 	 asr r1,r0,#31
 399 03bc 0246     	 mov r2,r0
 400 03be 0B46     	 mov r3,r1
 401 03c0 9218     	 adds r2,r2,r2
 402 03c2 43EB0303 	 adc r3,r3,r3
 403 03c6 1218     	 adds r2,r2,r0
 404 03c8 43EB0103 	 adc r3,r3,r1
 405 03cc D907     	 lsls r1,r3,#31
 406 03ce F964     	 str r1,[r7,#76]
 407 03d0 F96C     	 ldr r1,[r7,#76]
 408 03d2 41EA5201 	 orr r1,r1,r2,lsr#1
 409 03d6 F964     	 str r1,[r7,#76]
 410 03d8 D307     	 lsls r3,r2,#31
 411 03da BB64     	 str r3,[r7,#72]
 412 03dc D7F8A030 	 ldr r3,[r7,#160]
 413 03e0 1846     	 mov r0,r3
 414 03e2 4FEAE071 	 asr r1,r0,#31
 415 03e6 D7F8A430 	 ldr r3,[r7,#164]
 416 03ea 1A46     	 mov r2,r3
 417 03ec 4FEAE273 	 asr r3,r2,#31
 418 03f0 9218     	 adds r2,r2,r2
 419 03f2 43EB0303 	 adc r3,r3,r3
 420 03f6 8018     	 adds r0,r0,r2
 421 03f8 41EB0301 	 adc r1,r1,r3
 422 03fc D7F89C30 	 ldr r3,[r7,#156]
 423 0400 1A46     	 mov r2,r3
 424 0402 4FEAE273 	 asr r3,r2,#31
 425 0406 02FB01F5 	 mul r5,r2,r1
 426 040a 00FB03F4 	 mul r4,r0,r3
 427 040e 2C44     	 add r4,r4,r5
 428 0410 A0FB0223 	 umull r2,r3,r0,r2
 429 0414 E118     	 adds r1,r4,r3
 430 0416 0B46     	 mov r3,r1
 431 0418 D7E91201 	 ldrd r0,[r7,#72]
 432 041c 801A     	 subs r0,r0,r2
 433 041e 61EB0301 	 sbc r1,r1,r3
 434 0422 0246     	 mov r2,r0
 435 0424 0B46     	 mov r3,r1
 436 0426 D7E92401 	 ldrd r0,[r7,#144]
 437 042a 1218     	 adds r2,r2,r0
 438 042c 43EB0103 	 adc r3,r3,r1
 439 0430 C7E92423 	 strd r2,[r7,#144]
 100:../Dave/Generated/CMSIS_DSP/ControllerFunctions/arm_sin_cos_q31.c ****   temp = (q63_t)fract*(temp >> 31);
 440              	 .loc 1 100 0
 441 0434 D7F8B030 	 ldr r3,[r7,#176]
 442 0438 1A46     	 mov r2,r3
 443 043a 4FEAE273 	 asr r3,r2,#31
 444 043e D7E92401 	 ldrd r0,[r7,#144]
 445 0442 C40F     	 lsrs r4,r0,#31
 446 0444 3C64     	 str r4,[r7,#64]
 447 0446 3C6C     	 ldr r4,[r7,#64]
 448 0448 44EA4104 	 orr r4,r4,r1,lsl#1
 449 044c 3C64     	 str r4,[r7,#64]
 450 044e C917     	 asrs r1,r1,#31
 451 0450 7964     	 str r1,[r7,#68]
 452 0452 D7E91045 	 ldrd r4,[r7,#64]
 453 0456 2146     	 mov r1,r4
 454 0458 01FB03F0 	 mul r0,r1,r3
 455 045c 2946     	 mov r1,r5
 456 045e 02FB01F1 	 mul r1,r2,r1
 457 0462 0144     	 add r1,r1,r0
 458 0464 2046     	 mov r0,r4
 459 0466 A2FB0023 	 umull r2,r3,r2,r0
 460 046a 1944     	 add r1,r1,r3
 461 046c 0B46     	 mov r3,r1
 462 046e C7E92423 	 strd r2,[r7,#144]
 463 0472 C7E92423 	 strd r2,[r7,#144]
 101:../Dave/Generated/CMSIS_DSP/ControllerFunctions/arm_sin_cos_q31.c ****   temp = temp + (q63_t)d1*Dn;
 464              	 .loc 1 101 0
 465 0476 D7F8A430 	 ldr r3,[r7,#164]
 466 047a 1846     	 mov r0,r3
 467 047c 4FEAE071 	 asr r1,r0,#31
 468 0480 D7F89C30 	 ldr r3,[r7,#156]
 469 0484 1A46     	 mov r2,r3
 470 0486 4FEAE273 	 asr r3,r2,#31
 471 048a 02FB01F5 	 mul r5,r2,r1
 472 048e 00FB03F4 	 mul r4,r0,r3
 473 0492 2C44     	 add r4,r4,r5
 474 0494 A0FB0223 	 umull r2,r3,r0,r2
 475 0498 E118     	 adds r1,r4,r3
 476 049a 0B46     	 mov r3,r1
 477 049c D7E92401 	 ldrd r0,[r7,#144]
 478 04a0 1218     	 adds r2,r2,r0
 479 04a2 43EB0103 	 adc r3,r3,r1
 480 04a6 C7E92423 	 strd r2,[r7,#144]
 102:../Dave/Generated/CMSIS_DSP/ControllerFunctions/arm_sin_cos_q31.c ****   temp = (q63_t)fract*(temp >> 31);
 481              	 .loc 1 102 0
 482 04aa D7F8B030 	 ldr r3,[r7,#176]
 483 04ae 1A46     	 mov r2,r3
 484 04b0 4FEAE273 	 asr r3,r2,#31
 485 04b4 D7E92401 	 ldrd r0,[r7,#144]
 486 04b8 C40F     	 lsrs r4,r0,#31
 487 04ba BC63     	 str r4,[r7,#56]
 488 04bc BC6B     	 ldr r4,[r7,#56]
 489 04be 44EA4104 	 orr r4,r4,r1,lsl#1
 490 04c2 BC63     	 str r4,[r7,#56]
 491 04c4 C917     	 asrs r1,r1,#31
 492 04c6 F963     	 str r1,[r7,#60]
 493 04c8 D7E90E45 	 ldrd r4,[r7,#56]
 494 04cc 2146     	 mov r1,r4
 495 04ce 01FB03F0 	 mul r0,r1,r3
 496 04d2 2946     	 mov r1,r5
 497 04d4 02FB01F1 	 mul r1,r2,r1
 498 04d8 0144     	 add r1,r1,r0
 499 04da 2046     	 mov r0,r4
 500 04dc A2FB0023 	 umull r2,r3,r2,r0
 501 04e0 1944     	 add r1,r1,r3
 502 04e2 0B46     	 mov r3,r1
 503 04e4 C7E92423 	 strd r2,[r7,#144]
 504 04e8 C7E92423 	 strd r2,[r7,#144]
 103:../Dave/Generated/CMSIS_DSP/ControllerFunctions/arm_sin_cos_q31.c **** 
 104:../Dave/Generated/CMSIS_DSP/ControllerFunctions/arm_sin_cos_q31.c ****   /* Calculation of sine value */
 105:../Dave/Generated/CMSIS_DSP/ControllerFunctions/arm_sin_cos_q31.c ****   *pSinVal = clip_q63_to_q31((temp >> 31) + (q63_t)f1);
 505              	 .loc 1 105 0
 506 04ec D7E92423 	 ldrd r2,[r7,#144]
 507 04f0 D10F     	 lsrs r1,r2,#31
 508 04f2 3963     	 str r1,[r7,#48]
 509 04f4 396B     	 ldr r1,[r7,#48]
 510 04f6 41EA4301 	 orr r1,r1,r3,lsl#1
 511 04fa 3963     	 str r1,[r7,#48]
 512 04fc DB17     	 asrs r3,r3,#31
 513 04fe 7B63     	 str r3,[r7,#52]
 514 0500 D7F8AC30 	 ldr r3,[r7,#172]
 515 0504 1A46     	 mov r2,r3
 516 0506 4FEAE273 	 asr r3,r2,#31
 517 050a D7E90C01 	 ldrd r0,[r7,#48]
 518 050e 8018     	 adds r0,r0,r2
 519 0510 41EB0301 	 adc r1,r1,r3
 520 0514 0246     	 mov r2,r0
 521 0516 0B46     	 mov r3,r1
 522 0518 C7E92023 	 strd r2,[r7,#128]
 523              	.LBB8:
 524              	.LBB9:
 513:F:/Projects/20190909 - 3phase_inverter/3phase_inverter/4. Software_WS/OL_VSC_vitor/Dave/Generated/CMSIS_DSP\arm_math.h ****       ((0x7FFFFFFF ^ ((q31_t) (x >> 63)))) : (q31_t) x;
 525              	 .loc 2 513 0
 526 051c D7E92023 	 ldrd r2,[r7,#128]
 527 0520 1900     	 movs r1,r3
 528 0522 B960     	 str r1,[r7,#8]
 529 0524 DB17     	 asrs r3,r3,#31
 530 0526 FB60     	 str r3,[r7,#12]
 531 0528 BA68     	 ldr r2,[r7,#8]
 532 052a D7F88030 	 ldr r3,[r7,#128]
 533 052e DB17     	 asrs r3,r3,#31
 534              	 .loc 2 514 0
 535 0530 9A42     	 cmp r2,r3
 536 0532 0AD0     	 beq .L5
 537 0534 D7E92023 	 ldrd r2,[r7,#128]
 538 0538 D917     	 asrs r1,r3,#31
 539 053a 3960     	 str r1,[r7]
 540 053c DB17     	 asrs r3,r3,#31
 541 053e 7B60     	 str r3,[r7,#4]
 542 0540 3B68     	 ldr r3,[r7]
 543 0542 83F00043 	 eor r3,r3,#-2147483648
 544 0546 DB43     	 mvns r3,r3
 545 0548 01E0     	 b .L7
 546              	.L5:
 547 054a D7F88030 	 ldr r3,[r7,#128]
 548              	.L7:
 549              	.LBE9:
 550              	.LBE8:
 551              	 .loc 1 105 0
 552 054e BA6F     	 ldr r2,[r7,#120]
 553 0550 1360     	 str r3,[r2]
 106:../Dave/Generated/CMSIS_DSP/ControllerFunctions/arm_sin_cos_q31.c **** }
 554              	 .loc 1 106 0
 555 0552 BC37     	 adds r7,r7,#188
 556              	.LCFI3:
 557              	 .cfi_def_cfa_offset 28
 558 0554 BD46     	 mov sp,r7
 559              	.LCFI4:
 560              	 .cfi_def_cfa_register 13
 561              	 
 562 0556 BDE8B00F 	 pop {r4,r5,r7,r8,r9,r10,fp}
 563              	.LCFI5:
 564              	 .cfi_restore 11
 565              	 .cfi_restore 10
 566              	 .cfi_restore 9
 567              	 .cfi_restore 8
 568              	 .cfi_restore 7
 569              	 .cfi_restore 5
 570              	 .cfi_restore 4
 571              	 .cfi_def_cfa_offset 0
 572 055a 7047     	 bx lr
 573              	.L11:
 574              	 .align 2
 575              	.L10:
 576 055c 00000000 	 .word sinTable_q31
 577              	 .cfi_endproc
 578              	.LFE135:
 580              	 .text
 581              	.Letext0:
 582              	 .file 3 "c:\\program files (x86)\\dave\\eclipse\\arm-gcc-49\\arm-none-eabi\\include\\machine\\_default_types.h"
 583              	 .file 4 "c:\\program files (x86)\\dave\\eclipse\\arm-gcc-49\\arm-none-eabi\\include\\stdint.h"
 584              	 .file 5 "F:/Projects/20190909 - 3phase_inverter/3phase_inverter/4. Software_WS/OL_VSC_vitor/Dave/Generated/CMSIS_DSP/arm_common_tables.h"