   1              	 .syntax unified
   2              	 .cpu cortex-m4
   3              	 .eabi_attribute 27,3
   4              	 .fpu fpv4-sp-d16
   5              	 .eabi_attribute 20,1
   6              	 .eabi_attribute 21,1
   7              	 .eabi_attribute 23,3
   8              	 .eabi_attribute 24,1
   9              	 .eabi_attribute 25,1
  10              	 .eabi_attribute 26,1
  11              	 .eabi_attribute 30,6
  12              	 .eabi_attribute 34,1
  13              	 .eabi_attribute 18,4
  14              	 .thumb
  15              	 .file "arm_conv_partial_q7.c"
  16              	 .text
  17              	.Ltext0:
  18              	 .cfi_sections .debug_frame
  19              	 .section .text.arm_conv_partial_q7,"ax",%progbits
  20              	 .align 2
  21              	 .global arm_conv_partial_q7
  22              	 .thumb
  23              	 .thumb_func
  25              	arm_conv_partial_q7:
  26              	.LFB135:
  27              	 .file 1 "../Dave/Generated/CMSIS_DSP/FilteringFunctions/arm_conv_partial_q7.c"
   1:../Dave/Generated/CMSIS_DSP/FilteringFunctions/arm_conv_partial_q7.c **** /* ----------------------------------------------------------------------
   2:../Dave/Generated/CMSIS_DSP/FilteringFunctions/arm_conv_partial_q7.c ****  * Project:      CMSIS DSP Library
   3:../Dave/Generated/CMSIS_DSP/FilteringFunctions/arm_conv_partial_q7.c ****  * Title:        arm_conv_partial_q7.c
   4:../Dave/Generated/CMSIS_DSP/FilteringFunctions/arm_conv_partial_q7.c ****  * Description:  Partial convolution of Q7 sequences
   5:../Dave/Generated/CMSIS_DSP/FilteringFunctions/arm_conv_partial_q7.c ****  *
   6:../Dave/Generated/CMSIS_DSP/FilteringFunctions/arm_conv_partial_q7.c ****  * $Date:        27. January 2017
   7:../Dave/Generated/CMSIS_DSP/FilteringFunctions/arm_conv_partial_q7.c ****  * $Revision:    V.1.5.1
   8:../Dave/Generated/CMSIS_DSP/FilteringFunctions/arm_conv_partial_q7.c ****  *
   9:../Dave/Generated/CMSIS_DSP/FilteringFunctions/arm_conv_partial_q7.c ****  * Target Processor: Cortex-M cores
  10:../Dave/Generated/CMSIS_DSP/FilteringFunctions/arm_conv_partial_q7.c ****  * -------------------------------------------------------------------- */
  11:../Dave/Generated/CMSIS_DSP/FilteringFunctions/arm_conv_partial_q7.c **** /*
  12:../Dave/Generated/CMSIS_DSP/FilteringFunctions/arm_conv_partial_q7.c ****  * Copyright (C) 2010-2017 ARM Limited or its affiliates. All rights reserved.
  13:../Dave/Generated/CMSIS_DSP/FilteringFunctions/arm_conv_partial_q7.c ****  *
  14:../Dave/Generated/CMSIS_DSP/FilteringFunctions/arm_conv_partial_q7.c ****  * SPDX-License-Identifier: Apache-2.0
  15:../Dave/Generated/CMSIS_DSP/FilteringFunctions/arm_conv_partial_q7.c ****  *
  16:../Dave/Generated/CMSIS_DSP/FilteringFunctions/arm_conv_partial_q7.c ****  * Licensed under the Apache License, Version 2.0 (the License); you may
  17:../Dave/Generated/CMSIS_DSP/FilteringFunctions/arm_conv_partial_q7.c ****  * not use this file except in compliance with the License.
  18:../Dave/Generated/CMSIS_DSP/FilteringFunctions/arm_conv_partial_q7.c ****  * You may obtain a copy of the License at
  19:../Dave/Generated/CMSIS_DSP/FilteringFunctions/arm_conv_partial_q7.c ****  *
  20:../Dave/Generated/CMSIS_DSP/FilteringFunctions/arm_conv_partial_q7.c ****  * www.apache.org/licenses/LICENSE-2.0
  21:../Dave/Generated/CMSIS_DSP/FilteringFunctions/arm_conv_partial_q7.c ****  *
  22:../Dave/Generated/CMSIS_DSP/FilteringFunctions/arm_conv_partial_q7.c ****  * Unless required by applicable law or agreed to in writing, software
  23:../Dave/Generated/CMSIS_DSP/FilteringFunctions/arm_conv_partial_q7.c ****  * distributed under the License is distributed on an AS IS BASIS, WITHOUT
  24:../Dave/Generated/CMSIS_DSP/FilteringFunctions/arm_conv_partial_q7.c ****  * WARRANTIES OR CONDITIONS OF ANY KIND, either express or implied.
  25:../Dave/Generated/CMSIS_DSP/FilteringFunctions/arm_conv_partial_q7.c ****  * See the License for the specific language governing permissions and
  26:../Dave/Generated/CMSIS_DSP/FilteringFunctions/arm_conv_partial_q7.c ****  * limitations under the License.
  27:../Dave/Generated/CMSIS_DSP/FilteringFunctions/arm_conv_partial_q7.c ****  */
  28:../Dave/Generated/CMSIS_DSP/FilteringFunctions/arm_conv_partial_q7.c **** 
  29:../Dave/Generated/CMSIS_DSP/FilteringFunctions/arm_conv_partial_q7.c **** #include "CMSIS_DSP/cmsis_dsp.h"
  30:../Dave/Generated/CMSIS_DSP/FilteringFunctions/arm_conv_partial_q7.c **** 
  31:../Dave/Generated/CMSIS_DSP/FilteringFunctions/arm_conv_partial_q7.c **** /**
  32:../Dave/Generated/CMSIS_DSP/FilteringFunctions/arm_conv_partial_q7.c ****  * @ingroup groupFilters
  33:../Dave/Generated/CMSIS_DSP/FilteringFunctions/arm_conv_partial_q7.c ****  */
  34:../Dave/Generated/CMSIS_DSP/FilteringFunctions/arm_conv_partial_q7.c **** 
  35:../Dave/Generated/CMSIS_DSP/FilteringFunctions/arm_conv_partial_q7.c **** /**
  36:../Dave/Generated/CMSIS_DSP/FilteringFunctions/arm_conv_partial_q7.c ****  * @addtogroup PartialConv
  37:../Dave/Generated/CMSIS_DSP/FilteringFunctions/arm_conv_partial_q7.c ****  * @{
  38:../Dave/Generated/CMSIS_DSP/FilteringFunctions/arm_conv_partial_q7.c ****  */
  39:../Dave/Generated/CMSIS_DSP/FilteringFunctions/arm_conv_partial_q7.c **** 
  40:../Dave/Generated/CMSIS_DSP/FilteringFunctions/arm_conv_partial_q7.c **** /**
  41:../Dave/Generated/CMSIS_DSP/FilteringFunctions/arm_conv_partial_q7.c ****  * @brief Partial convolution of Q7 sequences.
  42:../Dave/Generated/CMSIS_DSP/FilteringFunctions/arm_conv_partial_q7.c ****  * @param[in]       *pSrcA points to the first input sequence.
  43:../Dave/Generated/CMSIS_DSP/FilteringFunctions/arm_conv_partial_q7.c ****  * @param[in]       srcALen length of the first input sequence.
  44:../Dave/Generated/CMSIS_DSP/FilteringFunctions/arm_conv_partial_q7.c ****  * @param[in]       *pSrcB points to the second input sequence.
  45:../Dave/Generated/CMSIS_DSP/FilteringFunctions/arm_conv_partial_q7.c ****  * @param[in]       srcBLen length of the second input sequence.
  46:../Dave/Generated/CMSIS_DSP/FilteringFunctions/arm_conv_partial_q7.c ****  * @param[out]      *pDst points to the location where the output result is written.
  47:../Dave/Generated/CMSIS_DSP/FilteringFunctions/arm_conv_partial_q7.c ****  * @param[in]       firstIndex is the first output sample to start with.
  48:../Dave/Generated/CMSIS_DSP/FilteringFunctions/arm_conv_partial_q7.c ****  * @param[in]       numPoints is the number of output points to be computed.
  49:../Dave/Generated/CMSIS_DSP/FilteringFunctions/arm_conv_partial_q7.c ****  * @return  Returns either ARM_MATH_SUCCESS if the function completed correctly or ARM_MATH_ARGUMEN
  50:../Dave/Generated/CMSIS_DSP/FilteringFunctions/arm_conv_partial_q7.c ****  *
  51:../Dave/Generated/CMSIS_DSP/FilteringFunctions/arm_conv_partial_q7.c ****  * \par
  52:../Dave/Generated/CMSIS_DSP/FilteringFunctions/arm_conv_partial_q7.c ****  * Refer the function <code>arm_conv_partial_opt_q7()</code> for a faster implementation of this fu
  53:../Dave/Generated/CMSIS_DSP/FilteringFunctions/arm_conv_partial_q7.c ****  *
  54:../Dave/Generated/CMSIS_DSP/FilteringFunctions/arm_conv_partial_q7.c ****  */
  55:../Dave/Generated/CMSIS_DSP/FilteringFunctions/arm_conv_partial_q7.c **** 
  56:../Dave/Generated/CMSIS_DSP/FilteringFunctions/arm_conv_partial_q7.c **** arm_status arm_conv_partial_q7(
  57:../Dave/Generated/CMSIS_DSP/FilteringFunctions/arm_conv_partial_q7.c ****   q7_t * pSrcA,
  58:../Dave/Generated/CMSIS_DSP/FilteringFunctions/arm_conv_partial_q7.c ****   uint32_t srcALen,
  59:../Dave/Generated/CMSIS_DSP/FilteringFunctions/arm_conv_partial_q7.c ****   q7_t * pSrcB,
  60:../Dave/Generated/CMSIS_DSP/FilteringFunctions/arm_conv_partial_q7.c ****   uint32_t srcBLen,
  61:../Dave/Generated/CMSIS_DSP/FilteringFunctions/arm_conv_partial_q7.c ****   q7_t * pDst,
  62:../Dave/Generated/CMSIS_DSP/FilteringFunctions/arm_conv_partial_q7.c ****   uint32_t firstIndex,
  63:../Dave/Generated/CMSIS_DSP/FilteringFunctions/arm_conv_partial_q7.c ****   uint32_t numPoints)
  64:../Dave/Generated/CMSIS_DSP/FilteringFunctions/arm_conv_partial_q7.c **** {
  28              	 .loc 1 64 0
  29              	 .cfi_startproc
  30              	 
  31              	 
  32              	 
  33 0000 90B4     	 push {r4,r7}
  34              	.LCFI0:
  35              	 .cfi_def_cfa_offset 8
  36              	 .cfi_offset 4,-8
  37              	 .cfi_offset 7,-4
  38 0002 E6B0     	 sub sp,sp,#408
  39              	.LCFI1:
  40              	 .cfi_def_cfa_offset 416
  41 0004 00AF     	 add r7,sp,#0
  42              	.LCFI2:
  43              	 .cfi_def_cfa_register 7
  44 0006 07F10C04 	 add r4,r7,#12
  45 000a 2060     	 str r0,[r4]
  46 000c 07F10800 	 add r0,r7,#8
  47 0010 0160     	 str r1,[r0]
  48 0012 391D     	 adds r1,r7,#4
  49 0014 0A60     	 str r2,[r1]
  50 0016 3A46     	 mov r2,r7
  51 0018 1360     	 str r3,[r2]
  65:../Dave/Generated/CMSIS_DSP/FilteringFunctions/arm_conv_partial_q7.c **** 
  66:../Dave/Generated/CMSIS_DSP/FilteringFunctions/arm_conv_partial_q7.c **** 
  67:../Dave/Generated/CMSIS_DSP/FilteringFunctions/arm_conv_partial_q7.c **** #if defined (ARM_MATH_DSP)
  68:../Dave/Generated/CMSIS_DSP/FilteringFunctions/arm_conv_partial_q7.c **** 
  69:../Dave/Generated/CMSIS_DSP/FilteringFunctions/arm_conv_partial_q7.c ****   /* Run the below code for Cortex-M4 and Cortex-M3 */
  70:../Dave/Generated/CMSIS_DSP/FilteringFunctions/arm_conv_partial_q7.c **** 
  71:../Dave/Generated/CMSIS_DSP/FilteringFunctions/arm_conv_partial_q7.c ****   q7_t *pIn1;                                    /* inputA pointer */
  72:../Dave/Generated/CMSIS_DSP/FilteringFunctions/arm_conv_partial_q7.c ****   q7_t *pIn2;                                    /* inputB pointer */
  73:../Dave/Generated/CMSIS_DSP/FilteringFunctions/arm_conv_partial_q7.c ****   q7_t *pOut = pDst;                             /* output pointer */
  52              	 .loc 1 73 0
  53 001a D7F8A031 	 ldr r3,[r7,#416]
  54 001e C7F88C31 	 str r3,[r7,#396]
  74:../Dave/Generated/CMSIS_DSP/FilteringFunctions/arm_conv_partial_q7.c ****   q7_t *px;                                      /* Intermediate inputA pointer */
  75:../Dave/Generated/CMSIS_DSP/FilteringFunctions/arm_conv_partial_q7.c ****   q7_t *py;                                      /* Intermediate inputB pointer */
  76:../Dave/Generated/CMSIS_DSP/FilteringFunctions/arm_conv_partial_q7.c ****   q7_t *pSrc1, *pSrc2;                           /* Intermediate pointers */
  77:../Dave/Generated/CMSIS_DSP/FilteringFunctions/arm_conv_partial_q7.c ****   q31_t sum, acc0, acc1, acc2, acc3;             /* Accumulator */
  78:../Dave/Generated/CMSIS_DSP/FilteringFunctions/arm_conv_partial_q7.c ****   q31_t input1, input2;
  79:../Dave/Generated/CMSIS_DSP/FilteringFunctions/arm_conv_partial_q7.c ****   q15_t in1, in2;
  80:../Dave/Generated/CMSIS_DSP/FilteringFunctions/arm_conv_partial_q7.c ****   q7_t x0, x1, x2, x3, c0, c1;
  81:../Dave/Generated/CMSIS_DSP/FilteringFunctions/arm_conv_partial_q7.c ****   uint32_t j, k, count, check, blkCnt;
  82:../Dave/Generated/CMSIS_DSP/FilteringFunctions/arm_conv_partial_q7.c ****   int32_t blockSize1, blockSize2, blockSize3;    /* loop counter */
  83:../Dave/Generated/CMSIS_DSP/FilteringFunctions/arm_conv_partial_q7.c ****   arm_status status;
  84:../Dave/Generated/CMSIS_DSP/FilteringFunctions/arm_conv_partial_q7.c **** 
  85:../Dave/Generated/CMSIS_DSP/FilteringFunctions/arm_conv_partial_q7.c **** 
  86:../Dave/Generated/CMSIS_DSP/FilteringFunctions/arm_conv_partial_q7.c ****   /* Check for range of output samples to be calculated */
  87:../Dave/Generated/CMSIS_DSP/FilteringFunctions/arm_conv_partial_q7.c ****   if ((firstIndex + numPoints) > ((srcALen + (srcBLen - 1u))))
  55              	 .loc 1 87 0
  56 0022 D7F8A421 	 ldr r2,[r7,#420]
  57 0026 D7F8A831 	 ldr r3,[r7,#424]
  58 002a 1A44     	 add r2,r2,r3
  59 002c 3946     	 mov r1,r7
  60 002e 07F10803 	 add r3,r7,#8
  61 0032 0968     	 ldr r1,[r1]
  62 0034 1B68     	 ldr r3,[r3]
  63 0036 0B44     	 add r3,r3,r1
  64 0038 013B     	 subs r3,r3,#1
  65 003a 9A42     	 cmp r2,r3
  66 003c 04D9     	 bls .L2
  88:../Dave/Generated/CMSIS_DSP/FilteringFunctions/arm_conv_partial_q7.c ****   {
  89:../Dave/Generated/CMSIS_DSP/FilteringFunctions/arm_conv_partial_q7.c ****     /* Set status as ARM_MATH_ARGUMENT_ERROR */
  90:../Dave/Generated/CMSIS_DSP/FilteringFunctions/arm_conv_partial_q7.c ****     status = ARM_MATH_ARGUMENT_ERROR;
  67              	 .loc 1 90 0
  68 003e FF23     	 movs r3,#255
  69 0040 87F84F31 	 strb r3,[r7,#335]
  70 0044 00F063BF 	 b .L3
  71              	.L2:
  91:../Dave/Generated/CMSIS_DSP/FilteringFunctions/arm_conv_partial_q7.c ****   }
  92:../Dave/Generated/CMSIS_DSP/FilteringFunctions/arm_conv_partial_q7.c ****   else
  93:../Dave/Generated/CMSIS_DSP/FilteringFunctions/arm_conv_partial_q7.c ****   {
  94:../Dave/Generated/CMSIS_DSP/FilteringFunctions/arm_conv_partial_q7.c **** 
  95:../Dave/Generated/CMSIS_DSP/FilteringFunctions/arm_conv_partial_q7.c ****     /* The algorithm implementation is based on the lengths of the inputs. */
  96:../Dave/Generated/CMSIS_DSP/FilteringFunctions/arm_conv_partial_q7.c ****     /* srcB is always made to slide across srcA. */
  97:../Dave/Generated/CMSIS_DSP/FilteringFunctions/arm_conv_partial_q7.c ****     /* So srcBLen is always considered as shorter or equal to srcALen */
  98:../Dave/Generated/CMSIS_DSP/FilteringFunctions/arm_conv_partial_q7.c ****     if (srcALen >= srcBLen)
  72              	 .loc 1 98 0
  73 0048 07F10802 	 add r2,r7,#8
  74 004c 3B46     	 mov r3,r7
  75 004e 1268     	 ldr r2,[r2]
  76 0050 1B68     	 ldr r3,[r3]
  77 0052 9A42     	 cmp r2,r3
  78 0054 09D3     	 bcc .L4
  99:../Dave/Generated/CMSIS_DSP/FilteringFunctions/arm_conv_partial_q7.c ****     {
 100:../Dave/Generated/CMSIS_DSP/FilteringFunctions/arm_conv_partial_q7.c ****       /* Initialization of inputA pointer */
 101:../Dave/Generated/CMSIS_DSP/FilteringFunctions/arm_conv_partial_q7.c ****       pIn1 = pSrcA;
  79              	 .loc 1 101 0
  80 0056 07F10C03 	 add r3,r7,#12
  81 005a 1B68     	 ldr r3,[r3]
  82 005c C7F89431 	 str r3,[r7,#404]
 102:../Dave/Generated/CMSIS_DSP/FilteringFunctions/arm_conv_partial_q7.c **** 
 103:../Dave/Generated/CMSIS_DSP/FilteringFunctions/arm_conv_partial_q7.c ****       /* Initialization of inputB pointer */
 104:../Dave/Generated/CMSIS_DSP/FilteringFunctions/arm_conv_partial_q7.c ****       pIn2 = pSrcB;
  83              	 .loc 1 104 0
  84 0060 3B1D     	 adds r3,r7,#4
  85 0062 1B68     	 ldr r3,[r3]
  86 0064 C7F89031 	 str r3,[r7,#400]
  87 0068 16E0     	 b .L5
  88              	.L4:
 105:../Dave/Generated/CMSIS_DSP/FilteringFunctions/arm_conv_partial_q7.c ****     }
 106:../Dave/Generated/CMSIS_DSP/FilteringFunctions/arm_conv_partial_q7.c ****     else
 107:../Dave/Generated/CMSIS_DSP/FilteringFunctions/arm_conv_partial_q7.c ****     {
 108:../Dave/Generated/CMSIS_DSP/FilteringFunctions/arm_conv_partial_q7.c ****       /* Initialization of inputA pointer */
 109:../Dave/Generated/CMSIS_DSP/FilteringFunctions/arm_conv_partial_q7.c ****       pIn1 = pSrcB;
  89              	 .loc 1 109 0
  90 006a 3B1D     	 adds r3,r7,#4
  91 006c 1B68     	 ldr r3,[r3]
  92 006e C7F89431 	 str r3,[r7,#404]
 110:../Dave/Generated/CMSIS_DSP/FilteringFunctions/arm_conv_partial_q7.c **** 
 111:../Dave/Generated/CMSIS_DSP/FilteringFunctions/arm_conv_partial_q7.c ****       /* Initialization of inputB pointer */
 112:../Dave/Generated/CMSIS_DSP/FilteringFunctions/arm_conv_partial_q7.c ****       pIn2 = pSrcA;
  93              	 .loc 1 112 0
  94 0072 07F10C03 	 add r3,r7,#12
  95 0076 1B68     	 ldr r3,[r3]
  96 0078 C7F89031 	 str r3,[r7,#400]
 113:../Dave/Generated/CMSIS_DSP/FilteringFunctions/arm_conv_partial_q7.c **** 
 114:../Dave/Generated/CMSIS_DSP/FilteringFunctions/arm_conv_partial_q7.c ****       /* srcBLen is always considered as shorter or equal to srcALen */
 115:../Dave/Generated/CMSIS_DSP/FilteringFunctions/arm_conv_partial_q7.c ****       j = srcBLen;
  97              	 .loc 1 115 0
  98 007c 3B46     	 mov r3,r7
  99 007e 1B68     	 ldr r3,[r3]
 100 0080 C7F84831 	 str r3,[r7,#328]
 116:../Dave/Generated/CMSIS_DSP/FilteringFunctions/arm_conv_partial_q7.c ****       srcBLen = srcALen;
 101              	 .loc 1 116 0
 102 0084 3B46     	 mov r3,r7
 103 0086 07F10802 	 add r2,r7,#8
 104 008a 1268     	 ldr r2,[r2]
 105 008c 1A60     	 str r2,[r3]
 117:../Dave/Generated/CMSIS_DSP/FilteringFunctions/arm_conv_partial_q7.c ****       srcALen = j;
 106              	 .loc 1 117 0
 107 008e 07F10803 	 add r3,r7,#8
 108 0092 D7F84821 	 ldr r2,[r7,#328]
 109 0096 1A60     	 str r2,[r3]
 110              	.L5:
 118:../Dave/Generated/CMSIS_DSP/FilteringFunctions/arm_conv_partial_q7.c ****     }
 119:../Dave/Generated/CMSIS_DSP/FilteringFunctions/arm_conv_partial_q7.c **** 
 120:../Dave/Generated/CMSIS_DSP/FilteringFunctions/arm_conv_partial_q7.c ****     /* Conditions to check which loopCounter holds
 121:../Dave/Generated/CMSIS_DSP/FilteringFunctions/arm_conv_partial_q7.c ****      * the first and last indices of the output samples to be calculated. */
 122:../Dave/Generated/CMSIS_DSP/FilteringFunctions/arm_conv_partial_q7.c ****     check = firstIndex + numPoints;
 111              	 .loc 1 122 0
 112 0098 D7F8A421 	 ldr r2,[r7,#420]
 113 009c D7F8A831 	 ldr r3,[r7,#424]
 114 00a0 1344     	 add r3,r3,r2
 115 00a2 C7F84431 	 str r3,[r7,#324]
 123:../Dave/Generated/CMSIS_DSP/FilteringFunctions/arm_conv_partial_q7.c ****     blockSize3 = ((int32_t)check > (int32_t)srcALen) ? (int32_t)check - (int32_t)srcALen : 0;
 116              	 .loc 1 123 0
 117 00a6 D7F84421 	 ldr r2,[r7,#324]
 118 00aa 07F10803 	 add r3,r7,#8
 119 00ae 1B68     	 ldr r3,[r3]
 120 00b0 9A42     	 cmp r2,r3
 121 00b2 06DD     	 ble .L6
 122              	 .loc 1 123 0 is_stmt 0 discriminator 1
 123 00b4 D7F84421 	 ldr r2,[r7,#324]
 124 00b8 07F10803 	 add r3,r7,#8
 125 00bc 1B68     	 ldr r3,[r3]
 126 00be D31A     	 subs r3,r2,r3
 127 00c0 00E0     	 b .L7
 128              	.L6:
 129              	 .loc 1 123 0 discriminator 2
 130 00c2 0023     	 movs r3,#0
 131              	.L7:
 132              	 .loc 1 123 0 discriminator 4
 133 00c4 C7F85031 	 str r3,[r7,#336]
 124:../Dave/Generated/CMSIS_DSP/FilteringFunctions/arm_conv_partial_q7.c ****     blockSize3 = ((int32_t)firstIndex > (int32_t)srcALen - 1) ? blockSize3 - (int32_t)firstIndex + 
 134              	 .loc 1 124 0 is_stmt 1 discriminator 4
 135 00c8 D7F8A421 	 ldr r2,[r7,#420]
 136 00cc 07F10803 	 add r3,r7,#8
 137 00d0 1B68     	 ldr r3,[r3]
 138 00d2 013B     	 subs r3,r3,#1
 139 00d4 9A42     	 cmp r2,r3
 140 00d6 09DD     	 ble .L8
 141              	 .loc 1 124 0 is_stmt 0 discriminator 1
 142 00d8 D7F8A431 	 ldr r3,[r7,#420]
 143 00dc D7F85021 	 ldr r2,[r7,#336]
 144 00e0 D21A     	 subs r2,r2,r3
 145 00e2 07F10803 	 add r3,r7,#8
 146 00e6 1B68     	 ldr r3,[r3]
 147 00e8 1344     	 add r3,r3,r2
 148 00ea 01E0     	 b .L9
 149              	.L8:
 150              	 .loc 1 124 0 discriminator 2
 151 00ec D7F85031 	 ldr r3,[r7,#336]
 152              	.L9:
 153              	 .loc 1 124 0 discriminator 4
 154 00f0 C7F85031 	 str r3,[r7,#336]
 125:../Dave/Generated/CMSIS_DSP/FilteringFunctions/arm_conv_partial_q7.c ****     blockSize1 = (((int32_t) srcBLen - 1) - (int32_t) firstIndex);
 155              	 .loc 1 125 0 is_stmt 1 discriminator 4
 156 00f4 3B46     	 mov r3,r7
 157 00f6 1A68     	 ldr r2,[r3]
 158 00f8 D7F8A431 	 ldr r3,[r7,#420]
 159 00fc D31A     	 subs r3,r2,r3
 160 00fe 013B     	 subs r3,r3,#1
 161 0100 C7F85431 	 str r3,[r7,#340]
 126:../Dave/Generated/CMSIS_DSP/FilteringFunctions/arm_conv_partial_q7.c ****     blockSize1 = (blockSize1 > 0) ? ((check > (srcBLen - 1u)) ? blockSize1 :
 127:../Dave/Generated/CMSIS_DSP/FilteringFunctions/arm_conv_partial_q7.c ****                                      (int32_t) numPoints) : 0;
 162              	 .loc 1 127 0 discriminator 4
 163 0104 D7F85431 	 ldr r3,[r7,#340]
 164 0108 002B     	 cmp r3,#0
 165 010a 0CDD     	 ble .L10
 126:../Dave/Generated/CMSIS_DSP/FilteringFunctions/arm_conv_partial_q7.c ****     blockSize1 = (blockSize1 > 0) ? ((check > (srcBLen - 1u)) ? blockSize1 :
 166              	 .loc 1 126 0
 167 010c 3B46     	 mov r3,r7
 168 010e 1B68     	 ldr r3,[r3]
 169 0110 5A1E     	 subs r2,r3,#1
 170 0112 D7F84431 	 ldr r3,[r7,#324]
 171 0116 9A42     	 cmp r2,r3
 172 0118 02D3     	 bcc .L11
 126:../Dave/Generated/CMSIS_DSP/FilteringFunctions/arm_conv_partial_q7.c ****     blockSize1 = (blockSize1 > 0) ? ((check > (srcBLen - 1u)) ? blockSize1 :
 173              	 .loc 1 126 0 is_stmt 0 discriminator 1
 174 011a D7F8A831 	 ldr r3,[r7,#424]
 175 011e 03E0     	 b .L13
 176              	.L11:
 126:../Dave/Generated/CMSIS_DSP/FilteringFunctions/arm_conv_partial_q7.c ****     blockSize1 = (blockSize1 > 0) ? ((check > (srcBLen - 1u)) ? blockSize1 :
 177              	 .loc 1 126 0 discriminator 2
 178 0120 D7F85431 	 ldr r3,[r7,#340]
 179 0124 00E0     	 b .L13
 180              	.L10:
 181              	 .loc 1 127 0 is_stmt 1 discriminator 1
 182 0126 0023     	 movs r3,#0
 183              	.L13:
 126:../Dave/Generated/CMSIS_DSP/FilteringFunctions/arm_conv_partial_q7.c ****     blockSize1 = (blockSize1 > 0) ? ((check > (srcBLen - 1u)) ? blockSize1 :
 184              	 .loc 1 126 0
 185 0128 C7F85431 	 str r3,[r7,#340]
 128:../Dave/Generated/CMSIS_DSP/FilteringFunctions/arm_conv_partial_q7.c ****     blockSize2 = (int32_t) check - ((blockSize3 + blockSize1) +
 186              	 .loc 1 128 0
 187 012c D7F84421 	 ldr r2,[r7,#324]
 188 0130 D7F85011 	 ldr r1,[r7,#336]
 189 0134 D7F85431 	 ldr r3,[r7,#340]
 190 0138 1944     	 add r1,r1,r3
 129:../Dave/Generated/CMSIS_DSP/FilteringFunctions/arm_conv_partial_q7.c ****                                     (int32_t) firstIndex);
 191              	 .loc 1 129 0
 192 013a D7F8A431 	 ldr r3,[r7,#420]
 128:../Dave/Generated/CMSIS_DSP/FilteringFunctions/arm_conv_partial_q7.c ****     blockSize2 = (int32_t) check - ((blockSize3 + blockSize1) +
 193              	 .loc 1 128 0
 194 013e 0B44     	 add r3,r3,r1
 195 0140 D31A     	 subs r3,r2,r3
 196 0142 C7F84031 	 str r3,[r7,#320]
 130:../Dave/Generated/CMSIS_DSP/FilteringFunctions/arm_conv_partial_q7.c ****     blockSize2 = (blockSize2 > 0) ? blockSize2 : 0;
 197              	 .loc 1 130 0
 198 0146 D7F84031 	 ldr r3,[r7,#320]
 199 014a 23EAE373 	 bic r3,r3,r3,asr#31
 200 014e C7F84031 	 str r3,[r7,#320]
 131:../Dave/Generated/CMSIS_DSP/FilteringFunctions/arm_conv_partial_q7.c **** 
 132:../Dave/Generated/CMSIS_DSP/FilteringFunctions/arm_conv_partial_q7.c ****     /* conv(x,y) at n = x[n] * y[0] + x[n-1] * y[1] + x[n-2] * y[2] + ...+ x[n-N+1] * y[N -1] */
 133:../Dave/Generated/CMSIS_DSP/FilteringFunctions/arm_conv_partial_q7.c ****     /* The function is internally
 134:../Dave/Generated/CMSIS_DSP/FilteringFunctions/arm_conv_partial_q7.c ****      * divided into three stages according to the number of multiplications that has to be
 135:../Dave/Generated/CMSIS_DSP/FilteringFunctions/arm_conv_partial_q7.c ****      * taken place between inputA samples and inputB samples. In the first stage of the
 136:../Dave/Generated/CMSIS_DSP/FilteringFunctions/arm_conv_partial_q7.c ****      * algorithm, the multiplications increase by one for every iteration.
 137:../Dave/Generated/CMSIS_DSP/FilteringFunctions/arm_conv_partial_q7.c ****      * In the second stage of the algorithm, srcBLen number of multiplications are done.
 138:../Dave/Generated/CMSIS_DSP/FilteringFunctions/arm_conv_partial_q7.c ****      * In the third stage of the algorithm, the multiplications decrease by one
 139:../Dave/Generated/CMSIS_DSP/FilteringFunctions/arm_conv_partial_q7.c ****      * for every iteration. */
 140:../Dave/Generated/CMSIS_DSP/FilteringFunctions/arm_conv_partial_q7.c **** 
 141:../Dave/Generated/CMSIS_DSP/FilteringFunctions/arm_conv_partial_q7.c ****     /* Set the output pointer to point to the firstIndex
 142:../Dave/Generated/CMSIS_DSP/FilteringFunctions/arm_conv_partial_q7.c ****      * of the output sample to be calculated. */
 143:../Dave/Generated/CMSIS_DSP/FilteringFunctions/arm_conv_partial_q7.c ****     pOut = pDst + firstIndex;
 201              	 .loc 1 143 0
 202 0152 D7F8A021 	 ldr r2,[r7,#416]
 203 0156 D7F8A431 	 ldr r3,[r7,#420]
 204 015a 1344     	 add r3,r3,r2
 205 015c C7F88C31 	 str r3,[r7,#396]
 144:../Dave/Generated/CMSIS_DSP/FilteringFunctions/arm_conv_partial_q7.c **** 
 145:../Dave/Generated/CMSIS_DSP/FilteringFunctions/arm_conv_partial_q7.c ****     /* --------------------------
 146:../Dave/Generated/CMSIS_DSP/FilteringFunctions/arm_conv_partial_q7.c ****      * Initializations of stage1
 147:../Dave/Generated/CMSIS_DSP/FilteringFunctions/arm_conv_partial_q7.c ****      * -------------------------*/
 148:../Dave/Generated/CMSIS_DSP/FilteringFunctions/arm_conv_partial_q7.c **** 
 149:../Dave/Generated/CMSIS_DSP/FilteringFunctions/arm_conv_partial_q7.c ****     /* sum = x[0] * y[0]
 150:../Dave/Generated/CMSIS_DSP/FilteringFunctions/arm_conv_partial_q7.c ****      * sum = x[0] * y[1] + x[1] * y[0]
 151:../Dave/Generated/CMSIS_DSP/FilteringFunctions/arm_conv_partial_q7.c ****      * ....
 152:../Dave/Generated/CMSIS_DSP/FilteringFunctions/arm_conv_partial_q7.c ****      * sum = x[0] * y[srcBlen - 1] + x[1] * y[srcBlen - 2] +...+ x[srcBLen - 1] * y[0]
 153:../Dave/Generated/CMSIS_DSP/FilteringFunctions/arm_conv_partial_q7.c ****      */
 154:../Dave/Generated/CMSIS_DSP/FilteringFunctions/arm_conv_partial_q7.c **** 
 155:../Dave/Generated/CMSIS_DSP/FilteringFunctions/arm_conv_partial_q7.c ****     /* In this stage the MAC operations are increased by 1 for every iteration.
 156:../Dave/Generated/CMSIS_DSP/FilteringFunctions/arm_conv_partial_q7.c ****        The count variable holds the number of MAC operations performed.
 157:../Dave/Generated/CMSIS_DSP/FilteringFunctions/arm_conv_partial_q7.c ****        Since the partial convolution starts from from firstIndex
 158:../Dave/Generated/CMSIS_DSP/FilteringFunctions/arm_conv_partial_q7.c ****        Number of Macs to be performed is firstIndex + 1 */
 159:../Dave/Generated/CMSIS_DSP/FilteringFunctions/arm_conv_partial_q7.c ****     count = 1u + firstIndex;
 206              	 .loc 1 159 0
 207 0160 D7F8A431 	 ldr r3,[r7,#420]
 208 0164 0133     	 adds r3,r3,#1
 209 0166 C7F85C31 	 str r3,[r7,#348]
 160:../Dave/Generated/CMSIS_DSP/FilteringFunctions/arm_conv_partial_q7.c **** 
 161:../Dave/Generated/CMSIS_DSP/FilteringFunctions/arm_conv_partial_q7.c ****     /* Working pointer of inputA */
 162:../Dave/Generated/CMSIS_DSP/FilteringFunctions/arm_conv_partial_q7.c ****     px = pIn1;
 210              	 .loc 1 162 0
 211 016a D7F89431 	 ldr r3,[r7,#404]
 212 016e C7F88831 	 str r3,[r7,#392]
 163:../Dave/Generated/CMSIS_DSP/FilteringFunctions/arm_conv_partial_q7.c **** 
 164:../Dave/Generated/CMSIS_DSP/FilteringFunctions/arm_conv_partial_q7.c ****     /* Working pointer of inputB */
 165:../Dave/Generated/CMSIS_DSP/FilteringFunctions/arm_conv_partial_q7.c ****     pSrc2 = pIn2 + firstIndex;
 213              	 .loc 1 165 0
 214 0172 D7F89021 	 ldr r2,[r7,#400]
 215 0176 D7F8A431 	 ldr r3,[r7,#420]
 216 017a 1344     	 add r3,r3,r2
 217 017c C7F87C31 	 str r3,[r7,#380]
 166:../Dave/Generated/CMSIS_DSP/FilteringFunctions/arm_conv_partial_q7.c ****     py = pSrc2;
 218              	 .loc 1 166 0
 219 0180 D7F87C31 	 ldr r3,[r7,#380]
 220 0184 C7F88431 	 str r3,[r7,#388]
 167:../Dave/Generated/CMSIS_DSP/FilteringFunctions/arm_conv_partial_q7.c **** 
 168:../Dave/Generated/CMSIS_DSP/FilteringFunctions/arm_conv_partial_q7.c ****     /* ------------------------
 169:../Dave/Generated/CMSIS_DSP/FilteringFunctions/arm_conv_partial_q7.c ****      * Stage1 process
 170:../Dave/Generated/CMSIS_DSP/FilteringFunctions/arm_conv_partial_q7.c ****      * ----------------------*/
 171:../Dave/Generated/CMSIS_DSP/FilteringFunctions/arm_conv_partial_q7.c **** 
 172:../Dave/Generated/CMSIS_DSP/FilteringFunctions/arm_conv_partial_q7.c ****     /* The first stage starts here */
 173:../Dave/Generated/CMSIS_DSP/FilteringFunctions/arm_conv_partial_q7.c ****     while (blockSize1 > 0)
 221              	 .loc 1 173 0
 222 0188 02E1     	 b .L14
 223              	.L21:
 174:../Dave/Generated/CMSIS_DSP/FilteringFunctions/arm_conv_partial_q7.c ****     {
 175:../Dave/Generated/CMSIS_DSP/FilteringFunctions/arm_conv_partial_q7.c ****       /* Accumulator is made zero for every iteration */
 176:../Dave/Generated/CMSIS_DSP/FilteringFunctions/arm_conv_partial_q7.c ****       sum = 0;
 224              	 .loc 1 176 0
 225 018a 0023     	 movs r3,#0
 226 018c C7F87831 	 str r3,[r7,#376]
 177:../Dave/Generated/CMSIS_DSP/FilteringFunctions/arm_conv_partial_q7.c **** 
 178:../Dave/Generated/CMSIS_DSP/FilteringFunctions/arm_conv_partial_q7.c ****       /* Apply loop unrolling and compute 4 MACs simultaneously. */
 179:../Dave/Generated/CMSIS_DSP/FilteringFunctions/arm_conv_partial_q7.c ****       k = count >> 2u;
 227              	 .loc 1 179 0
 228 0190 D7F85C31 	 ldr r3,[r7,#348]
 229 0194 9B08     	 lsrs r3,r3,#2
 230 0196 C7F86031 	 str r3,[r7,#352]
 180:../Dave/Generated/CMSIS_DSP/FilteringFunctions/arm_conv_partial_q7.c **** 
 181:../Dave/Generated/CMSIS_DSP/FilteringFunctions/arm_conv_partial_q7.c ****       /* First part of the processing with loop unrolling.  Compute 4 MACs at a time.
 182:../Dave/Generated/CMSIS_DSP/FilteringFunctions/arm_conv_partial_q7.c ****        ** a second loop below computes MACs for the remaining 1 to 3 samples. */
 183:../Dave/Generated/CMSIS_DSP/FilteringFunctions/arm_conv_partial_q7.c ****       while (k > 0u)
 231              	 .loc 1 183 0
 232 019a A4E0     	 b .L15
 233              	.L18:
 184:../Dave/Generated/CMSIS_DSP/FilteringFunctions/arm_conv_partial_q7.c ****       {
 185:../Dave/Generated/CMSIS_DSP/FilteringFunctions/arm_conv_partial_q7.c ****         /* x[0] , x[1] */
 186:../Dave/Generated/CMSIS_DSP/FilteringFunctions/arm_conv_partial_q7.c ****         in1 = (q15_t) * px++;
 234              	 .loc 1 186 0
 235 019c D7F88831 	 ldr r3,[r7,#392]
 236 01a0 5A1C     	 adds r2,r3,#1
 237 01a2 C7F88821 	 str r2,[r7,#392]
 238 01a6 1B78     	 ldrb r3,[r3]
 239 01a8 5BB2     	 sxtb r3,r3
 240 01aa A7F83E31 	 strh r3,[r7,#318]
 187:../Dave/Generated/CMSIS_DSP/FilteringFunctions/arm_conv_partial_q7.c ****         in2 = (q15_t) * px++;
 241              	 .loc 1 187 0
 242 01ae D7F88831 	 ldr r3,[r7,#392]
 243 01b2 5A1C     	 adds r2,r3,#1
 244 01b4 C7F88821 	 str r2,[r7,#392]
 245 01b8 1B78     	 ldrb r3,[r3]
 246 01ba 5BB2     	 sxtb r3,r3
 247 01bc A7F83C31 	 strh r3,[r7,#316]
 188:../Dave/Generated/CMSIS_DSP/FilteringFunctions/arm_conv_partial_q7.c ****         input1 = ((q31_t) in1 & 0x0000FFFF) | ((q31_t) in2 << 16);
 248              	 .loc 1 188 0
 249 01c0 B7F93E31 	 ldrsh r3,[r7,#318]
 250 01c4 9AB2     	 uxth r2,r3
 251 01c6 B7F93C31 	 ldrsh r3,[r7,#316]
 252 01ca 1B04     	 lsls r3,r3,#16
 253 01cc 1343     	 orrs r3,r3,r2
 254 01ce C7F83831 	 str r3,[r7,#312]
 189:../Dave/Generated/CMSIS_DSP/FilteringFunctions/arm_conv_partial_q7.c **** 
 190:../Dave/Generated/CMSIS_DSP/FilteringFunctions/arm_conv_partial_q7.c ****         /* y[srcBLen - 1] , y[srcBLen - 2] */
 191:../Dave/Generated/CMSIS_DSP/FilteringFunctions/arm_conv_partial_q7.c ****         in1 = (q15_t) * py--;
 255              	 .loc 1 191 0
 256 01d2 D7F88431 	 ldr r3,[r7,#388]
 257 01d6 5A1E     	 subs r2,r3,#1
 258 01d8 C7F88421 	 str r2,[r7,#388]
 259 01dc 1B78     	 ldrb r3,[r3]
 260 01de 5BB2     	 sxtb r3,r3
 261 01e0 A7F83E31 	 strh r3,[r7,#318]
 192:../Dave/Generated/CMSIS_DSP/FilteringFunctions/arm_conv_partial_q7.c ****         in2 = (q15_t) * py--;
 262              	 .loc 1 192 0
 263 01e4 D7F88431 	 ldr r3,[r7,#388]
 264 01e8 5A1E     	 subs r2,r3,#1
 265 01ea C7F88421 	 str r2,[r7,#388]
 266 01ee 1B78     	 ldrb r3,[r3]
 267 01f0 5BB2     	 sxtb r3,r3
 268 01f2 A7F83C31 	 strh r3,[r7,#316]
 193:../Dave/Generated/CMSIS_DSP/FilteringFunctions/arm_conv_partial_q7.c ****         input2 = ((q31_t) in1 & 0x0000FFFF) | ((q31_t) in2 << 16);
 269              	 .loc 1 193 0
 270 01f6 B7F93E31 	 ldrsh r3,[r7,#318]
 271 01fa 9AB2     	 uxth r2,r3
 272 01fc B7F93C31 	 ldrsh r3,[r7,#316]
 273 0200 1B04     	 lsls r3,r3,#16
 274 0202 1343     	 orrs r3,r3,r2
 275 0204 C7F83431 	 str r3,[r7,#308]
 194:../Dave/Generated/CMSIS_DSP/FilteringFunctions/arm_conv_partial_q7.c **** 
 195:../Dave/Generated/CMSIS_DSP/FilteringFunctions/arm_conv_partial_q7.c ****         /* x[0] * y[srcBLen - 1] */
 196:../Dave/Generated/CMSIS_DSP/FilteringFunctions/arm_conv_partial_q7.c ****         /* x[1] * y[srcBLen - 2] */
 197:../Dave/Generated/CMSIS_DSP/FilteringFunctions/arm_conv_partial_q7.c ****         sum = __SMLAD(input1, input2, sum);
 276              	 .loc 1 197 0
 277 0208 D7F83811 	 ldr r1,[r7,#312]
 278 020c D7F83421 	 ldr r2,[r7,#308]
 279 0210 D7F87831 	 ldr r3,[r7,#376]
 280 0214 C7F8EC10 	 str r1,[r7,#236]
 281 0218 C7F8E820 	 str r2,[r7,#232]
 282 021c C7F8E430 	 str r3,[r7,#228]
 283              	.LBB38:
 284              	.LBB39:
 285              	 .file 2 "F:/Projects/20190909 - 3phase_inverter/3phase_inverter/4. Software_WS/OL_VSC_vitor/Libraries/CMSIS/Include/cmsis_gcc.h"
   1:F:/Projects/20190909 - 3phase_inverter/3phase_inverter/4. Software_WS/OL_VSC_vitor/Libraries/CMSIS/Include\cmsis_gcc.h **** /**************************************************************************//**
   2:F:/Projects/20190909 - 3phase_inverter/3phase_inverter/4. Software_WS/OL_VSC_vitor/Libraries/CMSIS/Include\cmsis_gcc.h ****  * @file     cmsis_gcc.h
   3:F:/Projects/20190909 - 3phase_inverter/3phase_inverter/4. Software_WS/OL_VSC_vitor/Libraries/CMSIS/Include\cmsis_gcc.h ****  * @brief    CMSIS compiler GCC header file
   4:F:/Projects/20190909 - 3phase_inverter/3phase_inverter/4. Software_WS/OL_VSC_vitor/Libraries/CMSIS/Include\cmsis_gcc.h ****  * @version  V5.0.1
   5:F:/Projects/20190909 - 3phase_inverter/3phase_inverter/4. Software_WS/OL_VSC_vitor/Libraries/CMSIS/Include\cmsis_gcc.h ****  * @date     02. February 2017
   6:F:/Projects/20190909 - 3phase_inverter/3phase_inverter/4. Software_WS/OL_VSC_vitor/Libraries/CMSIS/Include\cmsis_gcc.h ****  ******************************************************************************/
   7:F:/Projects/20190909 - 3phase_inverter/3phase_inverter/4. Software_WS/OL_VSC_vitor/Libraries/CMSIS/Include\cmsis_gcc.h **** /*
   8:F:/Projects/20190909 - 3phase_inverter/3phase_inverter/4. Software_WS/OL_VSC_vitor/Libraries/CMSIS/Include\cmsis_gcc.h ****  * Copyright (c) 2009-2017 ARM Limited. All rights reserved.
   9:F:/Projects/20190909 - 3phase_inverter/3phase_inverter/4. Software_WS/OL_VSC_vitor/Libraries/CMSIS/Include\cmsis_gcc.h ****  *
  10:F:/Projects/20190909 - 3phase_inverter/3phase_inverter/4. Software_WS/OL_VSC_vitor/Libraries/CMSIS/Include\cmsis_gcc.h ****  * SPDX-License-Identifier: Apache-2.0
  11:F:/Projects/20190909 - 3phase_inverter/3phase_inverter/4. Software_WS/OL_VSC_vitor/Libraries/CMSIS/Include\cmsis_gcc.h ****  *
  12:F:/Projects/20190909 - 3phase_inverter/3phase_inverter/4. Software_WS/OL_VSC_vitor/Libraries/CMSIS/Include\cmsis_gcc.h ****  * Licensed under the Apache License, Version 2.0 (the License); you may
  13:F:/Projects/20190909 - 3phase_inverter/3phase_inverter/4. Software_WS/OL_VSC_vitor/Libraries/CMSIS/Include\cmsis_gcc.h ****  * not use this file except in compliance with the License.
  14:F:/Projects/20190909 - 3phase_inverter/3phase_inverter/4. Software_WS/OL_VSC_vitor/Libraries/CMSIS/Include\cmsis_gcc.h ****  * You may obtain a copy of the License at
  15:F:/Projects/20190909 - 3phase_inverter/3phase_inverter/4. Software_WS/OL_VSC_vitor/Libraries/CMSIS/Include\cmsis_gcc.h ****  *
  16:F:/Projects/20190909 - 3phase_inverter/3phase_inverter/4. Software_WS/OL_VSC_vitor/Libraries/CMSIS/Include\cmsis_gcc.h ****  * www.apache.org/licenses/LICENSE-2.0
  17:F:/Projects/20190909 - 3phase_inverter/3phase_inverter/4. Software_WS/OL_VSC_vitor/Libraries/CMSIS/Include\cmsis_gcc.h ****  *
  18:F:/Projects/20190909 - 3phase_inverter/3phase_inverter/4. Software_WS/OL_VSC_vitor/Libraries/CMSIS/Include\cmsis_gcc.h ****  * Unless required by applicable law or agreed to in writing, software
  19:F:/Projects/20190909 - 3phase_inverter/3phase_inverter/4. Software_WS/OL_VSC_vitor/Libraries/CMSIS/Include\cmsis_gcc.h ****  * distributed under the License is distributed on an AS IS BASIS, WITHOUT
  20:F:/Projects/20190909 - 3phase_inverter/3phase_inverter/4. Software_WS/OL_VSC_vitor/Libraries/CMSIS/Include\cmsis_gcc.h ****  * WARRANTIES OR CONDITIONS OF ANY KIND, either express or implied.
  21:F:/Projects/20190909 - 3phase_inverter/3phase_inverter/4. Software_WS/OL_VSC_vitor/Libraries/CMSIS/Include\cmsis_gcc.h ****  * See the License for the specific language governing permissions and
  22:F:/Projects/20190909 - 3phase_inverter/3phase_inverter/4. Software_WS/OL_VSC_vitor/Libraries/CMSIS/Include\cmsis_gcc.h ****  * limitations under the License.
  23:F:/Projects/20190909 - 3phase_inverter/3phase_inverter/4. Software_WS/OL_VSC_vitor/Libraries/CMSIS/Include\cmsis_gcc.h ****  */
  24:F:/Projects/20190909 - 3phase_inverter/3phase_inverter/4. Software_WS/OL_VSC_vitor/Libraries/CMSIS/Include\cmsis_gcc.h **** 
  25:F:/Projects/20190909 - 3phase_inverter/3phase_inverter/4. Software_WS/OL_VSC_vitor/Libraries/CMSIS/Include\cmsis_gcc.h **** #ifndef __CMSIS_GCC_H
  26:F:/Projects/20190909 - 3phase_inverter/3phase_inverter/4. Software_WS/OL_VSC_vitor/Libraries/CMSIS/Include\cmsis_gcc.h **** #define __CMSIS_GCC_H
  27:F:/Projects/20190909 - 3phase_inverter/3phase_inverter/4. Software_WS/OL_VSC_vitor/Libraries/CMSIS/Include\cmsis_gcc.h **** 
  28:F:/Projects/20190909 - 3phase_inverter/3phase_inverter/4. Software_WS/OL_VSC_vitor/Libraries/CMSIS/Include\cmsis_gcc.h **** /* ignore some GCC warnings */
  29:F:/Projects/20190909 - 3phase_inverter/3phase_inverter/4. Software_WS/OL_VSC_vitor/Libraries/CMSIS/Include\cmsis_gcc.h **** #pragma GCC diagnostic push
  30:F:/Projects/20190909 - 3phase_inverter/3phase_inverter/4. Software_WS/OL_VSC_vitor/Libraries/CMSIS/Include\cmsis_gcc.h **** #pragma GCC diagnostic ignored "-Wsign-conversion"
  31:F:/Projects/20190909 - 3phase_inverter/3phase_inverter/4. Software_WS/OL_VSC_vitor/Libraries/CMSIS/Include\cmsis_gcc.h **** #pragma GCC diagnostic ignored "-Wconversion"
  32:F:/Projects/20190909 - 3phase_inverter/3phase_inverter/4. Software_WS/OL_VSC_vitor/Libraries/CMSIS/Include\cmsis_gcc.h **** #pragma GCC diagnostic ignored "-Wunused-parameter"
  33:F:/Projects/20190909 - 3phase_inverter/3phase_inverter/4. Software_WS/OL_VSC_vitor/Libraries/CMSIS/Include\cmsis_gcc.h **** 
  34:F:/Projects/20190909 - 3phase_inverter/3phase_inverter/4. Software_WS/OL_VSC_vitor/Libraries/CMSIS/Include\cmsis_gcc.h **** /* CMSIS compiler specific defines */
  35:F:/Projects/20190909 - 3phase_inverter/3phase_inverter/4. Software_WS/OL_VSC_vitor/Libraries/CMSIS/Include\cmsis_gcc.h **** #ifndef   __ASM
  36:F:/Projects/20190909 - 3phase_inverter/3phase_inverter/4. Software_WS/OL_VSC_vitor/Libraries/CMSIS/Include\cmsis_gcc.h ****   #define __ASM                     __asm
  37:F:/Projects/20190909 - 3phase_inverter/3phase_inverter/4. Software_WS/OL_VSC_vitor/Libraries/CMSIS/Include\cmsis_gcc.h **** #endif
  38:F:/Projects/20190909 - 3phase_inverter/3phase_inverter/4. Software_WS/OL_VSC_vitor/Libraries/CMSIS/Include\cmsis_gcc.h **** #ifndef   __INLINE
  39:F:/Projects/20190909 - 3phase_inverter/3phase_inverter/4. Software_WS/OL_VSC_vitor/Libraries/CMSIS/Include\cmsis_gcc.h ****   #define __INLINE                  inline
  40:F:/Projects/20190909 - 3phase_inverter/3phase_inverter/4. Software_WS/OL_VSC_vitor/Libraries/CMSIS/Include\cmsis_gcc.h **** #endif
  41:F:/Projects/20190909 - 3phase_inverter/3phase_inverter/4. Software_WS/OL_VSC_vitor/Libraries/CMSIS/Include\cmsis_gcc.h **** #ifndef   __STATIC_INLINE
  42:F:/Projects/20190909 - 3phase_inverter/3phase_inverter/4. Software_WS/OL_VSC_vitor/Libraries/CMSIS/Include\cmsis_gcc.h ****   #define __STATIC_INLINE           static inline
  43:F:/Projects/20190909 - 3phase_inverter/3phase_inverter/4. Software_WS/OL_VSC_vitor/Libraries/CMSIS/Include\cmsis_gcc.h **** #endif
  44:F:/Projects/20190909 - 3phase_inverter/3phase_inverter/4. Software_WS/OL_VSC_vitor/Libraries/CMSIS/Include\cmsis_gcc.h **** #ifndef   __NO_RETURN
  45:F:/Projects/20190909 - 3phase_inverter/3phase_inverter/4. Software_WS/OL_VSC_vitor/Libraries/CMSIS/Include\cmsis_gcc.h ****   #define __NO_RETURN               __attribute__((noreturn))
  46:F:/Projects/20190909 - 3phase_inverter/3phase_inverter/4. Software_WS/OL_VSC_vitor/Libraries/CMSIS/Include\cmsis_gcc.h **** #endif
  47:F:/Projects/20190909 - 3phase_inverter/3phase_inverter/4. Software_WS/OL_VSC_vitor/Libraries/CMSIS/Include\cmsis_gcc.h **** #ifndef   __USED
  48:F:/Projects/20190909 - 3phase_inverter/3phase_inverter/4. Software_WS/OL_VSC_vitor/Libraries/CMSIS/Include\cmsis_gcc.h ****   #define __USED                    __attribute__((used))
  49:F:/Projects/20190909 - 3phase_inverter/3phase_inverter/4. Software_WS/OL_VSC_vitor/Libraries/CMSIS/Include\cmsis_gcc.h **** #endif
  50:F:/Projects/20190909 - 3phase_inverter/3phase_inverter/4. Software_WS/OL_VSC_vitor/Libraries/CMSIS/Include\cmsis_gcc.h **** #ifndef   __WEAK
  51:F:/Projects/20190909 - 3phase_inverter/3phase_inverter/4. Software_WS/OL_VSC_vitor/Libraries/CMSIS/Include\cmsis_gcc.h ****   #define __WEAK                    __attribute__((weak))
  52:F:/Projects/20190909 - 3phase_inverter/3phase_inverter/4. Software_WS/OL_VSC_vitor/Libraries/CMSIS/Include\cmsis_gcc.h **** #endif
  53:F:/Projects/20190909 - 3phase_inverter/3phase_inverter/4. Software_WS/OL_VSC_vitor/Libraries/CMSIS/Include\cmsis_gcc.h **** #ifndef   __UNALIGNED_UINT32
  54:F:/Projects/20190909 - 3phase_inverter/3phase_inverter/4. Software_WS/OL_VSC_vitor/Libraries/CMSIS/Include\cmsis_gcc.h **** #pragma GCC diagnostic push
  55:F:/Projects/20190909 - 3phase_inverter/3phase_inverter/4. Software_WS/OL_VSC_vitor/Libraries/CMSIS/Include\cmsis_gcc.h **** #pragma GCC diagnostic ignored "-Wpacked"
  56:F:/Projects/20190909 - 3phase_inverter/3phase_inverter/4. Software_WS/OL_VSC_vitor/Libraries/CMSIS/Include\cmsis_gcc.h **** #pragma GCC diagnostic ignored "-Wattributes"
  57:F:/Projects/20190909 - 3phase_inverter/3phase_inverter/4. Software_WS/OL_VSC_vitor/Libraries/CMSIS/Include\cmsis_gcc.h ****   struct __attribute__((packed)) T_UINT32 { uint32_t v; };
  58:F:/Projects/20190909 - 3phase_inverter/3phase_inverter/4. Software_WS/OL_VSC_vitor/Libraries/CMSIS/Include\cmsis_gcc.h **** #pragma GCC diagnostic pop
  59:F:/Projects/20190909 - 3phase_inverter/3phase_inverter/4. Software_WS/OL_VSC_vitor/Libraries/CMSIS/Include\cmsis_gcc.h ****   #define __UNALIGNED_UINT32(x)     (((struct T_UINT32 *)(x))->v)
  60:F:/Projects/20190909 - 3phase_inverter/3phase_inverter/4. Software_WS/OL_VSC_vitor/Libraries/CMSIS/Include\cmsis_gcc.h **** #endif
  61:F:/Projects/20190909 - 3phase_inverter/3phase_inverter/4. Software_WS/OL_VSC_vitor/Libraries/CMSIS/Include\cmsis_gcc.h **** #ifndef   __ALIGNED
  62:F:/Projects/20190909 - 3phase_inverter/3phase_inverter/4. Software_WS/OL_VSC_vitor/Libraries/CMSIS/Include\cmsis_gcc.h ****   #define __ALIGNED(x)              __attribute__((aligned(x)))
  63:F:/Projects/20190909 - 3phase_inverter/3phase_inverter/4. Software_WS/OL_VSC_vitor/Libraries/CMSIS/Include\cmsis_gcc.h **** #endif
  64:F:/Projects/20190909 - 3phase_inverter/3phase_inverter/4. Software_WS/OL_VSC_vitor/Libraries/CMSIS/Include\cmsis_gcc.h **** #ifndef   __PACKED
  65:F:/Projects/20190909 - 3phase_inverter/3phase_inverter/4. Software_WS/OL_VSC_vitor/Libraries/CMSIS/Include\cmsis_gcc.h ****   #define __PACKED                  __attribute__((packed, aligned(1)))
  66:F:/Projects/20190909 - 3phase_inverter/3phase_inverter/4. Software_WS/OL_VSC_vitor/Libraries/CMSIS/Include\cmsis_gcc.h **** #endif
  67:F:/Projects/20190909 - 3phase_inverter/3phase_inverter/4. Software_WS/OL_VSC_vitor/Libraries/CMSIS/Include\cmsis_gcc.h **** #ifndef   __PACKED_STRUCT
  68:F:/Projects/20190909 - 3phase_inverter/3phase_inverter/4. Software_WS/OL_VSC_vitor/Libraries/CMSIS/Include\cmsis_gcc.h ****   #define __PACKED_STRUCT           struct __attribute__((packed, aligned(1)))
  69:F:/Projects/20190909 - 3phase_inverter/3phase_inverter/4. Software_WS/OL_VSC_vitor/Libraries/CMSIS/Include\cmsis_gcc.h **** #endif
  70:F:/Projects/20190909 - 3phase_inverter/3phase_inverter/4. Software_WS/OL_VSC_vitor/Libraries/CMSIS/Include\cmsis_gcc.h **** 
  71:F:/Projects/20190909 - 3phase_inverter/3phase_inverter/4. Software_WS/OL_VSC_vitor/Libraries/CMSIS/Include\cmsis_gcc.h **** 
  72:F:/Projects/20190909 - 3phase_inverter/3phase_inverter/4. Software_WS/OL_VSC_vitor/Libraries/CMSIS/Include\cmsis_gcc.h **** /* ###########################  Core Function Access  ########################### */
  73:F:/Projects/20190909 - 3phase_inverter/3phase_inverter/4. Software_WS/OL_VSC_vitor/Libraries/CMSIS/Include\cmsis_gcc.h **** /** \ingroup  CMSIS_Core_FunctionInterface
  74:F:/Projects/20190909 - 3phase_inverter/3phase_inverter/4. Software_WS/OL_VSC_vitor/Libraries/CMSIS/Include\cmsis_gcc.h ****     \defgroup CMSIS_Core_RegAccFunctions CMSIS Core Register Access Functions
  75:F:/Projects/20190909 - 3phase_inverter/3phase_inverter/4. Software_WS/OL_VSC_vitor/Libraries/CMSIS/Include\cmsis_gcc.h ****   @{
  76:F:/Projects/20190909 - 3phase_inverter/3phase_inverter/4. Software_WS/OL_VSC_vitor/Libraries/CMSIS/Include\cmsis_gcc.h ****  */
  77:F:/Projects/20190909 - 3phase_inverter/3phase_inverter/4. Software_WS/OL_VSC_vitor/Libraries/CMSIS/Include\cmsis_gcc.h **** 
  78:F:/Projects/20190909 - 3phase_inverter/3phase_inverter/4. Software_WS/OL_VSC_vitor/Libraries/CMSIS/Include\cmsis_gcc.h **** /**
  79:F:/Projects/20190909 - 3phase_inverter/3phase_inverter/4. Software_WS/OL_VSC_vitor/Libraries/CMSIS/Include\cmsis_gcc.h ****   \brief   Enable IRQ Interrupts
  80:F:/Projects/20190909 - 3phase_inverter/3phase_inverter/4. Software_WS/OL_VSC_vitor/Libraries/CMSIS/Include\cmsis_gcc.h ****   \details Enables IRQ interrupts by clearing the I-bit in the CPSR.
  81:F:/Projects/20190909 - 3phase_inverter/3phase_inverter/4. Software_WS/OL_VSC_vitor/Libraries/CMSIS/Include\cmsis_gcc.h ****            Can only be executed in Privileged modes.
  82:F:/Projects/20190909 - 3phase_inverter/3phase_inverter/4. Software_WS/OL_VSC_vitor/Libraries/CMSIS/Include\cmsis_gcc.h ****  */
  83:F:/Projects/20190909 - 3phase_inverter/3phase_inverter/4. Software_WS/OL_VSC_vitor/Libraries/CMSIS/Include\cmsis_gcc.h **** __attribute__((always_inline)) __STATIC_INLINE void __enable_irq(void)
  84:F:/Projects/20190909 - 3phase_inverter/3phase_inverter/4. Software_WS/OL_VSC_vitor/Libraries/CMSIS/Include\cmsis_gcc.h **** {
  85:F:/Projects/20190909 - 3phase_inverter/3phase_inverter/4. Software_WS/OL_VSC_vitor/Libraries/CMSIS/Include\cmsis_gcc.h ****   __ASM volatile ("cpsie i" : : : "memory");
  86:F:/Projects/20190909 - 3phase_inverter/3phase_inverter/4. Software_WS/OL_VSC_vitor/Libraries/CMSIS/Include\cmsis_gcc.h **** }
  87:F:/Projects/20190909 - 3phase_inverter/3phase_inverter/4. Software_WS/OL_VSC_vitor/Libraries/CMSIS/Include\cmsis_gcc.h **** 
  88:F:/Projects/20190909 - 3phase_inverter/3phase_inverter/4. Software_WS/OL_VSC_vitor/Libraries/CMSIS/Include\cmsis_gcc.h **** 
  89:F:/Projects/20190909 - 3phase_inverter/3phase_inverter/4. Software_WS/OL_VSC_vitor/Libraries/CMSIS/Include\cmsis_gcc.h **** /**
  90:F:/Projects/20190909 - 3phase_inverter/3phase_inverter/4. Software_WS/OL_VSC_vitor/Libraries/CMSIS/Include\cmsis_gcc.h ****   \brief   Disable IRQ Interrupts
  91:F:/Projects/20190909 - 3phase_inverter/3phase_inverter/4. Software_WS/OL_VSC_vitor/Libraries/CMSIS/Include\cmsis_gcc.h ****   \details Disables IRQ interrupts by setting the I-bit in the CPSR.
  92:F:/Projects/20190909 - 3phase_inverter/3phase_inverter/4. Software_WS/OL_VSC_vitor/Libraries/CMSIS/Include\cmsis_gcc.h ****            Can only be executed in Privileged modes.
  93:F:/Projects/20190909 - 3phase_inverter/3phase_inverter/4. Software_WS/OL_VSC_vitor/Libraries/CMSIS/Include\cmsis_gcc.h ****  */
  94:F:/Projects/20190909 - 3phase_inverter/3phase_inverter/4. Software_WS/OL_VSC_vitor/Libraries/CMSIS/Include\cmsis_gcc.h **** __attribute__((always_inline)) __STATIC_INLINE void __disable_irq(void)
  95:F:/Projects/20190909 - 3phase_inverter/3phase_inverter/4. Software_WS/OL_VSC_vitor/Libraries/CMSIS/Include\cmsis_gcc.h **** {
  96:F:/Projects/20190909 - 3phase_inverter/3phase_inverter/4. Software_WS/OL_VSC_vitor/Libraries/CMSIS/Include\cmsis_gcc.h ****   __ASM volatile ("cpsid i" : : : "memory");
  97:F:/Projects/20190909 - 3phase_inverter/3phase_inverter/4. Software_WS/OL_VSC_vitor/Libraries/CMSIS/Include\cmsis_gcc.h **** }
  98:F:/Projects/20190909 - 3phase_inverter/3phase_inverter/4. Software_WS/OL_VSC_vitor/Libraries/CMSIS/Include\cmsis_gcc.h **** 
  99:F:/Projects/20190909 - 3phase_inverter/3phase_inverter/4. Software_WS/OL_VSC_vitor/Libraries/CMSIS/Include\cmsis_gcc.h **** 
 100:F:/Projects/20190909 - 3phase_inverter/3phase_inverter/4. Software_WS/OL_VSC_vitor/Libraries/CMSIS/Include\cmsis_gcc.h **** /**
 101:F:/Projects/20190909 - 3phase_inverter/3phase_inverter/4. Software_WS/OL_VSC_vitor/Libraries/CMSIS/Include\cmsis_gcc.h ****   \brief   Get Control Register
 102:F:/Projects/20190909 - 3phase_inverter/3phase_inverter/4. Software_WS/OL_VSC_vitor/Libraries/CMSIS/Include\cmsis_gcc.h ****   \details Returns the content of the Control Register.
 103:F:/Projects/20190909 - 3phase_inverter/3phase_inverter/4. Software_WS/OL_VSC_vitor/Libraries/CMSIS/Include\cmsis_gcc.h ****   \return               Control Register value
 104:F:/Projects/20190909 - 3phase_inverter/3phase_inverter/4. Software_WS/OL_VSC_vitor/Libraries/CMSIS/Include\cmsis_gcc.h ****  */
 105:F:/Projects/20190909 - 3phase_inverter/3phase_inverter/4. Software_WS/OL_VSC_vitor/Libraries/CMSIS/Include\cmsis_gcc.h **** __attribute__((always_inline)) __STATIC_INLINE uint32_t __get_CONTROL(void)
 106:F:/Projects/20190909 - 3phase_inverter/3phase_inverter/4. Software_WS/OL_VSC_vitor/Libraries/CMSIS/Include\cmsis_gcc.h **** {
 107:F:/Projects/20190909 - 3phase_inverter/3phase_inverter/4. Software_WS/OL_VSC_vitor/Libraries/CMSIS/Include\cmsis_gcc.h ****   uint32_t result;
 108:F:/Projects/20190909 - 3phase_inverter/3phase_inverter/4. Software_WS/OL_VSC_vitor/Libraries/CMSIS/Include\cmsis_gcc.h **** 
 109:F:/Projects/20190909 - 3phase_inverter/3phase_inverter/4. Software_WS/OL_VSC_vitor/Libraries/CMSIS/Include\cmsis_gcc.h ****   __ASM volatile ("MRS %0, control" : "=r" (result) );
 110:F:/Projects/20190909 - 3phase_inverter/3phase_inverter/4. Software_WS/OL_VSC_vitor/Libraries/CMSIS/Include\cmsis_gcc.h ****   return(result);
 111:F:/Projects/20190909 - 3phase_inverter/3phase_inverter/4. Software_WS/OL_VSC_vitor/Libraries/CMSIS/Include\cmsis_gcc.h **** }
 112:F:/Projects/20190909 - 3phase_inverter/3phase_inverter/4. Software_WS/OL_VSC_vitor/Libraries/CMSIS/Include\cmsis_gcc.h **** 
 113:F:/Projects/20190909 - 3phase_inverter/3phase_inverter/4. Software_WS/OL_VSC_vitor/Libraries/CMSIS/Include\cmsis_gcc.h **** 
 114:F:/Projects/20190909 - 3phase_inverter/3phase_inverter/4. Software_WS/OL_VSC_vitor/Libraries/CMSIS/Include\cmsis_gcc.h **** #if (defined (__ARM_FEATURE_CMSE ) && (__ARM_FEATURE_CMSE == 3))
 115:F:/Projects/20190909 - 3phase_inverter/3phase_inverter/4. Software_WS/OL_VSC_vitor/Libraries/CMSIS/Include\cmsis_gcc.h **** /**
 116:F:/Projects/20190909 - 3phase_inverter/3phase_inverter/4. Software_WS/OL_VSC_vitor/Libraries/CMSIS/Include\cmsis_gcc.h ****   \brief   Get Control Register (non-secure)
 117:F:/Projects/20190909 - 3phase_inverter/3phase_inverter/4. Software_WS/OL_VSC_vitor/Libraries/CMSIS/Include\cmsis_gcc.h ****   \details Returns the content of the non-secure Control Register when in secure mode.
 118:F:/Projects/20190909 - 3phase_inverter/3phase_inverter/4. Software_WS/OL_VSC_vitor/Libraries/CMSIS/Include\cmsis_gcc.h ****   \return               non-secure Control Register value
 119:F:/Projects/20190909 - 3phase_inverter/3phase_inverter/4. Software_WS/OL_VSC_vitor/Libraries/CMSIS/Include\cmsis_gcc.h ****  */
 120:F:/Projects/20190909 - 3phase_inverter/3phase_inverter/4. Software_WS/OL_VSC_vitor/Libraries/CMSIS/Include\cmsis_gcc.h **** __attribute__((always_inline)) __STATIC_INLINE uint32_t __TZ_get_CONTROL_NS(void)
 121:F:/Projects/20190909 - 3phase_inverter/3phase_inverter/4. Software_WS/OL_VSC_vitor/Libraries/CMSIS/Include\cmsis_gcc.h **** {
 122:F:/Projects/20190909 - 3phase_inverter/3phase_inverter/4. Software_WS/OL_VSC_vitor/Libraries/CMSIS/Include\cmsis_gcc.h ****   uint32_t result;
 123:F:/Projects/20190909 - 3phase_inverter/3phase_inverter/4. Software_WS/OL_VSC_vitor/Libraries/CMSIS/Include\cmsis_gcc.h **** 
 124:F:/Projects/20190909 - 3phase_inverter/3phase_inverter/4. Software_WS/OL_VSC_vitor/Libraries/CMSIS/Include\cmsis_gcc.h ****   __ASM volatile ("MRS %0, control_ns" : "=r" (result) );
 125:F:/Projects/20190909 - 3phase_inverter/3phase_inverter/4. Software_WS/OL_VSC_vitor/Libraries/CMSIS/Include\cmsis_gcc.h ****   return(result);
 126:F:/Projects/20190909 - 3phase_inverter/3phase_inverter/4. Software_WS/OL_VSC_vitor/Libraries/CMSIS/Include\cmsis_gcc.h **** }
 127:F:/Projects/20190909 - 3phase_inverter/3phase_inverter/4. Software_WS/OL_VSC_vitor/Libraries/CMSIS/Include\cmsis_gcc.h **** #endif
 128:F:/Projects/20190909 - 3phase_inverter/3phase_inverter/4. Software_WS/OL_VSC_vitor/Libraries/CMSIS/Include\cmsis_gcc.h **** 
 129:F:/Projects/20190909 - 3phase_inverter/3phase_inverter/4. Software_WS/OL_VSC_vitor/Libraries/CMSIS/Include\cmsis_gcc.h **** 
 130:F:/Projects/20190909 - 3phase_inverter/3phase_inverter/4. Software_WS/OL_VSC_vitor/Libraries/CMSIS/Include\cmsis_gcc.h **** /**
 131:F:/Projects/20190909 - 3phase_inverter/3phase_inverter/4. Software_WS/OL_VSC_vitor/Libraries/CMSIS/Include\cmsis_gcc.h ****   \brief   Set Control Register
 132:F:/Projects/20190909 - 3phase_inverter/3phase_inverter/4. Software_WS/OL_VSC_vitor/Libraries/CMSIS/Include\cmsis_gcc.h ****   \details Writes the given value to the Control Register.
 133:F:/Projects/20190909 - 3phase_inverter/3phase_inverter/4. Software_WS/OL_VSC_vitor/Libraries/CMSIS/Include\cmsis_gcc.h ****   \param [in]    control  Control Register value to set
 134:F:/Projects/20190909 - 3phase_inverter/3phase_inverter/4. Software_WS/OL_VSC_vitor/Libraries/CMSIS/Include\cmsis_gcc.h ****  */
 135:F:/Projects/20190909 - 3phase_inverter/3phase_inverter/4. Software_WS/OL_VSC_vitor/Libraries/CMSIS/Include\cmsis_gcc.h **** __attribute__((always_inline)) __STATIC_INLINE void __set_CONTROL(uint32_t control)
 136:F:/Projects/20190909 - 3phase_inverter/3phase_inverter/4. Software_WS/OL_VSC_vitor/Libraries/CMSIS/Include\cmsis_gcc.h **** {
 137:F:/Projects/20190909 - 3phase_inverter/3phase_inverter/4. Software_WS/OL_VSC_vitor/Libraries/CMSIS/Include\cmsis_gcc.h ****   __ASM volatile ("MSR control, %0" : : "r" (control) : "memory");
 138:F:/Projects/20190909 - 3phase_inverter/3phase_inverter/4. Software_WS/OL_VSC_vitor/Libraries/CMSIS/Include\cmsis_gcc.h **** }
 139:F:/Projects/20190909 - 3phase_inverter/3phase_inverter/4. Software_WS/OL_VSC_vitor/Libraries/CMSIS/Include\cmsis_gcc.h **** 
 140:F:/Projects/20190909 - 3phase_inverter/3phase_inverter/4. Software_WS/OL_VSC_vitor/Libraries/CMSIS/Include\cmsis_gcc.h **** 
 141:F:/Projects/20190909 - 3phase_inverter/3phase_inverter/4. Software_WS/OL_VSC_vitor/Libraries/CMSIS/Include\cmsis_gcc.h **** #if (defined (__ARM_FEATURE_CMSE ) && (__ARM_FEATURE_CMSE == 3))
 142:F:/Projects/20190909 - 3phase_inverter/3phase_inverter/4. Software_WS/OL_VSC_vitor/Libraries/CMSIS/Include\cmsis_gcc.h **** /**
 143:F:/Projects/20190909 - 3phase_inverter/3phase_inverter/4. Software_WS/OL_VSC_vitor/Libraries/CMSIS/Include\cmsis_gcc.h ****   \brief   Set Control Register (non-secure)
 144:F:/Projects/20190909 - 3phase_inverter/3phase_inverter/4. Software_WS/OL_VSC_vitor/Libraries/CMSIS/Include\cmsis_gcc.h ****   \details Writes the given value to the non-secure Control Register when in secure state.
 145:F:/Projects/20190909 - 3phase_inverter/3phase_inverter/4. Software_WS/OL_VSC_vitor/Libraries/CMSIS/Include\cmsis_gcc.h ****   \param [in]    control  Control Register value to set
 146:F:/Projects/20190909 - 3phase_inverter/3phase_inverter/4. Software_WS/OL_VSC_vitor/Libraries/CMSIS/Include\cmsis_gcc.h ****  */
 147:F:/Projects/20190909 - 3phase_inverter/3phase_inverter/4. Software_WS/OL_VSC_vitor/Libraries/CMSIS/Include\cmsis_gcc.h **** __attribute__((always_inline)) __STATIC_INLINE void __TZ_set_CONTROL_NS(uint32_t control)
 148:F:/Projects/20190909 - 3phase_inverter/3phase_inverter/4. Software_WS/OL_VSC_vitor/Libraries/CMSIS/Include\cmsis_gcc.h **** {
 149:F:/Projects/20190909 - 3phase_inverter/3phase_inverter/4. Software_WS/OL_VSC_vitor/Libraries/CMSIS/Include\cmsis_gcc.h ****   __ASM volatile ("MSR control_ns, %0" : : "r" (control) : "memory");
 150:F:/Projects/20190909 - 3phase_inverter/3phase_inverter/4. Software_WS/OL_VSC_vitor/Libraries/CMSIS/Include\cmsis_gcc.h **** }
 151:F:/Projects/20190909 - 3phase_inverter/3phase_inverter/4. Software_WS/OL_VSC_vitor/Libraries/CMSIS/Include\cmsis_gcc.h **** #endif
 152:F:/Projects/20190909 - 3phase_inverter/3phase_inverter/4. Software_WS/OL_VSC_vitor/Libraries/CMSIS/Include\cmsis_gcc.h **** 
 153:F:/Projects/20190909 - 3phase_inverter/3phase_inverter/4. Software_WS/OL_VSC_vitor/Libraries/CMSIS/Include\cmsis_gcc.h **** 
 154:F:/Projects/20190909 - 3phase_inverter/3phase_inverter/4. Software_WS/OL_VSC_vitor/Libraries/CMSIS/Include\cmsis_gcc.h **** /**
 155:F:/Projects/20190909 - 3phase_inverter/3phase_inverter/4. Software_WS/OL_VSC_vitor/Libraries/CMSIS/Include\cmsis_gcc.h ****   \brief   Get IPSR Register
 156:F:/Projects/20190909 - 3phase_inverter/3phase_inverter/4. Software_WS/OL_VSC_vitor/Libraries/CMSIS/Include\cmsis_gcc.h ****   \details Returns the content of the IPSR Register.
 157:F:/Projects/20190909 - 3phase_inverter/3phase_inverter/4. Software_WS/OL_VSC_vitor/Libraries/CMSIS/Include\cmsis_gcc.h ****   \return               IPSR Register value
 158:F:/Projects/20190909 - 3phase_inverter/3phase_inverter/4. Software_WS/OL_VSC_vitor/Libraries/CMSIS/Include\cmsis_gcc.h ****  */
 159:F:/Projects/20190909 - 3phase_inverter/3phase_inverter/4. Software_WS/OL_VSC_vitor/Libraries/CMSIS/Include\cmsis_gcc.h **** __attribute__((always_inline)) __STATIC_INLINE uint32_t __get_IPSR(void)
 160:F:/Projects/20190909 - 3phase_inverter/3phase_inverter/4. Software_WS/OL_VSC_vitor/Libraries/CMSIS/Include\cmsis_gcc.h **** {
 161:F:/Projects/20190909 - 3phase_inverter/3phase_inverter/4. Software_WS/OL_VSC_vitor/Libraries/CMSIS/Include\cmsis_gcc.h ****   uint32_t result;
 162:F:/Projects/20190909 - 3phase_inverter/3phase_inverter/4. Software_WS/OL_VSC_vitor/Libraries/CMSIS/Include\cmsis_gcc.h **** 
 163:F:/Projects/20190909 - 3phase_inverter/3phase_inverter/4. Software_WS/OL_VSC_vitor/Libraries/CMSIS/Include\cmsis_gcc.h ****   __ASM volatile ("MRS %0, ipsr" : "=r" (result) );
 164:F:/Projects/20190909 - 3phase_inverter/3phase_inverter/4. Software_WS/OL_VSC_vitor/Libraries/CMSIS/Include\cmsis_gcc.h ****   return(result);
 165:F:/Projects/20190909 - 3phase_inverter/3phase_inverter/4. Software_WS/OL_VSC_vitor/Libraries/CMSIS/Include\cmsis_gcc.h **** }
 166:F:/Projects/20190909 - 3phase_inverter/3phase_inverter/4. Software_WS/OL_VSC_vitor/Libraries/CMSIS/Include\cmsis_gcc.h **** 
 167:F:/Projects/20190909 - 3phase_inverter/3phase_inverter/4. Software_WS/OL_VSC_vitor/Libraries/CMSIS/Include\cmsis_gcc.h **** 
 168:F:/Projects/20190909 - 3phase_inverter/3phase_inverter/4. Software_WS/OL_VSC_vitor/Libraries/CMSIS/Include\cmsis_gcc.h **** /**
 169:F:/Projects/20190909 - 3phase_inverter/3phase_inverter/4. Software_WS/OL_VSC_vitor/Libraries/CMSIS/Include\cmsis_gcc.h ****   \brief   Get APSR Register
 170:F:/Projects/20190909 - 3phase_inverter/3phase_inverter/4. Software_WS/OL_VSC_vitor/Libraries/CMSIS/Include\cmsis_gcc.h ****   \details Returns the content of the APSR Register.
 171:F:/Projects/20190909 - 3phase_inverter/3phase_inverter/4. Software_WS/OL_VSC_vitor/Libraries/CMSIS/Include\cmsis_gcc.h ****   \return               APSR Register value
 172:F:/Projects/20190909 - 3phase_inverter/3phase_inverter/4. Software_WS/OL_VSC_vitor/Libraries/CMSIS/Include\cmsis_gcc.h ****  */
 173:F:/Projects/20190909 - 3phase_inverter/3phase_inverter/4. Software_WS/OL_VSC_vitor/Libraries/CMSIS/Include\cmsis_gcc.h **** __attribute__((always_inline)) __STATIC_INLINE uint32_t __get_APSR(void)
 174:F:/Projects/20190909 - 3phase_inverter/3phase_inverter/4. Software_WS/OL_VSC_vitor/Libraries/CMSIS/Include\cmsis_gcc.h **** {
 175:F:/Projects/20190909 - 3phase_inverter/3phase_inverter/4. Software_WS/OL_VSC_vitor/Libraries/CMSIS/Include\cmsis_gcc.h ****   uint32_t result;
 176:F:/Projects/20190909 - 3phase_inverter/3phase_inverter/4. Software_WS/OL_VSC_vitor/Libraries/CMSIS/Include\cmsis_gcc.h **** 
 177:F:/Projects/20190909 - 3phase_inverter/3phase_inverter/4. Software_WS/OL_VSC_vitor/Libraries/CMSIS/Include\cmsis_gcc.h ****   __ASM volatile ("MRS %0, apsr" : "=r" (result) );
 178:F:/Projects/20190909 - 3phase_inverter/3phase_inverter/4. Software_WS/OL_VSC_vitor/Libraries/CMSIS/Include\cmsis_gcc.h ****   return(result);
 179:F:/Projects/20190909 - 3phase_inverter/3phase_inverter/4. Software_WS/OL_VSC_vitor/Libraries/CMSIS/Include\cmsis_gcc.h **** }
 180:F:/Projects/20190909 - 3phase_inverter/3phase_inverter/4. Software_WS/OL_VSC_vitor/Libraries/CMSIS/Include\cmsis_gcc.h **** 
 181:F:/Projects/20190909 - 3phase_inverter/3phase_inverter/4. Software_WS/OL_VSC_vitor/Libraries/CMSIS/Include\cmsis_gcc.h **** 
 182:F:/Projects/20190909 - 3phase_inverter/3phase_inverter/4. Software_WS/OL_VSC_vitor/Libraries/CMSIS/Include\cmsis_gcc.h **** /**
 183:F:/Projects/20190909 - 3phase_inverter/3phase_inverter/4. Software_WS/OL_VSC_vitor/Libraries/CMSIS/Include\cmsis_gcc.h ****   \brief   Get xPSR Register
 184:F:/Projects/20190909 - 3phase_inverter/3phase_inverter/4. Software_WS/OL_VSC_vitor/Libraries/CMSIS/Include\cmsis_gcc.h ****   \details Returns the content of the xPSR Register.
 185:F:/Projects/20190909 - 3phase_inverter/3phase_inverter/4. Software_WS/OL_VSC_vitor/Libraries/CMSIS/Include\cmsis_gcc.h ****   \return               xPSR Register value
 186:F:/Projects/20190909 - 3phase_inverter/3phase_inverter/4. Software_WS/OL_VSC_vitor/Libraries/CMSIS/Include\cmsis_gcc.h ****  */
 187:F:/Projects/20190909 - 3phase_inverter/3phase_inverter/4. Software_WS/OL_VSC_vitor/Libraries/CMSIS/Include\cmsis_gcc.h **** __attribute__((always_inline)) __STATIC_INLINE uint32_t __get_xPSR(void)
 188:F:/Projects/20190909 - 3phase_inverter/3phase_inverter/4. Software_WS/OL_VSC_vitor/Libraries/CMSIS/Include\cmsis_gcc.h **** {
 189:F:/Projects/20190909 - 3phase_inverter/3phase_inverter/4. Software_WS/OL_VSC_vitor/Libraries/CMSIS/Include\cmsis_gcc.h ****   uint32_t result;
 190:F:/Projects/20190909 - 3phase_inverter/3phase_inverter/4. Software_WS/OL_VSC_vitor/Libraries/CMSIS/Include\cmsis_gcc.h **** 
 191:F:/Projects/20190909 - 3phase_inverter/3phase_inverter/4. Software_WS/OL_VSC_vitor/Libraries/CMSIS/Include\cmsis_gcc.h ****   __ASM volatile ("MRS %0, xpsr" : "=r" (result) );
 192:F:/Projects/20190909 - 3phase_inverter/3phase_inverter/4. Software_WS/OL_VSC_vitor/Libraries/CMSIS/Include\cmsis_gcc.h ****   return(result);
 193:F:/Projects/20190909 - 3phase_inverter/3phase_inverter/4. Software_WS/OL_VSC_vitor/Libraries/CMSIS/Include\cmsis_gcc.h **** }
 194:F:/Projects/20190909 - 3phase_inverter/3phase_inverter/4. Software_WS/OL_VSC_vitor/Libraries/CMSIS/Include\cmsis_gcc.h **** 
 195:F:/Projects/20190909 - 3phase_inverter/3phase_inverter/4. Software_WS/OL_VSC_vitor/Libraries/CMSIS/Include\cmsis_gcc.h **** 
 196:F:/Projects/20190909 - 3phase_inverter/3phase_inverter/4. Software_WS/OL_VSC_vitor/Libraries/CMSIS/Include\cmsis_gcc.h **** /**
 197:F:/Projects/20190909 - 3phase_inverter/3phase_inverter/4. Software_WS/OL_VSC_vitor/Libraries/CMSIS/Include\cmsis_gcc.h ****   \brief   Get Process Stack Pointer
 198:F:/Projects/20190909 - 3phase_inverter/3phase_inverter/4. Software_WS/OL_VSC_vitor/Libraries/CMSIS/Include\cmsis_gcc.h ****   \details Returns the current value of the Process Stack Pointer (PSP).
 199:F:/Projects/20190909 - 3phase_inverter/3phase_inverter/4. Software_WS/OL_VSC_vitor/Libraries/CMSIS/Include\cmsis_gcc.h ****   \return               PSP Register value
 200:F:/Projects/20190909 - 3phase_inverter/3phase_inverter/4. Software_WS/OL_VSC_vitor/Libraries/CMSIS/Include\cmsis_gcc.h ****  */
 201:F:/Projects/20190909 - 3phase_inverter/3phase_inverter/4. Software_WS/OL_VSC_vitor/Libraries/CMSIS/Include\cmsis_gcc.h **** __attribute__((always_inline)) __STATIC_INLINE uint32_t __get_PSP(void)
 202:F:/Projects/20190909 - 3phase_inverter/3phase_inverter/4. Software_WS/OL_VSC_vitor/Libraries/CMSIS/Include\cmsis_gcc.h **** {
 203:F:/Projects/20190909 - 3phase_inverter/3phase_inverter/4. Software_WS/OL_VSC_vitor/Libraries/CMSIS/Include\cmsis_gcc.h ****   register uint32_t result;
 204:F:/Projects/20190909 - 3phase_inverter/3phase_inverter/4. Software_WS/OL_VSC_vitor/Libraries/CMSIS/Include\cmsis_gcc.h **** 
 205:F:/Projects/20190909 - 3phase_inverter/3phase_inverter/4. Software_WS/OL_VSC_vitor/Libraries/CMSIS/Include\cmsis_gcc.h ****   __ASM volatile ("MRS %0, psp"  : "=r" (result) );
 206:F:/Projects/20190909 - 3phase_inverter/3phase_inverter/4. Software_WS/OL_VSC_vitor/Libraries/CMSIS/Include\cmsis_gcc.h ****   return(result);
 207:F:/Projects/20190909 - 3phase_inverter/3phase_inverter/4. Software_WS/OL_VSC_vitor/Libraries/CMSIS/Include\cmsis_gcc.h **** }
 208:F:/Projects/20190909 - 3phase_inverter/3phase_inverter/4. Software_WS/OL_VSC_vitor/Libraries/CMSIS/Include\cmsis_gcc.h **** 
 209:F:/Projects/20190909 - 3phase_inverter/3phase_inverter/4. Software_WS/OL_VSC_vitor/Libraries/CMSIS/Include\cmsis_gcc.h **** 
 210:F:/Projects/20190909 - 3phase_inverter/3phase_inverter/4. Software_WS/OL_VSC_vitor/Libraries/CMSIS/Include\cmsis_gcc.h **** #if (defined (__ARM_FEATURE_CMSE ) && (__ARM_FEATURE_CMSE == 3))
 211:F:/Projects/20190909 - 3phase_inverter/3phase_inverter/4. Software_WS/OL_VSC_vitor/Libraries/CMSIS/Include\cmsis_gcc.h **** /**
 212:F:/Projects/20190909 - 3phase_inverter/3phase_inverter/4. Software_WS/OL_VSC_vitor/Libraries/CMSIS/Include\cmsis_gcc.h ****   \brief   Get Process Stack Pointer (non-secure)
 213:F:/Projects/20190909 - 3phase_inverter/3phase_inverter/4. Software_WS/OL_VSC_vitor/Libraries/CMSIS/Include\cmsis_gcc.h ****   \details Returns the current value of the non-secure Process Stack Pointer (PSP) when in secure s
 214:F:/Projects/20190909 - 3phase_inverter/3phase_inverter/4. Software_WS/OL_VSC_vitor/Libraries/CMSIS/Include\cmsis_gcc.h ****   \return               PSP Register value
 215:F:/Projects/20190909 - 3phase_inverter/3phase_inverter/4. Software_WS/OL_VSC_vitor/Libraries/CMSIS/Include\cmsis_gcc.h ****  */
 216:F:/Projects/20190909 - 3phase_inverter/3phase_inverter/4. Software_WS/OL_VSC_vitor/Libraries/CMSIS/Include\cmsis_gcc.h **** __attribute__((always_inline)) __STATIC_INLINE uint32_t __TZ_get_PSP_NS(void)
 217:F:/Projects/20190909 - 3phase_inverter/3phase_inverter/4. Software_WS/OL_VSC_vitor/Libraries/CMSIS/Include\cmsis_gcc.h **** {
 218:F:/Projects/20190909 - 3phase_inverter/3phase_inverter/4. Software_WS/OL_VSC_vitor/Libraries/CMSIS/Include\cmsis_gcc.h ****   register uint32_t result;
 219:F:/Projects/20190909 - 3phase_inverter/3phase_inverter/4. Software_WS/OL_VSC_vitor/Libraries/CMSIS/Include\cmsis_gcc.h **** 
 220:F:/Projects/20190909 - 3phase_inverter/3phase_inverter/4. Software_WS/OL_VSC_vitor/Libraries/CMSIS/Include\cmsis_gcc.h ****   __ASM volatile ("MRS %0, psp_ns"  : "=r" (result) );
 221:F:/Projects/20190909 - 3phase_inverter/3phase_inverter/4. Software_WS/OL_VSC_vitor/Libraries/CMSIS/Include\cmsis_gcc.h ****   return(result);
 222:F:/Projects/20190909 - 3phase_inverter/3phase_inverter/4. Software_WS/OL_VSC_vitor/Libraries/CMSIS/Include\cmsis_gcc.h **** }
 223:F:/Projects/20190909 - 3phase_inverter/3phase_inverter/4. Software_WS/OL_VSC_vitor/Libraries/CMSIS/Include\cmsis_gcc.h **** #endif
 224:F:/Projects/20190909 - 3phase_inverter/3phase_inverter/4. Software_WS/OL_VSC_vitor/Libraries/CMSIS/Include\cmsis_gcc.h **** 
 225:F:/Projects/20190909 - 3phase_inverter/3phase_inverter/4. Software_WS/OL_VSC_vitor/Libraries/CMSIS/Include\cmsis_gcc.h **** 
 226:F:/Projects/20190909 - 3phase_inverter/3phase_inverter/4. Software_WS/OL_VSC_vitor/Libraries/CMSIS/Include\cmsis_gcc.h **** /**
 227:F:/Projects/20190909 - 3phase_inverter/3phase_inverter/4. Software_WS/OL_VSC_vitor/Libraries/CMSIS/Include\cmsis_gcc.h ****   \brief   Set Process Stack Pointer
 228:F:/Projects/20190909 - 3phase_inverter/3phase_inverter/4. Software_WS/OL_VSC_vitor/Libraries/CMSIS/Include\cmsis_gcc.h ****   \details Assigns the given value to the Process Stack Pointer (PSP).
 229:F:/Projects/20190909 - 3phase_inverter/3phase_inverter/4. Software_WS/OL_VSC_vitor/Libraries/CMSIS/Include\cmsis_gcc.h ****   \param [in]    topOfProcStack  Process Stack Pointer value to set
 230:F:/Projects/20190909 - 3phase_inverter/3phase_inverter/4. Software_WS/OL_VSC_vitor/Libraries/CMSIS/Include\cmsis_gcc.h ****  */
 231:F:/Projects/20190909 - 3phase_inverter/3phase_inverter/4. Software_WS/OL_VSC_vitor/Libraries/CMSIS/Include\cmsis_gcc.h **** __attribute__((always_inline)) __STATIC_INLINE void __set_PSP(uint32_t topOfProcStack)
 232:F:/Projects/20190909 - 3phase_inverter/3phase_inverter/4. Software_WS/OL_VSC_vitor/Libraries/CMSIS/Include\cmsis_gcc.h **** {
 233:F:/Projects/20190909 - 3phase_inverter/3phase_inverter/4. Software_WS/OL_VSC_vitor/Libraries/CMSIS/Include\cmsis_gcc.h ****   __ASM volatile ("MSR psp, %0" : : "r" (topOfProcStack) : );
 234:F:/Projects/20190909 - 3phase_inverter/3phase_inverter/4. Software_WS/OL_VSC_vitor/Libraries/CMSIS/Include\cmsis_gcc.h **** }
 235:F:/Projects/20190909 - 3phase_inverter/3phase_inverter/4. Software_WS/OL_VSC_vitor/Libraries/CMSIS/Include\cmsis_gcc.h **** 
 236:F:/Projects/20190909 - 3phase_inverter/3phase_inverter/4. Software_WS/OL_VSC_vitor/Libraries/CMSIS/Include\cmsis_gcc.h **** 
 237:F:/Projects/20190909 - 3phase_inverter/3phase_inverter/4. Software_WS/OL_VSC_vitor/Libraries/CMSIS/Include\cmsis_gcc.h **** #if (defined (__ARM_FEATURE_CMSE ) && (__ARM_FEATURE_CMSE == 3))
 238:F:/Projects/20190909 - 3phase_inverter/3phase_inverter/4. Software_WS/OL_VSC_vitor/Libraries/CMSIS/Include\cmsis_gcc.h **** /**
 239:F:/Projects/20190909 - 3phase_inverter/3phase_inverter/4. Software_WS/OL_VSC_vitor/Libraries/CMSIS/Include\cmsis_gcc.h ****   \brief   Set Process Stack Pointer (non-secure)
 240:F:/Projects/20190909 - 3phase_inverter/3phase_inverter/4. Software_WS/OL_VSC_vitor/Libraries/CMSIS/Include\cmsis_gcc.h ****   \details Assigns the given value to the non-secure Process Stack Pointer (PSP) when in secure sta
 241:F:/Projects/20190909 - 3phase_inverter/3phase_inverter/4. Software_WS/OL_VSC_vitor/Libraries/CMSIS/Include\cmsis_gcc.h ****   \param [in]    topOfProcStack  Process Stack Pointer value to set
 242:F:/Projects/20190909 - 3phase_inverter/3phase_inverter/4. Software_WS/OL_VSC_vitor/Libraries/CMSIS/Include\cmsis_gcc.h ****  */
 243:F:/Projects/20190909 - 3phase_inverter/3phase_inverter/4. Software_WS/OL_VSC_vitor/Libraries/CMSIS/Include\cmsis_gcc.h **** __attribute__((always_inline)) __STATIC_INLINE void __TZ_set_PSP_NS(uint32_t topOfProcStack)
 244:F:/Projects/20190909 - 3phase_inverter/3phase_inverter/4. Software_WS/OL_VSC_vitor/Libraries/CMSIS/Include\cmsis_gcc.h **** {
 245:F:/Projects/20190909 - 3phase_inverter/3phase_inverter/4. Software_WS/OL_VSC_vitor/Libraries/CMSIS/Include\cmsis_gcc.h ****   __ASM volatile ("MSR psp_ns, %0" : : "r" (topOfProcStack) : );
 246:F:/Projects/20190909 - 3phase_inverter/3phase_inverter/4. Software_WS/OL_VSC_vitor/Libraries/CMSIS/Include\cmsis_gcc.h **** }
 247:F:/Projects/20190909 - 3phase_inverter/3phase_inverter/4. Software_WS/OL_VSC_vitor/Libraries/CMSIS/Include\cmsis_gcc.h **** #endif
 248:F:/Projects/20190909 - 3phase_inverter/3phase_inverter/4. Software_WS/OL_VSC_vitor/Libraries/CMSIS/Include\cmsis_gcc.h **** 
 249:F:/Projects/20190909 - 3phase_inverter/3phase_inverter/4. Software_WS/OL_VSC_vitor/Libraries/CMSIS/Include\cmsis_gcc.h **** 
 250:F:/Projects/20190909 - 3phase_inverter/3phase_inverter/4. Software_WS/OL_VSC_vitor/Libraries/CMSIS/Include\cmsis_gcc.h **** /**
 251:F:/Projects/20190909 - 3phase_inverter/3phase_inverter/4. Software_WS/OL_VSC_vitor/Libraries/CMSIS/Include\cmsis_gcc.h ****   \brief   Get Main Stack Pointer
 252:F:/Projects/20190909 - 3phase_inverter/3phase_inverter/4. Software_WS/OL_VSC_vitor/Libraries/CMSIS/Include\cmsis_gcc.h ****   \details Returns the current value of the Main Stack Pointer (MSP).
 253:F:/Projects/20190909 - 3phase_inverter/3phase_inverter/4. Software_WS/OL_VSC_vitor/Libraries/CMSIS/Include\cmsis_gcc.h ****   \return               MSP Register value
 254:F:/Projects/20190909 - 3phase_inverter/3phase_inverter/4. Software_WS/OL_VSC_vitor/Libraries/CMSIS/Include\cmsis_gcc.h ****  */
 255:F:/Projects/20190909 - 3phase_inverter/3phase_inverter/4. Software_WS/OL_VSC_vitor/Libraries/CMSIS/Include\cmsis_gcc.h **** __attribute__((always_inline)) __STATIC_INLINE uint32_t __get_MSP(void)
 256:F:/Projects/20190909 - 3phase_inverter/3phase_inverter/4. Software_WS/OL_VSC_vitor/Libraries/CMSIS/Include\cmsis_gcc.h **** {
 257:F:/Projects/20190909 - 3phase_inverter/3phase_inverter/4. Software_WS/OL_VSC_vitor/Libraries/CMSIS/Include\cmsis_gcc.h ****   register uint32_t result;
 258:F:/Projects/20190909 - 3phase_inverter/3phase_inverter/4. Software_WS/OL_VSC_vitor/Libraries/CMSIS/Include\cmsis_gcc.h **** 
 259:F:/Projects/20190909 - 3phase_inverter/3phase_inverter/4. Software_WS/OL_VSC_vitor/Libraries/CMSIS/Include\cmsis_gcc.h ****   __ASM volatile ("MRS %0, msp" : "=r" (result) );
 260:F:/Projects/20190909 - 3phase_inverter/3phase_inverter/4. Software_WS/OL_VSC_vitor/Libraries/CMSIS/Include\cmsis_gcc.h ****   return(result);
 261:F:/Projects/20190909 - 3phase_inverter/3phase_inverter/4. Software_WS/OL_VSC_vitor/Libraries/CMSIS/Include\cmsis_gcc.h **** }
 262:F:/Projects/20190909 - 3phase_inverter/3phase_inverter/4. Software_WS/OL_VSC_vitor/Libraries/CMSIS/Include\cmsis_gcc.h **** 
 263:F:/Projects/20190909 - 3phase_inverter/3phase_inverter/4. Software_WS/OL_VSC_vitor/Libraries/CMSIS/Include\cmsis_gcc.h **** 
 264:F:/Projects/20190909 - 3phase_inverter/3phase_inverter/4. Software_WS/OL_VSC_vitor/Libraries/CMSIS/Include\cmsis_gcc.h **** #if (defined (__ARM_FEATURE_CMSE ) && (__ARM_FEATURE_CMSE == 3))
 265:F:/Projects/20190909 - 3phase_inverter/3phase_inverter/4. Software_WS/OL_VSC_vitor/Libraries/CMSIS/Include\cmsis_gcc.h **** /**
 266:F:/Projects/20190909 - 3phase_inverter/3phase_inverter/4. Software_WS/OL_VSC_vitor/Libraries/CMSIS/Include\cmsis_gcc.h ****   \brief   Get Main Stack Pointer (non-secure)
 267:F:/Projects/20190909 - 3phase_inverter/3phase_inverter/4. Software_WS/OL_VSC_vitor/Libraries/CMSIS/Include\cmsis_gcc.h ****   \details Returns the current value of the non-secure Main Stack Pointer (MSP) when in secure stat
 268:F:/Projects/20190909 - 3phase_inverter/3phase_inverter/4. Software_WS/OL_VSC_vitor/Libraries/CMSIS/Include\cmsis_gcc.h ****   \return               MSP Register value
 269:F:/Projects/20190909 - 3phase_inverter/3phase_inverter/4. Software_WS/OL_VSC_vitor/Libraries/CMSIS/Include\cmsis_gcc.h ****  */
 270:F:/Projects/20190909 - 3phase_inverter/3phase_inverter/4. Software_WS/OL_VSC_vitor/Libraries/CMSIS/Include\cmsis_gcc.h **** __attribute__((always_inline)) __STATIC_INLINE uint32_t __TZ_get_MSP_NS(void)
 271:F:/Projects/20190909 - 3phase_inverter/3phase_inverter/4. Software_WS/OL_VSC_vitor/Libraries/CMSIS/Include\cmsis_gcc.h **** {
 272:F:/Projects/20190909 - 3phase_inverter/3phase_inverter/4. Software_WS/OL_VSC_vitor/Libraries/CMSIS/Include\cmsis_gcc.h ****   register uint32_t result;
 273:F:/Projects/20190909 - 3phase_inverter/3phase_inverter/4. Software_WS/OL_VSC_vitor/Libraries/CMSIS/Include\cmsis_gcc.h **** 
 274:F:/Projects/20190909 - 3phase_inverter/3phase_inverter/4. Software_WS/OL_VSC_vitor/Libraries/CMSIS/Include\cmsis_gcc.h ****   __ASM volatile ("MRS %0, msp_ns" : "=r" (result) );
 275:F:/Projects/20190909 - 3phase_inverter/3phase_inverter/4. Software_WS/OL_VSC_vitor/Libraries/CMSIS/Include\cmsis_gcc.h ****   return(result);
 276:F:/Projects/20190909 - 3phase_inverter/3phase_inverter/4. Software_WS/OL_VSC_vitor/Libraries/CMSIS/Include\cmsis_gcc.h **** }
 277:F:/Projects/20190909 - 3phase_inverter/3phase_inverter/4. Software_WS/OL_VSC_vitor/Libraries/CMSIS/Include\cmsis_gcc.h **** #endif
 278:F:/Projects/20190909 - 3phase_inverter/3phase_inverter/4. Software_WS/OL_VSC_vitor/Libraries/CMSIS/Include\cmsis_gcc.h **** 
 279:F:/Projects/20190909 - 3phase_inverter/3phase_inverter/4. Software_WS/OL_VSC_vitor/Libraries/CMSIS/Include\cmsis_gcc.h **** 
 280:F:/Projects/20190909 - 3phase_inverter/3phase_inverter/4. Software_WS/OL_VSC_vitor/Libraries/CMSIS/Include\cmsis_gcc.h **** /**
 281:F:/Projects/20190909 - 3phase_inverter/3phase_inverter/4. Software_WS/OL_VSC_vitor/Libraries/CMSIS/Include\cmsis_gcc.h ****   \brief   Set Main Stack Pointer
 282:F:/Projects/20190909 - 3phase_inverter/3phase_inverter/4. Software_WS/OL_VSC_vitor/Libraries/CMSIS/Include\cmsis_gcc.h ****   \details Assigns the given value to the Main Stack Pointer (MSP).
 283:F:/Projects/20190909 - 3phase_inverter/3phase_inverter/4. Software_WS/OL_VSC_vitor/Libraries/CMSIS/Include\cmsis_gcc.h ****   \param [in]    topOfMainStack  Main Stack Pointer value to set
 284:F:/Projects/20190909 - 3phase_inverter/3phase_inverter/4. Software_WS/OL_VSC_vitor/Libraries/CMSIS/Include\cmsis_gcc.h ****  */
 285:F:/Projects/20190909 - 3phase_inverter/3phase_inverter/4. Software_WS/OL_VSC_vitor/Libraries/CMSIS/Include\cmsis_gcc.h **** __attribute__((always_inline)) __STATIC_INLINE void __set_MSP(uint32_t topOfMainStack)
 286:F:/Projects/20190909 - 3phase_inverter/3phase_inverter/4. Software_WS/OL_VSC_vitor/Libraries/CMSIS/Include\cmsis_gcc.h **** {
 287:F:/Projects/20190909 - 3phase_inverter/3phase_inverter/4. Software_WS/OL_VSC_vitor/Libraries/CMSIS/Include\cmsis_gcc.h ****   __ASM volatile ("MSR msp, %0" : : "r" (topOfMainStack) : );
 288:F:/Projects/20190909 - 3phase_inverter/3phase_inverter/4. Software_WS/OL_VSC_vitor/Libraries/CMSIS/Include\cmsis_gcc.h **** }
 289:F:/Projects/20190909 - 3phase_inverter/3phase_inverter/4. Software_WS/OL_VSC_vitor/Libraries/CMSIS/Include\cmsis_gcc.h **** 
 290:F:/Projects/20190909 - 3phase_inverter/3phase_inverter/4. Software_WS/OL_VSC_vitor/Libraries/CMSIS/Include\cmsis_gcc.h **** 
 291:F:/Projects/20190909 - 3phase_inverter/3phase_inverter/4. Software_WS/OL_VSC_vitor/Libraries/CMSIS/Include\cmsis_gcc.h **** #if (defined (__ARM_FEATURE_CMSE ) && (__ARM_FEATURE_CMSE == 3))
 292:F:/Projects/20190909 - 3phase_inverter/3phase_inverter/4. Software_WS/OL_VSC_vitor/Libraries/CMSIS/Include\cmsis_gcc.h **** /**
 293:F:/Projects/20190909 - 3phase_inverter/3phase_inverter/4. Software_WS/OL_VSC_vitor/Libraries/CMSIS/Include\cmsis_gcc.h ****   \brief   Set Main Stack Pointer (non-secure)
 294:F:/Projects/20190909 - 3phase_inverter/3phase_inverter/4. Software_WS/OL_VSC_vitor/Libraries/CMSIS/Include\cmsis_gcc.h ****   \details Assigns the given value to the non-secure Main Stack Pointer (MSP) when in secure state.
 295:F:/Projects/20190909 - 3phase_inverter/3phase_inverter/4. Software_WS/OL_VSC_vitor/Libraries/CMSIS/Include\cmsis_gcc.h ****   \param [in]    topOfMainStack  Main Stack Pointer value to set
 296:F:/Projects/20190909 - 3phase_inverter/3phase_inverter/4. Software_WS/OL_VSC_vitor/Libraries/CMSIS/Include\cmsis_gcc.h ****  */
 297:F:/Projects/20190909 - 3phase_inverter/3phase_inverter/4. Software_WS/OL_VSC_vitor/Libraries/CMSIS/Include\cmsis_gcc.h **** __attribute__((always_inline)) __STATIC_INLINE void __TZ_set_MSP_NS(uint32_t topOfMainStack)
 298:F:/Projects/20190909 - 3phase_inverter/3phase_inverter/4. Software_WS/OL_VSC_vitor/Libraries/CMSIS/Include\cmsis_gcc.h **** {
 299:F:/Projects/20190909 - 3phase_inverter/3phase_inverter/4. Software_WS/OL_VSC_vitor/Libraries/CMSIS/Include\cmsis_gcc.h ****   __ASM volatile ("MSR msp_ns, %0" : : "r" (topOfMainStack) : );
 300:F:/Projects/20190909 - 3phase_inverter/3phase_inverter/4. Software_WS/OL_VSC_vitor/Libraries/CMSIS/Include\cmsis_gcc.h **** }
 301:F:/Projects/20190909 - 3phase_inverter/3phase_inverter/4. Software_WS/OL_VSC_vitor/Libraries/CMSIS/Include\cmsis_gcc.h **** #endif
 302:F:/Projects/20190909 - 3phase_inverter/3phase_inverter/4. Software_WS/OL_VSC_vitor/Libraries/CMSIS/Include\cmsis_gcc.h **** 
 303:F:/Projects/20190909 - 3phase_inverter/3phase_inverter/4. Software_WS/OL_VSC_vitor/Libraries/CMSIS/Include\cmsis_gcc.h **** 
 304:F:/Projects/20190909 - 3phase_inverter/3phase_inverter/4. Software_WS/OL_VSC_vitor/Libraries/CMSIS/Include\cmsis_gcc.h **** /**
 305:F:/Projects/20190909 - 3phase_inverter/3phase_inverter/4. Software_WS/OL_VSC_vitor/Libraries/CMSIS/Include\cmsis_gcc.h ****   \brief   Get Priority Mask
 306:F:/Projects/20190909 - 3phase_inverter/3phase_inverter/4. Software_WS/OL_VSC_vitor/Libraries/CMSIS/Include\cmsis_gcc.h ****   \details Returns the current state of the priority mask bit from the Priority Mask Register.
 307:F:/Projects/20190909 - 3phase_inverter/3phase_inverter/4. Software_WS/OL_VSC_vitor/Libraries/CMSIS/Include\cmsis_gcc.h ****   \return               Priority Mask value
 308:F:/Projects/20190909 - 3phase_inverter/3phase_inverter/4. Software_WS/OL_VSC_vitor/Libraries/CMSIS/Include\cmsis_gcc.h ****  */
 309:F:/Projects/20190909 - 3phase_inverter/3phase_inverter/4. Software_WS/OL_VSC_vitor/Libraries/CMSIS/Include\cmsis_gcc.h **** __attribute__((always_inline)) __STATIC_INLINE uint32_t __get_PRIMASK(void)
 310:F:/Projects/20190909 - 3phase_inverter/3phase_inverter/4. Software_WS/OL_VSC_vitor/Libraries/CMSIS/Include\cmsis_gcc.h **** {
 311:F:/Projects/20190909 - 3phase_inverter/3phase_inverter/4. Software_WS/OL_VSC_vitor/Libraries/CMSIS/Include\cmsis_gcc.h ****   uint32_t result;
 312:F:/Projects/20190909 - 3phase_inverter/3phase_inverter/4. Software_WS/OL_VSC_vitor/Libraries/CMSIS/Include\cmsis_gcc.h **** 
 313:F:/Projects/20190909 - 3phase_inverter/3phase_inverter/4. Software_WS/OL_VSC_vitor/Libraries/CMSIS/Include\cmsis_gcc.h ****   __ASM volatile ("MRS %0, primask" : "=r" (result) );
 314:F:/Projects/20190909 - 3phase_inverter/3phase_inverter/4. Software_WS/OL_VSC_vitor/Libraries/CMSIS/Include\cmsis_gcc.h ****   return(result);
 315:F:/Projects/20190909 - 3phase_inverter/3phase_inverter/4. Software_WS/OL_VSC_vitor/Libraries/CMSIS/Include\cmsis_gcc.h **** }
 316:F:/Projects/20190909 - 3phase_inverter/3phase_inverter/4. Software_WS/OL_VSC_vitor/Libraries/CMSIS/Include\cmsis_gcc.h **** 
 317:F:/Projects/20190909 - 3phase_inverter/3phase_inverter/4. Software_WS/OL_VSC_vitor/Libraries/CMSIS/Include\cmsis_gcc.h **** 
 318:F:/Projects/20190909 - 3phase_inverter/3phase_inverter/4. Software_WS/OL_VSC_vitor/Libraries/CMSIS/Include\cmsis_gcc.h **** #if (defined (__ARM_FEATURE_CMSE ) && (__ARM_FEATURE_CMSE == 3))
 319:F:/Projects/20190909 - 3phase_inverter/3phase_inverter/4. Software_WS/OL_VSC_vitor/Libraries/CMSIS/Include\cmsis_gcc.h **** /**
 320:F:/Projects/20190909 - 3phase_inverter/3phase_inverter/4. Software_WS/OL_VSC_vitor/Libraries/CMSIS/Include\cmsis_gcc.h ****   \brief   Get Priority Mask (non-secure)
 321:F:/Projects/20190909 - 3phase_inverter/3phase_inverter/4. Software_WS/OL_VSC_vitor/Libraries/CMSIS/Include\cmsis_gcc.h ****   \details Returns the current state of the non-secure priority mask bit from the Priority Mask Reg
 322:F:/Projects/20190909 - 3phase_inverter/3phase_inverter/4. Software_WS/OL_VSC_vitor/Libraries/CMSIS/Include\cmsis_gcc.h ****   \return               Priority Mask value
 323:F:/Projects/20190909 - 3phase_inverter/3phase_inverter/4. Software_WS/OL_VSC_vitor/Libraries/CMSIS/Include\cmsis_gcc.h ****  */
 324:F:/Projects/20190909 - 3phase_inverter/3phase_inverter/4. Software_WS/OL_VSC_vitor/Libraries/CMSIS/Include\cmsis_gcc.h **** __attribute__((always_inline)) __STATIC_INLINE uint32_t __TZ_get_PRIMASK_NS(void)
 325:F:/Projects/20190909 - 3phase_inverter/3phase_inverter/4. Software_WS/OL_VSC_vitor/Libraries/CMSIS/Include\cmsis_gcc.h **** {
 326:F:/Projects/20190909 - 3phase_inverter/3phase_inverter/4. Software_WS/OL_VSC_vitor/Libraries/CMSIS/Include\cmsis_gcc.h ****   uint32_t result;
 327:F:/Projects/20190909 - 3phase_inverter/3phase_inverter/4. Software_WS/OL_VSC_vitor/Libraries/CMSIS/Include\cmsis_gcc.h **** 
 328:F:/Projects/20190909 - 3phase_inverter/3phase_inverter/4. Software_WS/OL_VSC_vitor/Libraries/CMSIS/Include\cmsis_gcc.h ****   __ASM volatile ("MRS %0, primask_ns" : "=r" (result) );
 329:F:/Projects/20190909 - 3phase_inverter/3phase_inverter/4. Software_WS/OL_VSC_vitor/Libraries/CMSIS/Include\cmsis_gcc.h ****   return(result);
 330:F:/Projects/20190909 - 3phase_inverter/3phase_inverter/4. Software_WS/OL_VSC_vitor/Libraries/CMSIS/Include\cmsis_gcc.h **** }
 331:F:/Projects/20190909 - 3phase_inverter/3phase_inverter/4. Software_WS/OL_VSC_vitor/Libraries/CMSIS/Include\cmsis_gcc.h **** #endif
 332:F:/Projects/20190909 - 3phase_inverter/3phase_inverter/4. Software_WS/OL_VSC_vitor/Libraries/CMSIS/Include\cmsis_gcc.h **** 
 333:F:/Projects/20190909 - 3phase_inverter/3phase_inverter/4. Software_WS/OL_VSC_vitor/Libraries/CMSIS/Include\cmsis_gcc.h **** 
 334:F:/Projects/20190909 - 3phase_inverter/3phase_inverter/4. Software_WS/OL_VSC_vitor/Libraries/CMSIS/Include\cmsis_gcc.h **** /**
 335:F:/Projects/20190909 - 3phase_inverter/3phase_inverter/4. Software_WS/OL_VSC_vitor/Libraries/CMSIS/Include\cmsis_gcc.h ****   \brief   Set Priority Mask
 336:F:/Projects/20190909 - 3phase_inverter/3phase_inverter/4. Software_WS/OL_VSC_vitor/Libraries/CMSIS/Include\cmsis_gcc.h ****   \details Assigns the given value to the Priority Mask Register.
 337:F:/Projects/20190909 - 3phase_inverter/3phase_inverter/4. Software_WS/OL_VSC_vitor/Libraries/CMSIS/Include\cmsis_gcc.h ****   \param [in]    priMask  Priority Mask
 338:F:/Projects/20190909 - 3phase_inverter/3phase_inverter/4. Software_WS/OL_VSC_vitor/Libraries/CMSIS/Include\cmsis_gcc.h ****  */
 339:F:/Projects/20190909 - 3phase_inverter/3phase_inverter/4. Software_WS/OL_VSC_vitor/Libraries/CMSIS/Include\cmsis_gcc.h **** __attribute__((always_inline)) __STATIC_INLINE void __set_PRIMASK(uint32_t priMask)
 340:F:/Projects/20190909 - 3phase_inverter/3phase_inverter/4. Software_WS/OL_VSC_vitor/Libraries/CMSIS/Include\cmsis_gcc.h **** {
 341:F:/Projects/20190909 - 3phase_inverter/3phase_inverter/4. Software_WS/OL_VSC_vitor/Libraries/CMSIS/Include\cmsis_gcc.h ****   __ASM volatile ("MSR primask, %0" : : "r" (priMask) : "memory");
 342:F:/Projects/20190909 - 3phase_inverter/3phase_inverter/4. Software_WS/OL_VSC_vitor/Libraries/CMSIS/Include\cmsis_gcc.h **** }
 343:F:/Projects/20190909 - 3phase_inverter/3phase_inverter/4. Software_WS/OL_VSC_vitor/Libraries/CMSIS/Include\cmsis_gcc.h **** 
 344:F:/Projects/20190909 - 3phase_inverter/3phase_inverter/4. Software_WS/OL_VSC_vitor/Libraries/CMSIS/Include\cmsis_gcc.h **** 
 345:F:/Projects/20190909 - 3phase_inverter/3phase_inverter/4. Software_WS/OL_VSC_vitor/Libraries/CMSIS/Include\cmsis_gcc.h **** #if (defined (__ARM_FEATURE_CMSE ) && (__ARM_FEATURE_CMSE == 3))
 346:F:/Projects/20190909 - 3phase_inverter/3phase_inverter/4. Software_WS/OL_VSC_vitor/Libraries/CMSIS/Include\cmsis_gcc.h **** /**
 347:F:/Projects/20190909 - 3phase_inverter/3phase_inverter/4. Software_WS/OL_VSC_vitor/Libraries/CMSIS/Include\cmsis_gcc.h ****   \brief   Set Priority Mask (non-secure)
 348:F:/Projects/20190909 - 3phase_inverter/3phase_inverter/4. Software_WS/OL_VSC_vitor/Libraries/CMSIS/Include\cmsis_gcc.h ****   \details Assigns the given value to the non-secure Priority Mask Register when in secure state.
 349:F:/Projects/20190909 - 3phase_inverter/3phase_inverter/4. Software_WS/OL_VSC_vitor/Libraries/CMSIS/Include\cmsis_gcc.h ****   \param [in]    priMask  Priority Mask
 350:F:/Projects/20190909 - 3phase_inverter/3phase_inverter/4. Software_WS/OL_VSC_vitor/Libraries/CMSIS/Include\cmsis_gcc.h ****  */
 351:F:/Projects/20190909 - 3phase_inverter/3phase_inverter/4. Software_WS/OL_VSC_vitor/Libraries/CMSIS/Include\cmsis_gcc.h **** __attribute__((always_inline)) __STATIC_INLINE void __TZ_set_PRIMASK_NS(uint32_t priMask)
 352:F:/Projects/20190909 - 3phase_inverter/3phase_inverter/4. Software_WS/OL_VSC_vitor/Libraries/CMSIS/Include\cmsis_gcc.h **** {
 353:F:/Projects/20190909 - 3phase_inverter/3phase_inverter/4. Software_WS/OL_VSC_vitor/Libraries/CMSIS/Include\cmsis_gcc.h ****   __ASM volatile ("MSR primask_ns, %0" : : "r" (priMask) : "memory");
 354:F:/Projects/20190909 - 3phase_inverter/3phase_inverter/4. Software_WS/OL_VSC_vitor/Libraries/CMSIS/Include\cmsis_gcc.h **** }
 355:F:/Projects/20190909 - 3phase_inverter/3phase_inverter/4. Software_WS/OL_VSC_vitor/Libraries/CMSIS/Include\cmsis_gcc.h **** #endif
 356:F:/Projects/20190909 - 3phase_inverter/3phase_inverter/4. Software_WS/OL_VSC_vitor/Libraries/CMSIS/Include\cmsis_gcc.h **** 
 357:F:/Projects/20190909 - 3phase_inverter/3phase_inverter/4. Software_WS/OL_VSC_vitor/Libraries/CMSIS/Include\cmsis_gcc.h **** 
 358:F:/Projects/20190909 - 3phase_inverter/3phase_inverter/4. Software_WS/OL_VSC_vitor/Libraries/CMSIS/Include\cmsis_gcc.h **** #if ((defined (__ARM_ARCH_7M__      ) && (__ARM_ARCH_7M__      == 1)) || \
 359:F:/Projects/20190909 - 3phase_inverter/3phase_inverter/4. Software_WS/OL_VSC_vitor/Libraries/CMSIS/Include\cmsis_gcc.h ****      (defined (__ARM_ARCH_7EM__     ) && (__ARM_ARCH_7EM__     == 1)) || \
 360:F:/Projects/20190909 - 3phase_inverter/3phase_inverter/4. Software_WS/OL_VSC_vitor/Libraries/CMSIS/Include\cmsis_gcc.h ****      (defined (__ARM_ARCH_8M_MAIN__ ) && (__ARM_ARCH_8M_MAIN__ == 1))    )
 361:F:/Projects/20190909 - 3phase_inverter/3phase_inverter/4. Software_WS/OL_VSC_vitor/Libraries/CMSIS/Include\cmsis_gcc.h **** /**
 362:F:/Projects/20190909 - 3phase_inverter/3phase_inverter/4. Software_WS/OL_VSC_vitor/Libraries/CMSIS/Include\cmsis_gcc.h ****   \brief   Enable FIQ
 363:F:/Projects/20190909 - 3phase_inverter/3phase_inverter/4. Software_WS/OL_VSC_vitor/Libraries/CMSIS/Include\cmsis_gcc.h ****   \details Enables FIQ interrupts by clearing the F-bit in the CPSR.
 364:F:/Projects/20190909 - 3phase_inverter/3phase_inverter/4. Software_WS/OL_VSC_vitor/Libraries/CMSIS/Include\cmsis_gcc.h ****            Can only be executed in Privileged modes.
 365:F:/Projects/20190909 - 3phase_inverter/3phase_inverter/4. Software_WS/OL_VSC_vitor/Libraries/CMSIS/Include\cmsis_gcc.h ****  */
 366:F:/Projects/20190909 - 3phase_inverter/3phase_inverter/4. Software_WS/OL_VSC_vitor/Libraries/CMSIS/Include\cmsis_gcc.h **** __attribute__((always_inline)) __STATIC_INLINE void __enable_fault_irq(void)
 367:F:/Projects/20190909 - 3phase_inverter/3phase_inverter/4. Software_WS/OL_VSC_vitor/Libraries/CMSIS/Include\cmsis_gcc.h **** {
 368:F:/Projects/20190909 - 3phase_inverter/3phase_inverter/4. Software_WS/OL_VSC_vitor/Libraries/CMSIS/Include\cmsis_gcc.h ****   __ASM volatile ("cpsie f" : : : "memory");
 369:F:/Projects/20190909 - 3phase_inverter/3phase_inverter/4. Software_WS/OL_VSC_vitor/Libraries/CMSIS/Include\cmsis_gcc.h **** }
 370:F:/Projects/20190909 - 3phase_inverter/3phase_inverter/4. Software_WS/OL_VSC_vitor/Libraries/CMSIS/Include\cmsis_gcc.h **** 
 371:F:/Projects/20190909 - 3phase_inverter/3phase_inverter/4. Software_WS/OL_VSC_vitor/Libraries/CMSIS/Include\cmsis_gcc.h **** 
 372:F:/Projects/20190909 - 3phase_inverter/3phase_inverter/4. Software_WS/OL_VSC_vitor/Libraries/CMSIS/Include\cmsis_gcc.h **** /**
 373:F:/Projects/20190909 - 3phase_inverter/3phase_inverter/4. Software_WS/OL_VSC_vitor/Libraries/CMSIS/Include\cmsis_gcc.h ****   \brief   Disable FIQ
 374:F:/Projects/20190909 - 3phase_inverter/3phase_inverter/4. Software_WS/OL_VSC_vitor/Libraries/CMSIS/Include\cmsis_gcc.h ****   \details Disables FIQ interrupts by setting the F-bit in the CPSR.
 375:F:/Projects/20190909 - 3phase_inverter/3phase_inverter/4. Software_WS/OL_VSC_vitor/Libraries/CMSIS/Include\cmsis_gcc.h ****            Can only be executed in Privileged modes.
 376:F:/Projects/20190909 - 3phase_inverter/3phase_inverter/4. Software_WS/OL_VSC_vitor/Libraries/CMSIS/Include\cmsis_gcc.h ****  */
 377:F:/Projects/20190909 - 3phase_inverter/3phase_inverter/4. Software_WS/OL_VSC_vitor/Libraries/CMSIS/Include\cmsis_gcc.h **** __attribute__((always_inline)) __STATIC_INLINE void __disable_fault_irq(void)
 378:F:/Projects/20190909 - 3phase_inverter/3phase_inverter/4. Software_WS/OL_VSC_vitor/Libraries/CMSIS/Include\cmsis_gcc.h **** {
 379:F:/Projects/20190909 - 3phase_inverter/3phase_inverter/4. Software_WS/OL_VSC_vitor/Libraries/CMSIS/Include\cmsis_gcc.h ****   __ASM volatile ("cpsid f" : : : "memory");
 380:F:/Projects/20190909 - 3phase_inverter/3phase_inverter/4. Software_WS/OL_VSC_vitor/Libraries/CMSIS/Include\cmsis_gcc.h **** }
 381:F:/Projects/20190909 - 3phase_inverter/3phase_inverter/4. Software_WS/OL_VSC_vitor/Libraries/CMSIS/Include\cmsis_gcc.h **** 
 382:F:/Projects/20190909 - 3phase_inverter/3phase_inverter/4. Software_WS/OL_VSC_vitor/Libraries/CMSIS/Include\cmsis_gcc.h **** 
 383:F:/Projects/20190909 - 3phase_inverter/3phase_inverter/4. Software_WS/OL_VSC_vitor/Libraries/CMSIS/Include\cmsis_gcc.h **** /**
 384:F:/Projects/20190909 - 3phase_inverter/3phase_inverter/4. Software_WS/OL_VSC_vitor/Libraries/CMSIS/Include\cmsis_gcc.h ****   \brief   Get Base Priority
 385:F:/Projects/20190909 - 3phase_inverter/3phase_inverter/4. Software_WS/OL_VSC_vitor/Libraries/CMSIS/Include\cmsis_gcc.h ****   \details Returns the current value of the Base Priority register.
 386:F:/Projects/20190909 - 3phase_inverter/3phase_inverter/4. Software_WS/OL_VSC_vitor/Libraries/CMSIS/Include\cmsis_gcc.h ****   \return               Base Priority register value
 387:F:/Projects/20190909 - 3phase_inverter/3phase_inverter/4. Software_WS/OL_VSC_vitor/Libraries/CMSIS/Include\cmsis_gcc.h ****  */
 388:F:/Projects/20190909 - 3phase_inverter/3phase_inverter/4. Software_WS/OL_VSC_vitor/Libraries/CMSIS/Include\cmsis_gcc.h **** __attribute__((always_inline)) __STATIC_INLINE uint32_t __get_BASEPRI(void)
 389:F:/Projects/20190909 - 3phase_inverter/3phase_inverter/4. Software_WS/OL_VSC_vitor/Libraries/CMSIS/Include\cmsis_gcc.h **** {
 390:F:/Projects/20190909 - 3phase_inverter/3phase_inverter/4. Software_WS/OL_VSC_vitor/Libraries/CMSIS/Include\cmsis_gcc.h ****   uint32_t result;
 391:F:/Projects/20190909 - 3phase_inverter/3phase_inverter/4. Software_WS/OL_VSC_vitor/Libraries/CMSIS/Include\cmsis_gcc.h **** 
 392:F:/Projects/20190909 - 3phase_inverter/3phase_inverter/4. Software_WS/OL_VSC_vitor/Libraries/CMSIS/Include\cmsis_gcc.h ****   __ASM volatile ("MRS %0, basepri" : "=r" (result) );
 393:F:/Projects/20190909 - 3phase_inverter/3phase_inverter/4. Software_WS/OL_VSC_vitor/Libraries/CMSIS/Include\cmsis_gcc.h ****   return(result);
 394:F:/Projects/20190909 - 3phase_inverter/3phase_inverter/4. Software_WS/OL_VSC_vitor/Libraries/CMSIS/Include\cmsis_gcc.h **** }
 395:F:/Projects/20190909 - 3phase_inverter/3phase_inverter/4. Software_WS/OL_VSC_vitor/Libraries/CMSIS/Include\cmsis_gcc.h **** 
 396:F:/Projects/20190909 - 3phase_inverter/3phase_inverter/4. Software_WS/OL_VSC_vitor/Libraries/CMSIS/Include\cmsis_gcc.h **** 
 397:F:/Projects/20190909 - 3phase_inverter/3phase_inverter/4. Software_WS/OL_VSC_vitor/Libraries/CMSIS/Include\cmsis_gcc.h **** #if (defined (__ARM_FEATURE_CMSE ) && (__ARM_FEATURE_CMSE == 3))
 398:F:/Projects/20190909 - 3phase_inverter/3phase_inverter/4. Software_WS/OL_VSC_vitor/Libraries/CMSIS/Include\cmsis_gcc.h **** /**
 399:F:/Projects/20190909 - 3phase_inverter/3phase_inverter/4. Software_WS/OL_VSC_vitor/Libraries/CMSIS/Include\cmsis_gcc.h ****   \brief   Get Base Priority (non-secure)
 400:F:/Projects/20190909 - 3phase_inverter/3phase_inverter/4. Software_WS/OL_VSC_vitor/Libraries/CMSIS/Include\cmsis_gcc.h ****   \details Returns the current value of the non-secure Base Priority register when in secure state.
 401:F:/Projects/20190909 - 3phase_inverter/3phase_inverter/4. Software_WS/OL_VSC_vitor/Libraries/CMSIS/Include\cmsis_gcc.h ****   \return               Base Priority register value
 402:F:/Projects/20190909 - 3phase_inverter/3phase_inverter/4. Software_WS/OL_VSC_vitor/Libraries/CMSIS/Include\cmsis_gcc.h ****  */
 403:F:/Projects/20190909 - 3phase_inverter/3phase_inverter/4. Software_WS/OL_VSC_vitor/Libraries/CMSIS/Include\cmsis_gcc.h **** __attribute__((always_inline)) __STATIC_INLINE uint32_t __TZ_get_BASEPRI_NS(void)
 404:F:/Projects/20190909 - 3phase_inverter/3phase_inverter/4. Software_WS/OL_VSC_vitor/Libraries/CMSIS/Include\cmsis_gcc.h **** {
 405:F:/Projects/20190909 - 3phase_inverter/3phase_inverter/4. Software_WS/OL_VSC_vitor/Libraries/CMSIS/Include\cmsis_gcc.h ****   uint32_t result;
 406:F:/Projects/20190909 - 3phase_inverter/3phase_inverter/4. Software_WS/OL_VSC_vitor/Libraries/CMSIS/Include\cmsis_gcc.h **** 
 407:F:/Projects/20190909 - 3phase_inverter/3phase_inverter/4. Software_WS/OL_VSC_vitor/Libraries/CMSIS/Include\cmsis_gcc.h ****   __ASM volatile ("MRS %0, basepri_ns" : "=r" (result) );
 408:F:/Projects/20190909 - 3phase_inverter/3phase_inverter/4. Software_WS/OL_VSC_vitor/Libraries/CMSIS/Include\cmsis_gcc.h ****   return(result);
 409:F:/Projects/20190909 - 3phase_inverter/3phase_inverter/4. Software_WS/OL_VSC_vitor/Libraries/CMSIS/Include\cmsis_gcc.h **** }
 410:F:/Projects/20190909 - 3phase_inverter/3phase_inverter/4. Software_WS/OL_VSC_vitor/Libraries/CMSIS/Include\cmsis_gcc.h **** #endif
 411:F:/Projects/20190909 - 3phase_inverter/3phase_inverter/4. Software_WS/OL_VSC_vitor/Libraries/CMSIS/Include\cmsis_gcc.h **** 
 412:F:/Projects/20190909 - 3phase_inverter/3phase_inverter/4. Software_WS/OL_VSC_vitor/Libraries/CMSIS/Include\cmsis_gcc.h **** 
 413:F:/Projects/20190909 - 3phase_inverter/3phase_inverter/4. Software_WS/OL_VSC_vitor/Libraries/CMSIS/Include\cmsis_gcc.h **** /**
 414:F:/Projects/20190909 - 3phase_inverter/3phase_inverter/4. Software_WS/OL_VSC_vitor/Libraries/CMSIS/Include\cmsis_gcc.h ****   \brief   Set Base Priority
 415:F:/Projects/20190909 - 3phase_inverter/3phase_inverter/4. Software_WS/OL_VSC_vitor/Libraries/CMSIS/Include\cmsis_gcc.h ****   \details Assigns the given value to the Base Priority register.
 416:F:/Projects/20190909 - 3phase_inverter/3phase_inverter/4. Software_WS/OL_VSC_vitor/Libraries/CMSIS/Include\cmsis_gcc.h ****   \param [in]    basePri  Base Priority value to set
 417:F:/Projects/20190909 - 3phase_inverter/3phase_inverter/4. Software_WS/OL_VSC_vitor/Libraries/CMSIS/Include\cmsis_gcc.h ****  */
 418:F:/Projects/20190909 - 3phase_inverter/3phase_inverter/4. Software_WS/OL_VSC_vitor/Libraries/CMSIS/Include\cmsis_gcc.h **** __attribute__((always_inline)) __STATIC_INLINE void __set_BASEPRI(uint32_t basePri)
 419:F:/Projects/20190909 - 3phase_inverter/3phase_inverter/4. Software_WS/OL_VSC_vitor/Libraries/CMSIS/Include\cmsis_gcc.h **** {
 420:F:/Projects/20190909 - 3phase_inverter/3phase_inverter/4. Software_WS/OL_VSC_vitor/Libraries/CMSIS/Include\cmsis_gcc.h ****   __ASM volatile ("MSR basepri, %0" : : "r" (basePri) : "memory");
 421:F:/Projects/20190909 - 3phase_inverter/3phase_inverter/4. Software_WS/OL_VSC_vitor/Libraries/CMSIS/Include\cmsis_gcc.h **** }
 422:F:/Projects/20190909 - 3phase_inverter/3phase_inverter/4. Software_WS/OL_VSC_vitor/Libraries/CMSIS/Include\cmsis_gcc.h **** 
 423:F:/Projects/20190909 - 3phase_inverter/3phase_inverter/4. Software_WS/OL_VSC_vitor/Libraries/CMSIS/Include\cmsis_gcc.h **** 
 424:F:/Projects/20190909 - 3phase_inverter/3phase_inverter/4. Software_WS/OL_VSC_vitor/Libraries/CMSIS/Include\cmsis_gcc.h **** #if (defined (__ARM_FEATURE_CMSE ) && (__ARM_FEATURE_CMSE == 3))
 425:F:/Projects/20190909 - 3phase_inverter/3phase_inverter/4. Software_WS/OL_VSC_vitor/Libraries/CMSIS/Include\cmsis_gcc.h **** /**
 426:F:/Projects/20190909 - 3phase_inverter/3phase_inverter/4. Software_WS/OL_VSC_vitor/Libraries/CMSIS/Include\cmsis_gcc.h ****   \brief   Set Base Priority (non-secure)
 427:F:/Projects/20190909 - 3phase_inverter/3phase_inverter/4. Software_WS/OL_VSC_vitor/Libraries/CMSIS/Include\cmsis_gcc.h ****   \details Assigns the given value to the non-secure Base Priority register when in secure state.
 428:F:/Projects/20190909 - 3phase_inverter/3phase_inverter/4. Software_WS/OL_VSC_vitor/Libraries/CMSIS/Include\cmsis_gcc.h ****   \param [in]    basePri  Base Priority value to set
 429:F:/Projects/20190909 - 3phase_inverter/3phase_inverter/4. Software_WS/OL_VSC_vitor/Libraries/CMSIS/Include\cmsis_gcc.h ****  */
 430:F:/Projects/20190909 - 3phase_inverter/3phase_inverter/4. Software_WS/OL_VSC_vitor/Libraries/CMSIS/Include\cmsis_gcc.h **** __attribute__((always_inline)) __STATIC_INLINE void __TZ_set_BASEPRI_NS(uint32_t basePri)
 431:F:/Projects/20190909 - 3phase_inverter/3phase_inverter/4. Software_WS/OL_VSC_vitor/Libraries/CMSIS/Include\cmsis_gcc.h **** {
 432:F:/Projects/20190909 - 3phase_inverter/3phase_inverter/4. Software_WS/OL_VSC_vitor/Libraries/CMSIS/Include\cmsis_gcc.h ****   __ASM volatile ("MSR basepri_ns, %0" : : "r" (basePri) : "memory");
 433:F:/Projects/20190909 - 3phase_inverter/3phase_inverter/4. Software_WS/OL_VSC_vitor/Libraries/CMSIS/Include\cmsis_gcc.h **** }
 434:F:/Projects/20190909 - 3phase_inverter/3phase_inverter/4. Software_WS/OL_VSC_vitor/Libraries/CMSIS/Include\cmsis_gcc.h **** #endif
 435:F:/Projects/20190909 - 3phase_inverter/3phase_inverter/4. Software_WS/OL_VSC_vitor/Libraries/CMSIS/Include\cmsis_gcc.h **** 
 436:F:/Projects/20190909 - 3phase_inverter/3phase_inverter/4. Software_WS/OL_VSC_vitor/Libraries/CMSIS/Include\cmsis_gcc.h **** 
 437:F:/Projects/20190909 - 3phase_inverter/3phase_inverter/4. Software_WS/OL_VSC_vitor/Libraries/CMSIS/Include\cmsis_gcc.h **** /**
 438:F:/Projects/20190909 - 3phase_inverter/3phase_inverter/4. Software_WS/OL_VSC_vitor/Libraries/CMSIS/Include\cmsis_gcc.h ****   \brief   Set Base Priority with condition
 439:F:/Projects/20190909 - 3phase_inverter/3phase_inverter/4. Software_WS/OL_VSC_vitor/Libraries/CMSIS/Include\cmsis_gcc.h ****   \details Assigns the given value to the Base Priority register only if BASEPRI masking is disable
 440:F:/Projects/20190909 - 3phase_inverter/3phase_inverter/4. Software_WS/OL_VSC_vitor/Libraries/CMSIS/Include\cmsis_gcc.h ****            or the new value increases the BASEPRI priority level.
 441:F:/Projects/20190909 - 3phase_inverter/3phase_inverter/4. Software_WS/OL_VSC_vitor/Libraries/CMSIS/Include\cmsis_gcc.h ****   \param [in]    basePri  Base Priority value to set
 442:F:/Projects/20190909 - 3phase_inverter/3phase_inverter/4. Software_WS/OL_VSC_vitor/Libraries/CMSIS/Include\cmsis_gcc.h ****  */
 443:F:/Projects/20190909 - 3phase_inverter/3phase_inverter/4. Software_WS/OL_VSC_vitor/Libraries/CMSIS/Include\cmsis_gcc.h **** __attribute__((always_inline)) __STATIC_INLINE void __set_BASEPRI_MAX(uint32_t basePri)
 444:F:/Projects/20190909 - 3phase_inverter/3phase_inverter/4. Software_WS/OL_VSC_vitor/Libraries/CMSIS/Include\cmsis_gcc.h **** {
 445:F:/Projects/20190909 - 3phase_inverter/3phase_inverter/4. Software_WS/OL_VSC_vitor/Libraries/CMSIS/Include\cmsis_gcc.h ****   __ASM volatile ("MSR basepri_max, %0" : : "r" (basePri) : "memory");
 446:F:/Projects/20190909 - 3phase_inverter/3phase_inverter/4. Software_WS/OL_VSC_vitor/Libraries/CMSIS/Include\cmsis_gcc.h **** }
 447:F:/Projects/20190909 - 3phase_inverter/3phase_inverter/4. Software_WS/OL_VSC_vitor/Libraries/CMSIS/Include\cmsis_gcc.h **** 
 448:F:/Projects/20190909 - 3phase_inverter/3phase_inverter/4. Software_WS/OL_VSC_vitor/Libraries/CMSIS/Include\cmsis_gcc.h **** 
 449:F:/Projects/20190909 - 3phase_inverter/3phase_inverter/4. Software_WS/OL_VSC_vitor/Libraries/CMSIS/Include\cmsis_gcc.h **** /**
 450:F:/Projects/20190909 - 3phase_inverter/3phase_inverter/4. Software_WS/OL_VSC_vitor/Libraries/CMSIS/Include\cmsis_gcc.h ****   \brief   Get Fault Mask
 451:F:/Projects/20190909 - 3phase_inverter/3phase_inverter/4. Software_WS/OL_VSC_vitor/Libraries/CMSIS/Include\cmsis_gcc.h ****   \details Returns the current value of the Fault Mask register.
 452:F:/Projects/20190909 - 3phase_inverter/3phase_inverter/4. Software_WS/OL_VSC_vitor/Libraries/CMSIS/Include\cmsis_gcc.h ****   \return               Fault Mask register value
 453:F:/Projects/20190909 - 3phase_inverter/3phase_inverter/4. Software_WS/OL_VSC_vitor/Libraries/CMSIS/Include\cmsis_gcc.h ****  */
 454:F:/Projects/20190909 - 3phase_inverter/3phase_inverter/4. Software_WS/OL_VSC_vitor/Libraries/CMSIS/Include\cmsis_gcc.h **** __attribute__((always_inline)) __STATIC_INLINE uint32_t __get_FAULTMASK(void)
 455:F:/Projects/20190909 - 3phase_inverter/3phase_inverter/4. Software_WS/OL_VSC_vitor/Libraries/CMSIS/Include\cmsis_gcc.h **** {
 456:F:/Projects/20190909 - 3phase_inverter/3phase_inverter/4. Software_WS/OL_VSC_vitor/Libraries/CMSIS/Include\cmsis_gcc.h ****   uint32_t result;
 457:F:/Projects/20190909 - 3phase_inverter/3phase_inverter/4. Software_WS/OL_VSC_vitor/Libraries/CMSIS/Include\cmsis_gcc.h **** 
 458:F:/Projects/20190909 - 3phase_inverter/3phase_inverter/4. Software_WS/OL_VSC_vitor/Libraries/CMSIS/Include\cmsis_gcc.h ****   __ASM volatile ("MRS %0, faultmask" : "=r" (result) );
 459:F:/Projects/20190909 - 3phase_inverter/3phase_inverter/4. Software_WS/OL_VSC_vitor/Libraries/CMSIS/Include\cmsis_gcc.h ****   return(result);
 460:F:/Projects/20190909 - 3phase_inverter/3phase_inverter/4. Software_WS/OL_VSC_vitor/Libraries/CMSIS/Include\cmsis_gcc.h **** }
 461:F:/Projects/20190909 - 3phase_inverter/3phase_inverter/4. Software_WS/OL_VSC_vitor/Libraries/CMSIS/Include\cmsis_gcc.h **** 
 462:F:/Projects/20190909 - 3phase_inverter/3phase_inverter/4. Software_WS/OL_VSC_vitor/Libraries/CMSIS/Include\cmsis_gcc.h **** 
 463:F:/Projects/20190909 - 3phase_inverter/3phase_inverter/4. Software_WS/OL_VSC_vitor/Libraries/CMSIS/Include\cmsis_gcc.h **** #if (defined (__ARM_FEATURE_CMSE ) && (__ARM_FEATURE_CMSE == 3))
 464:F:/Projects/20190909 - 3phase_inverter/3phase_inverter/4. Software_WS/OL_VSC_vitor/Libraries/CMSIS/Include\cmsis_gcc.h **** /**
 465:F:/Projects/20190909 - 3phase_inverter/3phase_inverter/4. Software_WS/OL_VSC_vitor/Libraries/CMSIS/Include\cmsis_gcc.h ****   \brief   Get Fault Mask (non-secure)
 466:F:/Projects/20190909 - 3phase_inverter/3phase_inverter/4. Software_WS/OL_VSC_vitor/Libraries/CMSIS/Include\cmsis_gcc.h ****   \details Returns the current value of the non-secure Fault Mask register when in secure state.
 467:F:/Projects/20190909 - 3phase_inverter/3phase_inverter/4. Software_WS/OL_VSC_vitor/Libraries/CMSIS/Include\cmsis_gcc.h ****   \return               Fault Mask register value
 468:F:/Projects/20190909 - 3phase_inverter/3phase_inverter/4. Software_WS/OL_VSC_vitor/Libraries/CMSIS/Include\cmsis_gcc.h ****  */
 469:F:/Projects/20190909 - 3phase_inverter/3phase_inverter/4. Software_WS/OL_VSC_vitor/Libraries/CMSIS/Include\cmsis_gcc.h **** __attribute__((always_inline)) __STATIC_INLINE uint32_t __TZ_get_FAULTMASK_NS(void)
 470:F:/Projects/20190909 - 3phase_inverter/3phase_inverter/4. Software_WS/OL_VSC_vitor/Libraries/CMSIS/Include\cmsis_gcc.h **** {
 471:F:/Projects/20190909 - 3phase_inverter/3phase_inverter/4. Software_WS/OL_VSC_vitor/Libraries/CMSIS/Include\cmsis_gcc.h ****   uint32_t result;
 472:F:/Projects/20190909 - 3phase_inverter/3phase_inverter/4. Software_WS/OL_VSC_vitor/Libraries/CMSIS/Include\cmsis_gcc.h **** 
 473:F:/Projects/20190909 - 3phase_inverter/3phase_inverter/4. Software_WS/OL_VSC_vitor/Libraries/CMSIS/Include\cmsis_gcc.h ****   __ASM volatile ("MRS %0, faultmask_ns" : "=r" (result) );
 474:F:/Projects/20190909 - 3phase_inverter/3phase_inverter/4. Software_WS/OL_VSC_vitor/Libraries/CMSIS/Include\cmsis_gcc.h ****   return(result);
 475:F:/Projects/20190909 - 3phase_inverter/3phase_inverter/4. Software_WS/OL_VSC_vitor/Libraries/CMSIS/Include\cmsis_gcc.h **** }
 476:F:/Projects/20190909 - 3phase_inverter/3phase_inverter/4. Software_WS/OL_VSC_vitor/Libraries/CMSIS/Include\cmsis_gcc.h **** #endif
 477:F:/Projects/20190909 - 3phase_inverter/3phase_inverter/4. Software_WS/OL_VSC_vitor/Libraries/CMSIS/Include\cmsis_gcc.h **** 
 478:F:/Projects/20190909 - 3phase_inverter/3phase_inverter/4. Software_WS/OL_VSC_vitor/Libraries/CMSIS/Include\cmsis_gcc.h **** 
 479:F:/Projects/20190909 - 3phase_inverter/3phase_inverter/4. Software_WS/OL_VSC_vitor/Libraries/CMSIS/Include\cmsis_gcc.h **** /**
 480:F:/Projects/20190909 - 3phase_inverter/3phase_inverter/4. Software_WS/OL_VSC_vitor/Libraries/CMSIS/Include\cmsis_gcc.h ****   \brief   Set Fault Mask
 481:F:/Projects/20190909 - 3phase_inverter/3phase_inverter/4. Software_WS/OL_VSC_vitor/Libraries/CMSIS/Include\cmsis_gcc.h ****   \details Assigns the given value to the Fault Mask register.
 482:F:/Projects/20190909 - 3phase_inverter/3phase_inverter/4. Software_WS/OL_VSC_vitor/Libraries/CMSIS/Include\cmsis_gcc.h ****   \param [in]    faultMask  Fault Mask value to set
 483:F:/Projects/20190909 - 3phase_inverter/3phase_inverter/4. Software_WS/OL_VSC_vitor/Libraries/CMSIS/Include\cmsis_gcc.h ****  */
 484:F:/Projects/20190909 - 3phase_inverter/3phase_inverter/4. Software_WS/OL_VSC_vitor/Libraries/CMSIS/Include\cmsis_gcc.h **** __attribute__((always_inline)) __STATIC_INLINE void __set_FAULTMASK(uint32_t faultMask)
 485:F:/Projects/20190909 - 3phase_inverter/3phase_inverter/4. Software_WS/OL_VSC_vitor/Libraries/CMSIS/Include\cmsis_gcc.h **** {
 486:F:/Projects/20190909 - 3phase_inverter/3phase_inverter/4. Software_WS/OL_VSC_vitor/Libraries/CMSIS/Include\cmsis_gcc.h ****   __ASM volatile ("MSR faultmask, %0" : : "r" (faultMask) : "memory");
 487:F:/Projects/20190909 - 3phase_inverter/3phase_inverter/4. Software_WS/OL_VSC_vitor/Libraries/CMSIS/Include\cmsis_gcc.h **** }
 488:F:/Projects/20190909 - 3phase_inverter/3phase_inverter/4. Software_WS/OL_VSC_vitor/Libraries/CMSIS/Include\cmsis_gcc.h **** 
 489:F:/Projects/20190909 - 3phase_inverter/3phase_inverter/4. Software_WS/OL_VSC_vitor/Libraries/CMSIS/Include\cmsis_gcc.h **** 
 490:F:/Projects/20190909 - 3phase_inverter/3phase_inverter/4. Software_WS/OL_VSC_vitor/Libraries/CMSIS/Include\cmsis_gcc.h **** #if (defined (__ARM_FEATURE_CMSE ) && (__ARM_FEATURE_CMSE == 3))
 491:F:/Projects/20190909 - 3phase_inverter/3phase_inverter/4. Software_WS/OL_VSC_vitor/Libraries/CMSIS/Include\cmsis_gcc.h **** /**
 492:F:/Projects/20190909 - 3phase_inverter/3phase_inverter/4. Software_WS/OL_VSC_vitor/Libraries/CMSIS/Include\cmsis_gcc.h ****   \brief   Set Fault Mask (non-secure)
 493:F:/Projects/20190909 - 3phase_inverter/3phase_inverter/4. Software_WS/OL_VSC_vitor/Libraries/CMSIS/Include\cmsis_gcc.h ****   \details Assigns the given value to the non-secure Fault Mask register when in secure state.
 494:F:/Projects/20190909 - 3phase_inverter/3phase_inverter/4. Software_WS/OL_VSC_vitor/Libraries/CMSIS/Include\cmsis_gcc.h ****   \param [in]    faultMask  Fault Mask value to set
 495:F:/Projects/20190909 - 3phase_inverter/3phase_inverter/4. Software_WS/OL_VSC_vitor/Libraries/CMSIS/Include\cmsis_gcc.h ****  */
 496:F:/Projects/20190909 - 3phase_inverter/3phase_inverter/4. Software_WS/OL_VSC_vitor/Libraries/CMSIS/Include\cmsis_gcc.h **** __attribute__((always_inline)) __STATIC_INLINE void __TZ_set_FAULTMASK_NS(uint32_t faultMask)
 497:F:/Projects/20190909 - 3phase_inverter/3phase_inverter/4. Software_WS/OL_VSC_vitor/Libraries/CMSIS/Include\cmsis_gcc.h **** {
 498:F:/Projects/20190909 - 3phase_inverter/3phase_inverter/4. Software_WS/OL_VSC_vitor/Libraries/CMSIS/Include\cmsis_gcc.h ****   __ASM volatile ("MSR faultmask_ns, %0" : : "r" (faultMask) : "memory");
 499:F:/Projects/20190909 - 3phase_inverter/3phase_inverter/4. Software_WS/OL_VSC_vitor/Libraries/CMSIS/Include\cmsis_gcc.h **** }
 500:F:/Projects/20190909 - 3phase_inverter/3phase_inverter/4. Software_WS/OL_VSC_vitor/Libraries/CMSIS/Include\cmsis_gcc.h **** #endif
 501:F:/Projects/20190909 - 3phase_inverter/3phase_inverter/4. Software_WS/OL_VSC_vitor/Libraries/CMSIS/Include\cmsis_gcc.h **** 
 502:F:/Projects/20190909 - 3phase_inverter/3phase_inverter/4. Software_WS/OL_VSC_vitor/Libraries/CMSIS/Include\cmsis_gcc.h **** #endif /* ((defined (__ARM_ARCH_7M__      ) && (__ARM_ARCH_7M__      == 1)) || \
 503:F:/Projects/20190909 - 3phase_inverter/3phase_inverter/4. Software_WS/OL_VSC_vitor/Libraries/CMSIS/Include\cmsis_gcc.h ****            (defined (__ARM_ARCH_7EM__     ) && (__ARM_ARCH_7EM__     == 1)) || \
 504:F:/Projects/20190909 - 3phase_inverter/3phase_inverter/4. Software_WS/OL_VSC_vitor/Libraries/CMSIS/Include\cmsis_gcc.h ****            (defined (__ARM_ARCH_8M_MAIN__ ) && (__ARM_ARCH_8M_MAIN__ == 1))    ) */
 505:F:/Projects/20190909 - 3phase_inverter/3phase_inverter/4. Software_WS/OL_VSC_vitor/Libraries/CMSIS/Include\cmsis_gcc.h **** 
 506:F:/Projects/20190909 - 3phase_inverter/3phase_inverter/4. Software_WS/OL_VSC_vitor/Libraries/CMSIS/Include\cmsis_gcc.h **** 
 507:F:/Projects/20190909 - 3phase_inverter/3phase_inverter/4. Software_WS/OL_VSC_vitor/Libraries/CMSIS/Include\cmsis_gcc.h **** #if ((defined (__ARM_ARCH_8M_MAIN__ ) && (__ARM_ARCH_8M_MAIN__ == 1)) || \
 508:F:/Projects/20190909 - 3phase_inverter/3phase_inverter/4. Software_WS/OL_VSC_vitor/Libraries/CMSIS/Include\cmsis_gcc.h ****      (defined (__ARM_ARCH_8M_BASE__ ) && (__ARM_ARCH_8M_BASE__ == 1))    )
 509:F:/Projects/20190909 - 3phase_inverter/3phase_inverter/4. Software_WS/OL_VSC_vitor/Libraries/CMSIS/Include\cmsis_gcc.h **** 
 510:F:/Projects/20190909 - 3phase_inverter/3phase_inverter/4. Software_WS/OL_VSC_vitor/Libraries/CMSIS/Include\cmsis_gcc.h **** /**
 511:F:/Projects/20190909 - 3phase_inverter/3phase_inverter/4. Software_WS/OL_VSC_vitor/Libraries/CMSIS/Include\cmsis_gcc.h ****   \brief   Get Process Stack Pointer Limit
 512:F:/Projects/20190909 - 3phase_inverter/3phase_inverter/4. Software_WS/OL_VSC_vitor/Libraries/CMSIS/Include\cmsis_gcc.h ****   \details Returns the current value of the Process Stack Pointer Limit (PSPLIM).
 513:F:/Projects/20190909 - 3phase_inverter/3phase_inverter/4. Software_WS/OL_VSC_vitor/Libraries/CMSIS/Include\cmsis_gcc.h ****   \return               PSPLIM Register value
 514:F:/Projects/20190909 - 3phase_inverter/3phase_inverter/4. Software_WS/OL_VSC_vitor/Libraries/CMSIS/Include\cmsis_gcc.h ****  */
 515:F:/Projects/20190909 - 3phase_inverter/3phase_inverter/4. Software_WS/OL_VSC_vitor/Libraries/CMSIS/Include\cmsis_gcc.h **** __attribute__((always_inline)) __STATIC_INLINE uint32_t __get_PSPLIM(void)
 516:F:/Projects/20190909 - 3phase_inverter/3phase_inverter/4. Software_WS/OL_VSC_vitor/Libraries/CMSIS/Include\cmsis_gcc.h **** {
 517:F:/Projects/20190909 - 3phase_inverter/3phase_inverter/4. Software_WS/OL_VSC_vitor/Libraries/CMSIS/Include\cmsis_gcc.h ****   register uint32_t result;
 518:F:/Projects/20190909 - 3phase_inverter/3phase_inverter/4. Software_WS/OL_VSC_vitor/Libraries/CMSIS/Include\cmsis_gcc.h **** 
 519:F:/Projects/20190909 - 3phase_inverter/3phase_inverter/4. Software_WS/OL_VSC_vitor/Libraries/CMSIS/Include\cmsis_gcc.h ****   __ASM volatile ("MRS %0, psplim"  : "=r" (result) );
 520:F:/Projects/20190909 - 3phase_inverter/3phase_inverter/4. Software_WS/OL_VSC_vitor/Libraries/CMSIS/Include\cmsis_gcc.h ****   return(result);
 521:F:/Projects/20190909 - 3phase_inverter/3phase_inverter/4. Software_WS/OL_VSC_vitor/Libraries/CMSIS/Include\cmsis_gcc.h **** }
 522:F:/Projects/20190909 - 3phase_inverter/3phase_inverter/4. Software_WS/OL_VSC_vitor/Libraries/CMSIS/Include\cmsis_gcc.h **** 
 523:F:/Projects/20190909 - 3phase_inverter/3phase_inverter/4. Software_WS/OL_VSC_vitor/Libraries/CMSIS/Include\cmsis_gcc.h **** 
 524:F:/Projects/20190909 - 3phase_inverter/3phase_inverter/4. Software_WS/OL_VSC_vitor/Libraries/CMSIS/Include\cmsis_gcc.h **** #if ((defined (__ARM_FEATURE_CMSE  ) && (__ARM_FEATURE_CMSE   == 3)) && \
 525:F:/Projects/20190909 - 3phase_inverter/3phase_inverter/4. Software_WS/OL_VSC_vitor/Libraries/CMSIS/Include\cmsis_gcc.h ****      (defined (__ARM_ARCH_8M_MAIN__) && (__ARM_ARCH_8M_MAIN__ == 1))    )
 526:F:/Projects/20190909 - 3phase_inverter/3phase_inverter/4. Software_WS/OL_VSC_vitor/Libraries/CMSIS/Include\cmsis_gcc.h **** /**
 527:F:/Projects/20190909 - 3phase_inverter/3phase_inverter/4. Software_WS/OL_VSC_vitor/Libraries/CMSIS/Include\cmsis_gcc.h ****   \brief   Get Process Stack Pointer Limit (non-secure)
 528:F:/Projects/20190909 - 3phase_inverter/3phase_inverter/4. Software_WS/OL_VSC_vitor/Libraries/CMSIS/Include\cmsis_gcc.h ****   \details Returns the current value of the non-secure Process Stack Pointer Limit (PSPLIM) when in
 529:F:/Projects/20190909 - 3phase_inverter/3phase_inverter/4. Software_WS/OL_VSC_vitor/Libraries/CMSIS/Include\cmsis_gcc.h ****   \return               PSPLIM Register value
 530:F:/Projects/20190909 - 3phase_inverter/3phase_inverter/4. Software_WS/OL_VSC_vitor/Libraries/CMSIS/Include\cmsis_gcc.h ****  */
 531:F:/Projects/20190909 - 3phase_inverter/3phase_inverter/4. Software_WS/OL_VSC_vitor/Libraries/CMSIS/Include\cmsis_gcc.h **** __attribute__((always_inline)) __STATIC_INLINE uint32_t __TZ_get_PSPLIM_NS(void)
 532:F:/Projects/20190909 - 3phase_inverter/3phase_inverter/4. Software_WS/OL_VSC_vitor/Libraries/CMSIS/Include\cmsis_gcc.h **** {
 533:F:/Projects/20190909 - 3phase_inverter/3phase_inverter/4. Software_WS/OL_VSC_vitor/Libraries/CMSIS/Include\cmsis_gcc.h ****   register uint32_t result;
 534:F:/Projects/20190909 - 3phase_inverter/3phase_inverter/4. Software_WS/OL_VSC_vitor/Libraries/CMSIS/Include\cmsis_gcc.h **** 
 535:F:/Projects/20190909 - 3phase_inverter/3phase_inverter/4. Software_WS/OL_VSC_vitor/Libraries/CMSIS/Include\cmsis_gcc.h ****   __ASM volatile ("MRS %0, psplim_ns"  : "=r" (result) );
 536:F:/Projects/20190909 - 3phase_inverter/3phase_inverter/4. Software_WS/OL_VSC_vitor/Libraries/CMSIS/Include\cmsis_gcc.h ****   return(result);
 537:F:/Projects/20190909 - 3phase_inverter/3phase_inverter/4. Software_WS/OL_VSC_vitor/Libraries/CMSIS/Include\cmsis_gcc.h **** }
 538:F:/Projects/20190909 - 3phase_inverter/3phase_inverter/4. Software_WS/OL_VSC_vitor/Libraries/CMSIS/Include\cmsis_gcc.h **** #endif
 539:F:/Projects/20190909 - 3phase_inverter/3phase_inverter/4. Software_WS/OL_VSC_vitor/Libraries/CMSIS/Include\cmsis_gcc.h **** 
 540:F:/Projects/20190909 - 3phase_inverter/3phase_inverter/4. Software_WS/OL_VSC_vitor/Libraries/CMSIS/Include\cmsis_gcc.h **** 
 541:F:/Projects/20190909 - 3phase_inverter/3phase_inverter/4. Software_WS/OL_VSC_vitor/Libraries/CMSIS/Include\cmsis_gcc.h **** /**
 542:F:/Projects/20190909 - 3phase_inverter/3phase_inverter/4. Software_WS/OL_VSC_vitor/Libraries/CMSIS/Include\cmsis_gcc.h ****   \brief   Set Process Stack Pointer Limit
 543:F:/Projects/20190909 - 3phase_inverter/3phase_inverter/4. Software_WS/OL_VSC_vitor/Libraries/CMSIS/Include\cmsis_gcc.h ****   \details Assigns the given value to the Process Stack Pointer Limit (PSPLIM).
 544:F:/Projects/20190909 - 3phase_inverter/3phase_inverter/4. Software_WS/OL_VSC_vitor/Libraries/CMSIS/Include\cmsis_gcc.h ****   \param [in]    ProcStackPtrLimit  Process Stack Pointer Limit value to set
 545:F:/Projects/20190909 - 3phase_inverter/3phase_inverter/4. Software_WS/OL_VSC_vitor/Libraries/CMSIS/Include\cmsis_gcc.h ****  */
 546:F:/Projects/20190909 - 3phase_inverter/3phase_inverter/4. Software_WS/OL_VSC_vitor/Libraries/CMSIS/Include\cmsis_gcc.h **** __attribute__((always_inline)) __STATIC_INLINE void __set_PSPLIM(uint32_t ProcStackPtrLimit)
 547:F:/Projects/20190909 - 3phase_inverter/3phase_inverter/4. Software_WS/OL_VSC_vitor/Libraries/CMSIS/Include\cmsis_gcc.h **** {
 548:F:/Projects/20190909 - 3phase_inverter/3phase_inverter/4. Software_WS/OL_VSC_vitor/Libraries/CMSIS/Include\cmsis_gcc.h ****   __ASM volatile ("MSR psplim, %0" : : "r" (ProcStackPtrLimit));
 549:F:/Projects/20190909 - 3phase_inverter/3phase_inverter/4. Software_WS/OL_VSC_vitor/Libraries/CMSIS/Include\cmsis_gcc.h **** }
 550:F:/Projects/20190909 - 3phase_inverter/3phase_inverter/4. Software_WS/OL_VSC_vitor/Libraries/CMSIS/Include\cmsis_gcc.h **** 
 551:F:/Projects/20190909 - 3phase_inverter/3phase_inverter/4. Software_WS/OL_VSC_vitor/Libraries/CMSIS/Include\cmsis_gcc.h **** 
 552:F:/Projects/20190909 - 3phase_inverter/3phase_inverter/4. Software_WS/OL_VSC_vitor/Libraries/CMSIS/Include\cmsis_gcc.h **** #if ((defined (__ARM_FEATURE_CMSE  ) && (__ARM_FEATURE_CMSE   == 3)) && \
 553:F:/Projects/20190909 - 3phase_inverter/3phase_inverter/4. Software_WS/OL_VSC_vitor/Libraries/CMSIS/Include\cmsis_gcc.h ****      (defined (__ARM_ARCH_8M_MAIN__) && (__ARM_ARCH_8M_MAIN__ == 1))    )
 554:F:/Projects/20190909 - 3phase_inverter/3phase_inverter/4. Software_WS/OL_VSC_vitor/Libraries/CMSIS/Include\cmsis_gcc.h **** /**
 555:F:/Projects/20190909 - 3phase_inverter/3phase_inverter/4. Software_WS/OL_VSC_vitor/Libraries/CMSIS/Include\cmsis_gcc.h ****   \brief   Set Process Stack Pointer (non-secure)
 556:F:/Projects/20190909 - 3phase_inverter/3phase_inverter/4. Software_WS/OL_VSC_vitor/Libraries/CMSIS/Include\cmsis_gcc.h ****   \details Assigns the given value to the non-secure Process Stack Pointer Limit (PSPLIM) when in s
 557:F:/Projects/20190909 - 3phase_inverter/3phase_inverter/4. Software_WS/OL_VSC_vitor/Libraries/CMSIS/Include\cmsis_gcc.h ****   \param [in]    ProcStackPtrLimit  Process Stack Pointer Limit value to set
 558:F:/Projects/20190909 - 3phase_inverter/3phase_inverter/4. Software_WS/OL_VSC_vitor/Libraries/CMSIS/Include\cmsis_gcc.h ****  */
 559:F:/Projects/20190909 - 3phase_inverter/3phase_inverter/4. Software_WS/OL_VSC_vitor/Libraries/CMSIS/Include\cmsis_gcc.h **** __attribute__((always_inline)) __STATIC_INLINE void __TZ_set_PSPLIM_NS(uint32_t ProcStackPtrLimit)
 560:F:/Projects/20190909 - 3phase_inverter/3phase_inverter/4. Software_WS/OL_VSC_vitor/Libraries/CMSIS/Include\cmsis_gcc.h **** {
 561:F:/Projects/20190909 - 3phase_inverter/3phase_inverter/4. Software_WS/OL_VSC_vitor/Libraries/CMSIS/Include\cmsis_gcc.h ****   __ASM volatile ("MSR psplim_ns, %0\n" : : "r" (ProcStackPtrLimit));
 562:F:/Projects/20190909 - 3phase_inverter/3phase_inverter/4. Software_WS/OL_VSC_vitor/Libraries/CMSIS/Include\cmsis_gcc.h **** }
 563:F:/Projects/20190909 - 3phase_inverter/3phase_inverter/4. Software_WS/OL_VSC_vitor/Libraries/CMSIS/Include\cmsis_gcc.h **** #endif
 564:F:/Projects/20190909 - 3phase_inverter/3phase_inverter/4. Software_WS/OL_VSC_vitor/Libraries/CMSIS/Include\cmsis_gcc.h **** 
 565:F:/Projects/20190909 - 3phase_inverter/3phase_inverter/4. Software_WS/OL_VSC_vitor/Libraries/CMSIS/Include\cmsis_gcc.h **** 
 566:F:/Projects/20190909 - 3phase_inverter/3phase_inverter/4. Software_WS/OL_VSC_vitor/Libraries/CMSIS/Include\cmsis_gcc.h **** /**
 567:F:/Projects/20190909 - 3phase_inverter/3phase_inverter/4. Software_WS/OL_VSC_vitor/Libraries/CMSIS/Include\cmsis_gcc.h ****   \brief   Get Main Stack Pointer Limit
 568:F:/Projects/20190909 - 3phase_inverter/3phase_inverter/4. Software_WS/OL_VSC_vitor/Libraries/CMSIS/Include\cmsis_gcc.h ****   \details Returns the current value of the Main Stack Pointer Limit (MSPLIM).
 569:F:/Projects/20190909 - 3phase_inverter/3phase_inverter/4. Software_WS/OL_VSC_vitor/Libraries/CMSIS/Include\cmsis_gcc.h ****   \return               MSPLIM Register value
 570:F:/Projects/20190909 - 3phase_inverter/3phase_inverter/4. Software_WS/OL_VSC_vitor/Libraries/CMSIS/Include\cmsis_gcc.h ****  */
 571:F:/Projects/20190909 - 3phase_inverter/3phase_inverter/4. Software_WS/OL_VSC_vitor/Libraries/CMSIS/Include\cmsis_gcc.h **** __attribute__((always_inline)) __STATIC_INLINE uint32_t __get_MSPLIM(void)
 572:F:/Projects/20190909 - 3phase_inverter/3phase_inverter/4. Software_WS/OL_VSC_vitor/Libraries/CMSIS/Include\cmsis_gcc.h **** {
 573:F:/Projects/20190909 - 3phase_inverter/3phase_inverter/4. Software_WS/OL_VSC_vitor/Libraries/CMSIS/Include\cmsis_gcc.h ****   register uint32_t result;
 574:F:/Projects/20190909 - 3phase_inverter/3phase_inverter/4. Software_WS/OL_VSC_vitor/Libraries/CMSIS/Include\cmsis_gcc.h **** 
 575:F:/Projects/20190909 - 3phase_inverter/3phase_inverter/4. Software_WS/OL_VSC_vitor/Libraries/CMSIS/Include\cmsis_gcc.h ****   __ASM volatile ("MRS %0, msplim" : "=r" (result) );
 576:F:/Projects/20190909 - 3phase_inverter/3phase_inverter/4. Software_WS/OL_VSC_vitor/Libraries/CMSIS/Include\cmsis_gcc.h **** 
 577:F:/Projects/20190909 - 3phase_inverter/3phase_inverter/4. Software_WS/OL_VSC_vitor/Libraries/CMSIS/Include\cmsis_gcc.h ****   return(result);
 578:F:/Projects/20190909 - 3phase_inverter/3phase_inverter/4. Software_WS/OL_VSC_vitor/Libraries/CMSIS/Include\cmsis_gcc.h **** }
 579:F:/Projects/20190909 - 3phase_inverter/3phase_inverter/4. Software_WS/OL_VSC_vitor/Libraries/CMSIS/Include\cmsis_gcc.h **** 
 580:F:/Projects/20190909 - 3phase_inverter/3phase_inverter/4. Software_WS/OL_VSC_vitor/Libraries/CMSIS/Include\cmsis_gcc.h **** 
 581:F:/Projects/20190909 - 3phase_inverter/3phase_inverter/4. Software_WS/OL_VSC_vitor/Libraries/CMSIS/Include\cmsis_gcc.h **** #if ((defined (__ARM_FEATURE_CMSE  ) && (__ARM_FEATURE_CMSE   == 3)) && \
 582:F:/Projects/20190909 - 3phase_inverter/3phase_inverter/4. Software_WS/OL_VSC_vitor/Libraries/CMSIS/Include\cmsis_gcc.h ****      (defined (__ARM_ARCH_8M_MAIN__) && (__ARM_ARCH_8M_MAIN__ == 1))    )
 583:F:/Projects/20190909 - 3phase_inverter/3phase_inverter/4. Software_WS/OL_VSC_vitor/Libraries/CMSIS/Include\cmsis_gcc.h **** /**
 584:F:/Projects/20190909 - 3phase_inverter/3phase_inverter/4. Software_WS/OL_VSC_vitor/Libraries/CMSIS/Include\cmsis_gcc.h ****   \brief   Get Main Stack Pointer Limit (non-secure)
 585:F:/Projects/20190909 - 3phase_inverter/3phase_inverter/4. Software_WS/OL_VSC_vitor/Libraries/CMSIS/Include\cmsis_gcc.h ****   \details Returns the current value of the non-secure Main Stack Pointer Limit(MSPLIM) when in sec
 586:F:/Projects/20190909 - 3phase_inverter/3phase_inverter/4. Software_WS/OL_VSC_vitor/Libraries/CMSIS/Include\cmsis_gcc.h ****   \return               MSPLIM Register value
 587:F:/Projects/20190909 - 3phase_inverter/3phase_inverter/4. Software_WS/OL_VSC_vitor/Libraries/CMSIS/Include\cmsis_gcc.h ****  */
 588:F:/Projects/20190909 - 3phase_inverter/3phase_inverter/4. Software_WS/OL_VSC_vitor/Libraries/CMSIS/Include\cmsis_gcc.h **** __attribute__((always_inline)) __STATIC_INLINE uint32_t __TZ_get_MSPLIM_NS(void)
 589:F:/Projects/20190909 - 3phase_inverter/3phase_inverter/4. Software_WS/OL_VSC_vitor/Libraries/CMSIS/Include\cmsis_gcc.h **** {
 590:F:/Projects/20190909 - 3phase_inverter/3phase_inverter/4. Software_WS/OL_VSC_vitor/Libraries/CMSIS/Include\cmsis_gcc.h ****   register uint32_t result;
 591:F:/Projects/20190909 - 3phase_inverter/3phase_inverter/4. Software_WS/OL_VSC_vitor/Libraries/CMSIS/Include\cmsis_gcc.h **** 
 592:F:/Projects/20190909 - 3phase_inverter/3phase_inverter/4. Software_WS/OL_VSC_vitor/Libraries/CMSIS/Include\cmsis_gcc.h ****   __ASM volatile ("MRS %0, msplim_ns" : "=r" (result) );
 593:F:/Projects/20190909 - 3phase_inverter/3phase_inverter/4. Software_WS/OL_VSC_vitor/Libraries/CMSIS/Include\cmsis_gcc.h ****   return(result);
 594:F:/Projects/20190909 - 3phase_inverter/3phase_inverter/4. Software_WS/OL_VSC_vitor/Libraries/CMSIS/Include\cmsis_gcc.h **** }
 595:F:/Projects/20190909 - 3phase_inverter/3phase_inverter/4. Software_WS/OL_VSC_vitor/Libraries/CMSIS/Include\cmsis_gcc.h **** #endif
 596:F:/Projects/20190909 - 3phase_inverter/3phase_inverter/4. Software_WS/OL_VSC_vitor/Libraries/CMSIS/Include\cmsis_gcc.h **** 
 597:F:/Projects/20190909 - 3phase_inverter/3phase_inverter/4. Software_WS/OL_VSC_vitor/Libraries/CMSIS/Include\cmsis_gcc.h **** 
 598:F:/Projects/20190909 - 3phase_inverter/3phase_inverter/4. Software_WS/OL_VSC_vitor/Libraries/CMSIS/Include\cmsis_gcc.h **** /**
 599:F:/Projects/20190909 - 3phase_inverter/3phase_inverter/4. Software_WS/OL_VSC_vitor/Libraries/CMSIS/Include\cmsis_gcc.h ****   \brief   Set Main Stack Pointer Limit
 600:F:/Projects/20190909 - 3phase_inverter/3phase_inverter/4. Software_WS/OL_VSC_vitor/Libraries/CMSIS/Include\cmsis_gcc.h ****   \details Assigns the given value to the Main Stack Pointer Limit (MSPLIM).
 601:F:/Projects/20190909 - 3phase_inverter/3phase_inverter/4. Software_WS/OL_VSC_vitor/Libraries/CMSIS/Include\cmsis_gcc.h ****   \param [in]    MainStackPtrLimit  Main Stack Pointer Limit value to set
 602:F:/Projects/20190909 - 3phase_inverter/3phase_inverter/4. Software_WS/OL_VSC_vitor/Libraries/CMSIS/Include\cmsis_gcc.h ****  */
 603:F:/Projects/20190909 - 3phase_inverter/3phase_inverter/4. Software_WS/OL_VSC_vitor/Libraries/CMSIS/Include\cmsis_gcc.h **** __attribute__((always_inline)) __STATIC_INLINE void __set_MSPLIM(uint32_t MainStackPtrLimit)
 604:F:/Projects/20190909 - 3phase_inverter/3phase_inverter/4. Software_WS/OL_VSC_vitor/Libraries/CMSIS/Include\cmsis_gcc.h **** {
 605:F:/Projects/20190909 - 3phase_inverter/3phase_inverter/4. Software_WS/OL_VSC_vitor/Libraries/CMSIS/Include\cmsis_gcc.h ****   __ASM volatile ("MSR msplim, %0" : : "r" (MainStackPtrLimit));
 606:F:/Projects/20190909 - 3phase_inverter/3phase_inverter/4. Software_WS/OL_VSC_vitor/Libraries/CMSIS/Include\cmsis_gcc.h **** }
 607:F:/Projects/20190909 - 3phase_inverter/3phase_inverter/4. Software_WS/OL_VSC_vitor/Libraries/CMSIS/Include\cmsis_gcc.h **** 
 608:F:/Projects/20190909 - 3phase_inverter/3phase_inverter/4. Software_WS/OL_VSC_vitor/Libraries/CMSIS/Include\cmsis_gcc.h **** 
 609:F:/Projects/20190909 - 3phase_inverter/3phase_inverter/4. Software_WS/OL_VSC_vitor/Libraries/CMSIS/Include\cmsis_gcc.h **** #if ((defined (__ARM_FEATURE_CMSE  ) && (__ARM_FEATURE_CMSE   == 3)) && \
 610:F:/Projects/20190909 - 3phase_inverter/3phase_inverter/4. Software_WS/OL_VSC_vitor/Libraries/CMSIS/Include\cmsis_gcc.h ****      (defined (__ARM_ARCH_8M_MAIN__) && (__ARM_ARCH_8M_MAIN__ == 1))    )
 611:F:/Projects/20190909 - 3phase_inverter/3phase_inverter/4. Software_WS/OL_VSC_vitor/Libraries/CMSIS/Include\cmsis_gcc.h **** /**
 612:F:/Projects/20190909 - 3phase_inverter/3phase_inverter/4. Software_WS/OL_VSC_vitor/Libraries/CMSIS/Include\cmsis_gcc.h ****   \brief   Set Main Stack Pointer Limit (non-secure)
 613:F:/Projects/20190909 - 3phase_inverter/3phase_inverter/4. Software_WS/OL_VSC_vitor/Libraries/CMSIS/Include\cmsis_gcc.h ****   \details Assigns the given value to the non-secure Main Stack Pointer Limit (MSPLIM) when in secu
 614:F:/Projects/20190909 - 3phase_inverter/3phase_inverter/4. Software_WS/OL_VSC_vitor/Libraries/CMSIS/Include\cmsis_gcc.h ****   \param [in]    MainStackPtrLimit  Main Stack Pointer value to set
 615:F:/Projects/20190909 - 3phase_inverter/3phase_inverter/4. Software_WS/OL_VSC_vitor/Libraries/CMSIS/Include\cmsis_gcc.h ****  */
 616:F:/Projects/20190909 - 3phase_inverter/3phase_inverter/4. Software_WS/OL_VSC_vitor/Libraries/CMSIS/Include\cmsis_gcc.h **** __attribute__((always_inline)) __STATIC_INLINE void __TZ_set_MSPLIM_NS(uint32_t MainStackPtrLimit)
 617:F:/Projects/20190909 - 3phase_inverter/3phase_inverter/4. Software_WS/OL_VSC_vitor/Libraries/CMSIS/Include\cmsis_gcc.h **** {
 618:F:/Projects/20190909 - 3phase_inverter/3phase_inverter/4. Software_WS/OL_VSC_vitor/Libraries/CMSIS/Include\cmsis_gcc.h ****   __ASM volatile ("MSR msplim_ns, %0" : : "r" (MainStackPtrLimit));
 619:F:/Projects/20190909 - 3phase_inverter/3phase_inverter/4. Software_WS/OL_VSC_vitor/Libraries/CMSIS/Include\cmsis_gcc.h **** }
 620:F:/Projects/20190909 - 3phase_inverter/3phase_inverter/4. Software_WS/OL_VSC_vitor/Libraries/CMSIS/Include\cmsis_gcc.h **** #endif
 621:F:/Projects/20190909 - 3phase_inverter/3phase_inverter/4. Software_WS/OL_VSC_vitor/Libraries/CMSIS/Include\cmsis_gcc.h **** 
 622:F:/Projects/20190909 - 3phase_inverter/3phase_inverter/4. Software_WS/OL_VSC_vitor/Libraries/CMSIS/Include\cmsis_gcc.h **** #endif /* ((defined (__ARM_ARCH_8M_MAIN__ ) && (__ARM_ARCH_8M_MAIN__ == 1)) || \
 623:F:/Projects/20190909 - 3phase_inverter/3phase_inverter/4. Software_WS/OL_VSC_vitor/Libraries/CMSIS/Include\cmsis_gcc.h ****            (defined (__ARM_ARCH_8M_BASE__ ) && (__ARM_ARCH_8M_BASE__ == 1))    ) */
 624:F:/Projects/20190909 - 3phase_inverter/3phase_inverter/4. Software_WS/OL_VSC_vitor/Libraries/CMSIS/Include\cmsis_gcc.h **** 
 625:F:/Projects/20190909 - 3phase_inverter/3phase_inverter/4. Software_WS/OL_VSC_vitor/Libraries/CMSIS/Include\cmsis_gcc.h **** 
 626:F:/Projects/20190909 - 3phase_inverter/3phase_inverter/4. Software_WS/OL_VSC_vitor/Libraries/CMSIS/Include\cmsis_gcc.h **** #if ((defined (__ARM_ARCH_7EM__     ) && (__ARM_ARCH_7EM__     == 1)) || \
 627:F:/Projects/20190909 - 3phase_inverter/3phase_inverter/4. Software_WS/OL_VSC_vitor/Libraries/CMSIS/Include\cmsis_gcc.h ****      (defined (__ARM_ARCH_8M_MAIN__ ) && (__ARM_ARCH_8M_MAIN__ == 1))    )
 628:F:/Projects/20190909 - 3phase_inverter/3phase_inverter/4. Software_WS/OL_VSC_vitor/Libraries/CMSIS/Include\cmsis_gcc.h **** 
 629:F:/Projects/20190909 - 3phase_inverter/3phase_inverter/4. Software_WS/OL_VSC_vitor/Libraries/CMSIS/Include\cmsis_gcc.h **** /**
 630:F:/Projects/20190909 - 3phase_inverter/3phase_inverter/4. Software_WS/OL_VSC_vitor/Libraries/CMSIS/Include\cmsis_gcc.h ****   \brief   Get FPSCR
 631:F:/Projects/20190909 - 3phase_inverter/3phase_inverter/4. Software_WS/OL_VSC_vitor/Libraries/CMSIS/Include\cmsis_gcc.h ****   \details Returns the current value of the Floating Point Status/Control register.
 632:F:/Projects/20190909 - 3phase_inverter/3phase_inverter/4. Software_WS/OL_VSC_vitor/Libraries/CMSIS/Include\cmsis_gcc.h ****   \return               Floating Point Status/Control register value
 633:F:/Projects/20190909 - 3phase_inverter/3phase_inverter/4. Software_WS/OL_VSC_vitor/Libraries/CMSIS/Include\cmsis_gcc.h ****  */
 634:F:/Projects/20190909 - 3phase_inverter/3phase_inverter/4. Software_WS/OL_VSC_vitor/Libraries/CMSIS/Include\cmsis_gcc.h **** __attribute__((always_inline)) __STATIC_INLINE uint32_t __get_FPSCR(void)
 635:F:/Projects/20190909 - 3phase_inverter/3phase_inverter/4. Software_WS/OL_VSC_vitor/Libraries/CMSIS/Include\cmsis_gcc.h **** {
 636:F:/Projects/20190909 - 3phase_inverter/3phase_inverter/4. Software_WS/OL_VSC_vitor/Libraries/CMSIS/Include\cmsis_gcc.h **** #if ((defined (__FPU_PRESENT) && (__FPU_PRESENT == 1U)) && \
 637:F:/Projects/20190909 - 3phase_inverter/3phase_inverter/4. Software_WS/OL_VSC_vitor/Libraries/CMSIS/Include\cmsis_gcc.h ****      (defined (__FPU_USED   ) && (__FPU_USED    == 1U))     )
 638:F:/Projects/20190909 - 3phase_inverter/3phase_inverter/4. Software_WS/OL_VSC_vitor/Libraries/CMSIS/Include\cmsis_gcc.h ****   uint32_t result;
 639:F:/Projects/20190909 - 3phase_inverter/3phase_inverter/4. Software_WS/OL_VSC_vitor/Libraries/CMSIS/Include\cmsis_gcc.h **** 
 640:F:/Projects/20190909 - 3phase_inverter/3phase_inverter/4. Software_WS/OL_VSC_vitor/Libraries/CMSIS/Include\cmsis_gcc.h ****   __ASM volatile ("VMRS %0, fpscr" : "=r" (result) );
 641:F:/Projects/20190909 - 3phase_inverter/3phase_inverter/4. Software_WS/OL_VSC_vitor/Libraries/CMSIS/Include\cmsis_gcc.h ****   return(result);
 642:F:/Projects/20190909 - 3phase_inverter/3phase_inverter/4. Software_WS/OL_VSC_vitor/Libraries/CMSIS/Include\cmsis_gcc.h **** #else
 643:F:/Projects/20190909 - 3phase_inverter/3phase_inverter/4. Software_WS/OL_VSC_vitor/Libraries/CMSIS/Include\cmsis_gcc.h ****    return(0U);
 644:F:/Projects/20190909 - 3phase_inverter/3phase_inverter/4. Software_WS/OL_VSC_vitor/Libraries/CMSIS/Include\cmsis_gcc.h **** #endif
 645:F:/Projects/20190909 - 3phase_inverter/3phase_inverter/4. Software_WS/OL_VSC_vitor/Libraries/CMSIS/Include\cmsis_gcc.h **** }
 646:F:/Projects/20190909 - 3phase_inverter/3phase_inverter/4. Software_WS/OL_VSC_vitor/Libraries/CMSIS/Include\cmsis_gcc.h **** 
 647:F:/Projects/20190909 - 3phase_inverter/3phase_inverter/4. Software_WS/OL_VSC_vitor/Libraries/CMSIS/Include\cmsis_gcc.h **** 
 648:F:/Projects/20190909 - 3phase_inverter/3phase_inverter/4. Software_WS/OL_VSC_vitor/Libraries/CMSIS/Include\cmsis_gcc.h **** /**
 649:F:/Projects/20190909 - 3phase_inverter/3phase_inverter/4. Software_WS/OL_VSC_vitor/Libraries/CMSIS/Include\cmsis_gcc.h ****   \brief   Set FPSCR
 650:F:/Projects/20190909 - 3phase_inverter/3phase_inverter/4. Software_WS/OL_VSC_vitor/Libraries/CMSIS/Include\cmsis_gcc.h ****   \details Assigns the given value to the Floating Point Status/Control register.
 651:F:/Projects/20190909 - 3phase_inverter/3phase_inverter/4. Software_WS/OL_VSC_vitor/Libraries/CMSIS/Include\cmsis_gcc.h ****   \param [in]    fpscr  Floating Point Status/Control value to set
 652:F:/Projects/20190909 - 3phase_inverter/3phase_inverter/4. Software_WS/OL_VSC_vitor/Libraries/CMSIS/Include\cmsis_gcc.h ****  */
 653:F:/Projects/20190909 - 3phase_inverter/3phase_inverter/4. Software_WS/OL_VSC_vitor/Libraries/CMSIS/Include\cmsis_gcc.h **** __attribute__((always_inline)) __STATIC_INLINE void __set_FPSCR(uint32_t fpscr)
 654:F:/Projects/20190909 - 3phase_inverter/3phase_inverter/4. Software_WS/OL_VSC_vitor/Libraries/CMSIS/Include\cmsis_gcc.h **** {
 655:F:/Projects/20190909 - 3phase_inverter/3phase_inverter/4. Software_WS/OL_VSC_vitor/Libraries/CMSIS/Include\cmsis_gcc.h **** #if ((defined (__FPU_PRESENT) && (__FPU_PRESENT == 1U)) && \
 656:F:/Projects/20190909 - 3phase_inverter/3phase_inverter/4. Software_WS/OL_VSC_vitor/Libraries/CMSIS/Include\cmsis_gcc.h ****      (defined (__FPU_USED   ) && (__FPU_USED    == 1U))     )
 657:F:/Projects/20190909 - 3phase_inverter/3phase_inverter/4. Software_WS/OL_VSC_vitor/Libraries/CMSIS/Include\cmsis_gcc.h ****   __ASM volatile ("VMSR fpscr, %0" : : "r" (fpscr) : "vfpcc", "memory");
 658:F:/Projects/20190909 - 3phase_inverter/3phase_inverter/4. Software_WS/OL_VSC_vitor/Libraries/CMSIS/Include\cmsis_gcc.h **** #else
 659:F:/Projects/20190909 - 3phase_inverter/3phase_inverter/4. Software_WS/OL_VSC_vitor/Libraries/CMSIS/Include\cmsis_gcc.h ****   (void)fpscr;
 660:F:/Projects/20190909 - 3phase_inverter/3phase_inverter/4. Software_WS/OL_VSC_vitor/Libraries/CMSIS/Include\cmsis_gcc.h **** #endif
 661:F:/Projects/20190909 - 3phase_inverter/3phase_inverter/4. Software_WS/OL_VSC_vitor/Libraries/CMSIS/Include\cmsis_gcc.h **** }
 662:F:/Projects/20190909 - 3phase_inverter/3phase_inverter/4. Software_WS/OL_VSC_vitor/Libraries/CMSIS/Include\cmsis_gcc.h **** 
 663:F:/Projects/20190909 - 3phase_inverter/3phase_inverter/4. Software_WS/OL_VSC_vitor/Libraries/CMSIS/Include\cmsis_gcc.h **** #endif /* ((defined (__ARM_ARCH_7EM__     ) && (__ARM_ARCH_7EM__     == 1)) || \
 664:F:/Projects/20190909 - 3phase_inverter/3phase_inverter/4. Software_WS/OL_VSC_vitor/Libraries/CMSIS/Include\cmsis_gcc.h ****            (defined (__ARM_ARCH_8M_MAIN__ ) && (__ARM_ARCH_8M_MAIN__ == 1))    ) */
 665:F:/Projects/20190909 - 3phase_inverter/3phase_inverter/4. Software_WS/OL_VSC_vitor/Libraries/CMSIS/Include\cmsis_gcc.h **** 
 666:F:/Projects/20190909 - 3phase_inverter/3phase_inverter/4. Software_WS/OL_VSC_vitor/Libraries/CMSIS/Include\cmsis_gcc.h **** 
 667:F:/Projects/20190909 - 3phase_inverter/3phase_inverter/4. Software_WS/OL_VSC_vitor/Libraries/CMSIS/Include\cmsis_gcc.h **** 
 668:F:/Projects/20190909 - 3phase_inverter/3phase_inverter/4. Software_WS/OL_VSC_vitor/Libraries/CMSIS/Include\cmsis_gcc.h **** /*@} end of CMSIS_Core_RegAccFunctions */
 669:F:/Projects/20190909 - 3phase_inverter/3phase_inverter/4. Software_WS/OL_VSC_vitor/Libraries/CMSIS/Include\cmsis_gcc.h **** 
 670:F:/Projects/20190909 - 3phase_inverter/3phase_inverter/4. Software_WS/OL_VSC_vitor/Libraries/CMSIS/Include\cmsis_gcc.h **** 
 671:F:/Projects/20190909 - 3phase_inverter/3phase_inverter/4. Software_WS/OL_VSC_vitor/Libraries/CMSIS/Include\cmsis_gcc.h **** /* ##########################  Core Instruction Access  ######################### */
 672:F:/Projects/20190909 - 3phase_inverter/3phase_inverter/4. Software_WS/OL_VSC_vitor/Libraries/CMSIS/Include\cmsis_gcc.h **** /** \defgroup CMSIS_Core_InstructionInterface CMSIS Core Instruction Interface
 673:F:/Projects/20190909 - 3phase_inverter/3phase_inverter/4. Software_WS/OL_VSC_vitor/Libraries/CMSIS/Include\cmsis_gcc.h ****   Access to dedicated instructions
 674:F:/Projects/20190909 - 3phase_inverter/3phase_inverter/4. Software_WS/OL_VSC_vitor/Libraries/CMSIS/Include\cmsis_gcc.h ****   @{
 675:F:/Projects/20190909 - 3phase_inverter/3phase_inverter/4. Software_WS/OL_VSC_vitor/Libraries/CMSIS/Include\cmsis_gcc.h **** */
 676:F:/Projects/20190909 - 3phase_inverter/3phase_inverter/4. Software_WS/OL_VSC_vitor/Libraries/CMSIS/Include\cmsis_gcc.h **** 
 677:F:/Projects/20190909 - 3phase_inverter/3phase_inverter/4. Software_WS/OL_VSC_vitor/Libraries/CMSIS/Include\cmsis_gcc.h **** /* Define macros for porting to both thumb1 and thumb2.
 678:F:/Projects/20190909 - 3phase_inverter/3phase_inverter/4. Software_WS/OL_VSC_vitor/Libraries/CMSIS/Include\cmsis_gcc.h ****  * For thumb1, use low register (r0-r7), specified by constraint "l"
 679:F:/Projects/20190909 - 3phase_inverter/3phase_inverter/4. Software_WS/OL_VSC_vitor/Libraries/CMSIS/Include\cmsis_gcc.h ****  * Otherwise, use general registers, specified by constraint "r" */
 680:F:/Projects/20190909 - 3phase_inverter/3phase_inverter/4. Software_WS/OL_VSC_vitor/Libraries/CMSIS/Include\cmsis_gcc.h **** #if defined (__thumb__) && !defined (__thumb2__)
 681:F:/Projects/20190909 - 3phase_inverter/3phase_inverter/4. Software_WS/OL_VSC_vitor/Libraries/CMSIS/Include\cmsis_gcc.h **** #define __CMSIS_GCC_OUT_REG(r) "=l" (r)
 682:F:/Projects/20190909 - 3phase_inverter/3phase_inverter/4. Software_WS/OL_VSC_vitor/Libraries/CMSIS/Include\cmsis_gcc.h **** #define __CMSIS_GCC_RW_REG(r) "+l" (r)
 683:F:/Projects/20190909 - 3phase_inverter/3phase_inverter/4. Software_WS/OL_VSC_vitor/Libraries/CMSIS/Include\cmsis_gcc.h **** #define __CMSIS_GCC_USE_REG(r) "l" (r)
 684:F:/Projects/20190909 - 3phase_inverter/3phase_inverter/4. Software_WS/OL_VSC_vitor/Libraries/CMSIS/Include\cmsis_gcc.h **** #else
 685:F:/Projects/20190909 - 3phase_inverter/3phase_inverter/4. Software_WS/OL_VSC_vitor/Libraries/CMSIS/Include\cmsis_gcc.h **** #define __CMSIS_GCC_OUT_REG(r) "=r" (r)
 686:F:/Projects/20190909 - 3phase_inverter/3phase_inverter/4. Software_WS/OL_VSC_vitor/Libraries/CMSIS/Include\cmsis_gcc.h **** #define __CMSIS_GCC_RW_REG(r) "+r" (r)
 687:F:/Projects/20190909 - 3phase_inverter/3phase_inverter/4. Software_WS/OL_VSC_vitor/Libraries/CMSIS/Include\cmsis_gcc.h **** #define __CMSIS_GCC_USE_REG(r) "r" (r)
 688:F:/Projects/20190909 - 3phase_inverter/3phase_inverter/4. Software_WS/OL_VSC_vitor/Libraries/CMSIS/Include\cmsis_gcc.h **** #endif
 689:F:/Projects/20190909 - 3phase_inverter/3phase_inverter/4. Software_WS/OL_VSC_vitor/Libraries/CMSIS/Include\cmsis_gcc.h **** 
 690:F:/Projects/20190909 - 3phase_inverter/3phase_inverter/4. Software_WS/OL_VSC_vitor/Libraries/CMSIS/Include\cmsis_gcc.h **** /**
 691:F:/Projects/20190909 - 3phase_inverter/3phase_inverter/4. Software_WS/OL_VSC_vitor/Libraries/CMSIS/Include\cmsis_gcc.h ****   \brief   No Operation
 692:F:/Projects/20190909 - 3phase_inverter/3phase_inverter/4. Software_WS/OL_VSC_vitor/Libraries/CMSIS/Include\cmsis_gcc.h ****   \details No Operation does nothing. This instruction can be used for code alignment purposes.
 693:F:/Projects/20190909 - 3phase_inverter/3phase_inverter/4. Software_WS/OL_VSC_vitor/Libraries/CMSIS/Include\cmsis_gcc.h ****  */
 694:F:/Projects/20190909 - 3phase_inverter/3phase_inverter/4. Software_WS/OL_VSC_vitor/Libraries/CMSIS/Include\cmsis_gcc.h **** //__attribute__((always_inline)) __STATIC_INLINE void __NOP(void)
 695:F:/Projects/20190909 - 3phase_inverter/3phase_inverter/4. Software_WS/OL_VSC_vitor/Libraries/CMSIS/Include\cmsis_gcc.h **** //{
 696:F:/Projects/20190909 - 3phase_inverter/3phase_inverter/4. Software_WS/OL_VSC_vitor/Libraries/CMSIS/Include\cmsis_gcc.h **** //  __ASM volatile ("nop");
 697:F:/Projects/20190909 - 3phase_inverter/3phase_inverter/4. Software_WS/OL_VSC_vitor/Libraries/CMSIS/Include\cmsis_gcc.h **** //}
 698:F:/Projects/20190909 - 3phase_inverter/3phase_inverter/4. Software_WS/OL_VSC_vitor/Libraries/CMSIS/Include\cmsis_gcc.h **** #define __NOP()                             __ASM volatile ("nop")       /* This implementation gen
 699:F:/Projects/20190909 - 3phase_inverter/3phase_inverter/4. Software_WS/OL_VSC_vitor/Libraries/CMSIS/Include\cmsis_gcc.h **** 
 700:F:/Projects/20190909 - 3phase_inverter/3phase_inverter/4. Software_WS/OL_VSC_vitor/Libraries/CMSIS/Include\cmsis_gcc.h **** /**
 701:F:/Projects/20190909 - 3phase_inverter/3phase_inverter/4. Software_WS/OL_VSC_vitor/Libraries/CMSIS/Include\cmsis_gcc.h ****   \brief   Wait For Interrupt
 702:F:/Projects/20190909 - 3phase_inverter/3phase_inverter/4. Software_WS/OL_VSC_vitor/Libraries/CMSIS/Include\cmsis_gcc.h ****   \details Wait For Interrupt is a hint instruction that suspends execution until one of a number o
 703:F:/Projects/20190909 - 3phase_inverter/3phase_inverter/4. Software_WS/OL_VSC_vitor/Libraries/CMSIS/Include\cmsis_gcc.h ****  */
 704:F:/Projects/20190909 - 3phase_inverter/3phase_inverter/4. Software_WS/OL_VSC_vitor/Libraries/CMSIS/Include\cmsis_gcc.h **** //__attribute__((always_inline)) __STATIC_INLINE void __WFI(void)
 705:F:/Projects/20190909 - 3phase_inverter/3phase_inverter/4. Software_WS/OL_VSC_vitor/Libraries/CMSIS/Include\cmsis_gcc.h **** //{
 706:F:/Projects/20190909 - 3phase_inverter/3phase_inverter/4. Software_WS/OL_VSC_vitor/Libraries/CMSIS/Include\cmsis_gcc.h **** //  __ASM volatile ("wfi");
 707:F:/Projects/20190909 - 3phase_inverter/3phase_inverter/4. Software_WS/OL_VSC_vitor/Libraries/CMSIS/Include\cmsis_gcc.h **** //}
 708:F:/Projects/20190909 - 3phase_inverter/3phase_inverter/4. Software_WS/OL_VSC_vitor/Libraries/CMSIS/Include\cmsis_gcc.h **** #define __WFI()                             __ASM volatile ("wfi")       /* This implementation gen
 709:F:/Projects/20190909 - 3phase_inverter/3phase_inverter/4. Software_WS/OL_VSC_vitor/Libraries/CMSIS/Include\cmsis_gcc.h **** 
 710:F:/Projects/20190909 - 3phase_inverter/3phase_inverter/4. Software_WS/OL_VSC_vitor/Libraries/CMSIS/Include\cmsis_gcc.h **** 
 711:F:/Projects/20190909 - 3phase_inverter/3phase_inverter/4. Software_WS/OL_VSC_vitor/Libraries/CMSIS/Include\cmsis_gcc.h **** /**
 712:F:/Projects/20190909 - 3phase_inverter/3phase_inverter/4. Software_WS/OL_VSC_vitor/Libraries/CMSIS/Include\cmsis_gcc.h ****   \brief   Wait For Event
 713:F:/Projects/20190909 - 3phase_inverter/3phase_inverter/4. Software_WS/OL_VSC_vitor/Libraries/CMSIS/Include\cmsis_gcc.h ****   \details Wait For Event is a hint instruction that permits the processor to enter
 714:F:/Projects/20190909 - 3phase_inverter/3phase_inverter/4. Software_WS/OL_VSC_vitor/Libraries/CMSIS/Include\cmsis_gcc.h ****            a low-power state until one of a number of events occurs.
 715:F:/Projects/20190909 - 3phase_inverter/3phase_inverter/4. Software_WS/OL_VSC_vitor/Libraries/CMSIS/Include\cmsis_gcc.h ****  */
 716:F:/Projects/20190909 - 3phase_inverter/3phase_inverter/4. Software_WS/OL_VSC_vitor/Libraries/CMSIS/Include\cmsis_gcc.h **** //__attribute__((always_inline)) __STATIC_INLINE void __WFE(void)
 717:F:/Projects/20190909 - 3phase_inverter/3phase_inverter/4. Software_WS/OL_VSC_vitor/Libraries/CMSIS/Include\cmsis_gcc.h **** //{
 718:F:/Projects/20190909 - 3phase_inverter/3phase_inverter/4. Software_WS/OL_VSC_vitor/Libraries/CMSIS/Include\cmsis_gcc.h **** //  __ASM volatile ("wfe");
 719:F:/Projects/20190909 - 3phase_inverter/3phase_inverter/4. Software_WS/OL_VSC_vitor/Libraries/CMSIS/Include\cmsis_gcc.h **** //}
 720:F:/Projects/20190909 - 3phase_inverter/3phase_inverter/4. Software_WS/OL_VSC_vitor/Libraries/CMSIS/Include\cmsis_gcc.h **** #define __WFE()                             __ASM volatile ("wfe")       /* This implementation gen
 721:F:/Projects/20190909 - 3phase_inverter/3phase_inverter/4. Software_WS/OL_VSC_vitor/Libraries/CMSIS/Include\cmsis_gcc.h **** 
 722:F:/Projects/20190909 - 3phase_inverter/3phase_inverter/4. Software_WS/OL_VSC_vitor/Libraries/CMSIS/Include\cmsis_gcc.h **** 
 723:F:/Projects/20190909 - 3phase_inverter/3phase_inverter/4. Software_WS/OL_VSC_vitor/Libraries/CMSIS/Include\cmsis_gcc.h **** /**
 724:F:/Projects/20190909 - 3phase_inverter/3phase_inverter/4. Software_WS/OL_VSC_vitor/Libraries/CMSIS/Include\cmsis_gcc.h ****   \brief   Send Event
 725:F:/Projects/20190909 - 3phase_inverter/3phase_inverter/4. Software_WS/OL_VSC_vitor/Libraries/CMSIS/Include\cmsis_gcc.h ****   \details Send Event is a hint instruction. It causes an event to be signaled to the CPU.
 726:F:/Projects/20190909 - 3phase_inverter/3phase_inverter/4. Software_WS/OL_VSC_vitor/Libraries/CMSIS/Include\cmsis_gcc.h ****  */
 727:F:/Projects/20190909 - 3phase_inverter/3phase_inverter/4. Software_WS/OL_VSC_vitor/Libraries/CMSIS/Include\cmsis_gcc.h **** //__attribute__((always_inline)) __STATIC_INLINE void __SEV(void)
 728:F:/Projects/20190909 - 3phase_inverter/3phase_inverter/4. Software_WS/OL_VSC_vitor/Libraries/CMSIS/Include\cmsis_gcc.h **** //{
 729:F:/Projects/20190909 - 3phase_inverter/3phase_inverter/4. Software_WS/OL_VSC_vitor/Libraries/CMSIS/Include\cmsis_gcc.h **** //  __ASM volatile ("sev");
 730:F:/Projects/20190909 - 3phase_inverter/3phase_inverter/4. Software_WS/OL_VSC_vitor/Libraries/CMSIS/Include\cmsis_gcc.h **** //}
 731:F:/Projects/20190909 - 3phase_inverter/3phase_inverter/4. Software_WS/OL_VSC_vitor/Libraries/CMSIS/Include\cmsis_gcc.h **** #define __SEV()                             __ASM volatile ("sev")       /* This implementation gen
 732:F:/Projects/20190909 - 3phase_inverter/3phase_inverter/4. Software_WS/OL_VSC_vitor/Libraries/CMSIS/Include\cmsis_gcc.h **** 
 733:F:/Projects/20190909 - 3phase_inverter/3phase_inverter/4. Software_WS/OL_VSC_vitor/Libraries/CMSIS/Include\cmsis_gcc.h **** 
 734:F:/Projects/20190909 - 3phase_inverter/3phase_inverter/4. Software_WS/OL_VSC_vitor/Libraries/CMSIS/Include\cmsis_gcc.h **** /**
 735:F:/Projects/20190909 - 3phase_inverter/3phase_inverter/4. Software_WS/OL_VSC_vitor/Libraries/CMSIS/Include\cmsis_gcc.h ****   \brief   Instruction Synchronization Barrier
 736:F:/Projects/20190909 - 3phase_inverter/3phase_inverter/4. Software_WS/OL_VSC_vitor/Libraries/CMSIS/Include\cmsis_gcc.h ****   \details Instruction Synchronization Barrier flushes the pipeline in the processor,
 737:F:/Projects/20190909 - 3phase_inverter/3phase_inverter/4. Software_WS/OL_VSC_vitor/Libraries/CMSIS/Include\cmsis_gcc.h ****            so that all instructions following the ISB are fetched from cache or memory,
 738:F:/Projects/20190909 - 3phase_inverter/3phase_inverter/4. Software_WS/OL_VSC_vitor/Libraries/CMSIS/Include\cmsis_gcc.h ****            after the instruction has been completed.
 739:F:/Projects/20190909 - 3phase_inverter/3phase_inverter/4. Software_WS/OL_VSC_vitor/Libraries/CMSIS/Include\cmsis_gcc.h ****  */
 740:F:/Projects/20190909 - 3phase_inverter/3phase_inverter/4. Software_WS/OL_VSC_vitor/Libraries/CMSIS/Include\cmsis_gcc.h **** __attribute__((always_inline)) __STATIC_INLINE void __ISB(void)
 741:F:/Projects/20190909 - 3phase_inverter/3phase_inverter/4. Software_WS/OL_VSC_vitor/Libraries/CMSIS/Include\cmsis_gcc.h **** {
 742:F:/Projects/20190909 - 3phase_inverter/3phase_inverter/4. Software_WS/OL_VSC_vitor/Libraries/CMSIS/Include\cmsis_gcc.h ****   __ASM volatile ("isb 0xF":::"memory");
 743:F:/Projects/20190909 - 3phase_inverter/3phase_inverter/4. Software_WS/OL_VSC_vitor/Libraries/CMSIS/Include\cmsis_gcc.h **** }
 744:F:/Projects/20190909 - 3phase_inverter/3phase_inverter/4. Software_WS/OL_VSC_vitor/Libraries/CMSIS/Include\cmsis_gcc.h **** 
 745:F:/Projects/20190909 - 3phase_inverter/3phase_inverter/4. Software_WS/OL_VSC_vitor/Libraries/CMSIS/Include\cmsis_gcc.h **** 
 746:F:/Projects/20190909 - 3phase_inverter/3phase_inverter/4. Software_WS/OL_VSC_vitor/Libraries/CMSIS/Include\cmsis_gcc.h **** /**
 747:F:/Projects/20190909 - 3phase_inverter/3phase_inverter/4. Software_WS/OL_VSC_vitor/Libraries/CMSIS/Include\cmsis_gcc.h ****   \brief   Data Synchronization Barrier
 748:F:/Projects/20190909 - 3phase_inverter/3phase_inverter/4. Software_WS/OL_VSC_vitor/Libraries/CMSIS/Include\cmsis_gcc.h ****   \details Acts as a special kind of Data Memory Barrier.
 749:F:/Projects/20190909 - 3phase_inverter/3phase_inverter/4. Software_WS/OL_VSC_vitor/Libraries/CMSIS/Include\cmsis_gcc.h ****            It completes when all explicit memory accesses before this instruction complete.
 750:F:/Projects/20190909 - 3phase_inverter/3phase_inverter/4. Software_WS/OL_VSC_vitor/Libraries/CMSIS/Include\cmsis_gcc.h ****  */
 751:F:/Projects/20190909 - 3phase_inverter/3phase_inverter/4. Software_WS/OL_VSC_vitor/Libraries/CMSIS/Include\cmsis_gcc.h **** __attribute__((always_inline)) __STATIC_INLINE void __DSB(void)
 752:F:/Projects/20190909 - 3phase_inverter/3phase_inverter/4. Software_WS/OL_VSC_vitor/Libraries/CMSIS/Include\cmsis_gcc.h **** {
 753:F:/Projects/20190909 - 3phase_inverter/3phase_inverter/4. Software_WS/OL_VSC_vitor/Libraries/CMSIS/Include\cmsis_gcc.h ****   __ASM volatile ("dsb 0xF":::"memory");
 754:F:/Projects/20190909 - 3phase_inverter/3phase_inverter/4. Software_WS/OL_VSC_vitor/Libraries/CMSIS/Include\cmsis_gcc.h **** }
 755:F:/Projects/20190909 - 3phase_inverter/3phase_inverter/4. Software_WS/OL_VSC_vitor/Libraries/CMSIS/Include\cmsis_gcc.h **** 
 756:F:/Projects/20190909 - 3phase_inverter/3phase_inverter/4. Software_WS/OL_VSC_vitor/Libraries/CMSIS/Include\cmsis_gcc.h **** 
 757:F:/Projects/20190909 - 3phase_inverter/3phase_inverter/4. Software_WS/OL_VSC_vitor/Libraries/CMSIS/Include\cmsis_gcc.h **** /**
 758:F:/Projects/20190909 - 3phase_inverter/3phase_inverter/4. Software_WS/OL_VSC_vitor/Libraries/CMSIS/Include\cmsis_gcc.h ****   \brief   Data Memory Barrier
 759:F:/Projects/20190909 - 3phase_inverter/3phase_inverter/4. Software_WS/OL_VSC_vitor/Libraries/CMSIS/Include\cmsis_gcc.h ****   \details Ensures the apparent order of the explicit memory operations before
 760:F:/Projects/20190909 - 3phase_inverter/3phase_inverter/4. Software_WS/OL_VSC_vitor/Libraries/CMSIS/Include\cmsis_gcc.h ****            and after the instruction, without ensuring their completion.
 761:F:/Projects/20190909 - 3phase_inverter/3phase_inverter/4. Software_WS/OL_VSC_vitor/Libraries/CMSIS/Include\cmsis_gcc.h ****  */
 762:F:/Projects/20190909 - 3phase_inverter/3phase_inverter/4. Software_WS/OL_VSC_vitor/Libraries/CMSIS/Include\cmsis_gcc.h **** __attribute__((always_inline)) __STATIC_INLINE void __DMB(void)
 763:F:/Projects/20190909 - 3phase_inverter/3phase_inverter/4. Software_WS/OL_VSC_vitor/Libraries/CMSIS/Include\cmsis_gcc.h **** {
 764:F:/Projects/20190909 - 3phase_inverter/3phase_inverter/4. Software_WS/OL_VSC_vitor/Libraries/CMSIS/Include\cmsis_gcc.h ****   __ASM volatile ("dmb 0xF":::"memory");
 765:F:/Projects/20190909 - 3phase_inverter/3phase_inverter/4. Software_WS/OL_VSC_vitor/Libraries/CMSIS/Include\cmsis_gcc.h **** }
 766:F:/Projects/20190909 - 3phase_inverter/3phase_inverter/4. Software_WS/OL_VSC_vitor/Libraries/CMSIS/Include\cmsis_gcc.h **** 
 767:F:/Projects/20190909 - 3phase_inverter/3phase_inverter/4. Software_WS/OL_VSC_vitor/Libraries/CMSIS/Include\cmsis_gcc.h **** 
 768:F:/Projects/20190909 - 3phase_inverter/3phase_inverter/4. Software_WS/OL_VSC_vitor/Libraries/CMSIS/Include\cmsis_gcc.h **** /**
 769:F:/Projects/20190909 - 3phase_inverter/3phase_inverter/4. Software_WS/OL_VSC_vitor/Libraries/CMSIS/Include\cmsis_gcc.h ****   \brief   Reverse byte order (32 bit)
 770:F:/Projects/20190909 - 3phase_inverter/3phase_inverter/4. Software_WS/OL_VSC_vitor/Libraries/CMSIS/Include\cmsis_gcc.h ****   \details Reverses the byte order in integer value.
 771:F:/Projects/20190909 - 3phase_inverter/3phase_inverter/4. Software_WS/OL_VSC_vitor/Libraries/CMSIS/Include\cmsis_gcc.h ****   \param [in]    value  Value to reverse
 772:F:/Projects/20190909 - 3phase_inverter/3phase_inverter/4. Software_WS/OL_VSC_vitor/Libraries/CMSIS/Include\cmsis_gcc.h ****   \return               Reversed value
 773:F:/Projects/20190909 - 3phase_inverter/3phase_inverter/4. Software_WS/OL_VSC_vitor/Libraries/CMSIS/Include\cmsis_gcc.h ****  */
 774:F:/Projects/20190909 - 3phase_inverter/3phase_inverter/4. Software_WS/OL_VSC_vitor/Libraries/CMSIS/Include\cmsis_gcc.h **** __attribute__((always_inline)) __STATIC_INLINE uint32_t __REV(uint32_t value)
 775:F:/Projects/20190909 - 3phase_inverter/3phase_inverter/4. Software_WS/OL_VSC_vitor/Libraries/CMSIS/Include\cmsis_gcc.h **** {
 776:F:/Projects/20190909 - 3phase_inverter/3phase_inverter/4. Software_WS/OL_VSC_vitor/Libraries/CMSIS/Include\cmsis_gcc.h **** #if (__GNUC__ > 4) || (__GNUC__ == 4 && __GNUC_MINOR__ >= 5)
 777:F:/Projects/20190909 - 3phase_inverter/3phase_inverter/4. Software_WS/OL_VSC_vitor/Libraries/CMSIS/Include\cmsis_gcc.h ****   return __builtin_bswap32(value);
 778:F:/Projects/20190909 - 3phase_inverter/3phase_inverter/4. Software_WS/OL_VSC_vitor/Libraries/CMSIS/Include\cmsis_gcc.h **** #else
 779:F:/Projects/20190909 - 3phase_inverter/3phase_inverter/4. Software_WS/OL_VSC_vitor/Libraries/CMSIS/Include\cmsis_gcc.h ****   uint32_t result;
 780:F:/Projects/20190909 - 3phase_inverter/3phase_inverter/4. Software_WS/OL_VSC_vitor/Libraries/CMSIS/Include\cmsis_gcc.h **** 
 781:F:/Projects/20190909 - 3phase_inverter/3phase_inverter/4. Software_WS/OL_VSC_vitor/Libraries/CMSIS/Include\cmsis_gcc.h ****   __ASM volatile ("rev %0, %1" : __CMSIS_GCC_OUT_REG (result) : __CMSIS_GCC_USE_REG (value) );
 782:F:/Projects/20190909 - 3phase_inverter/3phase_inverter/4. Software_WS/OL_VSC_vitor/Libraries/CMSIS/Include\cmsis_gcc.h ****   return(result);
 783:F:/Projects/20190909 - 3phase_inverter/3phase_inverter/4. Software_WS/OL_VSC_vitor/Libraries/CMSIS/Include\cmsis_gcc.h **** #endif
 784:F:/Projects/20190909 - 3phase_inverter/3phase_inverter/4. Software_WS/OL_VSC_vitor/Libraries/CMSIS/Include\cmsis_gcc.h **** }
 785:F:/Projects/20190909 - 3phase_inverter/3phase_inverter/4. Software_WS/OL_VSC_vitor/Libraries/CMSIS/Include\cmsis_gcc.h **** 
 786:F:/Projects/20190909 - 3phase_inverter/3phase_inverter/4. Software_WS/OL_VSC_vitor/Libraries/CMSIS/Include\cmsis_gcc.h **** 
 787:F:/Projects/20190909 - 3phase_inverter/3phase_inverter/4. Software_WS/OL_VSC_vitor/Libraries/CMSIS/Include\cmsis_gcc.h **** /**
 788:F:/Projects/20190909 - 3phase_inverter/3phase_inverter/4. Software_WS/OL_VSC_vitor/Libraries/CMSIS/Include\cmsis_gcc.h ****   \brief   Reverse byte order (16 bit)
 789:F:/Projects/20190909 - 3phase_inverter/3phase_inverter/4. Software_WS/OL_VSC_vitor/Libraries/CMSIS/Include\cmsis_gcc.h ****   \details Reverses the byte order in two unsigned short values.
 790:F:/Projects/20190909 - 3phase_inverter/3phase_inverter/4. Software_WS/OL_VSC_vitor/Libraries/CMSIS/Include\cmsis_gcc.h ****   \param [in]    value  Value to reverse
 791:F:/Projects/20190909 - 3phase_inverter/3phase_inverter/4. Software_WS/OL_VSC_vitor/Libraries/CMSIS/Include\cmsis_gcc.h ****   \return               Reversed value
 792:F:/Projects/20190909 - 3phase_inverter/3phase_inverter/4. Software_WS/OL_VSC_vitor/Libraries/CMSIS/Include\cmsis_gcc.h ****  */
 793:F:/Projects/20190909 - 3phase_inverter/3phase_inverter/4. Software_WS/OL_VSC_vitor/Libraries/CMSIS/Include\cmsis_gcc.h **** __attribute__((always_inline)) __STATIC_INLINE uint32_t __REV16(uint32_t value)
 794:F:/Projects/20190909 - 3phase_inverter/3phase_inverter/4. Software_WS/OL_VSC_vitor/Libraries/CMSIS/Include\cmsis_gcc.h **** {
 795:F:/Projects/20190909 - 3phase_inverter/3phase_inverter/4. Software_WS/OL_VSC_vitor/Libraries/CMSIS/Include\cmsis_gcc.h ****   uint32_t result;
 796:F:/Projects/20190909 - 3phase_inverter/3phase_inverter/4. Software_WS/OL_VSC_vitor/Libraries/CMSIS/Include\cmsis_gcc.h **** 
 797:F:/Projects/20190909 - 3phase_inverter/3phase_inverter/4. Software_WS/OL_VSC_vitor/Libraries/CMSIS/Include\cmsis_gcc.h ****   __ASM volatile ("rev16 %0, %1" : __CMSIS_GCC_OUT_REG (result) : __CMSIS_GCC_USE_REG (value) );
 798:F:/Projects/20190909 - 3phase_inverter/3phase_inverter/4. Software_WS/OL_VSC_vitor/Libraries/CMSIS/Include\cmsis_gcc.h ****   return(result);
 799:F:/Projects/20190909 - 3phase_inverter/3phase_inverter/4. Software_WS/OL_VSC_vitor/Libraries/CMSIS/Include\cmsis_gcc.h **** }
 800:F:/Projects/20190909 - 3phase_inverter/3phase_inverter/4. Software_WS/OL_VSC_vitor/Libraries/CMSIS/Include\cmsis_gcc.h **** 
 801:F:/Projects/20190909 - 3phase_inverter/3phase_inverter/4. Software_WS/OL_VSC_vitor/Libraries/CMSIS/Include\cmsis_gcc.h **** 
 802:F:/Projects/20190909 - 3phase_inverter/3phase_inverter/4. Software_WS/OL_VSC_vitor/Libraries/CMSIS/Include\cmsis_gcc.h **** /**
 803:F:/Projects/20190909 - 3phase_inverter/3phase_inverter/4. Software_WS/OL_VSC_vitor/Libraries/CMSIS/Include\cmsis_gcc.h ****   \brief   Reverse byte order in signed short value
 804:F:/Projects/20190909 - 3phase_inverter/3phase_inverter/4. Software_WS/OL_VSC_vitor/Libraries/CMSIS/Include\cmsis_gcc.h ****   \details Reverses the byte order in a signed short value with sign extension to integer.
 805:F:/Projects/20190909 - 3phase_inverter/3phase_inverter/4. Software_WS/OL_VSC_vitor/Libraries/CMSIS/Include\cmsis_gcc.h ****   \param [in]    value  Value to reverse
 806:F:/Projects/20190909 - 3phase_inverter/3phase_inverter/4. Software_WS/OL_VSC_vitor/Libraries/CMSIS/Include\cmsis_gcc.h ****   \return               Reversed value
 807:F:/Projects/20190909 - 3phase_inverter/3phase_inverter/4. Software_WS/OL_VSC_vitor/Libraries/CMSIS/Include\cmsis_gcc.h ****  */
 808:F:/Projects/20190909 - 3phase_inverter/3phase_inverter/4. Software_WS/OL_VSC_vitor/Libraries/CMSIS/Include\cmsis_gcc.h **** __attribute__((always_inline)) __STATIC_INLINE int32_t __REVSH(int32_t value)
 809:F:/Projects/20190909 - 3phase_inverter/3phase_inverter/4. Software_WS/OL_VSC_vitor/Libraries/CMSIS/Include\cmsis_gcc.h **** {
 810:F:/Projects/20190909 - 3phase_inverter/3phase_inverter/4. Software_WS/OL_VSC_vitor/Libraries/CMSIS/Include\cmsis_gcc.h **** #if (__GNUC__ > 4) || (__GNUC__ == 4 && __GNUC_MINOR__ >= 8)
 811:F:/Projects/20190909 - 3phase_inverter/3phase_inverter/4. Software_WS/OL_VSC_vitor/Libraries/CMSIS/Include\cmsis_gcc.h ****   return (short)__builtin_bswap16(value);
 812:F:/Projects/20190909 - 3phase_inverter/3phase_inverter/4. Software_WS/OL_VSC_vitor/Libraries/CMSIS/Include\cmsis_gcc.h **** #else
 813:F:/Projects/20190909 - 3phase_inverter/3phase_inverter/4. Software_WS/OL_VSC_vitor/Libraries/CMSIS/Include\cmsis_gcc.h ****   int32_t result;
 814:F:/Projects/20190909 - 3phase_inverter/3phase_inverter/4. Software_WS/OL_VSC_vitor/Libraries/CMSIS/Include\cmsis_gcc.h **** 
 815:F:/Projects/20190909 - 3phase_inverter/3phase_inverter/4. Software_WS/OL_VSC_vitor/Libraries/CMSIS/Include\cmsis_gcc.h ****   __ASM volatile ("revsh %0, %1" : __CMSIS_GCC_OUT_REG (result) : __CMSIS_GCC_USE_REG (value) );
 816:F:/Projects/20190909 - 3phase_inverter/3phase_inverter/4. Software_WS/OL_VSC_vitor/Libraries/CMSIS/Include\cmsis_gcc.h ****   return(result);
 817:F:/Projects/20190909 - 3phase_inverter/3phase_inverter/4. Software_WS/OL_VSC_vitor/Libraries/CMSIS/Include\cmsis_gcc.h **** #endif
 818:F:/Projects/20190909 - 3phase_inverter/3phase_inverter/4. Software_WS/OL_VSC_vitor/Libraries/CMSIS/Include\cmsis_gcc.h **** }
 819:F:/Projects/20190909 - 3phase_inverter/3phase_inverter/4. Software_WS/OL_VSC_vitor/Libraries/CMSIS/Include\cmsis_gcc.h **** 
 820:F:/Projects/20190909 - 3phase_inverter/3phase_inverter/4. Software_WS/OL_VSC_vitor/Libraries/CMSIS/Include\cmsis_gcc.h **** 
 821:F:/Projects/20190909 - 3phase_inverter/3phase_inverter/4. Software_WS/OL_VSC_vitor/Libraries/CMSIS/Include\cmsis_gcc.h **** /**
 822:F:/Projects/20190909 - 3phase_inverter/3phase_inverter/4. Software_WS/OL_VSC_vitor/Libraries/CMSIS/Include\cmsis_gcc.h ****   \brief   Rotate Right in unsigned value (32 bit)
 823:F:/Projects/20190909 - 3phase_inverter/3phase_inverter/4. Software_WS/OL_VSC_vitor/Libraries/CMSIS/Include\cmsis_gcc.h ****   \details Rotate Right (immediate) provides the value of the contents of a register rotated by a v
 824:F:/Projects/20190909 - 3phase_inverter/3phase_inverter/4. Software_WS/OL_VSC_vitor/Libraries/CMSIS/Include\cmsis_gcc.h ****   \param [in]    op1  Value to rotate
 825:F:/Projects/20190909 - 3phase_inverter/3phase_inverter/4. Software_WS/OL_VSC_vitor/Libraries/CMSIS/Include\cmsis_gcc.h ****   \param [in]    op2  Number of Bits to rotate
 826:F:/Projects/20190909 - 3phase_inverter/3phase_inverter/4. Software_WS/OL_VSC_vitor/Libraries/CMSIS/Include\cmsis_gcc.h ****   \return               Rotated value
 827:F:/Projects/20190909 - 3phase_inverter/3phase_inverter/4. Software_WS/OL_VSC_vitor/Libraries/CMSIS/Include\cmsis_gcc.h ****  */
 828:F:/Projects/20190909 - 3phase_inverter/3phase_inverter/4. Software_WS/OL_VSC_vitor/Libraries/CMSIS/Include\cmsis_gcc.h **** __attribute__((always_inline)) __STATIC_INLINE uint32_t __ROR(uint32_t op1, uint32_t op2)
 829:F:/Projects/20190909 - 3phase_inverter/3phase_inverter/4. Software_WS/OL_VSC_vitor/Libraries/CMSIS/Include\cmsis_gcc.h **** {
 830:F:/Projects/20190909 - 3phase_inverter/3phase_inverter/4. Software_WS/OL_VSC_vitor/Libraries/CMSIS/Include\cmsis_gcc.h ****   return (op1 >> op2) | (op1 << (32U - op2));
 831:F:/Projects/20190909 - 3phase_inverter/3phase_inverter/4. Software_WS/OL_VSC_vitor/Libraries/CMSIS/Include\cmsis_gcc.h **** }
 832:F:/Projects/20190909 - 3phase_inverter/3phase_inverter/4. Software_WS/OL_VSC_vitor/Libraries/CMSIS/Include\cmsis_gcc.h **** 
 833:F:/Projects/20190909 - 3phase_inverter/3phase_inverter/4. Software_WS/OL_VSC_vitor/Libraries/CMSIS/Include\cmsis_gcc.h **** 
 834:F:/Projects/20190909 - 3phase_inverter/3phase_inverter/4. Software_WS/OL_VSC_vitor/Libraries/CMSIS/Include\cmsis_gcc.h **** /**
 835:F:/Projects/20190909 - 3phase_inverter/3phase_inverter/4. Software_WS/OL_VSC_vitor/Libraries/CMSIS/Include\cmsis_gcc.h ****   \brief   Breakpoint
 836:F:/Projects/20190909 - 3phase_inverter/3phase_inverter/4. Software_WS/OL_VSC_vitor/Libraries/CMSIS/Include\cmsis_gcc.h ****   \details Causes the processor to enter Debug state.
 837:F:/Projects/20190909 - 3phase_inverter/3phase_inverter/4. Software_WS/OL_VSC_vitor/Libraries/CMSIS/Include\cmsis_gcc.h ****            Debug tools can use this to investigate system state when the instruction at a particula
 838:F:/Projects/20190909 - 3phase_inverter/3phase_inverter/4. Software_WS/OL_VSC_vitor/Libraries/CMSIS/Include\cmsis_gcc.h ****   \param [in]    value  is ignored by the processor.
 839:F:/Projects/20190909 - 3phase_inverter/3phase_inverter/4. Software_WS/OL_VSC_vitor/Libraries/CMSIS/Include\cmsis_gcc.h ****                  If required, a debugger can use it to store additional information about the break
 840:F:/Projects/20190909 - 3phase_inverter/3phase_inverter/4. Software_WS/OL_VSC_vitor/Libraries/CMSIS/Include\cmsis_gcc.h ****  */
 841:F:/Projects/20190909 - 3phase_inverter/3phase_inverter/4. Software_WS/OL_VSC_vitor/Libraries/CMSIS/Include\cmsis_gcc.h **** #define __BKPT(value)                       __ASM volatile ("bkpt "#value)
 842:F:/Projects/20190909 - 3phase_inverter/3phase_inverter/4. Software_WS/OL_VSC_vitor/Libraries/CMSIS/Include\cmsis_gcc.h **** 
 843:F:/Projects/20190909 - 3phase_inverter/3phase_inverter/4. Software_WS/OL_VSC_vitor/Libraries/CMSIS/Include\cmsis_gcc.h **** 
 844:F:/Projects/20190909 - 3phase_inverter/3phase_inverter/4. Software_WS/OL_VSC_vitor/Libraries/CMSIS/Include\cmsis_gcc.h **** /**
 845:F:/Projects/20190909 - 3phase_inverter/3phase_inverter/4. Software_WS/OL_VSC_vitor/Libraries/CMSIS/Include\cmsis_gcc.h ****   \brief   Reverse bit order of value
 846:F:/Projects/20190909 - 3phase_inverter/3phase_inverter/4. Software_WS/OL_VSC_vitor/Libraries/CMSIS/Include\cmsis_gcc.h ****   \details Reverses the bit order of the given value.
 847:F:/Projects/20190909 - 3phase_inverter/3phase_inverter/4. Software_WS/OL_VSC_vitor/Libraries/CMSIS/Include\cmsis_gcc.h ****   \param [in]    value  Value to reverse
 848:F:/Projects/20190909 - 3phase_inverter/3phase_inverter/4. Software_WS/OL_VSC_vitor/Libraries/CMSIS/Include\cmsis_gcc.h ****   \return               Reversed value
 849:F:/Projects/20190909 - 3phase_inverter/3phase_inverter/4. Software_WS/OL_VSC_vitor/Libraries/CMSIS/Include\cmsis_gcc.h ****  */
 850:F:/Projects/20190909 - 3phase_inverter/3phase_inverter/4. Software_WS/OL_VSC_vitor/Libraries/CMSIS/Include\cmsis_gcc.h **** __attribute__((always_inline)) __STATIC_INLINE uint32_t __RBIT(uint32_t value)
 851:F:/Projects/20190909 - 3phase_inverter/3phase_inverter/4. Software_WS/OL_VSC_vitor/Libraries/CMSIS/Include\cmsis_gcc.h **** {
 852:F:/Projects/20190909 - 3phase_inverter/3phase_inverter/4. Software_WS/OL_VSC_vitor/Libraries/CMSIS/Include\cmsis_gcc.h ****   uint32_t result;
 853:F:/Projects/20190909 - 3phase_inverter/3phase_inverter/4. Software_WS/OL_VSC_vitor/Libraries/CMSIS/Include\cmsis_gcc.h **** 
 854:F:/Projects/20190909 - 3phase_inverter/3phase_inverter/4. Software_WS/OL_VSC_vitor/Libraries/CMSIS/Include\cmsis_gcc.h **** #if ((defined (__ARM_ARCH_7M__      ) && (__ARM_ARCH_7M__      == 1)) || \
 855:F:/Projects/20190909 - 3phase_inverter/3phase_inverter/4. Software_WS/OL_VSC_vitor/Libraries/CMSIS/Include\cmsis_gcc.h ****      (defined (__ARM_ARCH_7EM__     ) && (__ARM_ARCH_7EM__     == 1)) || \
 856:F:/Projects/20190909 - 3phase_inverter/3phase_inverter/4. Software_WS/OL_VSC_vitor/Libraries/CMSIS/Include\cmsis_gcc.h ****      (defined (__ARM_ARCH_8M_MAIN__ ) && (__ARM_ARCH_8M_MAIN__ == 1))    )
 857:F:/Projects/20190909 - 3phase_inverter/3phase_inverter/4. Software_WS/OL_VSC_vitor/Libraries/CMSIS/Include\cmsis_gcc.h ****    __ASM volatile ("rbit %0, %1" : "=r" (result) : "r" (value) );
 858:F:/Projects/20190909 - 3phase_inverter/3phase_inverter/4. Software_WS/OL_VSC_vitor/Libraries/CMSIS/Include\cmsis_gcc.h **** #else
 859:F:/Projects/20190909 - 3phase_inverter/3phase_inverter/4. Software_WS/OL_VSC_vitor/Libraries/CMSIS/Include\cmsis_gcc.h ****   int32_t s = (4 /*sizeof(v)*/ * 8) - 1; /* extra shift needed at end */
 860:F:/Projects/20190909 - 3phase_inverter/3phase_inverter/4. Software_WS/OL_VSC_vitor/Libraries/CMSIS/Include\cmsis_gcc.h **** 
 861:F:/Projects/20190909 - 3phase_inverter/3phase_inverter/4. Software_WS/OL_VSC_vitor/Libraries/CMSIS/Include\cmsis_gcc.h ****   result = value;                      /* r will be reversed bits of v; first get LSB of v */
 862:F:/Projects/20190909 - 3phase_inverter/3phase_inverter/4. Software_WS/OL_VSC_vitor/Libraries/CMSIS/Include\cmsis_gcc.h ****   for (value >>= 1U; value; value >>= 1U)
 863:F:/Projects/20190909 - 3phase_inverter/3phase_inverter/4. Software_WS/OL_VSC_vitor/Libraries/CMSIS/Include\cmsis_gcc.h ****   {
 864:F:/Projects/20190909 - 3phase_inverter/3phase_inverter/4. Software_WS/OL_VSC_vitor/Libraries/CMSIS/Include\cmsis_gcc.h ****     result <<= 1U;
 865:F:/Projects/20190909 - 3phase_inverter/3phase_inverter/4. Software_WS/OL_VSC_vitor/Libraries/CMSIS/Include\cmsis_gcc.h ****     result |= value & 1U;
 866:F:/Projects/20190909 - 3phase_inverter/3phase_inverter/4. Software_WS/OL_VSC_vitor/Libraries/CMSIS/Include\cmsis_gcc.h ****     s--;
 867:F:/Projects/20190909 - 3phase_inverter/3phase_inverter/4. Software_WS/OL_VSC_vitor/Libraries/CMSIS/Include\cmsis_gcc.h ****   }
 868:F:/Projects/20190909 - 3phase_inverter/3phase_inverter/4. Software_WS/OL_VSC_vitor/Libraries/CMSIS/Include\cmsis_gcc.h ****   result <<= s;                        /* shift when v's highest bits are zero */
 869:F:/Projects/20190909 - 3phase_inverter/3phase_inverter/4. Software_WS/OL_VSC_vitor/Libraries/CMSIS/Include\cmsis_gcc.h **** #endif
 870:F:/Projects/20190909 - 3phase_inverter/3phase_inverter/4. Software_WS/OL_VSC_vitor/Libraries/CMSIS/Include\cmsis_gcc.h ****   return(result);
 871:F:/Projects/20190909 - 3phase_inverter/3phase_inverter/4. Software_WS/OL_VSC_vitor/Libraries/CMSIS/Include\cmsis_gcc.h **** }
 872:F:/Projects/20190909 - 3phase_inverter/3phase_inverter/4. Software_WS/OL_VSC_vitor/Libraries/CMSIS/Include\cmsis_gcc.h **** 
 873:F:/Projects/20190909 - 3phase_inverter/3phase_inverter/4. Software_WS/OL_VSC_vitor/Libraries/CMSIS/Include\cmsis_gcc.h **** 
 874:F:/Projects/20190909 - 3phase_inverter/3phase_inverter/4. Software_WS/OL_VSC_vitor/Libraries/CMSIS/Include\cmsis_gcc.h **** /**
 875:F:/Projects/20190909 - 3phase_inverter/3phase_inverter/4. Software_WS/OL_VSC_vitor/Libraries/CMSIS/Include\cmsis_gcc.h ****   \brief   Count leading zeros
 876:F:/Projects/20190909 - 3phase_inverter/3phase_inverter/4. Software_WS/OL_VSC_vitor/Libraries/CMSIS/Include\cmsis_gcc.h ****   \details Counts the number of leading zeros of a data value.
 877:F:/Projects/20190909 - 3phase_inverter/3phase_inverter/4. Software_WS/OL_VSC_vitor/Libraries/CMSIS/Include\cmsis_gcc.h ****   \param [in]  value  Value to count the leading zeros
 878:F:/Projects/20190909 - 3phase_inverter/3phase_inverter/4. Software_WS/OL_VSC_vitor/Libraries/CMSIS/Include\cmsis_gcc.h ****   \return             number of leading zeros in value
 879:F:/Projects/20190909 - 3phase_inverter/3phase_inverter/4. Software_WS/OL_VSC_vitor/Libraries/CMSIS/Include\cmsis_gcc.h ****  */
 880:F:/Projects/20190909 - 3phase_inverter/3phase_inverter/4. Software_WS/OL_VSC_vitor/Libraries/CMSIS/Include\cmsis_gcc.h **** #define __CLZ             __builtin_clz
 881:F:/Projects/20190909 - 3phase_inverter/3phase_inverter/4. Software_WS/OL_VSC_vitor/Libraries/CMSIS/Include\cmsis_gcc.h **** 
 882:F:/Projects/20190909 - 3phase_inverter/3phase_inverter/4. Software_WS/OL_VSC_vitor/Libraries/CMSIS/Include\cmsis_gcc.h **** 
 883:F:/Projects/20190909 - 3phase_inverter/3phase_inverter/4. Software_WS/OL_VSC_vitor/Libraries/CMSIS/Include\cmsis_gcc.h **** #if ((defined (__ARM_ARCH_7M__      ) && (__ARM_ARCH_7M__      == 1)) || \
 884:F:/Projects/20190909 - 3phase_inverter/3phase_inverter/4. Software_WS/OL_VSC_vitor/Libraries/CMSIS/Include\cmsis_gcc.h ****      (defined (__ARM_ARCH_7EM__     ) && (__ARM_ARCH_7EM__     == 1)) || \
 885:F:/Projects/20190909 - 3phase_inverter/3phase_inverter/4. Software_WS/OL_VSC_vitor/Libraries/CMSIS/Include\cmsis_gcc.h ****      (defined (__ARM_ARCH_8M_MAIN__ ) && (__ARM_ARCH_8M_MAIN__ == 1)) || \
 886:F:/Projects/20190909 - 3phase_inverter/3phase_inverter/4. Software_WS/OL_VSC_vitor/Libraries/CMSIS/Include\cmsis_gcc.h ****      (defined (__ARM_ARCH_8M_BASE__ ) && (__ARM_ARCH_8M_BASE__ == 1))    )
 887:F:/Projects/20190909 - 3phase_inverter/3phase_inverter/4. Software_WS/OL_VSC_vitor/Libraries/CMSIS/Include\cmsis_gcc.h **** /**
 888:F:/Projects/20190909 - 3phase_inverter/3phase_inverter/4. Software_WS/OL_VSC_vitor/Libraries/CMSIS/Include\cmsis_gcc.h ****   \brief   LDR Exclusive (8 bit)
 889:F:/Projects/20190909 - 3phase_inverter/3phase_inverter/4. Software_WS/OL_VSC_vitor/Libraries/CMSIS/Include\cmsis_gcc.h ****   \details Executes a exclusive LDR instruction for 8 bit value.
 890:F:/Projects/20190909 - 3phase_inverter/3phase_inverter/4. Software_WS/OL_VSC_vitor/Libraries/CMSIS/Include\cmsis_gcc.h ****   \param [in]    ptr  Pointer to data
 891:F:/Projects/20190909 - 3phase_inverter/3phase_inverter/4. Software_WS/OL_VSC_vitor/Libraries/CMSIS/Include\cmsis_gcc.h ****   \return             value of type uint8_t at (*ptr)
 892:F:/Projects/20190909 - 3phase_inverter/3phase_inverter/4. Software_WS/OL_VSC_vitor/Libraries/CMSIS/Include\cmsis_gcc.h ****  */
 893:F:/Projects/20190909 - 3phase_inverter/3phase_inverter/4. Software_WS/OL_VSC_vitor/Libraries/CMSIS/Include\cmsis_gcc.h **** __attribute__((always_inline)) __STATIC_INLINE uint8_t __LDREXB(volatile uint8_t *addr)
 894:F:/Projects/20190909 - 3phase_inverter/3phase_inverter/4. Software_WS/OL_VSC_vitor/Libraries/CMSIS/Include\cmsis_gcc.h **** {
 895:F:/Projects/20190909 - 3phase_inverter/3phase_inverter/4. Software_WS/OL_VSC_vitor/Libraries/CMSIS/Include\cmsis_gcc.h ****     uint32_t result;
 896:F:/Projects/20190909 - 3phase_inverter/3phase_inverter/4. Software_WS/OL_VSC_vitor/Libraries/CMSIS/Include\cmsis_gcc.h **** 
 897:F:/Projects/20190909 - 3phase_inverter/3phase_inverter/4. Software_WS/OL_VSC_vitor/Libraries/CMSIS/Include\cmsis_gcc.h **** #if (__GNUC__ > 4) || (__GNUC__ == 4 && __GNUC_MINOR__ >= 8)
 898:F:/Projects/20190909 - 3phase_inverter/3phase_inverter/4. Software_WS/OL_VSC_vitor/Libraries/CMSIS/Include\cmsis_gcc.h ****    __ASM volatile ("ldrexb %0, %1" : "=r" (result) : "Q" (*addr) );
 899:F:/Projects/20190909 - 3phase_inverter/3phase_inverter/4. Software_WS/OL_VSC_vitor/Libraries/CMSIS/Include\cmsis_gcc.h **** #else
 900:F:/Projects/20190909 - 3phase_inverter/3phase_inverter/4. Software_WS/OL_VSC_vitor/Libraries/CMSIS/Include\cmsis_gcc.h ****     /* Prior to GCC 4.8, "Q" will be expanded to [rx, #0] which is not
 901:F:/Projects/20190909 - 3phase_inverter/3phase_inverter/4. Software_WS/OL_VSC_vitor/Libraries/CMSIS/Include\cmsis_gcc.h ****        accepted by assembler. So has to use following less efficient pattern.
 902:F:/Projects/20190909 - 3phase_inverter/3phase_inverter/4. Software_WS/OL_VSC_vitor/Libraries/CMSIS/Include\cmsis_gcc.h ****     */
 903:F:/Projects/20190909 - 3phase_inverter/3phase_inverter/4. Software_WS/OL_VSC_vitor/Libraries/CMSIS/Include\cmsis_gcc.h ****    __ASM volatile ("ldrexb %0, [%1]" : "=r" (result) : "r" (addr) : "memory" );
 904:F:/Projects/20190909 - 3phase_inverter/3phase_inverter/4. Software_WS/OL_VSC_vitor/Libraries/CMSIS/Include\cmsis_gcc.h **** #endif
 905:F:/Projects/20190909 - 3phase_inverter/3phase_inverter/4. Software_WS/OL_VSC_vitor/Libraries/CMSIS/Include\cmsis_gcc.h ****    return ((uint8_t) result);    /* Add explicit type cast here */
 906:F:/Projects/20190909 - 3phase_inverter/3phase_inverter/4. Software_WS/OL_VSC_vitor/Libraries/CMSIS/Include\cmsis_gcc.h **** }
 907:F:/Projects/20190909 - 3phase_inverter/3phase_inverter/4. Software_WS/OL_VSC_vitor/Libraries/CMSIS/Include\cmsis_gcc.h **** 
 908:F:/Projects/20190909 - 3phase_inverter/3phase_inverter/4. Software_WS/OL_VSC_vitor/Libraries/CMSIS/Include\cmsis_gcc.h **** 
 909:F:/Projects/20190909 - 3phase_inverter/3phase_inverter/4. Software_WS/OL_VSC_vitor/Libraries/CMSIS/Include\cmsis_gcc.h **** /**
 910:F:/Projects/20190909 - 3phase_inverter/3phase_inverter/4. Software_WS/OL_VSC_vitor/Libraries/CMSIS/Include\cmsis_gcc.h ****   \brief   LDR Exclusive (16 bit)
 911:F:/Projects/20190909 - 3phase_inverter/3phase_inverter/4. Software_WS/OL_VSC_vitor/Libraries/CMSIS/Include\cmsis_gcc.h ****   \details Executes a exclusive LDR instruction for 16 bit values.
 912:F:/Projects/20190909 - 3phase_inverter/3phase_inverter/4. Software_WS/OL_VSC_vitor/Libraries/CMSIS/Include\cmsis_gcc.h ****   \param [in]    ptr  Pointer to data
 913:F:/Projects/20190909 - 3phase_inverter/3phase_inverter/4. Software_WS/OL_VSC_vitor/Libraries/CMSIS/Include\cmsis_gcc.h ****   \return        value of type uint16_t at (*ptr)
 914:F:/Projects/20190909 - 3phase_inverter/3phase_inverter/4. Software_WS/OL_VSC_vitor/Libraries/CMSIS/Include\cmsis_gcc.h ****  */
 915:F:/Projects/20190909 - 3phase_inverter/3phase_inverter/4. Software_WS/OL_VSC_vitor/Libraries/CMSIS/Include\cmsis_gcc.h **** __attribute__((always_inline)) __STATIC_INLINE uint16_t __LDREXH(volatile uint16_t *addr)
 916:F:/Projects/20190909 - 3phase_inverter/3phase_inverter/4. Software_WS/OL_VSC_vitor/Libraries/CMSIS/Include\cmsis_gcc.h **** {
 917:F:/Projects/20190909 - 3phase_inverter/3phase_inverter/4. Software_WS/OL_VSC_vitor/Libraries/CMSIS/Include\cmsis_gcc.h ****     uint32_t result;
 918:F:/Projects/20190909 - 3phase_inverter/3phase_inverter/4. Software_WS/OL_VSC_vitor/Libraries/CMSIS/Include\cmsis_gcc.h **** 
 919:F:/Projects/20190909 - 3phase_inverter/3phase_inverter/4. Software_WS/OL_VSC_vitor/Libraries/CMSIS/Include\cmsis_gcc.h **** #if (__GNUC__ > 4) || (__GNUC__ == 4 && __GNUC_MINOR__ >= 8)
 920:F:/Projects/20190909 - 3phase_inverter/3phase_inverter/4. Software_WS/OL_VSC_vitor/Libraries/CMSIS/Include\cmsis_gcc.h ****    __ASM volatile ("ldrexh %0, %1" : "=r" (result) : "Q" (*addr) );
 921:F:/Projects/20190909 - 3phase_inverter/3phase_inverter/4. Software_WS/OL_VSC_vitor/Libraries/CMSIS/Include\cmsis_gcc.h **** #else
 922:F:/Projects/20190909 - 3phase_inverter/3phase_inverter/4. Software_WS/OL_VSC_vitor/Libraries/CMSIS/Include\cmsis_gcc.h ****     /* Prior to GCC 4.8, "Q" will be expanded to [rx, #0] which is not
 923:F:/Projects/20190909 - 3phase_inverter/3phase_inverter/4. Software_WS/OL_VSC_vitor/Libraries/CMSIS/Include\cmsis_gcc.h ****        accepted by assembler. So has to use following less efficient pattern.
 924:F:/Projects/20190909 - 3phase_inverter/3phase_inverter/4. Software_WS/OL_VSC_vitor/Libraries/CMSIS/Include\cmsis_gcc.h ****     */
 925:F:/Projects/20190909 - 3phase_inverter/3phase_inverter/4. Software_WS/OL_VSC_vitor/Libraries/CMSIS/Include\cmsis_gcc.h ****    __ASM volatile ("ldrexh %0, [%1]" : "=r" (result) : "r" (addr) : "memory" );
 926:F:/Projects/20190909 - 3phase_inverter/3phase_inverter/4. Software_WS/OL_VSC_vitor/Libraries/CMSIS/Include\cmsis_gcc.h **** #endif
 927:F:/Projects/20190909 - 3phase_inverter/3phase_inverter/4. Software_WS/OL_VSC_vitor/Libraries/CMSIS/Include\cmsis_gcc.h ****    return ((uint16_t) result);    /* Add explicit type cast here */
 928:F:/Projects/20190909 - 3phase_inverter/3phase_inverter/4. Software_WS/OL_VSC_vitor/Libraries/CMSIS/Include\cmsis_gcc.h **** }
 929:F:/Projects/20190909 - 3phase_inverter/3phase_inverter/4. Software_WS/OL_VSC_vitor/Libraries/CMSIS/Include\cmsis_gcc.h **** 
 930:F:/Projects/20190909 - 3phase_inverter/3phase_inverter/4. Software_WS/OL_VSC_vitor/Libraries/CMSIS/Include\cmsis_gcc.h **** 
 931:F:/Projects/20190909 - 3phase_inverter/3phase_inverter/4. Software_WS/OL_VSC_vitor/Libraries/CMSIS/Include\cmsis_gcc.h **** /**
 932:F:/Projects/20190909 - 3phase_inverter/3phase_inverter/4. Software_WS/OL_VSC_vitor/Libraries/CMSIS/Include\cmsis_gcc.h ****   \brief   LDR Exclusive (32 bit)
 933:F:/Projects/20190909 - 3phase_inverter/3phase_inverter/4. Software_WS/OL_VSC_vitor/Libraries/CMSIS/Include\cmsis_gcc.h ****   \details Executes a exclusive LDR instruction for 32 bit values.
 934:F:/Projects/20190909 - 3phase_inverter/3phase_inverter/4. Software_WS/OL_VSC_vitor/Libraries/CMSIS/Include\cmsis_gcc.h ****   \param [in]    ptr  Pointer to data
 935:F:/Projects/20190909 - 3phase_inverter/3phase_inverter/4. Software_WS/OL_VSC_vitor/Libraries/CMSIS/Include\cmsis_gcc.h ****   \return        value of type uint32_t at (*ptr)
 936:F:/Projects/20190909 - 3phase_inverter/3phase_inverter/4. Software_WS/OL_VSC_vitor/Libraries/CMSIS/Include\cmsis_gcc.h ****  */
 937:F:/Projects/20190909 - 3phase_inverter/3phase_inverter/4. Software_WS/OL_VSC_vitor/Libraries/CMSIS/Include\cmsis_gcc.h **** __attribute__((always_inline)) __STATIC_INLINE uint32_t __LDREXW(volatile uint32_t *addr)
 938:F:/Projects/20190909 - 3phase_inverter/3phase_inverter/4. Software_WS/OL_VSC_vitor/Libraries/CMSIS/Include\cmsis_gcc.h **** {
 939:F:/Projects/20190909 - 3phase_inverter/3phase_inverter/4. Software_WS/OL_VSC_vitor/Libraries/CMSIS/Include\cmsis_gcc.h ****     uint32_t result;
 940:F:/Projects/20190909 - 3phase_inverter/3phase_inverter/4. Software_WS/OL_VSC_vitor/Libraries/CMSIS/Include\cmsis_gcc.h **** 
 941:F:/Projects/20190909 - 3phase_inverter/3phase_inverter/4. Software_WS/OL_VSC_vitor/Libraries/CMSIS/Include\cmsis_gcc.h ****    __ASM volatile ("ldrex %0, %1" : "=r" (result) : "Q" (*addr) );
 942:F:/Projects/20190909 - 3phase_inverter/3phase_inverter/4. Software_WS/OL_VSC_vitor/Libraries/CMSIS/Include\cmsis_gcc.h ****    return(result);
 943:F:/Projects/20190909 - 3phase_inverter/3phase_inverter/4. Software_WS/OL_VSC_vitor/Libraries/CMSIS/Include\cmsis_gcc.h **** }
 944:F:/Projects/20190909 - 3phase_inverter/3phase_inverter/4. Software_WS/OL_VSC_vitor/Libraries/CMSIS/Include\cmsis_gcc.h **** 
 945:F:/Projects/20190909 - 3phase_inverter/3phase_inverter/4. Software_WS/OL_VSC_vitor/Libraries/CMSIS/Include\cmsis_gcc.h **** 
 946:F:/Projects/20190909 - 3phase_inverter/3phase_inverter/4. Software_WS/OL_VSC_vitor/Libraries/CMSIS/Include\cmsis_gcc.h **** /**
 947:F:/Projects/20190909 - 3phase_inverter/3phase_inverter/4. Software_WS/OL_VSC_vitor/Libraries/CMSIS/Include\cmsis_gcc.h ****   \brief   STR Exclusive (8 bit)
 948:F:/Projects/20190909 - 3phase_inverter/3phase_inverter/4. Software_WS/OL_VSC_vitor/Libraries/CMSIS/Include\cmsis_gcc.h ****   \details Executes a exclusive STR instruction for 8 bit values.
 949:F:/Projects/20190909 - 3phase_inverter/3phase_inverter/4. Software_WS/OL_VSC_vitor/Libraries/CMSIS/Include\cmsis_gcc.h ****   \param [in]  value  Value to store
 950:F:/Projects/20190909 - 3phase_inverter/3phase_inverter/4. Software_WS/OL_VSC_vitor/Libraries/CMSIS/Include\cmsis_gcc.h ****   \param [in]    ptr  Pointer to location
 951:F:/Projects/20190909 - 3phase_inverter/3phase_inverter/4. Software_WS/OL_VSC_vitor/Libraries/CMSIS/Include\cmsis_gcc.h ****   \return          0  Function succeeded
 952:F:/Projects/20190909 - 3phase_inverter/3phase_inverter/4. Software_WS/OL_VSC_vitor/Libraries/CMSIS/Include\cmsis_gcc.h ****   \return          1  Function failed
 953:F:/Projects/20190909 - 3phase_inverter/3phase_inverter/4. Software_WS/OL_VSC_vitor/Libraries/CMSIS/Include\cmsis_gcc.h ****  */
 954:F:/Projects/20190909 - 3phase_inverter/3phase_inverter/4. Software_WS/OL_VSC_vitor/Libraries/CMSIS/Include\cmsis_gcc.h **** __attribute__((always_inline)) __STATIC_INLINE uint32_t __STREXB(uint8_t value, volatile uint8_t *a
 955:F:/Projects/20190909 - 3phase_inverter/3phase_inverter/4. Software_WS/OL_VSC_vitor/Libraries/CMSIS/Include\cmsis_gcc.h **** {
 956:F:/Projects/20190909 - 3phase_inverter/3phase_inverter/4. Software_WS/OL_VSC_vitor/Libraries/CMSIS/Include\cmsis_gcc.h ****    uint32_t result;
 957:F:/Projects/20190909 - 3phase_inverter/3phase_inverter/4. Software_WS/OL_VSC_vitor/Libraries/CMSIS/Include\cmsis_gcc.h **** 
 958:F:/Projects/20190909 - 3phase_inverter/3phase_inverter/4. Software_WS/OL_VSC_vitor/Libraries/CMSIS/Include\cmsis_gcc.h ****    __ASM volatile ("strexb %0, %2, %1" : "=&r" (result), "=Q" (*addr) : "r" ((uint32_t)value) );
 959:F:/Projects/20190909 - 3phase_inverter/3phase_inverter/4. Software_WS/OL_VSC_vitor/Libraries/CMSIS/Include\cmsis_gcc.h ****    return(result);
 960:F:/Projects/20190909 - 3phase_inverter/3phase_inverter/4. Software_WS/OL_VSC_vitor/Libraries/CMSIS/Include\cmsis_gcc.h **** }
 961:F:/Projects/20190909 - 3phase_inverter/3phase_inverter/4. Software_WS/OL_VSC_vitor/Libraries/CMSIS/Include\cmsis_gcc.h **** 
 962:F:/Projects/20190909 - 3phase_inverter/3phase_inverter/4. Software_WS/OL_VSC_vitor/Libraries/CMSIS/Include\cmsis_gcc.h **** 
 963:F:/Projects/20190909 - 3phase_inverter/3phase_inverter/4. Software_WS/OL_VSC_vitor/Libraries/CMSIS/Include\cmsis_gcc.h **** /**
 964:F:/Projects/20190909 - 3phase_inverter/3phase_inverter/4. Software_WS/OL_VSC_vitor/Libraries/CMSIS/Include\cmsis_gcc.h ****   \brief   STR Exclusive (16 bit)
 965:F:/Projects/20190909 - 3phase_inverter/3phase_inverter/4. Software_WS/OL_VSC_vitor/Libraries/CMSIS/Include\cmsis_gcc.h ****   \details Executes a exclusive STR instruction for 16 bit values.
 966:F:/Projects/20190909 - 3phase_inverter/3phase_inverter/4. Software_WS/OL_VSC_vitor/Libraries/CMSIS/Include\cmsis_gcc.h ****   \param [in]  value  Value to store
 967:F:/Projects/20190909 - 3phase_inverter/3phase_inverter/4. Software_WS/OL_VSC_vitor/Libraries/CMSIS/Include\cmsis_gcc.h ****   \param [in]    ptr  Pointer to location
 968:F:/Projects/20190909 - 3phase_inverter/3phase_inverter/4. Software_WS/OL_VSC_vitor/Libraries/CMSIS/Include\cmsis_gcc.h ****   \return          0  Function succeeded
 969:F:/Projects/20190909 - 3phase_inverter/3phase_inverter/4. Software_WS/OL_VSC_vitor/Libraries/CMSIS/Include\cmsis_gcc.h ****   \return          1  Function failed
 970:F:/Projects/20190909 - 3phase_inverter/3phase_inverter/4. Software_WS/OL_VSC_vitor/Libraries/CMSIS/Include\cmsis_gcc.h ****  */
 971:F:/Projects/20190909 - 3phase_inverter/3phase_inverter/4. Software_WS/OL_VSC_vitor/Libraries/CMSIS/Include\cmsis_gcc.h **** __attribute__((always_inline)) __STATIC_INLINE uint32_t __STREXH(uint16_t value, volatile uint16_t 
 972:F:/Projects/20190909 - 3phase_inverter/3phase_inverter/4. Software_WS/OL_VSC_vitor/Libraries/CMSIS/Include\cmsis_gcc.h **** {
 973:F:/Projects/20190909 - 3phase_inverter/3phase_inverter/4. Software_WS/OL_VSC_vitor/Libraries/CMSIS/Include\cmsis_gcc.h ****    uint32_t result;
 974:F:/Projects/20190909 - 3phase_inverter/3phase_inverter/4. Software_WS/OL_VSC_vitor/Libraries/CMSIS/Include\cmsis_gcc.h **** 
 975:F:/Projects/20190909 - 3phase_inverter/3phase_inverter/4. Software_WS/OL_VSC_vitor/Libraries/CMSIS/Include\cmsis_gcc.h ****    __ASM volatile ("strexh %0, %2, %1" : "=&r" (result), "=Q" (*addr) : "r" ((uint32_t)value) );
 976:F:/Projects/20190909 - 3phase_inverter/3phase_inverter/4. Software_WS/OL_VSC_vitor/Libraries/CMSIS/Include\cmsis_gcc.h ****    return(result);
 977:F:/Projects/20190909 - 3phase_inverter/3phase_inverter/4. Software_WS/OL_VSC_vitor/Libraries/CMSIS/Include\cmsis_gcc.h **** }
 978:F:/Projects/20190909 - 3phase_inverter/3phase_inverter/4. Software_WS/OL_VSC_vitor/Libraries/CMSIS/Include\cmsis_gcc.h **** 
 979:F:/Projects/20190909 - 3phase_inverter/3phase_inverter/4. Software_WS/OL_VSC_vitor/Libraries/CMSIS/Include\cmsis_gcc.h **** 
 980:F:/Projects/20190909 - 3phase_inverter/3phase_inverter/4. Software_WS/OL_VSC_vitor/Libraries/CMSIS/Include\cmsis_gcc.h **** /**
 981:F:/Projects/20190909 - 3phase_inverter/3phase_inverter/4. Software_WS/OL_VSC_vitor/Libraries/CMSIS/Include\cmsis_gcc.h ****   \brief   STR Exclusive (32 bit)
 982:F:/Projects/20190909 - 3phase_inverter/3phase_inverter/4. Software_WS/OL_VSC_vitor/Libraries/CMSIS/Include\cmsis_gcc.h ****   \details Executes a exclusive STR instruction for 32 bit values.
 983:F:/Projects/20190909 - 3phase_inverter/3phase_inverter/4. Software_WS/OL_VSC_vitor/Libraries/CMSIS/Include\cmsis_gcc.h ****   \param [in]  value  Value to store
 984:F:/Projects/20190909 - 3phase_inverter/3phase_inverter/4. Software_WS/OL_VSC_vitor/Libraries/CMSIS/Include\cmsis_gcc.h ****   \param [in]    ptr  Pointer to location
 985:F:/Projects/20190909 - 3phase_inverter/3phase_inverter/4. Software_WS/OL_VSC_vitor/Libraries/CMSIS/Include\cmsis_gcc.h ****   \return          0  Function succeeded
 986:F:/Projects/20190909 - 3phase_inverter/3phase_inverter/4. Software_WS/OL_VSC_vitor/Libraries/CMSIS/Include\cmsis_gcc.h ****   \return          1  Function failed
 987:F:/Projects/20190909 - 3phase_inverter/3phase_inverter/4. Software_WS/OL_VSC_vitor/Libraries/CMSIS/Include\cmsis_gcc.h ****  */
 988:F:/Projects/20190909 - 3phase_inverter/3phase_inverter/4. Software_WS/OL_VSC_vitor/Libraries/CMSIS/Include\cmsis_gcc.h **** __attribute__((always_inline)) __STATIC_INLINE uint32_t __STREXW(uint32_t value, volatile uint32_t 
 989:F:/Projects/20190909 - 3phase_inverter/3phase_inverter/4. Software_WS/OL_VSC_vitor/Libraries/CMSIS/Include\cmsis_gcc.h **** {
 990:F:/Projects/20190909 - 3phase_inverter/3phase_inverter/4. Software_WS/OL_VSC_vitor/Libraries/CMSIS/Include\cmsis_gcc.h ****    uint32_t result;
 991:F:/Projects/20190909 - 3phase_inverter/3phase_inverter/4. Software_WS/OL_VSC_vitor/Libraries/CMSIS/Include\cmsis_gcc.h **** 
 992:F:/Projects/20190909 - 3phase_inverter/3phase_inverter/4. Software_WS/OL_VSC_vitor/Libraries/CMSIS/Include\cmsis_gcc.h ****    __ASM volatile ("strex %0, %2, %1" : "=&r" (result), "=Q" (*addr) : "r" (value) );
 993:F:/Projects/20190909 - 3phase_inverter/3phase_inverter/4. Software_WS/OL_VSC_vitor/Libraries/CMSIS/Include\cmsis_gcc.h ****    return(result);
 994:F:/Projects/20190909 - 3phase_inverter/3phase_inverter/4. Software_WS/OL_VSC_vitor/Libraries/CMSIS/Include\cmsis_gcc.h **** }
 995:F:/Projects/20190909 - 3phase_inverter/3phase_inverter/4. Software_WS/OL_VSC_vitor/Libraries/CMSIS/Include\cmsis_gcc.h **** 
 996:F:/Projects/20190909 - 3phase_inverter/3phase_inverter/4. Software_WS/OL_VSC_vitor/Libraries/CMSIS/Include\cmsis_gcc.h **** 
 997:F:/Projects/20190909 - 3phase_inverter/3phase_inverter/4. Software_WS/OL_VSC_vitor/Libraries/CMSIS/Include\cmsis_gcc.h **** /**
 998:F:/Projects/20190909 - 3phase_inverter/3phase_inverter/4. Software_WS/OL_VSC_vitor/Libraries/CMSIS/Include\cmsis_gcc.h ****   \brief   Remove the exclusive lock
 999:F:/Projects/20190909 - 3phase_inverter/3phase_inverter/4. Software_WS/OL_VSC_vitor/Libraries/CMSIS/Include\cmsis_gcc.h ****   \details Removes the exclusive lock which is created by LDREX.
1000:F:/Projects/20190909 - 3phase_inverter/3phase_inverter/4. Software_WS/OL_VSC_vitor/Libraries/CMSIS/Include\cmsis_gcc.h ****  */
1001:F:/Projects/20190909 - 3phase_inverter/3phase_inverter/4. Software_WS/OL_VSC_vitor/Libraries/CMSIS/Include\cmsis_gcc.h **** __attribute__((always_inline)) __STATIC_INLINE void __CLREX(void)
1002:F:/Projects/20190909 - 3phase_inverter/3phase_inverter/4. Software_WS/OL_VSC_vitor/Libraries/CMSIS/Include\cmsis_gcc.h **** {
1003:F:/Projects/20190909 - 3phase_inverter/3phase_inverter/4. Software_WS/OL_VSC_vitor/Libraries/CMSIS/Include\cmsis_gcc.h ****   __ASM volatile ("clrex" ::: "memory");
1004:F:/Projects/20190909 - 3phase_inverter/3phase_inverter/4. Software_WS/OL_VSC_vitor/Libraries/CMSIS/Include\cmsis_gcc.h **** }
1005:F:/Projects/20190909 - 3phase_inverter/3phase_inverter/4. Software_WS/OL_VSC_vitor/Libraries/CMSIS/Include\cmsis_gcc.h **** 
1006:F:/Projects/20190909 - 3phase_inverter/3phase_inverter/4. Software_WS/OL_VSC_vitor/Libraries/CMSIS/Include\cmsis_gcc.h **** #endif /* ((defined (__ARM_ARCH_7M__      ) && (__ARM_ARCH_7M__      == 1)) || \
1007:F:/Projects/20190909 - 3phase_inverter/3phase_inverter/4. Software_WS/OL_VSC_vitor/Libraries/CMSIS/Include\cmsis_gcc.h ****            (defined (__ARM_ARCH_7EM__     ) && (__ARM_ARCH_7EM__     == 1)) || \
1008:F:/Projects/20190909 - 3phase_inverter/3phase_inverter/4. Software_WS/OL_VSC_vitor/Libraries/CMSIS/Include\cmsis_gcc.h ****            (defined (__ARM_ARCH_8M_MAIN__ ) && (__ARM_ARCH_8M_MAIN__ == 1)) || \
1009:F:/Projects/20190909 - 3phase_inverter/3phase_inverter/4. Software_WS/OL_VSC_vitor/Libraries/CMSIS/Include\cmsis_gcc.h ****            (defined (__ARM_ARCH_8M_BASE__ ) && (__ARM_ARCH_8M_BASE__ == 1))    ) */
1010:F:/Projects/20190909 - 3phase_inverter/3phase_inverter/4. Software_WS/OL_VSC_vitor/Libraries/CMSIS/Include\cmsis_gcc.h **** 
1011:F:/Projects/20190909 - 3phase_inverter/3phase_inverter/4. Software_WS/OL_VSC_vitor/Libraries/CMSIS/Include\cmsis_gcc.h **** 
1012:F:/Projects/20190909 - 3phase_inverter/3phase_inverter/4. Software_WS/OL_VSC_vitor/Libraries/CMSIS/Include\cmsis_gcc.h **** #if ((defined (__ARM_ARCH_7M__      ) && (__ARM_ARCH_7M__      == 1)) || \
1013:F:/Projects/20190909 - 3phase_inverter/3phase_inverter/4. Software_WS/OL_VSC_vitor/Libraries/CMSIS/Include\cmsis_gcc.h ****      (defined (__ARM_ARCH_7EM__     ) && (__ARM_ARCH_7EM__     == 1)) || \
1014:F:/Projects/20190909 - 3phase_inverter/3phase_inverter/4. Software_WS/OL_VSC_vitor/Libraries/CMSIS/Include\cmsis_gcc.h ****      (defined (__ARM_ARCH_8M_MAIN__ ) && (__ARM_ARCH_8M_MAIN__ == 1))    )
1015:F:/Projects/20190909 - 3phase_inverter/3phase_inverter/4. Software_WS/OL_VSC_vitor/Libraries/CMSIS/Include\cmsis_gcc.h **** /**
1016:F:/Projects/20190909 - 3phase_inverter/3phase_inverter/4. Software_WS/OL_VSC_vitor/Libraries/CMSIS/Include\cmsis_gcc.h ****   \brief   Signed Saturate
1017:F:/Projects/20190909 - 3phase_inverter/3phase_inverter/4. Software_WS/OL_VSC_vitor/Libraries/CMSIS/Include\cmsis_gcc.h ****   \details Saturates a signed value.
1018:F:/Projects/20190909 - 3phase_inverter/3phase_inverter/4. Software_WS/OL_VSC_vitor/Libraries/CMSIS/Include\cmsis_gcc.h ****   \param [in]  value  Value to be saturated
1019:F:/Projects/20190909 - 3phase_inverter/3phase_inverter/4. Software_WS/OL_VSC_vitor/Libraries/CMSIS/Include\cmsis_gcc.h ****   \param [in]    sat  Bit position to saturate to (1..32)
1020:F:/Projects/20190909 - 3phase_inverter/3phase_inverter/4. Software_WS/OL_VSC_vitor/Libraries/CMSIS/Include\cmsis_gcc.h ****   \return             Saturated value
1021:F:/Projects/20190909 - 3phase_inverter/3phase_inverter/4. Software_WS/OL_VSC_vitor/Libraries/CMSIS/Include\cmsis_gcc.h ****  */
1022:F:/Projects/20190909 - 3phase_inverter/3phase_inverter/4. Software_WS/OL_VSC_vitor/Libraries/CMSIS/Include\cmsis_gcc.h **** #define __SSAT(ARG1,ARG2) \
1023:F:/Projects/20190909 - 3phase_inverter/3phase_inverter/4. Software_WS/OL_VSC_vitor/Libraries/CMSIS/Include\cmsis_gcc.h **** ({                          \
1024:F:/Projects/20190909 - 3phase_inverter/3phase_inverter/4. Software_WS/OL_VSC_vitor/Libraries/CMSIS/Include\cmsis_gcc.h ****   int32_t __RES, __ARG1 = (ARG1); \
1025:F:/Projects/20190909 - 3phase_inverter/3phase_inverter/4. Software_WS/OL_VSC_vitor/Libraries/CMSIS/Include\cmsis_gcc.h ****   __ASM ("ssat %0, %1, %2" : "=r" (__RES) :  "I" (ARG2), "r" (__ARG1) ); \
1026:F:/Projects/20190909 - 3phase_inverter/3phase_inverter/4. Software_WS/OL_VSC_vitor/Libraries/CMSIS/Include\cmsis_gcc.h ****   __RES; \
1027:F:/Projects/20190909 - 3phase_inverter/3phase_inverter/4. Software_WS/OL_VSC_vitor/Libraries/CMSIS/Include\cmsis_gcc.h ****  })
1028:F:/Projects/20190909 - 3phase_inverter/3phase_inverter/4. Software_WS/OL_VSC_vitor/Libraries/CMSIS/Include\cmsis_gcc.h **** 
1029:F:/Projects/20190909 - 3phase_inverter/3phase_inverter/4. Software_WS/OL_VSC_vitor/Libraries/CMSIS/Include\cmsis_gcc.h **** 
1030:F:/Projects/20190909 - 3phase_inverter/3phase_inverter/4. Software_WS/OL_VSC_vitor/Libraries/CMSIS/Include\cmsis_gcc.h **** /**
1031:F:/Projects/20190909 - 3phase_inverter/3phase_inverter/4. Software_WS/OL_VSC_vitor/Libraries/CMSIS/Include\cmsis_gcc.h ****   \brief   Unsigned Saturate
1032:F:/Projects/20190909 - 3phase_inverter/3phase_inverter/4. Software_WS/OL_VSC_vitor/Libraries/CMSIS/Include\cmsis_gcc.h ****   \details Saturates an unsigned value.
1033:F:/Projects/20190909 - 3phase_inverter/3phase_inverter/4. Software_WS/OL_VSC_vitor/Libraries/CMSIS/Include\cmsis_gcc.h ****   \param [in]  value  Value to be saturated
1034:F:/Projects/20190909 - 3phase_inverter/3phase_inverter/4. Software_WS/OL_VSC_vitor/Libraries/CMSIS/Include\cmsis_gcc.h ****   \param [in]    sat  Bit position to saturate to (0..31)
1035:F:/Projects/20190909 - 3phase_inverter/3phase_inverter/4. Software_WS/OL_VSC_vitor/Libraries/CMSIS/Include\cmsis_gcc.h ****   \return             Saturated value
1036:F:/Projects/20190909 - 3phase_inverter/3phase_inverter/4. Software_WS/OL_VSC_vitor/Libraries/CMSIS/Include\cmsis_gcc.h ****  */
1037:F:/Projects/20190909 - 3phase_inverter/3phase_inverter/4. Software_WS/OL_VSC_vitor/Libraries/CMSIS/Include\cmsis_gcc.h **** #define __USAT(ARG1,ARG2) \
1038:F:/Projects/20190909 - 3phase_inverter/3phase_inverter/4. Software_WS/OL_VSC_vitor/Libraries/CMSIS/Include\cmsis_gcc.h **** ({                          \
1039:F:/Projects/20190909 - 3phase_inverter/3phase_inverter/4. Software_WS/OL_VSC_vitor/Libraries/CMSIS/Include\cmsis_gcc.h ****   uint32_t __RES, __ARG1 = (ARG1); \
1040:F:/Projects/20190909 - 3phase_inverter/3phase_inverter/4. Software_WS/OL_VSC_vitor/Libraries/CMSIS/Include\cmsis_gcc.h ****   __ASM ("usat %0, %1, %2" : "=r" (__RES) :  "I" (ARG2), "r" (__ARG1) ); \
1041:F:/Projects/20190909 - 3phase_inverter/3phase_inverter/4. Software_WS/OL_VSC_vitor/Libraries/CMSIS/Include\cmsis_gcc.h ****   __RES; \
1042:F:/Projects/20190909 - 3phase_inverter/3phase_inverter/4. Software_WS/OL_VSC_vitor/Libraries/CMSIS/Include\cmsis_gcc.h ****  })
1043:F:/Projects/20190909 - 3phase_inverter/3phase_inverter/4. Software_WS/OL_VSC_vitor/Libraries/CMSIS/Include\cmsis_gcc.h **** 
1044:F:/Projects/20190909 - 3phase_inverter/3phase_inverter/4. Software_WS/OL_VSC_vitor/Libraries/CMSIS/Include\cmsis_gcc.h **** 
1045:F:/Projects/20190909 - 3phase_inverter/3phase_inverter/4. Software_WS/OL_VSC_vitor/Libraries/CMSIS/Include\cmsis_gcc.h **** /**
1046:F:/Projects/20190909 - 3phase_inverter/3phase_inverter/4. Software_WS/OL_VSC_vitor/Libraries/CMSIS/Include\cmsis_gcc.h ****   \brief   Rotate Right with Extend (32 bit)
1047:F:/Projects/20190909 - 3phase_inverter/3phase_inverter/4. Software_WS/OL_VSC_vitor/Libraries/CMSIS/Include\cmsis_gcc.h ****   \details Moves each bit of a bitstring right by one bit.
1048:F:/Projects/20190909 - 3phase_inverter/3phase_inverter/4. Software_WS/OL_VSC_vitor/Libraries/CMSIS/Include\cmsis_gcc.h ****            The carry input is shifted in at the left end of the bitstring.
1049:F:/Projects/20190909 - 3phase_inverter/3phase_inverter/4. Software_WS/OL_VSC_vitor/Libraries/CMSIS/Include\cmsis_gcc.h ****   \param [in]    value  Value to rotate
1050:F:/Projects/20190909 - 3phase_inverter/3phase_inverter/4. Software_WS/OL_VSC_vitor/Libraries/CMSIS/Include\cmsis_gcc.h ****   \return               Rotated value
1051:F:/Projects/20190909 - 3phase_inverter/3phase_inverter/4. Software_WS/OL_VSC_vitor/Libraries/CMSIS/Include\cmsis_gcc.h ****  */
1052:F:/Projects/20190909 - 3phase_inverter/3phase_inverter/4. Software_WS/OL_VSC_vitor/Libraries/CMSIS/Include\cmsis_gcc.h **** __attribute__((always_inline)) __STATIC_INLINE uint32_t __RRX(uint32_t value)
1053:F:/Projects/20190909 - 3phase_inverter/3phase_inverter/4. Software_WS/OL_VSC_vitor/Libraries/CMSIS/Include\cmsis_gcc.h **** {
1054:F:/Projects/20190909 - 3phase_inverter/3phase_inverter/4. Software_WS/OL_VSC_vitor/Libraries/CMSIS/Include\cmsis_gcc.h ****   uint32_t result;
1055:F:/Projects/20190909 - 3phase_inverter/3phase_inverter/4. Software_WS/OL_VSC_vitor/Libraries/CMSIS/Include\cmsis_gcc.h **** 
1056:F:/Projects/20190909 - 3phase_inverter/3phase_inverter/4. Software_WS/OL_VSC_vitor/Libraries/CMSIS/Include\cmsis_gcc.h ****   __ASM volatile ("rrx %0, %1" : __CMSIS_GCC_OUT_REG (result) : __CMSIS_GCC_USE_REG (value) );
1057:F:/Projects/20190909 - 3phase_inverter/3phase_inverter/4. Software_WS/OL_VSC_vitor/Libraries/CMSIS/Include\cmsis_gcc.h ****   return(result);
1058:F:/Projects/20190909 - 3phase_inverter/3phase_inverter/4. Software_WS/OL_VSC_vitor/Libraries/CMSIS/Include\cmsis_gcc.h **** }
1059:F:/Projects/20190909 - 3phase_inverter/3phase_inverter/4. Software_WS/OL_VSC_vitor/Libraries/CMSIS/Include\cmsis_gcc.h **** 
1060:F:/Projects/20190909 - 3phase_inverter/3phase_inverter/4. Software_WS/OL_VSC_vitor/Libraries/CMSIS/Include\cmsis_gcc.h **** 
1061:F:/Projects/20190909 - 3phase_inverter/3phase_inverter/4. Software_WS/OL_VSC_vitor/Libraries/CMSIS/Include\cmsis_gcc.h **** /**
1062:F:/Projects/20190909 - 3phase_inverter/3phase_inverter/4. Software_WS/OL_VSC_vitor/Libraries/CMSIS/Include\cmsis_gcc.h ****   \brief   LDRT Unprivileged (8 bit)
1063:F:/Projects/20190909 - 3phase_inverter/3phase_inverter/4. Software_WS/OL_VSC_vitor/Libraries/CMSIS/Include\cmsis_gcc.h ****   \details Executes a Unprivileged LDRT instruction for 8 bit value.
1064:F:/Projects/20190909 - 3phase_inverter/3phase_inverter/4. Software_WS/OL_VSC_vitor/Libraries/CMSIS/Include\cmsis_gcc.h ****   \param [in]    ptr  Pointer to data
1065:F:/Projects/20190909 - 3phase_inverter/3phase_inverter/4. Software_WS/OL_VSC_vitor/Libraries/CMSIS/Include\cmsis_gcc.h ****   \return             value of type uint8_t at (*ptr)
1066:F:/Projects/20190909 - 3phase_inverter/3phase_inverter/4. Software_WS/OL_VSC_vitor/Libraries/CMSIS/Include\cmsis_gcc.h ****  */
1067:F:/Projects/20190909 - 3phase_inverter/3phase_inverter/4. Software_WS/OL_VSC_vitor/Libraries/CMSIS/Include\cmsis_gcc.h **** __attribute__((always_inline)) __STATIC_INLINE uint8_t __LDRBT(volatile uint8_t *ptr)
1068:F:/Projects/20190909 - 3phase_inverter/3phase_inverter/4. Software_WS/OL_VSC_vitor/Libraries/CMSIS/Include\cmsis_gcc.h **** {
1069:F:/Projects/20190909 - 3phase_inverter/3phase_inverter/4. Software_WS/OL_VSC_vitor/Libraries/CMSIS/Include\cmsis_gcc.h ****     uint32_t result;
1070:F:/Projects/20190909 - 3phase_inverter/3phase_inverter/4. Software_WS/OL_VSC_vitor/Libraries/CMSIS/Include\cmsis_gcc.h **** 
1071:F:/Projects/20190909 - 3phase_inverter/3phase_inverter/4. Software_WS/OL_VSC_vitor/Libraries/CMSIS/Include\cmsis_gcc.h **** #if (__GNUC__ > 4) || (__GNUC__ == 4 && __GNUC_MINOR__ >= 8)
1072:F:/Projects/20190909 - 3phase_inverter/3phase_inverter/4. Software_WS/OL_VSC_vitor/Libraries/CMSIS/Include\cmsis_gcc.h ****    __ASM volatile ("ldrbt %0, %1" : "=r" (result) : "Q" (*ptr) );
1073:F:/Projects/20190909 - 3phase_inverter/3phase_inverter/4. Software_WS/OL_VSC_vitor/Libraries/CMSIS/Include\cmsis_gcc.h **** #else
1074:F:/Projects/20190909 - 3phase_inverter/3phase_inverter/4. Software_WS/OL_VSC_vitor/Libraries/CMSIS/Include\cmsis_gcc.h ****     /* Prior to GCC 4.8, "Q" will be expanded to [rx, #0] which is not
1075:F:/Projects/20190909 - 3phase_inverter/3phase_inverter/4. Software_WS/OL_VSC_vitor/Libraries/CMSIS/Include\cmsis_gcc.h ****        accepted by assembler. So has to use following less efficient pattern.
1076:F:/Projects/20190909 - 3phase_inverter/3phase_inverter/4. Software_WS/OL_VSC_vitor/Libraries/CMSIS/Include\cmsis_gcc.h ****     */
1077:F:/Projects/20190909 - 3phase_inverter/3phase_inverter/4. Software_WS/OL_VSC_vitor/Libraries/CMSIS/Include\cmsis_gcc.h ****    __ASM volatile ("ldrbt %0, [%1]" : "=r" (result) : "r" (ptr) : "memory" );
1078:F:/Projects/20190909 - 3phase_inverter/3phase_inverter/4. Software_WS/OL_VSC_vitor/Libraries/CMSIS/Include\cmsis_gcc.h **** #endif
1079:F:/Projects/20190909 - 3phase_inverter/3phase_inverter/4. Software_WS/OL_VSC_vitor/Libraries/CMSIS/Include\cmsis_gcc.h ****    return ((uint8_t) result);    /* Add explicit type cast here */
1080:F:/Projects/20190909 - 3phase_inverter/3phase_inverter/4. Software_WS/OL_VSC_vitor/Libraries/CMSIS/Include\cmsis_gcc.h **** }
1081:F:/Projects/20190909 - 3phase_inverter/3phase_inverter/4. Software_WS/OL_VSC_vitor/Libraries/CMSIS/Include\cmsis_gcc.h **** 
1082:F:/Projects/20190909 - 3phase_inverter/3phase_inverter/4. Software_WS/OL_VSC_vitor/Libraries/CMSIS/Include\cmsis_gcc.h **** 
1083:F:/Projects/20190909 - 3phase_inverter/3phase_inverter/4. Software_WS/OL_VSC_vitor/Libraries/CMSIS/Include\cmsis_gcc.h **** /**
1084:F:/Projects/20190909 - 3phase_inverter/3phase_inverter/4. Software_WS/OL_VSC_vitor/Libraries/CMSIS/Include\cmsis_gcc.h ****   \brief   LDRT Unprivileged (16 bit)
1085:F:/Projects/20190909 - 3phase_inverter/3phase_inverter/4. Software_WS/OL_VSC_vitor/Libraries/CMSIS/Include\cmsis_gcc.h ****   \details Executes a Unprivileged LDRT instruction for 16 bit values.
1086:F:/Projects/20190909 - 3phase_inverter/3phase_inverter/4. Software_WS/OL_VSC_vitor/Libraries/CMSIS/Include\cmsis_gcc.h ****   \param [in]    ptr  Pointer to data
1087:F:/Projects/20190909 - 3phase_inverter/3phase_inverter/4. Software_WS/OL_VSC_vitor/Libraries/CMSIS/Include\cmsis_gcc.h ****   \return        value of type uint16_t at (*ptr)
1088:F:/Projects/20190909 - 3phase_inverter/3phase_inverter/4. Software_WS/OL_VSC_vitor/Libraries/CMSIS/Include\cmsis_gcc.h ****  */
1089:F:/Projects/20190909 - 3phase_inverter/3phase_inverter/4. Software_WS/OL_VSC_vitor/Libraries/CMSIS/Include\cmsis_gcc.h **** __attribute__((always_inline)) __STATIC_INLINE uint16_t __LDRHT(volatile uint16_t *ptr)
1090:F:/Projects/20190909 - 3phase_inverter/3phase_inverter/4. Software_WS/OL_VSC_vitor/Libraries/CMSIS/Include\cmsis_gcc.h **** {
1091:F:/Projects/20190909 - 3phase_inverter/3phase_inverter/4. Software_WS/OL_VSC_vitor/Libraries/CMSIS/Include\cmsis_gcc.h ****     uint32_t result;
1092:F:/Projects/20190909 - 3phase_inverter/3phase_inverter/4. Software_WS/OL_VSC_vitor/Libraries/CMSIS/Include\cmsis_gcc.h **** 
1093:F:/Projects/20190909 - 3phase_inverter/3phase_inverter/4. Software_WS/OL_VSC_vitor/Libraries/CMSIS/Include\cmsis_gcc.h **** #if (__GNUC__ > 4) || (__GNUC__ == 4 && __GNUC_MINOR__ >= 8)
1094:F:/Projects/20190909 - 3phase_inverter/3phase_inverter/4. Software_WS/OL_VSC_vitor/Libraries/CMSIS/Include\cmsis_gcc.h ****    __ASM volatile ("ldrht %0, %1" : "=r" (result) : "Q" (*ptr) );
1095:F:/Projects/20190909 - 3phase_inverter/3phase_inverter/4. Software_WS/OL_VSC_vitor/Libraries/CMSIS/Include\cmsis_gcc.h **** #else
1096:F:/Projects/20190909 - 3phase_inverter/3phase_inverter/4. Software_WS/OL_VSC_vitor/Libraries/CMSIS/Include\cmsis_gcc.h ****     /* Prior to GCC 4.8, "Q" will be expanded to [rx, #0] which is not
1097:F:/Projects/20190909 - 3phase_inverter/3phase_inverter/4. Software_WS/OL_VSC_vitor/Libraries/CMSIS/Include\cmsis_gcc.h ****        accepted by assembler. So has to use following less efficient pattern.
1098:F:/Projects/20190909 - 3phase_inverter/3phase_inverter/4. Software_WS/OL_VSC_vitor/Libraries/CMSIS/Include\cmsis_gcc.h ****     */
1099:F:/Projects/20190909 - 3phase_inverter/3phase_inverter/4. Software_WS/OL_VSC_vitor/Libraries/CMSIS/Include\cmsis_gcc.h ****    __ASM volatile ("ldrht %0, [%1]" : "=r" (result) : "r" (ptr) : "memory" );
1100:F:/Projects/20190909 - 3phase_inverter/3phase_inverter/4. Software_WS/OL_VSC_vitor/Libraries/CMSIS/Include\cmsis_gcc.h **** #endif
1101:F:/Projects/20190909 - 3phase_inverter/3phase_inverter/4. Software_WS/OL_VSC_vitor/Libraries/CMSIS/Include\cmsis_gcc.h ****    return ((uint16_t) result);    /* Add explicit type cast here */
1102:F:/Projects/20190909 - 3phase_inverter/3phase_inverter/4. Software_WS/OL_VSC_vitor/Libraries/CMSIS/Include\cmsis_gcc.h **** }
1103:F:/Projects/20190909 - 3phase_inverter/3phase_inverter/4. Software_WS/OL_VSC_vitor/Libraries/CMSIS/Include\cmsis_gcc.h **** 
1104:F:/Projects/20190909 - 3phase_inverter/3phase_inverter/4. Software_WS/OL_VSC_vitor/Libraries/CMSIS/Include\cmsis_gcc.h **** 
1105:F:/Projects/20190909 - 3phase_inverter/3phase_inverter/4. Software_WS/OL_VSC_vitor/Libraries/CMSIS/Include\cmsis_gcc.h **** /**
1106:F:/Projects/20190909 - 3phase_inverter/3phase_inverter/4. Software_WS/OL_VSC_vitor/Libraries/CMSIS/Include\cmsis_gcc.h ****   \brief   LDRT Unprivileged (32 bit)
1107:F:/Projects/20190909 - 3phase_inverter/3phase_inverter/4. Software_WS/OL_VSC_vitor/Libraries/CMSIS/Include\cmsis_gcc.h ****   \details Executes a Unprivileged LDRT instruction for 32 bit values.
1108:F:/Projects/20190909 - 3phase_inverter/3phase_inverter/4. Software_WS/OL_VSC_vitor/Libraries/CMSIS/Include\cmsis_gcc.h ****   \param [in]    ptr  Pointer to data
1109:F:/Projects/20190909 - 3phase_inverter/3phase_inverter/4. Software_WS/OL_VSC_vitor/Libraries/CMSIS/Include\cmsis_gcc.h ****   \return        value of type uint32_t at (*ptr)
1110:F:/Projects/20190909 - 3phase_inverter/3phase_inverter/4. Software_WS/OL_VSC_vitor/Libraries/CMSIS/Include\cmsis_gcc.h ****  */
1111:F:/Projects/20190909 - 3phase_inverter/3phase_inverter/4. Software_WS/OL_VSC_vitor/Libraries/CMSIS/Include\cmsis_gcc.h **** __attribute__((always_inline)) __STATIC_INLINE uint32_t __LDRT(volatile uint32_t *ptr)
1112:F:/Projects/20190909 - 3phase_inverter/3phase_inverter/4. Software_WS/OL_VSC_vitor/Libraries/CMSIS/Include\cmsis_gcc.h **** {
1113:F:/Projects/20190909 - 3phase_inverter/3phase_inverter/4. Software_WS/OL_VSC_vitor/Libraries/CMSIS/Include\cmsis_gcc.h ****     uint32_t result;
1114:F:/Projects/20190909 - 3phase_inverter/3phase_inverter/4. Software_WS/OL_VSC_vitor/Libraries/CMSIS/Include\cmsis_gcc.h **** 
1115:F:/Projects/20190909 - 3phase_inverter/3phase_inverter/4. Software_WS/OL_VSC_vitor/Libraries/CMSIS/Include\cmsis_gcc.h ****    __ASM volatile ("ldrt %0, %1" : "=r" (result) : "Q" (*ptr) );
1116:F:/Projects/20190909 - 3phase_inverter/3phase_inverter/4. Software_WS/OL_VSC_vitor/Libraries/CMSIS/Include\cmsis_gcc.h ****    return(result);
1117:F:/Projects/20190909 - 3phase_inverter/3phase_inverter/4. Software_WS/OL_VSC_vitor/Libraries/CMSIS/Include\cmsis_gcc.h **** }
1118:F:/Projects/20190909 - 3phase_inverter/3phase_inverter/4. Software_WS/OL_VSC_vitor/Libraries/CMSIS/Include\cmsis_gcc.h **** 
1119:F:/Projects/20190909 - 3phase_inverter/3phase_inverter/4. Software_WS/OL_VSC_vitor/Libraries/CMSIS/Include\cmsis_gcc.h **** 
1120:F:/Projects/20190909 - 3phase_inverter/3phase_inverter/4. Software_WS/OL_VSC_vitor/Libraries/CMSIS/Include\cmsis_gcc.h **** /**
1121:F:/Projects/20190909 - 3phase_inverter/3phase_inverter/4. Software_WS/OL_VSC_vitor/Libraries/CMSIS/Include\cmsis_gcc.h ****   \brief   STRT Unprivileged (8 bit)
1122:F:/Projects/20190909 - 3phase_inverter/3phase_inverter/4. Software_WS/OL_VSC_vitor/Libraries/CMSIS/Include\cmsis_gcc.h ****   \details Executes a Unprivileged STRT instruction for 8 bit values.
1123:F:/Projects/20190909 - 3phase_inverter/3phase_inverter/4. Software_WS/OL_VSC_vitor/Libraries/CMSIS/Include\cmsis_gcc.h ****   \param [in]  value  Value to store
1124:F:/Projects/20190909 - 3phase_inverter/3phase_inverter/4. Software_WS/OL_VSC_vitor/Libraries/CMSIS/Include\cmsis_gcc.h ****   \param [in]    ptr  Pointer to location
1125:F:/Projects/20190909 - 3phase_inverter/3phase_inverter/4. Software_WS/OL_VSC_vitor/Libraries/CMSIS/Include\cmsis_gcc.h ****  */
1126:F:/Projects/20190909 - 3phase_inverter/3phase_inverter/4. Software_WS/OL_VSC_vitor/Libraries/CMSIS/Include\cmsis_gcc.h **** __attribute__((always_inline)) __STATIC_INLINE void __STRBT(uint8_t value, volatile uint8_t *ptr)
1127:F:/Projects/20190909 - 3phase_inverter/3phase_inverter/4. Software_WS/OL_VSC_vitor/Libraries/CMSIS/Include\cmsis_gcc.h **** {
1128:F:/Projects/20190909 - 3phase_inverter/3phase_inverter/4. Software_WS/OL_VSC_vitor/Libraries/CMSIS/Include\cmsis_gcc.h ****    __ASM volatile ("strbt %1, %0" : "=Q" (*ptr) : "r" ((uint32_t)value) );
1129:F:/Projects/20190909 - 3phase_inverter/3phase_inverter/4. Software_WS/OL_VSC_vitor/Libraries/CMSIS/Include\cmsis_gcc.h **** }
1130:F:/Projects/20190909 - 3phase_inverter/3phase_inverter/4. Software_WS/OL_VSC_vitor/Libraries/CMSIS/Include\cmsis_gcc.h **** 
1131:F:/Projects/20190909 - 3phase_inverter/3phase_inverter/4. Software_WS/OL_VSC_vitor/Libraries/CMSIS/Include\cmsis_gcc.h **** 
1132:F:/Projects/20190909 - 3phase_inverter/3phase_inverter/4. Software_WS/OL_VSC_vitor/Libraries/CMSIS/Include\cmsis_gcc.h **** /**
1133:F:/Projects/20190909 - 3phase_inverter/3phase_inverter/4. Software_WS/OL_VSC_vitor/Libraries/CMSIS/Include\cmsis_gcc.h ****   \brief   STRT Unprivileged (16 bit)
1134:F:/Projects/20190909 - 3phase_inverter/3phase_inverter/4. Software_WS/OL_VSC_vitor/Libraries/CMSIS/Include\cmsis_gcc.h ****   \details Executes a Unprivileged STRT instruction for 16 bit values.
1135:F:/Projects/20190909 - 3phase_inverter/3phase_inverter/4. Software_WS/OL_VSC_vitor/Libraries/CMSIS/Include\cmsis_gcc.h ****   \param [in]  value  Value to store
1136:F:/Projects/20190909 - 3phase_inverter/3phase_inverter/4. Software_WS/OL_VSC_vitor/Libraries/CMSIS/Include\cmsis_gcc.h ****   \param [in]    ptr  Pointer to location
1137:F:/Projects/20190909 - 3phase_inverter/3phase_inverter/4. Software_WS/OL_VSC_vitor/Libraries/CMSIS/Include\cmsis_gcc.h ****  */
1138:F:/Projects/20190909 - 3phase_inverter/3phase_inverter/4. Software_WS/OL_VSC_vitor/Libraries/CMSIS/Include\cmsis_gcc.h **** __attribute__((always_inline)) __STATIC_INLINE void __STRHT(uint16_t value, volatile uint16_t *ptr)
1139:F:/Projects/20190909 - 3phase_inverter/3phase_inverter/4. Software_WS/OL_VSC_vitor/Libraries/CMSIS/Include\cmsis_gcc.h **** {
1140:F:/Projects/20190909 - 3phase_inverter/3phase_inverter/4. Software_WS/OL_VSC_vitor/Libraries/CMSIS/Include\cmsis_gcc.h ****    __ASM volatile ("strht %1, %0" : "=Q" (*ptr) : "r" ((uint32_t)value) );
1141:F:/Projects/20190909 - 3phase_inverter/3phase_inverter/4. Software_WS/OL_VSC_vitor/Libraries/CMSIS/Include\cmsis_gcc.h **** }
1142:F:/Projects/20190909 - 3phase_inverter/3phase_inverter/4. Software_WS/OL_VSC_vitor/Libraries/CMSIS/Include\cmsis_gcc.h **** 
1143:F:/Projects/20190909 - 3phase_inverter/3phase_inverter/4. Software_WS/OL_VSC_vitor/Libraries/CMSIS/Include\cmsis_gcc.h **** 
1144:F:/Projects/20190909 - 3phase_inverter/3phase_inverter/4. Software_WS/OL_VSC_vitor/Libraries/CMSIS/Include\cmsis_gcc.h **** /**
1145:F:/Projects/20190909 - 3phase_inverter/3phase_inverter/4. Software_WS/OL_VSC_vitor/Libraries/CMSIS/Include\cmsis_gcc.h ****   \brief   STRT Unprivileged (32 bit)
1146:F:/Projects/20190909 - 3phase_inverter/3phase_inverter/4. Software_WS/OL_VSC_vitor/Libraries/CMSIS/Include\cmsis_gcc.h ****   \details Executes a Unprivileged STRT instruction for 32 bit values.
1147:F:/Projects/20190909 - 3phase_inverter/3phase_inverter/4. Software_WS/OL_VSC_vitor/Libraries/CMSIS/Include\cmsis_gcc.h ****   \param [in]  value  Value to store
1148:F:/Projects/20190909 - 3phase_inverter/3phase_inverter/4. Software_WS/OL_VSC_vitor/Libraries/CMSIS/Include\cmsis_gcc.h ****   \param [in]    ptr  Pointer to location
1149:F:/Projects/20190909 - 3phase_inverter/3phase_inverter/4. Software_WS/OL_VSC_vitor/Libraries/CMSIS/Include\cmsis_gcc.h ****  */
1150:F:/Projects/20190909 - 3phase_inverter/3phase_inverter/4. Software_WS/OL_VSC_vitor/Libraries/CMSIS/Include\cmsis_gcc.h **** __attribute__((always_inline)) __STATIC_INLINE void __STRT(uint32_t value, volatile uint32_t *ptr)
1151:F:/Projects/20190909 - 3phase_inverter/3phase_inverter/4. Software_WS/OL_VSC_vitor/Libraries/CMSIS/Include\cmsis_gcc.h **** {
1152:F:/Projects/20190909 - 3phase_inverter/3phase_inverter/4. Software_WS/OL_VSC_vitor/Libraries/CMSIS/Include\cmsis_gcc.h ****    __ASM volatile ("strt %1, %0" : "=Q" (*ptr) : "r" (value) );
1153:F:/Projects/20190909 - 3phase_inverter/3phase_inverter/4. Software_WS/OL_VSC_vitor/Libraries/CMSIS/Include\cmsis_gcc.h **** }
1154:F:/Projects/20190909 - 3phase_inverter/3phase_inverter/4. Software_WS/OL_VSC_vitor/Libraries/CMSIS/Include\cmsis_gcc.h **** 
1155:F:/Projects/20190909 - 3phase_inverter/3phase_inverter/4. Software_WS/OL_VSC_vitor/Libraries/CMSIS/Include\cmsis_gcc.h **** #endif /* ((defined (__ARM_ARCH_7M__      ) && (__ARM_ARCH_7M__      == 1)) || \
1156:F:/Projects/20190909 - 3phase_inverter/3phase_inverter/4. Software_WS/OL_VSC_vitor/Libraries/CMSIS/Include\cmsis_gcc.h ****            (defined (__ARM_ARCH_7EM__     ) && (__ARM_ARCH_7EM__     == 1)) || \
1157:F:/Projects/20190909 - 3phase_inverter/3phase_inverter/4. Software_WS/OL_VSC_vitor/Libraries/CMSIS/Include\cmsis_gcc.h ****            (defined (__ARM_ARCH_8M_MAIN__ ) && (__ARM_ARCH_8M_MAIN__ == 1))    ) */
1158:F:/Projects/20190909 - 3phase_inverter/3phase_inverter/4. Software_WS/OL_VSC_vitor/Libraries/CMSIS/Include\cmsis_gcc.h **** 
1159:F:/Projects/20190909 - 3phase_inverter/3phase_inverter/4. Software_WS/OL_VSC_vitor/Libraries/CMSIS/Include\cmsis_gcc.h **** 
1160:F:/Projects/20190909 - 3phase_inverter/3phase_inverter/4. Software_WS/OL_VSC_vitor/Libraries/CMSIS/Include\cmsis_gcc.h **** #if ((defined (__ARM_ARCH_8M_MAIN__ ) && (__ARM_ARCH_8M_MAIN__ == 1)) || \
1161:F:/Projects/20190909 - 3phase_inverter/3phase_inverter/4. Software_WS/OL_VSC_vitor/Libraries/CMSIS/Include\cmsis_gcc.h ****      (defined (__ARM_ARCH_8M_BASE__ ) && (__ARM_ARCH_8M_BASE__ == 1))    )
1162:F:/Projects/20190909 - 3phase_inverter/3phase_inverter/4. Software_WS/OL_VSC_vitor/Libraries/CMSIS/Include\cmsis_gcc.h **** /**
1163:F:/Projects/20190909 - 3phase_inverter/3phase_inverter/4. Software_WS/OL_VSC_vitor/Libraries/CMSIS/Include\cmsis_gcc.h ****   \brief   Load-Acquire (8 bit)
1164:F:/Projects/20190909 - 3phase_inverter/3phase_inverter/4. Software_WS/OL_VSC_vitor/Libraries/CMSIS/Include\cmsis_gcc.h ****   \details Executes a LDAB instruction for 8 bit value.
1165:F:/Projects/20190909 - 3phase_inverter/3phase_inverter/4. Software_WS/OL_VSC_vitor/Libraries/CMSIS/Include\cmsis_gcc.h ****   \param [in]    ptr  Pointer to data
1166:F:/Projects/20190909 - 3phase_inverter/3phase_inverter/4. Software_WS/OL_VSC_vitor/Libraries/CMSIS/Include\cmsis_gcc.h ****   \return             value of type uint8_t at (*ptr)
1167:F:/Projects/20190909 - 3phase_inverter/3phase_inverter/4. Software_WS/OL_VSC_vitor/Libraries/CMSIS/Include\cmsis_gcc.h ****  */
1168:F:/Projects/20190909 - 3phase_inverter/3phase_inverter/4. Software_WS/OL_VSC_vitor/Libraries/CMSIS/Include\cmsis_gcc.h **** __attribute__((always_inline)) __STATIC_INLINE uint8_t __LDAB(volatile uint8_t *ptr)
1169:F:/Projects/20190909 - 3phase_inverter/3phase_inverter/4. Software_WS/OL_VSC_vitor/Libraries/CMSIS/Include\cmsis_gcc.h **** {
1170:F:/Projects/20190909 - 3phase_inverter/3phase_inverter/4. Software_WS/OL_VSC_vitor/Libraries/CMSIS/Include\cmsis_gcc.h ****     uint32_t result;
1171:F:/Projects/20190909 - 3phase_inverter/3phase_inverter/4. Software_WS/OL_VSC_vitor/Libraries/CMSIS/Include\cmsis_gcc.h **** 
1172:F:/Projects/20190909 - 3phase_inverter/3phase_inverter/4. Software_WS/OL_VSC_vitor/Libraries/CMSIS/Include\cmsis_gcc.h ****    __ASM volatile ("ldab %0, %1" : "=r" (result) : "Q" (*ptr) );
1173:F:/Projects/20190909 - 3phase_inverter/3phase_inverter/4. Software_WS/OL_VSC_vitor/Libraries/CMSIS/Include\cmsis_gcc.h ****    return ((uint8_t) result);
1174:F:/Projects/20190909 - 3phase_inverter/3phase_inverter/4. Software_WS/OL_VSC_vitor/Libraries/CMSIS/Include\cmsis_gcc.h **** }
1175:F:/Projects/20190909 - 3phase_inverter/3phase_inverter/4. Software_WS/OL_VSC_vitor/Libraries/CMSIS/Include\cmsis_gcc.h **** 
1176:F:/Projects/20190909 - 3phase_inverter/3phase_inverter/4. Software_WS/OL_VSC_vitor/Libraries/CMSIS/Include\cmsis_gcc.h **** 
1177:F:/Projects/20190909 - 3phase_inverter/3phase_inverter/4. Software_WS/OL_VSC_vitor/Libraries/CMSIS/Include\cmsis_gcc.h **** /**
1178:F:/Projects/20190909 - 3phase_inverter/3phase_inverter/4. Software_WS/OL_VSC_vitor/Libraries/CMSIS/Include\cmsis_gcc.h ****   \brief   Load-Acquire (16 bit)
1179:F:/Projects/20190909 - 3phase_inverter/3phase_inverter/4. Software_WS/OL_VSC_vitor/Libraries/CMSIS/Include\cmsis_gcc.h ****   \details Executes a LDAH instruction for 16 bit values.
1180:F:/Projects/20190909 - 3phase_inverter/3phase_inverter/4. Software_WS/OL_VSC_vitor/Libraries/CMSIS/Include\cmsis_gcc.h ****   \param [in]    ptr  Pointer to data
1181:F:/Projects/20190909 - 3phase_inverter/3phase_inverter/4. Software_WS/OL_VSC_vitor/Libraries/CMSIS/Include\cmsis_gcc.h ****   \return        value of type uint16_t at (*ptr)
1182:F:/Projects/20190909 - 3phase_inverter/3phase_inverter/4. Software_WS/OL_VSC_vitor/Libraries/CMSIS/Include\cmsis_gcc.h ****  */
1183:F:/Projects/20190909 - 3phase_inverter/3phase_inverter/4. Software_WS/OL_VSC_vitor/Libraries/CMSIS/Include\cmsis_gcc.h **** __attribute__((always_inline)) __STATIC_INLINE uint16_t __LDAH(volatile uint16_t *ptr)
1184:F:/Projects/20190909 - 3phase_inverter/3phase_inverter/4. Software_WS/OL_VSC_vitor/Libraries/CMSIS/Include\cmsis_gcc.h **** {
1185:F:/Projects/20190909 - 3phase_inverter/3phase_inverter/4. Software_WS/OL_VSC_vitor/Libraries/CMSIS/Include\cmsis_gcc.h ****     uint32_t result;
1186:F:/Projects/20190909 - 3phase_inverter/3phase_inverter/4. Software_WS/OL_VSC_vitor/Libraries/CMSIS/Include\cmsis_gcc.h **** 
1187:F:/Projects/20190909 - 3phase_inverter/3phase_inverter/4. Software_WS/OL_VSC_vitor/Libraries/CMSIS/Include\cmsis_gcc.h ****    __ASM volatile ("ldah %0, %1" : "=r" (result) : "Q" (*ptr) );
1188:F:/Projects/20190909 - 3phase_inverter/3phase_inverter/4. Software_WS/OL_VSC_vitor/Libraries/CMSIS/Include\cmsis_gcc.h ****    return ((uint16_t) result);
1189:F:/Projects/20190909 - 3phase_inverter/3phase_inverter/4. Software_WS/OL_VSC_vitor/Libraries/CMSIS/Include\cmsis_gcc.h **** }
1190:F:/Projects/20190909 - 3phase_inverter/3phase_inverter/4. Software_WS/OL_VSC_vitor/Libraries/CMSIS/Include\cmsis_gcc.h **** 
1191:F:/Projects/20190909 - 3phase_inverter/3phase_inverter/4. Software_WS/OL_VSC_vitor/Libraries/CMSIS/Include\cmsis_gcc.h **** 
1192:F:/Projects/20190909 - 3phase_inverter/3phase_inverter/4. Software_WS/OL_VSC_vitor/Libraries/CMSIS/Include\cmsis_gcc.h **** /**
1193:F:/Projects/20190909 - 3phase_inverter/3phase_inverter/4. Software_WS/OL_VSC_vitor/Libraries/CMSIS/Include\cmsis_gcc.h ****   \brief   Load-Acquire (32 bit)
1194:F:/Projects/20190909 - 3phase_inverter/3phase_inverter/4. Software_WS/OL_VSC_vitor/Libraries/CMSIS/Include\cmsis_gcc.h ****   \details Executes a LDA instruction for 32 bit values.
1195:F:/Projects/20190909 - 3phase_inverter/3phase_inverter/4. Software_WS/OL_VSC_vitor/Libraries/CMSIS/Include\cmsis_gcc.h ****   \param [in]    ptr  Pointer to data
1196:F:/Projects/20190909 - 3phase_inverter/3phase_inverter/4. Software_WS/OL_VSC_vitor/Libraries/CMSIS/Include\cmsis_gcc.h ****   \return        value of type uint32_t at (*ptr)
1197:F:/Projects/20190909 - 3phase_inverter/3phase_inverter/4. Software_WS/OL_VSC_vitor/Libraries/CMSIS/Include\cmsis_gcc.h ****  */
1198:F:/Projects/20190909 - 3phase_inverter/3phase_inverter/4. Software_WS/OL_VSC_vitor/Libraries/CMSIS/Include\cmsis_gcc.h **** __attribute__((always_inline)) __STATIC_INLINE uint32_t __LDA(volatile uint32_t *ptr)
1199:F:/Projects/20190909 - 3phase_inverter/3phase_inverter/4. Software_WS/OL_VSC_vitor/Libraries/CMSIS/Include\cmsis_gcc.h **** {
1200:F:/Projects/20190909 - 3phase_inverter/3phase_inverter/4. Software_WS/OL_VSC_vitor/Libraries/CMSIS/Include\cmsis_gcc.h ****     uint32_t result;
1201:F:/Projects/20190909 - 3phase_inverter/3phase_inverter/4. Software_WS/OL_VSC_vitor/Libraries/CMSIS/Include\cmsis_gcc.h **** 
1202:F:/Projects/20190909 - 3phase_inverter/3phase_inverter/4. Software_WS/OL_VSC_vitor/Libraries/CMSIS/Include\cmsis_gcc.h ****    __ASM volatile ("lda %0, %1" : "=r" (result) : "Q" (*ptr) );
1203:F:/Projects/20190909 - 3phase_inverter/3phase_inverter/4. Software_WS/OL_VSC_vitor/Libraries/CMSIS/Include\cmsis_gcc.h ****    return(result);
1204:F:/Projects/20190909 - 3phase_inverter/3phase_inverter/4. Software_WS/OL_VSC_vitor/Libraries/CMSIS/Include\cmsis_gcc.h **** }
1205:F:/Projects/20190909 - 3phase_inverter/3phase_inverter/4. Software_WS/OL_VSC_vitor/Libraries/CMSIS/Include\cmsis_gcc.h **** 
1206:F:/Projects/20190909 - 3phase_inverter/3phase_inverter/4. Software_WS/OL_VSC_vitor/Libraries/CMSIS/Include\cmsis_gcc.h **** 
1207:F:/Projects/20190909 - 3phase_inverter/3phase_inverter/4. Software_WS/OL_VSC_vitor/Libraries/CMSIS/Include\cmsis_gcc.h **** /**
1208:F:/Projects/20190909 - 3phase_inverter/3phase_inverter/4. Software_WS/OL_VSC_vitor/Libraries/CMSIS/Include\cmsis_gcc.h ****   \brief   Store-Release (8 bit)
1209:F:/Projects/20190909 - 3phase_inverter/3phase_inverter/4. Software_WS/OL_VSC_vitor/Libraries/CMSIS/Include\cmsis_gcc.h ****   \details Executes a STLB instruction for 8 bit values.
1210:F:/Projects/20190909 - 3phase_inverter/3phase_inverter/4. Software_WS/OL_VSC_vitor/Libraries/CMSIS/Include\cmsis_gcc.h ****   \param [in]  value  Value to store
1211:F:/Projects/20190909 - 3phase_inverter/3phase_inverter/4. Software_WS/OL_VSC_vitor/Libraries/CMSIS/Include\cmsis_gcc.h ****   \param [in]    ptr  Pointer to location
1212:F:/Projects/20190909 - 3phase_inverter/3phase_inverter/4. Software_WS/OL_VSC_vitor/Libraries/CMSIS/Include\cmsis_gcc.h ****  */
1213:F:/Projects/20190909 - 3phase_inverter/3phase_inverter/4. Software_WS/OL_VSC_vitor/Libraries/CMSIS/Include\cmsis_gcc.h **** __attribute__((always_inline)) __STATIC_INLINE void __STLB(uint8_t value, volatile uint8_t *ptr)
1214:F:/Projects/20190909 - 3phase_inverter/3phase_inverter/4. Software_WS/OL_VSC_vitor/Libraries/CMSIS/Include\cmsis_gcc.h **** {
1215:F:/Projects/20190909 - 3phase_inverter/3phase_inverter/4. Software_WS/OL_VSC_vitor/Libraries/CMSIS/Include\cmsis_gcc.h ****    __ASM volatile ("stlb %1, %0" : "=Q" (*ptr) : "r" ((uint32_t)value) );
1216:F:/Projects/20190909 - 3phase_inverter/3phase_inverter/4. Software_WS/OL_VSC_vitor/Libraries/CMSIS/Include\cmsis_gcc.h **** }
1217:F:/Projects/20190909 - 3phase_inverter/3phase_inverter/4. Software_WS/OL_VSC_vitor/Libraries/CMSIS/Include\cmsis_gcc.h **** 
1218:F:/Projects/20190909 - 3phase_inverter/3phase_inverter/4. Software_WS/OL_VSC_vitor/Libraries/CMSIS/Include\cmsis_gcc.h **** 
1219:F:/Projects/20190909 - 3phase_inverter/3phase_inverter/4. Software_WS/OL_VSC_vitor/Libraries/CMSIS/Include\cmsis_gcc.h **** /**
1220:F:/Projects/20190909 - 3phase_inverter/3phase_inverter/4. Software_WS/OL_VSC_vitor/Libraries/CMSIS/Include\cmsis_gcc.h ****   \brief   Store-Release (16 bit)
1221:F:/Projects/20190909 - 3phase_inverter/3phase_inverter/4. Software_WS/OL_VSC_vitor/Libraries/CMSIS/Include\cmsis_gcc.h ****   \details Executes a STLH instruction for 16 bit values.
1222:F:/Projects/20190909 - 3phase_inverter/3phase_inverter/4. Software_WS/OL_VSC_vitor/Libraries/CMSIS/Include\cmsis_gcc.h ****   \param [in]  value  Value to store
1223:F:/Projects/20190909 - 3phase_inverter/3phase_inverter/4. Software_WS/OL_VSC_vitor/Libraries/CMSIS/Include\cmsis_gcc.h ****   \param [in]    ptr  Pointer to location
1224:F:/Projects/20190909 - 3phase_inverter/3phase_inverter/4. Software_WS/OL_VSC_vitor/Libraries/CMSIS/Include\cmsis_gcc.h ****  */
1225:F:/Projects/20190909 - 3phase_inverter/3phase_inverter/4. Software_WS/OL_VSC_vitor/Libraries/CMSIS/Include\cmsis_gcc.h **** __attribute__((always_inline)) __STATIC_INLINE void __STLH(uint16_t value, volatile uint16_t *ptr)
1226:F:/Projects/20190909 - 3phase_inverter/3phase_inverter/4. Software_WS/OL_VSC_vitor/Libraries/CMSIS/Include\cmsis_gcc.h **** {
1227:F:/Projects/20190909 - 3phase_inverter/3phase_inverter/4. Software_WS/OL_VSC_vitor/Libraries/CMSIS/Include\cmsis_gcc.h ****    __ASM volatile ("stlh %1, %0" : "=Q" (*ptr) : "r" ((uint32_t)value) );
1228:F:/Projects/20190909 - 3phase_inverter/3phase_inverter/4. Software_WS/OL_VSC_vitor/Libraries/CMSIS/Include\cmsis_gcc.h **** }
1229:F:/Projects/20190909 - 3phase_inverter/3phase_inverter/4. Software_WS/OL_VSC_vitor/Libraries/CMSIS/Include\cmsis_gcc.h **** 
1230:F:/Projects/20190909 - 3phase_inverter/3phase_inverter/4. Software_WS/OL_VSC_vitor/Libraries/CMSIS/Include\cmsis_gcc.h **** 
1231:F:/Projects/20190909 - 3phase_inverter/3phase_inverter/4. Software_WS/OL_VSC_vitor/Libraries/CMSIS/Include\cmsis_gcc.h **** /**
1232:F:/Projects/20190909 - 3phase_inverter/3phase_inverter/4. Software_WS/OL_VSC_vitor/Libraries/CMSIS/Include\cmsis_gcc.h ****   \brief   Store-Release (32 bit)
1233:F:/Projects/20190909 - 3phase_inverter/3phase_inverter/4. Software_WS/OL_VSC_vitor/Libraries/CMSIS/Include\cmsis_gcc.h ****   \details Executes a STL instruction for 32 bit values.
1234:F:/Projects/20190909 - 3phase_inverter/3phase_inverter/4. Software_WS/OL_VSC_vitor/Libraries/CMSIS/Include\cmsis_gcc.h ****   \param [in]  value  Value to store
1235:F:/Projects/20190909 - 3phase_inverter/3phase_inverter/4. Software_WS/OL_VSC_vitor/Libraries/CMSIS/Include\cmsis_gcc.h ****   \param [in]    ptr  Pointer to location
1236:F:/Projects/20190909 - 3phase_inverter/3phase_inverter/4. Software_WS/OL_VSC_vitor/Libraries/CMSIS/Include\cmsis_gcc.h ****  */
1237:F:/Projects/20190909 - 3phase_inverter/3phase_inverter/4. Software_WS/OL_VSC_vitor/Libraries/CMSIS/Include\cmsis_gcc.h **** __attribute__((always_inline)) __STATIC_INLINE void __STL(uint32_t value, volatile uint32_t *ptr)
1238:F:/Projects/20190909 - 3phase_inverter/3phase_inverter/4. Software_WS/OL_VSC_vitor/Libraries/CMSIS/Include\cmsis_gcc.h **** {
1239:F:/Projects/20190909 - 3phase_inverter/3phase_inverter/4. Software_WS/OL_VSC_vitor/Libraries/CMSIS/Include\cmsis_gcc.h ****    __ASM volatile ("stl %1, %0" : "=Q" (*ptr) : "r" ((uint32_t)value) );
1240:F:/Projects/20190909 - 3phase_inverter/3phase_inverter/4. Software_WS/OL_VSC_vitor/Libraries/CMSIS/Include\cmsis_gcc.h **** }
1241:F:/Projects/20190909 - 3phase_inverter/3phase_inverter/4. Software_WS/OL_VSC_vitor/Libraries/CMSIS/Include\cmsis_gcc.h **** 
1242:F:/Projects/20190909 - 3phase_inverter/3phase_inverter/4. Software_WS/OL_VSC_vitor/Libraries/CMSIS/Include\cmsis_gcc.h **** 
1243:F:/Projects/20190909 - 3phase_inverter/3phase_inverter/4. Software_WS/OL_VSC_vitor/Libraries/CMSIS/Include\cmsis_gcc.h **** /**
1244:F:/Projects/20190909 - 3phase_inverter/3phase_inverter/4. Software_WS/OL_VSC_vitor/Libraries/CMSIS/Include\cmsis_gcc.h ****   \brief   Load-Acquire Exclusive (8 bit)
1245:F:/Projects/20190909 - 3phase_inverter/3phase_inverter/4. Software_WS/OL_VSC_vitor/Libraries/CMSIS/Include\cmsis_gcc.h ****   \details Executes a LDAB exclusive instruction for 8 bit value.
1246:F:/Projects/20190909 - 3phase_inverter/3phase_inverter/4. Software_WS/OL_VSC_vitor/Libraries/CMSIS/Include\cmsis_gcc.h ****   \param [in]    ptr  Pointer to data
1247:F:/Projects/20190909 - 3phase_inverter/3phase_inverter/4. Software_WS/OL_VSC_vitor/Libraries/CMSIS/Include\cmsis_gcc.h ****   \return             value of type uint8_t at (*ptr)
1248:F:/Projects/20190909 - 3phase_inverter/3phase_inverter/4. Software_WS/OL_VSC_vitor/Libraries/CMSIS/Include\cmsis_gcc.h ****  */
1249:F:/Projects/20190909 - 3phase_inverter/3phase_inverter/4. Software_WS/OL_VSC_vitor/Libraries/CMSIS/Include\cmsis_gcc.h **** __attribute__((always_inline)) __STATIC_INLINE uint8_t __LDAEXB(volatile uint8_t *ptr)
1250:F:/Projects/20190909 - 3phase_inverter/3phase_inverter/4. Software_WS/OL_VSC_vitor/Libraries/CMSIS/Include\cmsis_gcc.h **** {
1251:F:/Projects/20190909 - 3phase_inverter/3phase_inverter/4. Software_WS/OL_VSC_vitor/Libraries/CMSIS/Include\cmsis_gcc.h ****     uint32_t result;
1252:F:/Projects/20190909 - 3phase_inverter/3phase_inverter/4. Software_WS/OL_VSC_vitor/Libraries/CMSIS/Include\cmsis_gcc.h **** 
1253:F:/Projects/20190909 - 3phase_inverter/3phase_inverter/4. Software_WS/OL_VSC_vitor/Libraries/CMSIS/Include\cmsis_gcc.h ****    __ASM volatile ("ldaexb %0, %1" : "=r" (result) : "Q" (*ptr) );
1254:F:/Projects/20190909 - 3phase_inverter/3phase_inverter/4. Software_WS/OL_VSC_vitor/Libraries/CMSIS/Include\cmsis_gcc.h ****    return ((uint8_t) result);
1255:F:/Projects/20190909 - 3phase_inverter/3phase_inverter/4. Software_WS/OL_VSC_vitor/Libraries/CMSIS/Include\cmsis_gcc.h **** }
1256:F:/Projects/20190909 - 3phase_inverter/3phase_inverter/4. Software_WS/OL_VSC_vitor/Libraries/CMSIS/Include\cmsis_gcc.h **** 
1257:F:/Projects/20190909 - 3phase_inverter/3phase_inverter/4. Software_WS/OL_VSC_vitor/Libraries/CMSIS/Include\cmsis_gcc.h **** 
1258:F:/Projects/20190909 - 3phase_inverter/3phase_inverter/4. Software_WS/OL_VSC_vitor/Libraries/CMSIS/Include\cmsis_gcc.h **** /**
1259:F:/Projects/20190909 - 3phase_inverter/3phase_inverter/4. Software_WS/OL_VSC_vitor/Libraries/CMSIS/Include\cmsis_gcc.h ****   \brief   Load-Acquire Exclusive (16 bit)
1260:F:/Projects/20190909 - 3phase_inverter/3phase_inverter/4. Software_WS/OL_VSC_vitor/Libraries/CMSIS/Include\cmsis_gcc.h ****   \details Executes a LDAH exclusive instruction for 16 bit values.
1261:F:/Projects/20190909 - 3phase_inverter/3phase_inverter/4. Software_WS/OL_VSC_vitor/Libraries/CMSIS/Include\cmsis_gcc.h ****   \param [in]    ptr  Pointer to data
1262:F:/Projects/20190909 - 3phase_inverter/3phase_inverter/4. Software_WS/OL_VSC_vitor/Libraries/CMSIS/Include\cmsis_gcc.h ****   \return        value of type uint16_t at (*ptr)
1263:F:/Projects/20190909 - 3phase_inverter/3phase_inverter/4. Software_WS/OL_VSC_vitor/Libraries/CMSIS/Include\cmsis_gcc.h ****  */
1264:F:/Projects/20190909 - 3phase_inverter/3phase_inverter/4. Software_WS/OL_VSC_vitor/Libraries/CMSIS/Include\cmsis_gcc.h **** __attribute__((always_inline)) __STATIC_INLINE uint16_t __LDAEXH(volatile uint16_t *ptr)
1265:F:/Projects/20190909 - 3phase_inverter/3phase_inverter/4. Software_WS/OL_VSC_vitor/Libraries/CMSIS/Include\cmsis_gcc.h **** {
1266:F:/Projects/20190909 - 3phase_inverter/3phase_inverter/4. Software_WS/OL_VSC_vitor/Libraries/CMSIS/Include\cmsis_gcc.h ****     uint32_t result;
1267:F:/Projects/20190909 - 3phase_inverter/3phase_inverter/4. Software_WS/OL_VSC_vitor/Libraries/CMSIS/Include\cmsis_gcc.h **** 
1268:F:/Projects/20190909 - 3phase_inverter/3phase_inverter/4. Software_WS/OL_VSC_vitor/Libraries/CMSIS/Include\cmsis_gcc.h ****    __ASM volatile ("ldaexh %0, %1" : "=r" (result) : "Q" (*ptr) );
1269:F:/Projects/20190909 - 3phase_inverter/3phase_inverter/4. Software_WS/OL_VSC_vitor/Libraries/CMSIS/Include\cmsis_gcc.h ****    return ((uint16_t) result);
1270:F:/Projects/20190909 - 3phase_inverter/3phase_inverter/4. Software_WS/OL_VSC_vitor/Libraries/CMSIS/Include\cmsis_gcc.h **** }
1271:F:/Projects/20190909 - 3phase_inverter/3phase_inverter/4. Software_WS/OL_VSC_vitor/Libraries/CMSIS/Include\cmsis_gcc.h **** 
1272:F:/Projects/20190909 - 3phase_inverter/3phase_inverter/4. Software_WS/OL_VSC_vitor/Libraries/CMSIS/Include\cmsis_gcc.h **** 
1273:F:/Projects/20190909 - 3phase_inverter/3phase_inverter/4. Software_WS/OL_VSC_vitor/Libraries/CMSIS/Include\cmsis_gcc.h **** /**
1274:F:/Projects/20190909 - 3phase_inverter/3phase_inverter/4. Software_WS/OL_VSC_vitor/Libraries/CMSIS/Include\cmsis_gcc.h ****   \brief   Load-Acquire Exclusive (32 bit)
1275:F:/Projects/20190909 - 3phase_inverter/3phase_inverter/4. Software_WS/OL_VSC_vitor/Libraries/CMSIS/Include\cmsis_gcc.h ****   \details Executes a LDA exclusive instruction for 32 bit values.
1276:F:/Projects/20190909 - 3phase_inverter/3phase_inverter/4. Software_WS/OL_VSC_vitor/Libraries/CMSIS/Include\cmsis_gcc.h ****   \param [in]    ptr  Pointer to data
1277:F:/Projects/20190909 - 3phase_inverter/3phase_inverter/4. Software_WS/OL_VSC_vitor/Libraries/CMSIS/Include\cmsis_gcc.h ****   \return        value of type uint32_t at (*ptr)
1278:F:/Projects/20190909 - 3phase_inverter/3phase_inverter/4. Software_WS/OL_VSC_vitor/Libraries/CMSIS/Include\cmsis_gcc.h ****  */
1279:F:/Projects/20190909 - 3phase_inverter/3phase_inverter/4. Software_WS/OL_VSC_vitor/Libraries/CMSIS/Include\cmsis_gcc.h **** __attribute__((always_inline)) __STATIC_INLINE uint32_t __LDAEX(volatile uint32_t *ptr)
1280:F:/Projects/20190909 - 3phase_inverter/3phase_inverter/4. Software_WS/OL_VSC_vitor/Libraries/CMSIS/Include\cmsis_gcc.h **** {
1281:F:/Projects/20190909 - 3phase_inverter/3phase_inverter/4. Software_WS/OL_VSC_vitor/Libraries/CMSIS/Include\cmsis_gcc.h ****     uint32_t result;
1282:F:/Projects/20190909 - 3phase_inverter/3phase_inverter/4. Software_WS/OL_VSC_vitor/Libraries/CMSIS/Include\cmsis_gcc.h **** 
1283:F:/Projects/20190909 - 3phase_inverter/3phase_inverter/4. Software_WS/OL_VSC_vitor/Libraries/CMSIS/Include\cmsis_gcc.h ****    __ASM volatile ("ldaex %0, %1" : "=r" (result) : "Q" (*ptr) );
1284:F:/Projects/20190909 - 3phase_inverter/3phase_inverter/4. Software_WS/OL_VSC_vitor/Libraries/CMSIS/Include\cmsis_gcc.h ****    return(result);
1285:F:/Projects/20190909 - 3phase_inverter/3phase_inverter/4. Software_WS/OL_VSC_vitor/Libraries/CMSIS/Include\cmsis_gcc.h **** }
1286:F:/Projects/20190909 - 3phase_inverter/3phase_inverter/4. Software_WS/OL_VSC_vitor/Libraries/CMSIS/Include\cmsis_gcc.h **** 
1287:F:/Projects/20190909 - 3phase_inverter/3phase_inverter/4. Software_WS/OL_VSC_vitor/Libraries/CMSIS/Include\cmsis_gcc.h **** 
1288:F:/Projects/20190909 - 3phase_inverter/3phase_inverter/4. Software_WS/OL_VSC_vitor/Libraries/CMSIS/Include\cmsis_gcc.h **** /**
1289:F:/Projects/20190909 - 3phase_inverter/3phase_inverter/4. Software_WS/OL_VSC_vitor/Libraries/CMSIS/Include\cmsis_gcc.h ****   \brief   Store-Release Exclusive (8 bit)
1290:F:/Projects/20190909 - 3phase_inverter/3phase_inverter/4. Software_WS/OL_VSC_vitor/Libraries/CMSIS/Include\cmsis_gcc.h ****   \details Executes a STLB exclusive instruction for 8 bit values.
1291:F:/Projects/20190909 - 3phase_inverter/3phase_inverter/4. Software_WS/OL_VSC_vitor/Libraries/CMSIS/Include\cmsis_gcc.h ****   \param [in]  value  Value to store
1292:F:/Projects/20190909 - 3phase_inverter/3phase_inverter/4. Software_WS/OL_VSC_vitor/Libraries/CMSIS/Include\cmsis_gcc.h ****   \param [in]    ptr  Pointer to location
1293:F:/Projects/20190909 - 3phase_inverter/3phase_inverter/4. Software_WS/OL_VSC_vitor/Libraries/CMSIS/Include\cmsis_gcc.h ****   \return          0  Function succeeded
1294:F:/Projects/20190909 - 3phase_inverter/3phase_inverter/4. Software_WS/OL_VSC_vitor/Libraries/CMSIS/Include\cmsis_gcc.h ****   \return          1  Function failed
1295:F:/Projects/20190909 - 3phase_inverter/3phase_inverter/4. Software_WS/OL_VSC_vitor/Libraries/CMSIS/Include\cmsis_gcc.h ****  */
1296:F:/Projects/20190909 - 3phase_inverter/3phase_inverter/4. Software_WS/OL_VSC_vitor/Libraries/CMSIS/Include\cmsis_gcc.h **** __attribute__((always_inline)) __STATIC_INLINE uint32_t __STLEXB(uint8_t value, volatile uint8_t *p
1297:F:/Projects/20190909 - 3phase_inverter/3phase_inverter/4. Software_WS/OL_VSC_vitor/Libraries/CMSIS/Include\cmsis_gcc.h **** {
1298:F:/Projects/20190909 - 3phase_inverter/3phase_inverter/4. Software_WS/OL_VSC_vitor/Libraries/CMSIS/Include\cmsis_gcc.h ****    uint32_t result;
1299:F:/Projects/20190909 - 3phase_inverter/3phase_inverter/4. Software_WS/OL_VSC_vitor/Libraries/CMSIS/Include\cmsis_gcc.h **** 
1300:F:/Projects/20190909 - 3phase_inverter/3phase_inverter/4. Software_WS/OL_VSC_vitor/Libraries/CMSIS/Include\cmsis_gcc.h ****    __ASM volatile ("stlexb %0, %2, %1" : "=&r" (result), "=Q" (*ptr) : "r" ((uint32_t)value) );
1301:F:/Projects/20190909 - 3phase_inverter/3phase_inverter/4. Software_WS/OL_VSC_vitor/Libraries/CMSIS/Include\cmsis_gcc.h ****    return(result);
1302:F:/Projects/20190909 - 3phase_inverter/3phase_inverter/4. Software_WS/OL_VSC_vitor/Libraries/CMSIS/Include\cmsis_gcc.h **** }
1303:F:/Projects/20190909 - 3phase_inverter/3phase_inverter/4. Software_WS/OL_VSC_vitor/Libraries/CMSIS/Include\cmsis_gcc.h **** 
1304:F:/Projects/20190909 - 3phase_inverter/3phase_inverter/4. Software_WS/OL_VSC_vitor/Libraries/CMSIS/Include\cmsis_gcc.h **** 
1305:F:/Projects/20190909 - 3phase_inverter/3phase_inverter/4. Software_WS/OL_VSC_vitor/Libraries/CMSIS/Include\cmsis_gcc.h **** /**
1306:F:/Projects/20190909 - 3phase_inverter/3phase_inverter/4. Software_WS/OL_VSC_vitor/Libraries/CMSIS/Include\cmsis_gcc.h ****   \brief   Store-Release Exclusive (16 bit)
1307:F:/Projects/20190909 - 3phase_inverter/3phase_inverter/4. Software_WS/OL_VSC_vitor/Libraries/CMSIS/Include\cmsis_gcc.h ****   \details Executes a STLH exclusive instruction for 16 bit values.
1308:F:/Projects/20190909 - 3phase_inverter/3phase_inverter/4. Software_WS/OL_VSC_vitor/Libraries/CMSIS/Include\cmsis_gcc.h ****   \param [in]  value  Value to store
1309:F:/Projects/20190909 - 3phase_inverter/3phase_inverter/4. Software_WS/OL_VSC_vitor/Libraries/CMSIS/Include\cmsis_gcc.h ****   \param [in]    ptr  Pointer to location
1310:F:/Projects/20190909 - 3phase_inverter/3phase_inverter/4. Software_WS/OL_VSC_vitor/Libraries/CMSIS/Include\cmsis_gcc.h ****   \return          0  Function succeeded
1311:F:/Projects/20190909 - 3phase_inverter/3phase_inverter/4. Software_WS/OL_VSC_vitor/Libraries/CMSIS/Include\cmsis_gcc.h ****   \return          1  Function failed
1312:F:/Projects/20190909 - 3phase_inverter/3phase_inverter/4. Software_WS/OL_VSC_vitor/Libraries/CMSIS/Include\cmsis_gcc.h ****  */
1313:F:/Projects/20190909 - 3phase_inverter/3phase_inverter/4. Software_WS/OL_VSC_vitor/Libraries/CMSIS/Include\cmsis_gcc.h **** __attribute__((always_inline)) __STATIC_INLINE uint32_t __STLEXH(uint16_t value, volatile uint16_t 
1314:F:/Projects/20190909 - 3phase_inverter/3phase_inverter/4. Software_WS/OL_VSC_vitor/Libraries/CMSIS/Include\cmsis_gcc.h **** {
1315:F:/Projects/20190909 - 3phase_inverter/3phase_inverter/4. Software_WS/OL_VSC_vitor/Libraries/CMSIS/Include\cmsis_gcc.h ****    uint32_t result;
1316:F:/Projects/20190909 - 3phase_inverter/3phase_inverter/4. Software_WS/OL_VSC_vitor/Libraries/CMSIS/Include\cmsis_gcc.h **** 
1317:F:/Projects/20190909 - 3phase_inverter/3phase_inverter/4. Software_WS/OL_VSC_vitor/Libraries/CMSIS/Include\cmsis_gcc.h ****    __ASM volatile ("stlexh %0, %2, %1" : "=&r" (result), "=Q" (*ptr) : "r" ((uint32_t)value) );
1318:F:/Projects/20190909 - 3phase_inverter/3phase_inverter/4. Software_WS/OL_VSC_vitor/Libraries/CMSIS/Include\cmsis_gcc.h ****    return(result);
1319:F:/Projects/20190909 - 3phase_inverter/3phase_inverter/4. Software_WS/OL_VSC_vitor/Libraries/CMSIS/Include\cmsis_gcc.h **** }
1320:F:/Projects/20190909 - 3phase_inverter/3phase_inverter/4. Software_WS/OL_VSC_vitor/Libraries/CMSIS/Include\cmsis_gcc.h **** 
1321:F:/Projects/20190909 - 3phase_inverter/3phase_inverter/4. Software_WS/OL_VSC_vitor/Libraries/CMSIS/Include\cmsis_gcc.h **** 
1322:F:/Projects/20190909 - 3phase_inverter/3phase_inverter/4. Software_WS/OL_VSC_vitor/Libraries/CMSIS/Include\cmsis_gcc.h **** /**
1323:F:/Projects/20190909 - 3phase_inverter/3phase_inverter/4. Software_WS/OL_VSC_vitor/Libraries/CMSIS/Include\cmsis_gcc.h ****   \brief   Store-Release Exclusive (32 bit)
1324:F:/Projects/20190909 - 3phase_inverter/3phase_inverter/4. Software_WS/OL_VSC_vitor/Libraries/CMSIS/Include\cmsis_gcc.h ****   \details Executes a STL exclusive instruction for 32 bit values.
1325:F:/Projects/20190909 - 3phase_inverter/3phase_inverter/4. Software_WS/OL_VSC_vitor/Libraries/CMSIS/Include\cmsis_gcc.h ****   \param [in]  value  Value to store
1326:F:/Projects/20190909 - 3phase_inverter/3phase_inverter/4. Software_WS/OL_VSC_vitor/Libraries/CMSIS/Include\cmsis_gcc.h ****   \param [in]    ptr  Pointer to location
1327:F:/Projects/20190909 - 3phase_inverter/3phase_inverter/4. Software_WS/OL_VSC_vitor/Libraries/CMSIS/Include\cmsis_gcc.h ****   \return          0  Function succeeded
1328:F:/Projects/20190909 - 3phase_inverter/3phase_inverter/4. Software_WS/OL_VSC_vitor/Libraries/CMSIS/Include\cmsis_gcc.h ****   \return          1  Function failed
1329:F:/Projects/20190909 - 3phase_inverter/3phase_inverter/4. Software_WS/OL_VSC_vitor/Libraries/CMSIS/Include\cmsis_gcc.h ****  */
1330:F:/Projects/20190909 - 3phase_inverter/3phase_inverter/4. Software_WS/OL_VSC_vitor/Libraries/CMSIS/Include\cmsis_gcc.h **** __attribute__((always_inline)) __STATIC_INLINE uint32_t __STLEX(uint32_t value, volatile uint32_t *
1331:F:/Projects/20190909 - 3phase_inverter/3phase_inverter/4. Software_WS/OL_VSC_vitor/Libraries/CMSIS/Include\cmsis_gcc.h **** {
1332:F:/Projects/20190909 - 3phase_inverter/3phase_inverter/4. Software_WS/OL_VSC_vitor/Libraries/CMSIS/Include\cmsis_gcc.h ****    uint32_t result;
1333:F:/Projects/20190909 - 3phase_inverter/3phase_inverter/4. Software_WS/OL_VSC_vitor/Libraries/CMSIS/Include\cmsis_gcc.h **** 
1334:F:/Projects/20190909 - 3phase_inverter/3phase_inverter/4. Software_WS/OL_VSC_vitor/Libraries/CMSIS/Include\cmsis_gcc.h ****    __ASM volatile ("stlex %0, %2, %1" : "=&r" (result), "=Q" (*ptr) : "r" ((uint32_t)value) );
1335:F:/Projects/20190909 - 3phase_inverter/3phase_inverter/4. Software_WS/OL_VSC_vitor/Libraries/CMSIS/Include\cmsis_gcc.h ****    return(result);
1336:F:/Projects/20190909 - 3phase_inverter/3phase_inverter/4. Software_WS/OL_VSC_vitor/Libraries/CMSIS/Include\cmsis_gcc.h **** }
1337:F:/Projects/20190909 - 3phase_inverter/3phase_inverter/4. Software_WS/OL_VSC_vitor/Libraries/CMSIS/Include\cmsis_gcc.h **** 
1338:F:/Projects/20190909 - 3phase_inverter/3phase_inverter/4. Software_WS/OL_VSC_vitor/Libraries/CMSIS/Include\cmsis_gcc.h **** #endif /* ((defined (__ARM_ARCH_8M_MAIN__ ) && (__ARM_ARCH_8M_MAIN__ == 1)) || \
1339:F:/Projects/20190909 - 3phase_inverter/3phase_inverter/4. Software_WS/OL_VSC_vitor/Libraries/CMSIS/Include\cmsis_gcc.h ****            (defined (__ARM_ARCH_8M_BASE__ ) && (__ARM_ARCH_8M_BASE__ == 1))    ) */
1340:F:/Projects/20190909 - 3phase_inverter/3phase_inverter/4. Software_WS/OL_VSC_vitor/Libraries/CMSIS/Include\cmsis_gcc.h **** 
1341:F:/Projects/20190909 - 3phase_inverter/3phase_inverter/4. Software_WS/OL_VSC_vitor/Libraries/CMSIS/Include\cmsis_gcc.h **** /*@}*/ /* end of group CMSIS_Core_InstructionInterface */
1342:F:/Projects/20190909 - 3phase_inverter/3phase_inverter/4. Software_WS/OL_VSC_vitor/Libraries/CMSIS/Include\cmsis_gcc.h **** 
1343:F:/Projects/20190909 - 3phase_inverter/3phase_inverter/4. Software_WS/OL_VSC_vitor/Libraries/CMSIS/Include\cmsis_gcc.h **** 
