   1              	 .syntax unified
   2              	 .cpu cortex-m4
   3              	 .eabi_attribute 27,3
   4              	 .fpu fpv4-sp-d16
   5              	 .eabi_attribute 20,1
   6              	 .eabi_attribute 21,1
   7              	 .eabi_attribute 23,3
   8              	 .eabi_attribute 24,1
   9              	 .eabi_attribute 25,1
  10              	 .eabi_attribute 26,1
  11              	 .eabi_attribute 30,6
  12              	 .eabi_attribute 34,1
  13              	 .eabi_attribute 18,4
  14              	 .thumb
  15              	 .file "arm_rfft_fast_f32.c"
  16              	 .text
  17              	.Ltext0:
  18              	 .cfi_sections .debug_frame
  19              	 .section .text.stage_rfft_f32,"ax",%progbits
  20              	 .align 2
  21              	 .global stage_rfft_f32
  22              	 .thumb
  23              	 .thumb_func
  25              	stage_rfft_f32:
  26              	.LFB135:
  27              	 .file 1 "../Dave/Generated/CMSIS_DSP/TransformFunctions/arm_rfft_fast_f32.c"
   1:../Dave/Generated/CMSIS_DSP/TransformFunctions/arm_rfft_fast_f32.c **** /* ----------------------------------------------------------------------
   2:../Dave/Generated/CMSIS_DSP/TransformFunctions/arm_rfft_fast_f32.c ****  * Project:      CMSIS DSP Library
   3:../Dave/Generated/CMSIS_DSP/TransformFunctions/arm_rfft_fast_f32.c ****  * Title:        arm_rfft_f32.c
   4:../Dave/Generated/CMSIS_DSP/TransformFunctions/arm_rfft_fast_f32.c ****  * Description:  RFFT & RIFFT Floating point process function
   5:../Dave/Generated/CMSIS_DSP/TransformFunctions/arm_rfft_fast_f32.c ****  *
   6:../Dave/Generated/CMSIS_DSP/TransformFunctions/arm_rfft_fast_f32.c ****  * $Date:        27. January 2017
   7:../Dave/Generated/CMSIS_DSP/TransformFunctions/arm_rfft_fast_f32.c ****  * $Revision:    V.1.5.1
   8:../Dave/Generated/CMSIS_DSP/TransformFunctions/arm_rfft_fast_f32.c ****  *
   9:../Dave/Generated/CMSIS_DSP/TransformFunctions/arm_rfft_fast_f32.c ****  * Target Processor: Cortex-M cores
  10:../Dave/Generated/CMSIS_DSP/TransformFunctions/arm_rfft_fast_f32.c ****  * -------------------------------------------------------------------- */
  11:../Dave/Generated/CMSIS_DSP/TransformFunctions/arm_rfft_fast_f32.c **** /*
  12:../Dave/Generated/CMSIS_DSP/TransformFunctions/arm_rfft_fast_f32.c ****  * Copyright (C) 2010-2017 ARM Limited or its affiliates. All rights reserved.
  13:../Dave/Generated/CMSIS_DSP/TransformFunctions/arm_rfft_fast_f32.c ****  *
  14:../Dave/Generated/CMSIS_DSP/TransformFunctions/arm_rfft_fast_f32.c ****  * SPDX-License-Identifier: Apache-2.0
  15:../Dave/Generated/CMSIS_DSP/TransformFunctions/arm_rfft_fast_f32.c ****  *
  16:../Dave/Generated/CMSIS_DSP/TransformFunctions/arm_rfft_fast_f32.c ****  * Licensed under the Apache License, Version 2.0 (the License); you may
  17:../Dave/Generated/CMSIS_DSP/TransformFunctions/arm_rfft_fast_f32.c ****  * not use this file except in compliance with the License.
  18:../Dave/Generated/CMSIS_DSP/TransformFunctions/arm_rfft_fast_f32.c ****  * You may obtain a copy of the License at
  19:../Dave/Generated/CMSIS_DSP/TransformFunctions/arm_rfft_fast_f32.c ****  *
  20:../Dave/Generated/CMSIS_DSP/TransformFunctions/arm_rfft_fast_f32.c ****  * www.apache.org/licenses/LICENSE-2.0
  21:../Dave/Generated/CMSIS_DSP/TransformFunctions/arm_rfft_fast_f32.c ****  *
  22:../Dave/Generated/CMSIS_DSP/TransformFunctions/arm_rfft_fast_f32.c ****  * Unless required by applicable law or agreed to in writing, software
  23:../Dave/Generated/CMSIS_DSP/TransformFunctions/arm_rfft_fast_f32.c ****  * distributed under the License is distributed on an AS IS BASIS, WITHOUT
  24:../Dave/Generated/CMSIS_DSP/TransformFunctions/arm_rfft_fast_f32.c ****  * WARRANTIES OR CONDITIONS OF ANY KIND, either express or implied.
  25:../Dave/Generated/CMSIS_DSP/TransformFunctions/arm_rfft_fast_f32.c ****  * See the License for the specific language governing permissions and
  26:../Dave/Generated/CMSIS_DSP/TransformFunctions/arm_rfft_fast_f32.c ****  * limitations under the License.
  27:../Dave/Generated/CMSIS_DSP/TransformFunctions/arm_rfft_fast_f32.c ****  */
  28:../Dave/Generated/CMSIS_DSP/TransformFunctions/arm_rfft_fast_f32.c **** 
  29:../Dave/Generated/CMSIS_DSP/TransformFunctions/arm_rfft_fast_f32.c **** #include "CMSIS_DSP/cmsis_dsp.h"
  30:../Dave/Generated/CMSIS_DSP/TransformFunctions/arm_rfft_fast_f32.c **** 
  31:../Dave/Generated/CMSIS_DSP/TransformFunctions/arm_rfft_fast_f32.c **** void stage_rfft_f32(
  32:../Dave/Generated/CMSIS_DSP/TransformFunctions/arm_rfft_fast_f32.c ****   arm_rfft_fast_instance_f32 * S,
  33:../Dave/Generated/CMSIS_DSP/TransformFunctions/arm_rfft_fast_f32.c ****   float32_t * p, float32_t * pOut)
  34:../Dave/Generated/CMSIS_DSP/TransformFunctions/arm_rfft_fast_f32.c **** {
  28              	 .loc 1 34 0
  29              	 .cfi_startproc
  30              	 
  31              	 
  32              	 
  33 0000 80B4     	 push {r7}
  34              	.LCFI0:
  35              	 .cfi_def_cfa_offset 4
  36              	 .cfi_offset 7,-4
  37 0002 95B0     	 sub sp,sp,#84
  38              	.LCFI1:
  39              	 .cfi_def_cfa_offset 88
  40 0004 00AF     	 add r7,sp,#0
  41              	.LCFI2:
  42              	 .cfi_def_cfa_register 7
  43 0006 F860     	 str r0,[r7,#12]
  44 0008 B960     	 str r1,[r7,#8]
  45 000a 7A60     	 str r2,[r7,#4]
  35:../Dave/Generated/CMSIS_DSP/TransformFunctions/arm_rfft_fast_f32.c ****    uint32_t  k;								   /* Loop Counter                     */
  36:../Dave/Generated/CMSIS_DSP/TransformFunctions/arm_rfft_fast_f32.c ****    float32_t twR, twI;						   /* RFFT Twiddle coefficients        */
  37:../Dave/Generated/CMSIS_DSP/TransformFunctions/arm_rfft_fast_f32.c ****    float32_t * pCoeff = S->pTwiddleRFFT;  /* Points to RFFT Twiddle factors   */
  46              	 .loc 1 37 0
  47 000c FB68     	 ldr r3,[r7,#12]
  48 000e 5B69     	 ldr r3,[r3,#20]
  49 0010 BB64     	 str r3,[r7,#72]
  38:../Dave/Generated/CMSIS_DSP/TransformFunctions/arm_rfft_fast_f32.c ****    float32_t *pA = p;						   /* increasing pointer               */
  50              	 .loc 1 38 0
  51 0012 BB68     	 ldr r3,[r7,#8]
  52 0014 7B64     	 str r3,[r7,#68]
  39:../Dave/Generated/CMSIS_DSP/TransformFunctions/arm_rfft_fast_f32.c ****    float32_t *pB = p;						   /* decreasing pointer               */
  53              	 .loc 1 39 0
  54 0016 BB68     	 ldr r3,[r7,#8]
  55 0018 3B64     	 str r3,[r7,#64]
  40:../Dave/Generated/CMSIS_DSP/TransformFunctions/arm_rfft_fast_f32.c ****    float32_t xAR, xAI, xBR, xBI;				/* temporary variables              */
  41:../Dave/Generated/CMSIS_DSP/TransformFunctions/arm_rfft_fast_f32.c ****    float32_t t1a, t1b;				         /* temporary variables              */
  42:../Dave/Generated/CMSIS_DSP/TransformFunctions/arm_rfft_fast_f32.c ****    float32_t p0, p1, p2, p3;				   /* temporary variables              */
  43:../Dave/Generated/CMSIS_DSP/TransformFunctions/arm_rfft_fast_f32.c **** 
  44:../Dave/Generated/CMSIS_DSP/TransformFunctions/arm_rfft_fast_f32.c **** 
  45:../Dave/Generated/CMSIS_DSP/TransformFunctions/arm_rfft_fast_f32.c ****    k = (S->Sint).fftLen - 1;
  56              	 .loc 1 45 0
  57 001a FB68     	 ldr r3,[r7,#12]
  58 001c 1B88     	 ldrh r3,[r3]
  59 001e 013B     	 subs r3,r3,#1
  60 0020 FB64     	 str r3,[r7,#76]
  46:../Dave/Generated/CMSIS_DSP/TransformFunctions/arm_rfft_fast_f32.c **** 
  47:../Dave/Generated/CMSIS_DSP/TransformFunctions/arm_rfft_fast_f32.c ****    /* Pack first and last sample of the frequency domain together */
  48:../Dave/Generated/CMSIS_DSP/TransformFunctions/arm_rfft_fast_f32.c **** 
  49:../Dave/Generated/CMSIS_DSP/TransformFunctions/arm_rfft_fast_f32.c ****    xBR = pB[0];
  61              	 .loc 1 49 0
  62 0022 3B6C     	 ldr r3,[r7,#64]
  63 0024 1B68     	 ldr r3,[r3]
  64 0026 FB63     	 str r3,[r7,#60]
  50:../Dave/Generated/CMSIS_DSP/TransformFunctions/arm_rfft_fast_f32.c ****    xBI = pB[1];
  65              	 .loc 1 50 0
  66 0028 3B6C     	 ldr r3,[r7,#64]
  67 002a 5B68     	 ldr r3,[r3,#4]
  68 002c BB63     	 str r3,[r7,#56]
  51:../Dave/Generated/CMSIS_DSP/TransformFunctions/arm_rfft_fast_f32.c ****    xAR = pA[0];
  69              	 .loc 1 51 0
  70 002e 7B6C     	 ldr r3,[r7,#68]
  71 0030 1B68     	 ldr r3,[r3]
  72 0032 7B63     	 str r3,[r7,#52]
  52:../Dave/Generated/CMSIS_DSP/TransformFunctions/arm_rfft_fast_f32.c ****    xAI = pA[1];
  73              	 .loc 1 52 0
  74 0034 7B6C     	 ldr r3,[r7,#68]
  75 0036 5B68     	 ldr r3,[r3,#4]
  76 0038 3B63     	 str r3,[r7,#48]
  53:../Dave/Generated/CMSIS_DSP/TransformFunctions/arm_rfft_fast_f32.c **** 
  54:../Dave/Generated/CMSIS_DSP/TransformFunctions/arm_rfft_fast_f32.c ****    twR = *pCoeff++ ;
  77              	 .loc 1 54 0
  78 003a BB6C     	 ldr r3,[r7,#72]
  79 003c 1A1D     	 adds r2,r3,#4
  80 003e BA64     	 str r2,[r7,#72]
  81 0040 1B68     	 ldr r3,[r3]
  82 0042 FB62     	 str r3,[r7,#44]
  55:../Dave/Generated/CMSIS_DSP/TransformFunctions/arm_rfft_fast_f32.c ****    twI = *pCoeff++ ;
  83              	 .loc 1 55 0
  84 0044 BB6C     	 ldr r3,[r7,#72]
  85 0046 1A1D     	 adds r2,r3,#4
  86 0048 BA64     	 str r2,[r7,#72]
  87 004a 1B68     	 ldr r3,[r3]
  88 004c BB62     	 str r3,[r7,#40]
  56:../Dave/Generated/CMSIS_DSP/TransformFunctions/arm_rfft_fast_f32.c **** 
  57:../Dave/Generated/CMSIS_DSP/TransformFunctions/arm_rfft_fast_f32.c ****    // U1 = XA(1) + XB(1); % It is real
  58:../Dave/Generated/CMSIS_DSP/TransformFunctions/arm_rfft_fast_f32.c ****    t1a = xBR + xAR  ;
  89              	 .loc 1 58 0
  90 004e 97ED0F7A 	 flds s14,[r7,#60]
  91 0052 D7ED0D7A 	 flds s15,[r7,#52]
  92 0056 77EE277A 	 fadds s15,s14,s15
  93 005a C7ED097A 	 fsts s15,[r7,#36]
  59:../Dave/Generated/CMSIS_DSP/TransformFunctions/arm_rfft_fast_f32.c **** 
  60:../Dave/Generated/CMSIS_DSP/TransformFunctions/arm_rfft_fast_f32.c ****    // U2 = XB(1) - XA(1); % It is imaginary
  61:../Dave/Generated/CMSIS_DSP/TransformFunctions/arm_rfft_fast_f32.c ****    t1b = xBI + xAI  ;
  94              	 .loc 1 61 0
  95 005e 97ED0E7A 	 flds s14,[r7,#56]
  96 0062 D7ED0C7A 	 flds s15,[r7,#48]
  97 0066 77EE277A 	 fadds s15,s14,s15
  98 006a C7ED087A 	 fsts s15,[r7,#32]
  62:../Dave/Generated/CMSIS_DSP/TransformFunctions/arm_rfft_fast_f32.c **** 
  63:../Dave/Generated/CMSIS_DSP/TransformFunctions/arm_rfft_fast_f32.c ****    // real(tw * (xB - xA)) = twR * (xBR - xAR) - twI * (xBI - xAI);
  64:../Dave/Generated/CMSIS_DSP/TransformFunctions/arm_rfft_fast_f32.c ****    // imag(tw * (xB - xA)) = twI * (xBR - xAR) + twR * (xBI - xAI);
  65:../Dave/Generated/CMSIS_DSP/TransformFunctions/arm_rfft_fast_f32.c ****    *pOut++ = 0.5f * ( t1a + t1b );
  99              	 .loc 1 65 0
 100 006e 7B68     	 ldr r3,[r7,#4]
 101 0070 1A1D     	 adds r2,r3,#4
 102 0072 7A60     	 str r2,[r7,#4]
 103 0074 97ED097A 	 flds s14,[r7,#36]
 104 0078 D7ED087A 	 flds s15,[r7,#32]
 105 007c 77EE277A 	 fadds s15,s14,s15
 106 0080 B6EE007A 	 fconsts s14,#96
 107 0084 67EE877A 	 fmuls s15,s15,s14
 108 0088 C3ED007A 	 fsts s15,[r3]
  66:../Dave/Generated/CMSIS_DSP/TransformFunctions/arm_rfft_fast_f32.c ****    *pOut++ = 0.5f * ( t1a - t1b );
 109              	 .loc 1 66 0
 110 008c 7B68     	 ldr r3,[r7,#4]
 111 008e 1A1D     	 adds r2,r3,#4
 112 0090 7A60     	 str r2,[r7,#4]
 113 0092 97ED097A 	 flds s14,[r7,#36]
 114 0096 D7ED087A 	 flds s15,[r7,#32]
 115 009a 77EE677A 	 fsubs s15,s14,s15
 116 009e B6EE007A 	 fconsts s14,#96
 117 00a2 67EE877A 	 fmuls s15,s15,s14
 118 00a6 C3ED007A 	 fsts s15,[r3]
  67:../Dave/Generated/CMSIS_DSP/TransformFunctions/arm_rfft_fast_f32.c **** 
  68:../Dave/Generated/CMSIS_DSP/TransformFunctions/arm_rfft_fast_f32.c ****    // XA(1) = 1/2*( U1 - imag(U2) +  i*( U1 +imag(U2) ));
  69:../Dave/Generated/CMSIS_DSP/TransformFunctions/arm_rfft_fast_f32.c ****    pB  = p + 2*k;
 119              	 .loc 1 69 0
 120 00aa FB6C     	 ldr r3,[r7,#76]
 121 00ac DB00     	 lsls r3,r3,#3
 122 00ae BA68     	 ldr r2,[r7,#8]
 123 00b0 1344     	 add r3,r3,r2
 124 00b2 3B64     	 str r3,[r7,#64]
  70:../Dave/Generated/CMSIS_DSP/TransformFunctions/arm_rfft_fast_f32.c ****    pA += 2;
 125              	 .loc 1 70 0
 126 00b4 7B6C     	 ldr r3,[r7,#68]
 127 00b6 0833     	 adds r3,r3,#8
 128 00b8 7B64     	 str r3,[r7,#68]
 129              	.L2:
  71:../Dave/Generated/CMSIS_DSP/TransformFunctions/arm_rfft_fast_f32.c **** 
  72:../Dave/Generated/CMSIS_DSP/TransformFunctions/arm_rfft_fast_f32.c ****    do
  73:../Dave/Generated/CMSIS_DSP/TransformFunctions/arm_rfft_fast_f32.c ****    {
  74:../Dave/Generated/CMSIS_DSP/TransformFunctions/arm_rfft_fast_f32.c ****       /*
  75:../Dave/Generated/CMSIS_DSP/TransformFunctions/arm_rfft_fast_f32.c ****          function X = my_split_rfft(X, ifftFlag)
  76:../Dave/Generated/CMSIS_DSP/TransformFunctions/arm_rfft_fast_f32.c ****          % X is a series of real numbers
  77:../Dave/Generated/CMSIS_DSP/TransformFunctions/arm_rfft_fast_f32.c ****          L  = length(X);
  78:../Dave/Generated/CMSIS_DSP/TransformFunctions/arm_rfft_fast_f32.c ****          XC = X(1:2:end) +i*X(2:2:end);
  79:../Dave/Generated/CMSIS_DSP/TransformFunctions/arm_rfft_fast_f32.c ****          XA = fft(XC);
  80:../Dave/Generated/CMSIS_DSP/TransformFunctions/arm_rfft_fast_f32.c ****          XB = conj(XA([1 end:-1:2]));
  81:../Dave/Generated/CMSIS_DSP/TransformFunctions/arm_rfft_fast_f32.c ****          TW = i*exp(-2*pi*i*[0:L/2-1]/L).';
  82:../Dave/Generated/CMSIS_DSP/TransformFunctions/arm_rfft_fast_f32.c ****          for l = 2:L/2
  83:../Dave/Generated/CMSIS_DSP/TransformFunctions/arm_rfft_fast_f32.c ****             XA(l) = 1/2 * (XA(l) + XB(l) + TW(l) * (XB(l) - XA(l)));
  84:../Dave/Generated/CMSIS_DSP/TransformFunctions/arm_rfft_fast_f32.c ****          end
  85:../Dave/Generated/CMSIS_DSP/TransformFunctions/arm_rfft_fast_f32.c ****          XA(1) = 1/2* (XA(1) + XB(1) + TW(1) * (XB(1) - XA(1))) + i*( 1/2*( XA(1) + XB(1) + i*( XA(
  86:../Dave/Generated/CMSIS_DSP/TransformFunctions/arm_rfft_fast_f32.c ****          X = XA;
  87:../Dave/Generated/CMSIS_DSP/TransformFunctions/arm_rfft_fast_f32.c ****       */
  88:../Dave/Generated/CMSIS_DSP/TransformFunctions/arm_rfft_fast_f32.c **** 
  89:../Dave/Generated/CMSIS_DSP/TransformFunctions/arm_rfft_fast_f32.c ****       xBI = pB[1];
 130              	 .loc 1 89 0 discriminator 1
 131 00ba 3B6C     	 ldr r3,[r7,#64]
 132 00bc 5B68     	 ldr r3,[r3,#4]
 133 00be BB63     	 str r3,[r7,#56]
  90:../Dave/Generated/CMSIS_DSP/TransformFunctions/arm_rfft_fast_f32.c ****       xBR = pB[0];
 134              	 .loc 1 90 0 discriminator 1
 135 00c0 3B6C     	 ldr r3,[r7,#64]
 136 00c2 1B68     	 ldr r3,[r3]
 137 00c4 FB63     	 str r3,[r7,#60]
  91:../Dave/Generated/CMSIS_DSP/TransformFunctions/arm_rfft_fast_f32.c ****       xAR = pA[0];
 138              	 .loc 1 91 0 discriminator 1
 139 00c6 7B6C     	 ldr r3,[r7,#68]
 140 00c8 1B68     	 ldr r3,[r3]
 141 00ca 7B63     	 str r3,[r7,#52]
  92:../Dave/Generated/CMSIS_DSP/TransformFunctions/arm_rfft_fast_f32.c ****       xAI = pA[1];
 142              	 .loc 1 92 0 discriminator 1
 143 00cc 7B6C     	 ldr r3,[r7,#68]
 144 00ce 5B68     	 ldr r3,[r3,#4]
 145 00d0 3B63     	 str r3,[r7,#48]
  93:../Dave/Generated/CMSIS_DSP/TransformFunctions/arm_rfft_fast_f32.c **** 
  94:../Dave/Generated/CMSIS_DSP/TransformFunctions/arm_rfft_fast_f32.c ****       twR = *pCoeff++;
 146              	 .loc 1 94 0 discriminator 1
 147 00d2 BB6C     	 ldr r3,[r7,#72]
 148 00d4 1A1D     	 adds r2,r3,#4
 149 00d6 BA64     	 str r2,[r7,#72]
 150 00d8 1B68     	 ldr r3,[r3]
 151 00da FB62     	 str r3,[r7,#44]
  95:../Dave/Generated/CMSIS_DSP/TransformFunctions/arm_rfft_fast_f32.c ****       twI = *pCoeff++;
 152              	 .loc 1 95 0 discriminator 1
 153 00dc BB6C     	 ldr r3,[r7,#72]
 154 00de 1A1D     	 adds r2,r3,#4
 155 00e0 BA64     	 str r2,[r7,#72]
 156 00e2 1B68     	 ldr r3,[r3]
 157 00e4 BB62     	 str r3,[r7,#40]
  96:../Dave/Generated/CMSIS_DSP/TransformFunctions/arm_rfft_fast_f32.c **** 
  97:../Dave/Generated/CMSIS_DSP/TransformFunctions/arm_rfft_fast_f32.c ****       t1a = xBR - xAR ;
 158              	 .loc 1 97 0 discriminator 1
 159 00e6 97ED0F7A 	 flds s14,[r7,#60]
 160 00ea D7ED0D7A 	 flds s15,[r7,#52]
 161 00ee 77EE677A 	 fsubs s15,s14,s15
 162 00f2 C7ED097A 	 fsts s15,[r7,#36]
  98:../Dave/Generated/CMSIS_DSP/TransformFunctions/arm_rfft_fast_f32.c ****       t1b = xBI + xAI ;
 163              	 .loc 1 98 0 discriminator 1
 164 00f6 97ED0E7A 	 flds s14,[r7,#56]
 165 00fa D7ED0C7A 	 flds s15,[r7,#48]
 166 00fe 77EE277A 	 fadds s15,s14,s15
 167 0102 C7ED087A 	 fsts s15,[r7,#32]
  99:../Dave/Generated/CMSIS_DSP/TransformFunctions/arm_rfft_fast_f32.c **** 
 100:../Dave/Generated/CMSIS_DSP/TransformFunctions/arm_rfft_fast_f32.c ****       // real(tw * (xB - xA)) = twR * (xBR - xAR) - twI * (xBI - xAI);
 101:../Dave/Generated/CMSIS_DSP/TransformFunctions/arm_rfft_fast_f32.c ****       // imag(tw * (xB - xA)) = twI * (xBR - xAR) + twR * (xBI - xAI);
 102:../Dave/Generated/CMSIS_DSP/TransformFunctions/arm_rfft_fast_f32.c ****       p0 = twR * t1a;
 168              	 .loc 1 102 0 discriminator 1
 169 0106 97ED0B7A 	 flds s14,[r7,#44]
 170 010a D7ED097A 	 flds s15,[r7,#36]
 171 010e 67EE277A 	 fmuls s15,s14,s15
 172 0112 C7ED077A 	 fsts s15,[r7,#28]
 103:../Dave/Generated/CMSIS_DSP/TransformFunctions/arm_rfft_fast_f32.c ****       p1 = twI * t1a;
 173              	 .loc 1 103 0 discriminator 1
 174 0116 97ED0A7A 	 flds s14,[r7,#40]
 175 011a D7ED097A 	 flds s15,[r7,#36]
 176 011e 67EE277A 	 fmuls s15,s14,s15
 177 0122 C7ED067A 	 fsts s15,[r7,#24]
 104:../Dave/Generated/CMSIS_DSP/TransformFunctions/arm_rfft_fast_f32.c ****       p2 = twR * t1b;
 178              	 .loc 1 104 0 discriminator 1
 179 0126 97ED0B7A 	 flds s14,[r7,#44]
 180 012a D7ED087A 	 flds s15,[r7,#32]
 181 012e 67EE277A 	 fmuls s15,s14,s15
 182 0132 C7ED057A 	 fsts s15,[r7,#20]
 105:../Dave/Generated/CMSIS_DSP/TransformFunctions/arm_rfft_fast_f32.c ****       p3 = twI * t1b;
 183              	 .loc 1 105 0 discriminator 1
 184 0136 97ED0A7A 	 flds s14,[r7,#40]
 185 013a D7ED087A 	 flds s15,[r7,#32]
 186 013e 67EE277A 	 fmuls s15,s14,s15
 187 0142 C7ED047A 	 fsts s15,[r7,#16]
 106:../Dave/Generated/CMSIS_DSP/TransformFunctions/arm_rfft_fast_f32.c **** 
 107:../Dave/Generated/CMSIS_DSP/TransformFunctions/arm_rfft_fast_f32.c ****       *pOut++ = 0.5f * (xAR + xBR + p0 + p3 ); //xAR
 188              	 .loc 1 107 0 discriminator 1
 189 0146 7B68     	 ldr r3,[r7,#4]
 190 0148 1A1D     	 adds r2,r3,#4
 191 014a 7A60     	 str r2,[r7,#4]
 192 014c 97ED0D7A 	 flds s14,[r7,#52]
 193 0150 D7ED0F7A 	 flds s15,[r7,#60]
 194 0154 37EE277A 	 fadds s14,s14,s15
 195 0158 D7ED077A 	 flds s15,[r7,#28]
 196 015c 37EE277A 	 fadds s14,s14,s15
 197 0160 D7ED047A 	 flds s15,[r7,#16]
 198 0164 77EE277A 	 fadds s15,s14,s15
 199 0168 B6EE007A 	 fconsts s14,#96
 200 016c 67EE877A 	 fmuls s15,s15,s14
 201 0170 C3ED007A 	 fsts s15,[r3]
 108:../Dave/Generated/CMSIS_DSP/TransformFunctions/arm_rfft_fast_f32.c ****       *pOut++ = 0.5f * (xAI - xBI + p1 - p2 ); //xAI
 202              	 .loc 1 108 0 discriminator 1
 203 0174 7B68     	 ldr r3,[r7,#4]
 204 0176 1A1D     	 adds r2,r3,#4
 205 0178 7A60     	 str r2,[r7,#4]
 206 017a 97ED0C7A 	 flds s14,[r7,#48]
 207 017e D7ED0E7A 	 flds s15,[r7,#56]
 208 0182 37EE677A 	 fsubs s14,s14,s15
 209 0186 D7ED067A 	 flds s15,[r7,#24]
 210 018a 37EE277A 	 fadds s14,s14,s15
 211 018e D7ED057A 	 flds s15,[r7,#20]
 212 0192 77EE677A 	 fsubs s15,s14,s15
 213 0196 B6EE007A 	 fconsts s14,#96
 214 019a 67EE877A 	 fmuls s15,s15,s14
 215 019e C3ED007A 	 fsts s15,[r3]
 109:../Dave/Generated/CMSIS_DSP/TransformFunctions/arm_rfft_fast_f32.c **** 
 110:../Dave/Generated/CMSIS_DSP/TransformFunctions/arm_rfft_fast_f32.c ****       pA += 2;
 216              	 .loc 1 110 0 discriminator 1
 217 01a2 7B6C     	 ldr r3,[r7,#68]
 218 01a4 0833     	 adds r3,r3,#8
 219 01a6 7B64     	 str r3,[r7,#68]
 111:../Dave/Generated/CMSIS_DSP/TransformFunctions/arm_rfft_fast_f32.c ****       pB -= 2;
 220              	 .loc 1 111 0 discriminator 1
 221 01a8 3B6C     	 ldr r3,[r7,#64]
 222 01aa 083B     	 subs r3,r3,#8
 223 01ac 3B64     	 str r3,[r7,#64]
 112:../Dave/Generated/CMSIS_DSP/TransformFunctions/arm_rfft_fast_f32.c ****       k--;
 224              	 .loc 1 112 0 discriminator 1
 225 01ae FB6C     	 ldr r3,[r7,#76]
 226 01b0 013B     	 subs r3,r3,#1
 227 01b2 FB64     	 str r3,[r7,#76]
 113:../Dave/Generated/CMSIS_DSP/TransformFunctions/arm_rfft_fast_f32.c ****    } while (k > 0u);
 228              	 .loc 1 113 0 discriminator 1
 229 01b4 FB6C     	 ldr r3,[r7,#76]
 230 01b6 002B     	 cmp r3,#0
 231 01b8 7FF47FAF 	 bne .L2
 114:../Dave/Generated/CMSIS_DSP/TransformFunctions/arm_rfft_fast_f32.c **** }
 232              	 .loc 1 114 0
 233 01bc 5437     	 adds r7,r7,#84
 234              	.LCFI3:
 235              	 .cfi_def_cfa_offset 4
 236 01be BD46     	 mov sp,r7
 237              	.LCFI4:
 238              	 .cfi_def_cfa_register 13
 239              	 
 240 01c0 5DF8047B 	 ldr r7,[sp],#4
 241              	.LCFI5:
 242              	 .cfi_restore 7
 243              	 .cfi_def_cfa_offset 0
 244 01c4 7047     	 bx lr
 245              	 .cfi_endproc
 246              	.LFE135:
 248 01c6 00BF     	 .section .text.merge_rfft_f32,"ax",%progbits
 249              	 .align 2
 250              	 .global merge_rfft_f32
 251              	 .thumb
 252              	 .thumb_func
 254              	merge_rfft_f32:
 255              	.LFB136:
 115:../Dave/Generated/CMSIS_DSP/TransformFunctions/arm_rfft_fast_f32.c **** 
 116:../Dave/Generated/CMSIS_DSP/TransformFunctions/arm_rfft_fast_f32.c **** /* Prepares data for inverse cfft */
 117:../Dave/Generated/CMSIS_DSP/TransformFunctions/arm_rfft_fast_f32.c **** void merge_rfft_f32(
 118:../Dave/Generated/CMSIS_DSP/TransformFunctions/arm_rfft_fast_f32.c **** arm_rfft_fast_instance_f32 * S,
 119:../Dave/Generated/CMSIS_DSP/TransformFunctions/arm_rfft_fast_f32.c **** float32_t * p, float32_t * pOut)
 120:../Dave/Generated/CMSIS_DSP/TransformFunctions/arm_rfft_fast_f32.c **** {
 256              	 .loc 1 120 0
 257              	 .cfi_startproc
 258              	 
 259              	 
 260              	 
 261 0000 80B4     	 push {r7}
 262              	.LCFI6:
 263              	 .cfi_def_cfa_offset 4
 264              	 .cfi_offset 7,-4
 265 0002 95B0     	 sub sp,sp,#84
 266              	.LCFI7:
 267              	 .cfi_def_cfa_offset 88
 268 0004 00AF     	 add r7,sp,#0
 269              	.LCFI8:
 270              	 .cfi_def_cfa_register 7
 271 0006 F860     	 str r0,[r7,#12]
 272 0008 B960     	 str r1,[r7,#8]
 273 000a 7A60     	 str r2,[r7,#4]
 121:../Dave/Generated/CMSIS_DSP/TransformFunctions/arm_rfft_fast_f32.c ****    uint32_t  k;								/* Loop Counter                     */
 122:../Dave/Generated/CMSIS_DSP/TransformFunctions/arm_rfft_fast_f32.c ****    float32_t twR, twI;						/* RFFT Twiddle coefficients        */
 123:../Dave/Generated/CMSIS_DSP/TransformFunctions/arm_rfft_fast_f32.c ****    float32_t *pCoeff = S->pTwiddleRFFT;		/* Points to RFFT Twiddle factors   */
 274              	 .loc 1 123 0
 275 000c FB68     	 ldr r3,[r7,#12]
 276 000e 5B69     	 ldr r3,[r3,#20]
 277 0010 BB64     	 str r3,[r7,#72]
 124:../Dave/Generated/CMSIS_DSP/TransformFunctions/arm_rfft_fast_f32.c ****    float32_t *pA = p;						/* increasing pointer               */
 278              	 .loc 1 124 0
 279 0012 BB68     	 ldr r3,[r7,#8]
 280 0014 7B64     	 str r3,[r7,#68]
 125:../Dave/Generated/CMSIS_DSP/TransformFunctions/arm_rfft_fast_f32.c ****    float32_t *pB = p;						/* decreasing pointer               */
 281              	 .loc 1 125 0
 282 0016 BB68     	 ldr r3,[r7,#8]
 283 0018 3B64     	 str r3,[r7,#64]
 126:../Dave/Generated/CMSIS_DSP/TransformFunctions/arm_rfft_fast_f32.c ****    float32_t xAR, xAI, xBR, xBI;			/* temporary variables              */
 127:../Dave/Generated/CMSIS_DSP/TransformFunctions/arm_rfft_fast_f32.c ****    float32_t t1a, t1b, r, s, t, u;			/* temporary variables              */
 128:../Dave/Generated/CMSIS_DSP/TransformFunctions/arm_rfft_fast_f32.c **** 
 129:../Dave/Generated/CMSIS_DSP/TransformFunctions/arm_rfft_fast_f32.c ****    k = (S->Sint).fftLen - 1;
 284              	 .loc 1 129 0
 285 001a FB68     	 ldr r3,[r7,#12]
 286 001c 1B88     	 ldrh r3,[r3]
 287 001e 013B     	 subs r3,r3,#1
 288 0020 FB64     	 str r3,[r7,#76]
 130:../Dave/Generated/CMSIS_DSP/TransformFunctions/arm_rfft_fast_f32.c **** 
 131:../Dave/Generated/CMSIS_DSP/TransformFunctions/arm_rfft_fast_f32.c ****    xAR = pA[0];
 289              	 .loc 1 131 0
 290 0022 7B6C     	 ldr r3,[r7,#68]
 291 0024 1B68     	 ldr r3,[r3]
 292 0026 FB63     	 str r3,[r7,#60]
 132:../Dave/Generated/CMSIS_DSP/TransformFunctions/arm_rfft_fast_f32.c ****    xAI = pA[1];
 293              	 .loc 1 132 0
 294 0028 7B6C     	 ldr r3,[r7,#68]
 295 002a 5B68     	 ldr r3,[r3,#4]
 296 002c BB63     	 str r3,[r7,#56]
 133:../Dave/Generated/CMSIS_DSP/TransformFunctions/arm_rfft_fast_f32.c **** 
 134:../Dave/Generated/CMSIS_DSP/TransformFunctions/arm_rfft_fast_f32.c ****    pCoeff += 2 ;
 297              	 .loc 1 134 0
 298 002e BB6C     	 ldr r3,[r7,#72]
 299 0030 0833     	 adds r3,r3,#8
 300 0032 BB64     	 str r3,[r7,#72]
 135:../Dave/Generated/CMSIS_DSP/TransformFunctions/arm_rfft_fast_f32.c **** 
 136:../Dave/Generated/CMSIS_DSP/TransformFunctions/arm_rfft_fast_f32.c ****    *pOut++ = 0.5f * ( xAR + xAI );
 301              	 .loc 1 136 0
 302 0034 7B68     	 ldr r3,[r7,#4]
 303 0036 1A1D     	 adds r2,r3,#4
 304 0038 7A60     	 str r2,[r7,#4]
 305 003a 97ED0F7A 	 flds s14,[r7,#60]
 306 003e D7ED0E7A 	 flds s15,[r7,#56]
 307 0042 77EE277A 	 fadds s15,s14,s15
 308 0046 B6EE007A 	 fconsts s14,#96
 309 004a 67EE877A 	 fmuls s15,s15,s14
 310 004e C3ED007A 	 fsts s15,[r3]
 137:../Dave/Generated/CMSIS_DSP/TransformFunctions/arm_rfft_fast_f32.c ****    *pOut++ = 0.5f * ( xAR - xAI );
 311              	 .loc 1 137 0
 312 0052 7B68     	 ldr r3,[r7,#4]
 313 0054 1A1D     	 adds r2,r3,#4
 314 0056 7A60     	 str r2,[r7,#4]
 315 0058 97ED0F7A 	 flds s14,[r7,#60]
 316 005c D7ED0E7A 	 flds s15,[r7,#56]
 317 0060 77EE677A 	 fsubs s15,s14,s15
 318 0064 B6EE007A 	 fconsts s14,#96
 319 0068 67EE877A 	 fmuls s15,s15,s14
 320 006c C3ED007A 	 fsts s15,[r3]
 138:../Dave/Generated/CMSIS_DSP/TransformFunctions/arm_rfft_fast_f32.c **** 
 139:../Dave/Generated/CMSIS_DSP/TransformFunctions/arm_rfft_fast_f32.c ****    pB  =  p + 2*k ;
 321              	 .loc 1 139 0
 322 0070 FB6C     	 ldr r3,[r7,#76]
 323 0072 DB00     	 lsls r3,r3,#3
 324 0074 BA68     	 ldr r2,[r7,#8]
 325 0076 1344     	 add r3,r3,r2
 326 0078 3B64     	 str r3,[r7,#64]
 140:../Dave/Generated/CMSIS_DSP/TransformFunctions/arm_rfft_fast_f32.c ****    pA +=  2	   ;
 327              	 .loc 1 140 0
 328 007a 7B6C     	 ldr r3,[r7,#68]
 329 007c 0833     	 adds r3,r3,#8
 330 007e 7B64     	 str r3,[r7,#68]
 141:../Dave/Generated/CMSIS_DSP/TransformFunctions/arm_rfft_fast_f32.c **** 
 142:../Dave/Generated/CMSIS_DSP/TransformFunctions/arm_rfft_fast_f32.c ****    while (k > 0u)
 331              	 .loc 1 142 0
 332 0080 7CE0     	 b .L4
 333              	.L5:
 143:../Dave/Generated/CMSIS_DSP/TransformFunctions/arm_rfft_fast_f32.c ****    {
 144:../Dave/Generated/CMSIS_DSP/TransformFunctions/arm_rfft_fast_f32.c ****       /* G is half of the frequency complex spectrum */
 145:../Dave/Generated/CMSIS_DSP/TransformFunctions/arm_rfft_fast_f32.c ****       //for k = 2:N
 146:../Dave/Generated/CMSIS_DSP/TransformFunctions/arm_rfft_fast_f32.c ****       //    Xk(k) = 1/2 * (G(k) + conj(G(N-k+2)) + Tw(k)*( G(k) - conj(G(N-k+2))));
 147:../Dave/Generated/CMSIS_DSP/TransformFunctions/arm_rfft_fast_f32.c ****       xBI =   pB[1]    ;
 334              	 .loc 1 147 0
 335 0082 3B6C     	 ldr r3,[r7,#64]
 336 0084 5B68     	 ldr r3,[r3,#4]
 337 0086 7B63     	 str r3,[r7,#52]
 148:../Dave/Generated/CMSIS_DSP/TransformFunctions/arm_rfft_fast_f32.c ****       xBR =   pB[0]    ;
 338              	 .loc 1 148 0
 339 0088 3B6C     	 ldr r3,[r7,#64]
 340 008a 1B68     	 ldr r3,[r3]
 341 008c 3B63     	 str r3,[r7,#48]
 149:../Dave/Generated/CMSIS_DSP/TransformFunctions/arm_rfft_fast_f32.c ****       xAR =  pA[0];
 342              	 .loc 1 149 0
 343 008e 7B6C     	 ldr r3,[r7,#68]
 344 0090 1B68     	 ldr r3,[r3]
 345 0092 FB63     	 str r3,[r7,#60]
 150:../Dave/Generated/CMSIS_DSP/TransformFunctions/arm_rfft_fast_f32.c ****       xAI =  pA[1];
 346              	 .loc 1 150 0
 347 0094 7B6C     	 ldr r3,[r7,#68]
 348 0096 5B68     	 ldr r3,[r3,#4]
 349 0098 BB63     	 str r3,[r7,#56]
 151:../Dave/Generated/CMSIS_DSP/TransformFunctions/arm_rfft_fast_f32.c **** 
 152:../Dave/Generated/CMSIS_DSP/TransformFunctions/arm_rfft_fast_f32.c ****       twR = *pCoeff++;
 350              	 .loc 1 152 0
 351 009a BB6C     	 ldr r3,[r7,#72]
 352 009c 1A1D     	 adds r2,r3,#4
 353 009e BA64     	 str r2,[r7,#72]
 354 00a0 1B68     	 ldr r3,[r3]
 355 00a2 FB62     	 str r3,[r7,#44]
 153:../Dave/Generated/CMSIS_DSP/TransformFunctions/arm_rfft_fast_f32.c ****       twI = *pCoeff++;
 356              	 .loc 1 153 0
 357 00a4 BB6C     	 ldr r3,[r7,#72]
 358 00a6 1A1D     	 adds r2,r3,#4
 359 00a8 BA64     	 str r2,[r7,#72]
 360 00aa 1B68     	 ldr r3,[r3]
 361 00ac BB62     	 str r3,[r7,#40]
 154:../Dave/Generated/CMSIS_DSP/TransformFunctions/arm_rfft_fast_f32.c **** 
 155:../Dave/Generated/CMSIS_DSP/TransformFunctions/arm_rfft_fast_f32.c ****       t1a = xAR - xBR ;
 362              	 .loc 1 155 0
 363 00ae 97ED0F7A 	 flds s14,[r7,#60]
 364 00b2 D7ED0C7A 	 flds s15,[r7,#48]
 365 00b6 77EE677A 	 fsubs s15,s14,s15
 366 00ba C7ED097A 	 fsts s15,[r7,#36]
 156:../Dave/Generated/CMSIS_DSP/TransformFunctions/arm_rfft_fast_f32.c ****       t1b = xAI + xBI ;
 367              	 .loc 1 156 0
 368 00be 97ED0E7A 	 flds s14,[r7,#56]
 369 00c2 D7ED0D7A 	 flds s15,[r7,#52]
 370 00c6 77EE277A 	 fadds s15,s14,s15
 371 00ca C7ED087A 	 fsts s15,[r7,#32]
 157:../Dave/Generated/CMSIS_DSP/TransformFunctions/arm_rfft_fast_f32.c **** 
 158:../Dave/Generated/CMSIS_DSP/TransformFunctions/arm_rfft_fast_f32.c ****       r = twR * t1a;
 372              	 .loc 1 158 0
 373 00ce 97ED0B7A 	 flds s14,[r7,#44]
 374 00d2 D7ED097A 	 flds s15,[r7,#36]
 375 00d6 67EE277A 	 fmuls s15,s14,s15
 376 00da C7ED077A 	 fsts s15,[r7,#28]
 159:../Dave/Generated/CMSIS_DSP/TransformFunctions/arm_rfft_fast_f32.c ****       s = twI * t1b;
 377              	 .loc 1 159 0
 378 00de 97ED0A7A 	 flds s14,[r7,#40]
 379 00e2 D7ED087A 	 flds s15,[r7,#32]
 380 00e6 67EE277A 	 fmuls s15,s14,s15
 381 00ea C7ED067A 	 fsts s15,[r7,#24]
 160:../Dave/Generated/CMSIS_DSP/TransformFunctions/arm_rfft_fast_f32.c ****       t = twI * t1a;
 382              	 .loc 1 160 0
 383 00ee 97ED0A7A 	 flds s14,[r7,#40]
 384 00f2 D7ED097A 	 flds s15,[r7,#36]
 385 00f6 67EE277A 	 fmuls s15,s14,s15
 386 00fa C7ED057A 	 fsts s15,[r7,#20]
 161:../Dave/Generated/CMSIS_DSP/TransformFunctions/arm_rfft_fast_f32.c ****       u = twR * t1b;
 387              	 .loc 1 161 0
 388 00fe 97ED0B7A 	 flds s14,[r7,#44]
 389 0102 D7ED087A 	 flds s15,[r7,#32]
 390 0106 67EE277A 	 fmuls s15,s14,s15
 391 010a C7ED047A 	 fsts s15,[r7,#16]
 162:../Dave/Generated/CMSIS_DSP/TransformFunctions/arm_rfft_fast_f32.c **** 
 163:../Dave/Generated/CMSIS_DSP/TransformFunctions/arm_rfft_fast_f32.c ****       // real(tw * (xA - xB)) = twR * (xAR - xBR) - twI * (xAI - xBI);
 164:../Dave/Generated/CMSIS_DSP/TransformFunctions/arm_rfft_fast_f32.c ****       // imag(tw * (xA - xB)) = twI * (xAR - xBR) + twR * (xAI - xBI);
 165:../Dave/Generated/CMSIS_DSP/TransformFunctions/arm_rfft_fast_f32.c ****       *pOut++ = 0.5f * (xAR + xBR - r - s ); //xAR
 392              	 .loc 1 165 0
 393 010e 7B68     	 ldr r3,[r7,#4]
 394 0110 1A1D     	 adds r2,r3,#4
 395 0112 7A60     	 str r2,[r7,#4]
 396 0114 97ED0F7A 	 flds s14,[r7,#60]
 397 0118 D7ED0C7A 	 flds s15,[r7,#48]
 398 011c 37EE277A 	 fadds s14,s14,s15
 399 0120 D7ED077A 	 flds s15,[r7,#28]
 400 0124 37EE677A 	 fsubs s14,s14,s15
 401 0128 D7ED067A 	 flds s15,[r7,#24]
 402 012c 77EE677A 	 fsubs s15,s14,s15
 403 0130 B6EE007A 	 fconsts s14,#96
 404 0134 67EE877A 	 fmuls s15,s15,s14
 405 0138 C3ED007A 	 fsts s15,[r3]
 166:../Dave/Generated/CMSIS_DSP/TransformFunctions/arm_rfft_fast_f32.c ****       *pOut++ = 0.5f * (xAI - xBI + t - u ); //xAI
 406              	 .loc 1 166 0
 407 013c 7B68     	 ldr r3,[r7,#4]
 408 013e 1A1D     	 adds r2,r3,#4
 409 0140 7A60     	 str r2,[r7,#4]
 410 0142 97ED0E7A 	 flds s14,[r7,#56]
 411 0146 D7ED0D7A 	 flds s15,[r7,#52]
 412 014a 37EE677A 	 fsubs s14,s14,s15
 413 014e D7ED057A 	 flds s15,[r7,#20]
 414 0152 37EE277A 	 fadds s14,s14,s15
 415 0156 D7ED047A 	 flds s15,[r7,#16]
 416 015a 77EE677A 	 fsubs s15,s14,s15
 417 015e B6EE007A 	 fconsts s14,#96
 418 0162 67EE877A 	 fmuls s15,s15,s14
 419 0166 C3ED007A 	 fsts s15,[r3]
 167:../Dave/Generated/CMSIS_DSP/TransformFunctions/arm_rfft_fast_f32.c **** 
 168:../Dave/Generated/CMSIS_DSP/TransformFunctions/arm_rfft_fast_f32.c ****       pA += 2;
 420              	 .loc 1 168 0
 421 016a 7B6C     	 ldr r3,[r7,#68]
 422 016c 0833     	 adds r3,r3,#8
 423 016e 7B64     	 str r3,[r7,#68]
 169:../Dave/Generated/CMSIS_DSP/TransformFunctions/arm_rfft_fast_f32.c ****       pB -= 2;
 424              	 .loc 1 169 0
 425 0170 3B6C     	 ldr r3,[r7,#64]
 426 0172 083B     	 subs r3,r3,#8
 427 0174 3B64     	 str r3,[r7,#64]
 170:../Dave/Generated/CMSIS_DSP/TransformFunctions/arm_rfft_fast_f32.c ****       k--;
 428              	 .loc 1 170 0
 429 0176 FB6C     	 ldr r3,[r7,#76]
 430 0178 013B     	 subs r3,r3,#1
 431 017a FB64     	 str r3,[r7,#76]
 432              	.L4:
 142:../Dave/Generated/CMSIS_DSP/TransformFunctions/arm_rfft_fast_f32.c ****    {
 433              	 .loc 1 142 0
 434 017c FB6C     	 ldr r3,[r7,#76]
 435 017e 002B     	 cmp r3,#0
 436 0180 7FF47FAF 	 bne .L5
 171:../Dave/Generated/CMSIS_DSP/TransformFunctions/arm_rfft_fast_f32.c ****    }
 172:../Dave/Generated/CMSIS_DSP/TransformFunctions/arm_rfft_fast_f32.c **** 
 173:../Dave/Generated/CMSIS_DSP/TransformFunctions/arm_rfft_fast_f32.c **** }
 437              	 .loc 1 173 0
 438 0184 5437     	 adds r7,r7,#84
 439              	.LCFI9:
 440              	 .cfi_def_cfa_offset 4
 441 0186 BD46     	 mov sp,r7
 442              	.LCFI10:
 443              	 .cfi_def_cfa_register 13
 444              	 
 445 0188 5DF8047B 	 ldr r7,[sp],#4
 446              	.LCFI11:
 447              	 .cfi_restore 7
 448              	 .cfi_def_cfa_offset 0
 449 018c 7047     	 bx lr
 450              	 .cfi_endproc
 451              	.LFE136:
 453 018e 00BF     	 .section .text.arm_rfft_fast_f32,"ax",%progbits
 454              	 .align 2
 455              	 .global arm_rfft_fast_f32
 456              	 .thumb
 457              	 .thumb_func
 459              	arm_rfft_fast_f32:
 460              	.LFB137:
 174:../Dave/Generated/CMSIS_DSP/TransformFunctions/arm_rfft_fast_f32.c **** 
 175:../Dave/Generated/CMSIS_DSP/TransformFunctions/arm_rfft_fast_f32.c **** /**
 176:../Dave/Generated/CMSIS_DSP/TransformFunctions/arm_rfft_fast_f32.c **** * @ingroup groupTransforms
 177:../Dave/Generated/CMSIS_DSP/TransformFunctions/arm_rfft_fast_f32.c **** */
 178:../Dave/Generated/CMSIS_DSP/TransformFunctions/arm_rfft_fast_f32.c **** 
 179:../Dave/Generated/CMSIS_DSP/TransformFunctions/arm_rfft_fast_f32.c **** /**
 180:../Dave/Generated/CMSIS_DSP/TransformFunctions/arm_rfft_fast_f32.c ****  * @defgroup RealFFT Real FFT Functions
 181:../Dave/Generated/CMSIS_DSP/TransformFunctions/arm_rfft_fast_f32.c ****  *
 182:../Dave/Generated/CMSIS_DSP/TransformFunctions/arm_rfft_fast_f32.c ****  * \par
 183:../Dave/Generated/CMSIS_DSP/TransformFunctions/arm_rfft_fast_f32.c ****  * The CMSIS DSP library includes specialized algorithms for computing the
 184:../Dave/Generated/CMSIS_DSP/TransformFunctions/arm_rfft_fast_f32.c ****  * FFT of real data sequences.  The FFT is defined over complex data but
 185:../Dave/Generated/CMSIS_DSP/TransformFunctions/arm_rfft_fast_f32.c ****  * in many applications the input is real.  Real FFT algorithms take advantage
 186:../Dave/Generated/CMSIS_DSP/TransformFunctions/arm_rfft_fast_f32.c ****  * of the symmetry properties of the FFT and have a speed advantage over complex
 187:../Dave/Generated/CMSIS_DSP/TransformFunctions/arm_rfft_fast_f32.c ****  * algorithms of the same length.
 188:../Dave/Generated/CMSIS_DSP/TransformFunctions/arm_rfft_fast_f32.c ****  * \par
 189:../Dave/Generated/CMSIS_DSP/TransformFunctions/arm_rfft_fast_f32.c ****  * The Fast RFFT algorith relays on the mixed radix CFFT that save processor usage.
 190:../Dave/Generated/CMSIS_DSP/TransformFunctions/arm_rfft_fast_f32.c ****  * \par
 191:../Dave/Generated/CMSIS_DSP/TransformFunctions/arm_rfft_fast_f32.c ****  * The real length N forward FFT of a sequence is computed using the steps shown below.
 192:../Dave/Generated/CMSIS_DSP/TransformFunctions/arm_rfft_fast_f32.c ****  * \par
 193:../Dave/Generated/CMSIS_DSP/TransformFunctions/arm_rfft_fast_f32.c ****  * \image html RFFT.gif "Real Fast Fourier Transform"
 194:../Dave/Generated/CMSIS_DSP/TransformFunctions/arm_rfft_fast_f32.c ****  * \par
 195:../Dave/Generated/CMSIS_DSP/TransformFunctions/arm_rfft_fast_f32.c ****  * The real sequence is initially treated as if it were complex to perform a CFFT.
 196:../Dave/Generated/CMSIS_DSP/TransformFunctions/arm_rfft_fast_f32.c ****  * Later, a processing stage reshapes the data to obtain half of the frequency spectrum
 197:../Dave/Generated/CMSIS_DSP/TransformFunctions/arm_rfft_fast_f32.c ****  * in complex format. Except the first complex number that contains the two real numbers
 198:../Dave/Generated/CMSIS_DSP/TransformFunctions/arm_rfft_fast_f32.c ****  * X[0] and X[N/2] all the data is complex. In other words, the first complex sample
 199:../Dave/Generated/CMSIS_DSP/TransformFunctions/arm_rfft_fast_f32.c ****  * contains two real values packed.
 200:../Dave/Generated/CMSIS_DSP/TransformFunctions/arm_rfft_fast_f32.c ****  * \par
 201:../Dave/Generated/CMSIS_DSP/TransformFunctions/arm_rfft_fast_f32.c ****  * The input for the inverse RFFT should keep the same format as the output of the
 202:../Dave/Generated/CMSIS_DSP/TransformFunctions/arm_rfft_fast_f32.c ****  * forward RFFT. A first processing stage pre-process the data to later perform an
 203:../Dave/Generated/CMSIS_DSP/TransformFunctions/arm_rfft_fast_f32.c ****  * inverse CFFT.
 204:../Dave/Generated/CMSIS_DSP/TransformFunctions/arm_rfft_fast_f32.c ****  * \par
 205:../Dave/Generated/CMSIS_DSP/TransformFunctions/arm_rfft_fast_f32.c ****  * \image html RIFFT.gif "Real Inverse Fast Fourier Transform"
 206:../Dave/Generated/CMSIS_DSP/TransformFunctions/arm_rfft_fast_f32.c ****  * \par
 207:../Dave/Generated/CMSIS_DSP/TransformFunctions/arm_rfft_fast_f32.c ****  * The algorithms for floating-point, Q15, and Q31 data are slightly different
 208:../Dave/Generated/CMSIS_DSP/TransformFunctions/arm_rfft_fast_f32.c ****  * and we describe each algorithm in turn.
 209:../Dave/Generated/CMSIS_DSP/TransformFunctions/arm_rfft_fast_f32.c ****  * \par Floating-point
 210:../Dave/Generated/CMSIS_DSP/TransformFunctions/arm_rfft_fast_f32.c ****  * The main functions are arm_rfft_fast_f32() and arm_rfft_fast_init_f32().
 211:../Dave/Generated/CMSIS_DSP/TransformFunctions/arm_rfft_fast_f32.c ****  * The older functions arm_rfft_f32() and arm_rfft_init_f32() have been
 212:../Dave/Generated/CMSIS_DSP/TransformFunctions/arm_rfft_fast_f32.c ****  * deprecated but are still documented.
 213:../Dave/Generated/CMSIS_DSP/TransformFunctions/arm_rfft_fast_f32.c ****  * \par
 214:../Dave/Generated/CMSIS_DSP/TransformFunctions/arm_rfft_fast_f32.c ****  * The FFT of a real N-point sequence has even symmetry in the frequency
 215:../Dave/Generated/CMSIS_DSP/TransformFunctions/arm_rfft_fast_f32.c ****  * domain. The second half of the data equals the conjugate of the first
 216:../Dave/Generated/CMSIS_DSP/TransformFunctions/arm_rfft_fast_f32.c ****  * half flipped in frequency. Looking at the data, we see that we can
 217:../Dave/Generated/CMSIS_DSP/TransformFunctions/arm_rfft_fast_f32.c ****  * uniquely represent the FFT using only N/2 complex numbers. These are
 218:../Dave/Generated/CMSIS_DSP/TransformFunctions/arm_rfft_fast_f32.c ****  * packed into the output array in alternating real and imaginary
 219:../Dave/Generated/CMSIS_DSP/TransformFunctions/arm_rfft_fast_f32.c ****  * components:
 220:../Dave/Generated/CMSIS_DSP/TransformFunctions/arm_rfft_fast_f32.c ****  * \par
 221:../Dave/Generated/CMSIS_DSP/TransformFunctions/arm_rfft_fast_f32.c ****  * X = { real[0], imag[0], real[1], imag[1], real[2], imag[2] ...
 222:../Dave/Generated/CMSIS_DSP/TransformFunctions/arm_rfft_fast_f32.c ****  * real[(N/2)-1], imag[(N/2)-1 }
 223:../Dave/Generated/CMSIS_DSP/TransformFunctions/arm_rfft_fast_f32.c ****  * \par
 224:../Dave/Generated/CMSIS_DSP/TransformFunctions/arm_rfft_fast_f32.c ****  * It happens that the first complex number (real[0], imag[0]) is actually
 225:../Dave/Generated/CMSIS_DSP/TransformFunctions/arm_rfft_fast_f32.c ****  * all real. real[0] represents the DC offset, and imag[0] should be 0.
 226:../Dave/Generated/CMSIS_DSP/TransformFunctions/arm_rfft_fast_f32.c ****  * (real[1], imag[1]) is the fundamental frequency, (real[2], imag[2]) is
 227:../Dave/Generated/CMSIS_DSP/TransformFunctions/arm_rfft_fast_f32.c ****  * the first harmonic and so on.
 228:../Dave/Generated/CMSIS_DSP/TransformFunctions/arm_rfft_fast_f32.c ****  * \par
 229:../Dave/Generated/CMSIS_DSP/TransformFunctions/arm_rfft_fast_f32.c ****  * The real FFT functions pack the frequency domain data in this fashion.
 230:../Dave/Generated/CMSIS_DSP/TransformFunctions/arm_rfft_fast_f32.c ****  * The forward transform outputs the data in this form and the inverse
 231:../Dave/Generated/CMSIS_DSP/TransformFunctions/arm_rfft_fast_f32.c ****  * transform expects input data in this form. The function always performs
 232:../Dave/Generated/CMSIS_DSP/TransformFunctions/arm_rfft_fast_f32.c ****  * the needed bitreversal so that the input and output data is always in
 233:../Dave/Generated/CMSIS_DSP/TransformFunctions/arm_rfft_fast_f32.c ****  * normal order. The functions support lengths of [32, 64, 128, ..., 4096]
 234:../Dave/Generated/CMSIS_DSP/TransformFunctions/arm_rfft_fast_f32.c ****  * samples.
 235:../Dave/Generated/CMSIS_DSP/TransformFunctions/arm_rfft_fast_f32.c ****  * \par Q15 and Q31
 236:../Dave/Generated/CMSIS_DSP/TransformFunctions/arm_rfft_fast_f32.c ****  * The real algorithms are defined in a similar manner and utilize N/2 complex
 237:../Dave/Generated/CMSIS_DSP/TransformFunctions/arm_rfft_fast_f32.c ****  * transforms behind the scenes.
 238:../Dave/Generated/CMSIS_DSP/TransformFunctions/arm_rfft_fast_f32.c ****  * \par
 239:../Dave/Generated/CMSIS_DSP/TransformFunctions/arm_rfft_fast_f32.c ****  * The complex transforms used internally include scaling to prevent fixed-point
 240:../Dave/Generated/CMSIS_DSP/TransformFunctions/arm_rfft_fast_f32.c ****  * overflows.  The overall scaling equals 1/(fftLen/2).
 241:../Dave/Generated/CMSIS_DSP/TransformFunctions/arm_rfft_fast_f32.c ****  * \par
 242:../Dave/Generated/CMSIS_DSP/TransformFunctions/arm_rfft_fast_f32.c ****  * A separate instance structure must be defined for each transform used but
 243:../Dave/Generated/CMSIS_DSP/TransformFunctions/arm_rfft_fast_f32.c ****  * twiddle factor and bit reversal tables can be reused.
 244:../Dave/Generated/CMSIS_DSP/TransformFunctions/arm_rfft_fast_f32.c ****  * \par
 245:../Dave/Generated/CMSIS_DSP/TransformFunctions/arm_rfft_fast_f32.c ****  * There is also an associated initialization function for each data type.
 246:../Dave/Generated/CMSIS_DSP/TransformFunctions/arm_rfft_fast_f32.c ****  * The initialization function performs the following operations:
 247:../Dave/Generated/CMSIS_DSP/TransformFunctions/arm_rfft_fast_f32.c ****  * - Sets the values of the internal structure fields.
 248:../Dave/Generated/CMSIS_DSP/TransformFunctions/arm_rfft_fast_f32.c ****  * - Initializes twiddle factor table and bit reversal table pointers.
 249:../Dave/Generated/CMSIS_DSP/TransformFunctions/arm_rfft_fast_f32.c ****  * - Initializes the internal complex FFT data structure.
 250:../Dave/Generated/CMSIS_DSP/TransformFunctions/arm_rfft_fast_f32.c ****  * \par
 251:../Dave/Generated/CMSIS_DSP/TransformFunctions/arm_rfft_fast_f32.c ****  * Use of the initialization function is optional.
 252:../Dave/Generated/CMSIS_DSP/TransformFunctions/arm_rfft_fast_f32.c ****  * However, if the initialization function is used, then the instance structure
 253:../Dave/Generated/CMSIS_DSP/TransformFunctions/arm_rfft_fast_f32.c ****  * cannot be placed into a const data section. To place an instance structure
 254:../Dave/Generated/CMSIS_DSP/TransformFunctions/arm_rfft_fast_f32.c ****  * into a const data section, the instance structure should be manually
 255:../Dave/Generated/CMSIS_DSP/TransformFunctions/arm_rfft_fast_f32.c ****  * initialized as follows:
 256:../Dave/Generated/CMSIS_DSP/TransformFunctions/arm_rfft_fast_f32.c ****  * <pre>
 257:../Dave/Generated/CMSIS_DSP/TransformFunctions/arm_rfft_fast_f32.c ****  *arm_rfft_instance_q31 S = {fftLenReal, fftLenBy2, ifftFlagR, bitReverseFlagR, twidCoefRModifier, 
 258:../Dave/Generated/CMSIS_DSP/TransformFunctions/arm_rfft_fast_f32.c ****  *arm_rfft_instance_q15 S = {fftLenReal, fftLenBy2, ifftFlagR, bitReverseFlagR, twidCoefRModifier, 
 259:../Dave/Generated/CMSIS_DSP/TransformFunctions/arm_rfft_fast_f32.c ****  * </pre>
 260:../Dave/Generated/CMSIS_DSP/TransformFunctions/arm_rfft_fast_f32.c ****  * where <code>fftLenReal</code> is the length of the real transform;
 261:../Dave/Generated/CMSIS_DSP/TransformFunctions/arm_rfft_fast_f32.c ****  * <code>fftLenBy2</code> length of  the internal complex transform.
 262:../Dave/Generated/CMSIS_DSP/TransformFunctions/arm_rfft_fast_f32.c ****  * <code>ifftFlagR</code> Selects forward (=0) or inverse (=1) transform.
 263:../Dave/Generated/CMSIS_DSP/TransformFunctions/arm_rfft_fast_f32.c ****  * <code>bitReverseFlagR</code> Selects bit reversed output (=0) or normal order
 264:../Dave/Generated/CMSIS_DSP/TransformFunctions/arm_rfft_fast_f32.c ****  * output (=1).
 265:../Dave/Generated/CMSIS_DSP/TransformFunctions/arm_rfft_fast_f32.c ****  * <code>twidCoefRModifier</code> stride modifier for the twiddle factor table.
 266:../Dave/Generated/CMSIS_DSP/TransformFunctions/arm_rfft_fast_f32.c ****  * The value is based on the FFT length;
 267:../Dave/Generated/CMSIS_DSP/TransformFunctions/arm_rfft_fast_f32.c ****  * <code>pTwiddleAReal</code>points to the A array of twiddle coefficients;
 268:../Dave/Generated/CMSIS_DSP/TransformFunctions/arm_rfft_fast_f32.c ****  * <code>pTwiddleBReal</code>points to the B array of twiddle coefficients;
 269:../Dave/Generated/CMSIS_DSP/TransformFunctions/arm_rfft_fast_f32.c ****  * <code>pCfft</code> points to the CFFT Instance structure. The CFFT structure
 270:../Dave/Generated/CMSIS_DSP/TransformFunctions/arm_rfft_fast_f32.c ****  * must also be initialized.  Refer to arm_cfft_radix4_f32() for details regarding
 271:../Dave/Generated/CMSIS_DSP/TransformFunctions/arm_rfft_fast_f32.c ****  * static initialization of the complex FFT instance structure.
 272:../Dave/Generated/CMSIS_DSP/TransformFunctions/arm_rfft_fast_f32.c ****  */
 273:../Dave/Generated/CMSIS_DSP/TransformFunctions/arm_rfft_fast_f32.c **** 
 274:../Dave/Generated/CMSIS_DSP/TransformFunctions/arm_rfft_fast_f32.c **** /**
 275:../Dave/Generated/CMSIS_DSP/TransformFunctions/arm_rfft_fast_f32.c **** * @addtogroup RealFFT
 276:../Dave/Generated/CMSIS_DSP/TransformFunctions/arm_rfft_fast_f32.c **** * @{
 277:../Dave/Generated/CMSIS_DSP/TransformFunctions/arm_rfft_fast_f32.c **** */
 278:../Dave/Generated/CMSIS_DSP/TransformFunctions/arm_rfft_fast_f32.c **** 
 279:../Dave/Generated/CMSIS_DSP/TransformFunctions/arm_rfft_fast_f32.c **** /**
 280:../Dave/Generated/CMSIS_DSP/TransformFunctions/arm_rfft_fast_f32.c **** * @brief Processing function for the floating-point real FFT.
 281:../Dave/Generated/CMSIS_DSP/TransformFunctions/arm_rfft_fast_f32.c **** * @param[in]  *S              points to an arm_rfft_fast_instance_f32 structure.
 282:../Dave/Generated/CMSIS_DSP/TransformFunctions/arm_rfft_fast_f32.c **** * @param[in]  *p              points to the input buffer.
 283:../Dave/Generated/CMSIS_DSP/TransformFunctions/arm_rfft_fast_f32.c **** * @param[in]  *pOut           points to the output buffer.
 284:../Dave/Generated/CMSIS_DSP/TransformFunctions/arm_rfft_fast_f32.c **** * @param[in]  ifftFlag        RFFT if flag is 0, RIFFT if flag is 1
 285:../Dave/Generated/CMSIS_DSP/TransformFunctions/arm_rfft_fast_f32.c **** * @return none.
 286:../Dave/Generated/CMSIS_DSP/TransformFunctions/arm_rfft_fast_f32.c **** */
 287:../Dave/Generated/CMSIS_DSP/TransformFunctions/arm_rfft_fast_f32.c **** 
 288:../Dave/Generated/CMSIS_DSP/TransformFunctions/arm_rfft_fast_f32.c **** void arm_rfft_fast_f32(
 289:../Dave/Generated/CMSIS_DSP/TransformFunctions/arm_rfft_fast_f32.c **** arm_rfft_fast_instance_f32 * S,
 290:../Dave/Generated/CMSIS_DSP/TransformFunctions/arm_rfft_fast_f32.c **** float32_t * p, float32_t * pOut,
 291:../Dave/Generated/CMSIS_DSP/TransformFunctions/arm_rfft_fast_f32.c **** uint8_t ifftFlag)
 292:../Dave/Generated/CMSIS_DSP/TransformFunctions/arm_rfft_fast_f32.c **** {
 461              	 .loc 1 292 0
 462              	 .cfi_startproc
 463              	 
 464              	 
 465 0000 80B5     	 push {r7,lr}
 466              	.LCFI12:
 467              	 .cfi_def_cfa_offset 8
 468              	 .cfi_offset 7,-8
 469              	 .cfi_offset 14,-4
 470 0002 86B0     	 sub sp,sp,#24
 471              	.LCFI13:
 472              	 .cfi_def_cfa_offset 32
 473 0004 00AF     	 add r7,sp,#0
 474              	.LCFI14:
 475              	 .cfi_def_cfa_register 7
 476 0006 F860     	 str r0,[r7,#12]
 477 0008 B960     	 str r1,[r7,#8]
 478 000a 7A60     	 str r2,[r7,#4]
 479 000c FB70     	 strb r3,[r7,#3]
 293:../Dave/Generated/CMSIS_DSP/TransformFunctions/arm_rfft_fast_f32.c ****    arm_cfft_instance_f32 * Sint = &(S->Sint);
 480              	 .loc 1 293 0
 481 000e FB68     	 ldr r3,[r7,#12]
 482 0010 7B61     	 str r3,[r7,#20]
 294:../Dave/Generated/CMSIS_DSP/TransformFunctions/arm_rfft_fast_f32.c ****    Sint->fftLen = S->fftLenRFFT / 2;
 483              	 .loc 1 294 0
 484 0012 FB68     	 ldr r3,[r7,#12]
 485 0014 1B8A     	 ldrh r3,[r3,#16]
 486 0016 5B08     	 lsrs r3,r3,#1
 487 0018 9AB2     	 uxth r2,r3
 488 001a 7B69     	 ldr r3,[r7,#20]
 489 001c 1A80     	 strh r2,[r3]
 295:../Dave/Generated/CMSIS_DSP/TransformFunctions/arm_rfft_fast_f32.c **** 
 296:../Dave/Generated/CMSIS_DSP/TransformFunctions/arm_rfft_fast_f32.c ****    /* Calculation of Real FFT */
 297:../Dave/Generated/CMSIS_DSP/TransformFunctions/arm_rfft_fast_f32.c ****    if (ifftFlag)
 490              	 .loc 1 297 0
 491 001e FB78     	 ldrb r3,[r7,#3]
 492 0020 002B     	 cmp r3,#0
 493 0022 0CD0     	 beq .L7
 298:../Dave/Generated/CMSIS_DSP/TransformFunctions/arm_rfft_fast_f32.c ****    {
 299:../Dave/Generated/CMSIS_DSP/TransformFunctions/arm_rfft_fast_f32.c ****       /*  Real FFT compression */
 300:../Dave/Generated/CMSIS_DSP/TransformFunctions/arm_rfft_fast_f32.c ****       merge_rfft_f32(S, p, pOut);
 494              	 .loc 1 300 0
 495 0024 F868     	 ldr r0,[r7,#12]
 496 0026 B968     	 ldr r1,[r7,#8]
 497 0028 7A68     	 ldr r2,[r7,#4]
 498 002a FFF7FEFF 	 bl merge_rfft_f32
 301:../Dave/Generated/CMSIS_DSP/TransformFunctions/arm_rfft_fast_f32.c **** 
 302:../Dave/Generated/CMSIS_DSP/TransformFunctions/arm_rfft_fast_f32.c ****       /* Complex radix-4 IFFT process */
 303:../Dave/Generated/CMSIS_DSP/TransformFunctions/arm_rfft_fast_f32.c ****       arm_cfft_f32( Sint, pOut, ifftFlag, 1);
 499              	 .loc 1 303 0
 500 002e FB78     	 ldrb r3,[r7,#3]
 501 0030 7869     	 ldr r0,[r7,#20]
 502 0032 7968     	 ldr r1,[r7,#4]
 503 0034 1A46     	 mov r2,r3
 504 0036 0123     	 movs r3,#1
 505 0038 FFF7FEFF 	 bl arm_cfft_f32
 506 003c 0BE0     	 b .L6
 507              	.L7:
 304:../Dave/Generated/CMSIS_DSP/TransformFunctions/arm_rfft_fast_f32.c ****    }
 305:../Dave/Generated/CMSIS_DSP/TransformFunctions/arm_rfft_fast_f32.c ****    else
 306:../Dave/Generated/CMSIS_DSP/TransformFunctions/arm_rfft_fast_f32.c ****    {
 307:../Dave/Generated/CMSIS_DSP/TransformFunctions/arm_rfft_fast_f32.c ****       /* Calculation of RFFT of input */
 308:../Dave/Generated/CMSIS_DSP/TransformFunctions/arm_rfft_fast_f32.c ****       arm_cfft_f32( Sint, p, ifftFlag, 1);
 508              	 .loc 1 308 0
 509 003e FB78     	 ldrb r3,[r7,#3]
 510 0040 7869     	 ldr r0,[r7,#20]
 511 0042 B968     	 ldr r1,[r7,#8]
 512 0044 1A46     	 mov r2,r3
 513 0046 0123     	 movs r3,#1
 514 0048 FFF7FEFF 	 bl arm_cfft_f32
 309:../Dave/Generated/CMSIS_DSP/TransformFunctions/arm_rfft_fast_f32.c **** 
 310:../Dave/Generated/CMSIS_DSP/TransformFunctions/arm_rfft_fast_f32.c ****       /*  Real FFT extraction */
 311:../Dave/Generated/CMSIS_DSP/TransformFunctions/arm_rfft_fast_f32.c ****       stage_rfft_f32(S, p, pOut);
 515              	 .loc 1 311 0
 516 004c F868     	 ldr r0,[r7,#12]
 517 004e B968     	 ldr r1,[r7,#8]
 518 0050 7A68     	 ldr r2,[r7,#4]
 519 0052 FFF7FEFF 	 bl stage_rfft_f32
 520              	.L6:
 312:../Dave/Generated/CMSIS_DSP/TransformFunctions/arm_rfft_fast_f32.c ****    }
 313:../Dave/Generated/CMSIS_DSP/TransformFunctions/arm_rfft_fast_f32.c **** }
 521              	 .loc 1 313 0
 522 0056 1837     	 adds r7,r7,#24
 523              	.LCFI15:
 524              	 .cfi_def_cfa_offset 8
 525 0058 BD46     	 mov sp,r7
 526              	.LCFI16:
 527              	 .cfi_def_cfa_register 13
 528              	 
 529 005a 80BD     	 pop {r7,pc}
 530              	 .cfi_endproc
 531              	.LFE137:
 533              	 .text
 534              	.Letext0:
 535              	 .file 2 "c:\\program files (x86)\\dave\\eclipse\\arm-gcc-49\\arm-none-eabi\\include\\machine\\_default_types.h"
 536              	 .file 3 "c:\\program files (x86)\\dave\\eclipse\\arm-gcc-49\\arm-none-eabi\\include\\stdint.h"
 537              	 .file 4 "C:/Users/VMORAIS/Documents/DAVE_WS/1p_inverter_200V/Dave/Generated/CMSIS_DSP/arm_math.h"