   1              	 .syntax unified
   2              	 .cpu cortex-m4
   3              	 .eabi_attribute 27,3
   4              	 .fpu fpv4-sp-d16
   5              	 .eabi_attribute 20,1
   6              	 .eabi_attribute 21,1
   7              	 .eabi_attribute 23,3
   8              	 .eabi_attribute 24,1
   9              	 .eabi_attribute 25,1
  10              	 .eabi_attribute 26,1
  11              	 .eabi_attribute 30,6
  12              	 .eabi_attribute 34,1
  13              	 .eabi_attribute 18,4
  14              	 .thumb
  15              	 .file "arm_cfft_radix4_f32.c"
  16              	 .text
  17              	.Ltext0:
  18              	 .cfi_sections .debug_frame
  19              	 .section .text.arm_cfft_radix4_f32,"ax",%progbits
  20              	 .align 2
  21              	 .global arm_cfft_radix4_f32
  22              	 .thumb
  23              	 .thumb_func
  25              	arm_cfft_radix4_f32:
  26              	.LFB135:
  27              	 .file 1 "../Dave/Generated/CMSIS_DSP/TransformFunctions/arm_cfft_radix4_f32.c"
   1:../Dave/Generated/CMSIS_DSP/TransformFunctions/arm_cfft_radix4_f32.c **** /* ----------------------------------------------------------------------
   2:../Dave/Generated/CMSIS_DSP/TransformFunctions/arm_cfft_radix4_f32.c ****  * Project:      CMSIS DSP Library
   3:../Dave/Generated/CMSIS_DSP/TransformFunctions/arm_cfft_radix4_f32.c ****  * Title:        arm_cfft_radix4_f32.c
   4:../Dave/Generated/CMSIS_DSP/TransformFunctions/arm_cfft_radix4_f32.c ****  * Description:  Radix-4 Decimation in Frequency CFFT & CIFFT Floating point processing function
   5:../Dave/Generated/CMSIS_DSP/TransformFunctions/arm_cfft_radix4_f32.c ****  *
   6:../Dave/Generated/CMSIS_DSP/TransformFunctions/arm_cfft_radix4_f32.c ****  * $Date:        27. January 2017
   7:../Dave/Generated/CMSIS_DSP/TransformFunctions/arm_cfft_radix4_f32.c ****  * $Revision:    V.1.5.1
   8:../Dave/Generated/CMSIS_DSP/TransformFunctions/arm_cfft_radix4_f32.c ****  *
   9:../Dave/Generated/CMSIS_DSP/TransformFunctions/arm_cfft_radix4_f32.c ****  * Target Processor: Cortex-M cores
  10:../Dave/Generated/CMSIS_DSP/TransformFunctions/arm_cfft_radix4_f32.c ****  * -------------------------------------------------------------------- */
  11:../Dave/Generated/CMSIS_DSP/TransformFunctions/arm_cfft_radix4_f32.c **** /*
  12:../Dave/Generated/CMSIS_DSP/TransformFunctions/arm_cfft_radix4_f32.c ****  * Copyright (C) 2010-2017 ARM Limited or its affiliates. All rights reserved.
  13:../Dave/Generated/CMSIS_DSP/TransformFunctions/arm_cfft_radix4_f32.c ****  *
  14:../Dave/Generated/CMSIS_DSP/TransformFunctions/arm_cfft_radix4_f32.c ****  * SPDX-License-Identifier: Apache-2.0
  15:../Dave/Generated/CMSIS_DSP/TransformFunctions/arm_cfft_radix4_f32.c ****  *
  16:../Dave/Generated/CMSIS_DSP/TransformFunctions/arm_cfft_radix4_f32.c ****  * Licensed under the Apache License, Version 2.0 (the License); you may
  17:../Dave/Generated/CMSIS_DSP/TransformFunctions/arm_cfft_radix4_f32.c ****  * not use this file except in compliance with the License.
  18:../Dave/Generated/CMSIS_DSP/TransformFunctions/arm_cfft_radix4_f32.c ****  * You may obtain a copy of the License at
  19:../Dave/Generated/CMSIS_DSP/TransformFunctions/arm_cfft_radix4_f32.c ****  *
  20:../Dave/Generated/CMSIS_DSP/TransformFunctions/arm_cfft_radix4_f32.c ****  * www.apache.org/licenses/LICENSE-2.0
  21:../Dave/Generated/CMSIS_DSP/TransformFunctions/arm_cfft_radix4_f32.c ****  *
  22:../Dave/Generated/CMSIS_DSP/TransformFunctions/arm_cfft_radix4_f32.c ****  * Unless required by applicable law or agreed to in writing, software
  23:../Dave/Generated/CMSIS_DSP/TransformFunctions/arm_cfft_radix4_f32.c ****  * distributed under the License is distributed on an AS IS BASIS, WITHOUT
  24:../Dave/Generated/CMSIS_DSP/TransformFunctions/arm_cfft_radix4_f32.c ****  * WARRANTIES OR CONDITIONS OF ANY KIND, either express or implied.
  25:../Dave/Generated/CMSIS_DSP/TransformFunctions/arm_cfft_radix4_f32.c ****  * See the License for the specific language governing permissions and
  26:../Dave/Generated/CMSIS_DSP/TransformFunctions/arm_cfft_radix4_f32.c ****  * limitations under the License.
  27:../Dave/Generated/CMSIS_DSP/TransformFunctions/arm_cfft_radix4_f32.c ****  */
  28:../Dave/Generated/CMSIS_DSP/TransformFunctions/arm_cfft_radix4_f32.c **** 
  29:../Dave/Generated/CMSIS_DSP/TransformFunctions/arm_cfft_radix4_f32.c **** #include "CMSIS_DSP/cmsis_dsp.h"
  30:../Dave/Generated/CMSIS_DSP/TransformFunctions/arm_cfft_radix4_f32.c **** 
  31:../Dave/Generated/CMSIS_DSP/TransformFunctions/arm_cfft_radix4_f32.c **** extern void arm_bitreversal_f32(
  32:../Dave/Generated/CMSIS_DSP/TransformFunctions/arm_cfft_radix4_f32.c **** float32_t * pSrc,
  33:../Dave/Generated/CMSIS_DSP/TransformFunctions/arm_cfft_radix4_f32.c **** uint16_t fftSize,
  34:../Dave/Generated/CMSIS_DSP/TransformFunctions/arm_cfft_radix4_f32.c **** uint16_t bitRevFactor,
  35:../Dave/Generated/CMSIS_DSP/TransformFunctions/arm_cfft_radix4_f32.c **** uint16_t * pBitRevTab);
  36:../Dave/Generated/CMSIS_DSP/TransformFunctions/arm_cfft_radix4_f32.c **** 
  37:../Dave/Generated/CMSIS_DSP/TransformFunctions/arm_cfft_radix4_f32.c **** void arm_radix4_butterfly_f32(
  38:../Dave/Generated/CMSIS_DSP/TransformFunctions/arm_cfft_radix4_f32.c **** float32_t * pSrc,
  39:../Dave/Generated/CMSIS_DSP/TransformFunctions/arm_cfft_radix4_f32.c **** uint16_t fftLen,
  40:../Dave/Generated/CMSIS_DSP/TransformFunctions/arm_cfft_radix4_f32.c **** float32_t * pCoef,
  41:../Dave/Generated/CMSIS_DSP/TransformFunctions/arm_cfft_radix4_f32.c **** uint16_t twidCoefModifier);
  42:../Dave/Generated/CMSIS_DSP/TransformFunctions/arm_cfft_radix4_f32.c **** 
  43:../Dave/Generated/CMSIS_DSP/TransformFunctions/arm_cfft_radix4_f32.c **** void arm_radix4_butterfly_inverse_f32(
  44:../Dave/Generated/CMSIS_DSP/TransformFunctions/arm_cfft_radix4_f32.c **** float32_t * pSrc,
  45:../Dave/Generated/CMSIS_DSP/TransformFunctions/arm_cfft_radix4_f32.c **** uint16_t fftLen,
  46:../Dave/Generated/CMSIS_DSP/TransformFunctions/arm_cfft_radix4_f32.c **** float32_t * pCoef,
  47:../Dave/Generated/CMSIS_DSP/TransformFunctions/arm_cfft_radix4_f32.c **** uint16_t twidCoefModifier,
  48:../Dave/Generated/CMSIS_DSP/TransformFunctions/arm_cfft_radix4_f32.c **** float32_t onebyfftLen);
  49:../Dave/Generated/CMSIS_DSP/TransformFunctions/arm_cfft_radix4_f32.c **** 
  50:../Dave/Generated/CMSIS_DSP/TransformFunctions/arm_cfft_radix4_f32.c **** 
  51:../Dave/Generated/CMSIS_DSP/TransformFunctions/arm_cfft_radix4_f32.c **** /**
  52:../Dave/Generated/CMSIS_DSP/TransformFunctions/arm_cfft_radix4_f32.c **** * @ingroup groupTransforms
  53:../Dave/Generated/CMSIS_DSP/TransformFunctions/arm_cfft_radix4_f32.c **** */
  54:../Dave/Generated/CMSIS_DSP/TransformFunctions/arm_cfft_radix4_f32.c **** 
  55:../Dave/Generated/CMSIS_DSP/TransformFunctions/arm_cfft_radix4_f32.c **** /**
  56:../Dave/Generated/CMSIS_DSP/TransformFunctions/arm_cfft_radix4_f32.c **** * @addtogroup ComplexFFT
  57:../Dave/Generated/CMSIS_DSP/TransformFunctions/arm_cfft_radix4_f32.c **** * @{
  58:../Dave/Generated/CMSIS_DSP/TransformFunctions/arm_cfft_radix4_f32.c **** */
  59:../Dave/Generated/CMSIS_DSP/TransformFunctions/arm_cfft_radix4_f32.c **** 
  60:../Dave/Generated/CMSIS_DSP/TransformFunctions/arm_cfft_radix4_f32.c **** /**
  61:../Dave/Generated/CMSIS_DSP/TransformFunctions/arm_cfft_radix4_f32.c **** * @details
  62:../Dave/Generated/CMSIS_DSP/TransformFunctions/arm_cfft_radix4_f32.c **** * @brief Processing function for the floating-point Radix-4 CFFT/CIFFT.
  63:../Dave/Generated/CMSIS_DSP/TransformFunctions/arm_cfft_radix4_f32.c **** * @deprecated Do not use this function.  It has been superseded by \ref arm_cfft_f32 and will be re
  64:../Dave/Generated/CMSIS_DSP/TransformFunctions/arm_cfft_radix4_f32.c **** * in the future.
  65:../Dave/Generated/CMSIS_DSP/TransformFunctions/arm_cfft_radix4_f32.c **** * @param[in]      *S    points to an instance of the floating-point Radix-4 CFFT/CIFFT structure.
  66:../Dave/Generated/CMSIS_DSP/TransformFunctions/arm_cfft_radix4_f32.c **** * @param[in, out] *pSrc points to the complex data buffer of size <code>2*fftLen</code>. Processing
  67:../Dave/Generated/CMSIS_DSP/TransformFunctions/arm_cfft_radix4_f32.c **** * @return none.
  68:../Dave/Generated/CMSIS_DSP/TransformFunctions/arm_cfft_radix4_f32.c **** */
  69:../Dave/Generated/CMSIS_DSP/TransformFunctions/arm_cfft_radix4_f32.c **** 
  70:../Dave/Generated/CMSIS_DSP/TransformFunctions/arm_cfft_radix4_f32.c **** void arm_cfft_radix4_f32(
  71:../Dave/Generated/CMSIS_DSP/TransformFunctions/arm_cfft_radix4_f32.c ****   const arm_cfft_radix4_instance_f32 * S,
  72:../Dave/Generated/CMSIS_DSP/TransformFunctions/arm_cfft_radix4_f32.c ****   float32_t * pSrc)
  73:../Dave/Generated/CMSIS_DSP/TransformFunctions/arm_cfft_radix4_f32.c **** {
  28              	 .loc 1 73 0
  29              	 .cfi_startproc
  30              	 
  31              	 
  32 0000 90B5     	 push {r4,r7,lr}
  33              	.LCFI0:
  34              	 .cfi_def_cfa_offset 12
  35              	 .cfi_offset 4,-12
  36              	 .cfi_offset 7,-8
  37              	 .cfi_offset 14,-4
  38 0002 85B0     	 sub sp,sp,#20
  39              	.LCFI1:
  40              	 .cfi_def_cfa_offset 32
  41 0004 02AF     	 add r7,sp,#8
  42              	.LCFI2:
  43              	 .cfi_def_cfa 7,24
  44 0006 7860     	 str r0,[r7,#4]
  45 0008 3960     	 str r1,[r7]
  74:../Dave/Generated/CMSIS_DSP/TransformFunctions/arm_cfft_radix4_f32.c ****    if (S->ifftFlag == 1u)
  46              	 .loc 1 74 0
  47 000a 7B68     	 ldr r3,[r7,#4]
  48 000c 9B78     	 ldrb r3,[r3,#2]
  49 000e 012B     	 cmp r3,#1
  50 0010 0DD1     	 bne .L2
  75:../Dave/Generated/CMSIS_DSP/TransformFunctions/arm_cfft_radix4_f32.c ****    {
  76:../Dave/Generated/CMSIS_DSP/TransformFunctions/arm_cfft_radix4_f32.c ****       /*  Complex IFFT radix-4  */
  77:../Dave/Generated/CMSIS_DSP/TransformFunctions/arm_cfft_radix4_f32.c ****       arm_radix4_butterfly_inverse_f32(pSrc, S->fftLen, S->pTwiddle, S->twidCoefModifier, S->onebyf
  51              	 .loc 1 77 0
  52 0012 7B68     	 ldr r3,[r7,#4]
  53 0014 1988     	 ldrh r1,[r3]
  54 0016 7B68     	 ldr r3,[r7,#4]
  55 0018 5A68     	 ldr r2,[r3,#4]
  56 001a 7B68     	 ldr r3,[r7,#4]
  57 001c 9C89     	 ldrh r4,[r3,#12]
  58 001e 7B68     	 ldr r3,[r7,#4]
  59 0020 1B69     	 ldr r3,[r3,#16]
  60 0022 0093     	 str r3,[sp]
  61 0024 3868     	 ldr r0,[r7]
  62 0026 2346     	 mov r3,r4
  63 0028 FFF7FEFF 	 bl arm_radix4_butterfly_inverse_f32
  64 002c 08E0     	 b .L3
  65              	.L2:
  78:../Dave/Generated/CMSIS_DSP/TransformFunctions/arm_cfft_radix4_f32.c ****    }
  79:../Dave/Generated/CMSIS_DSP/TransformFunctions/arm_cfft_radix4_f32.c ****    else
  80:../Dave/Generated/CMSIS_DSP/TransformFunctions/arm_cfft_radix4_f32.c ****    {
  81:../Dave/Generated/CMSIS_DSP/TransformFunctions/arm_cfft_radix4_f32.c ****       /*  Complex FFT radix-4  */
  82:../Dave/Generated/CMSIS_DSP/TransformFunctions/arm_cfft_radix4_f32.c ****       arm_radix4_butterfly_f32(pSrc, S->fftLen, S->pTwiddle, S->twidCoefModifier);
  66              	 .loc 1 82 0
  67 002e 7B68     	 ldr r3,[r7,#4]
  68 0030 1988     	 ldrh r1,[r3]
  69 0032 7B68     	 ldr r3,[r7,#4]
  70 0034 5A68     	 ldr r2,[r3,#4]
  71 0036 7B68     	 ldr r3,[r7,#4]
  72 0038 9B89     	 ldrh r3,[r3,#12]
  73 003a 3868     	 ldr r0,[r7]
  74 003c FFF7FEFF 	 bl arm_radix4_butterfly_f32
  75              	.L3:
  83:../Dave/Generated/CMSIS_DSP/TransformFunctions/arm_cfft_radix4_f32.c ****    }
  84:../Dave/Generated/CMSIS_DSP/TransformFunctions/arm_cfft_radix4_f32.c **** 
  85:../Dave/Generated/CMSIS_DSP/TransformFunctions/arm_cfft_radix4_f32.c ****    if (S->bitReverseFlag == 1u)
  76              	 .loc 1 85 0
  77 0040 7B68     	 ldr r3,[r7,#4]
  78 0042 DB78     	 ldrb r3,[r3,#3]
  79 0044 012B     	 cmp r3,#1
  80 0046 08D1     	 bne .L1
  86:../Dave/Generated/CMSIS_DSP/TransformFunctions/arm_cfft_radix4_f32.c ****    {
  87:../Dave/Generated/CMSIS_DSP/TransformFunctions/arm_cfft_radix4_f32.c ****       /*  Bit Reversal */
  88:../Dave/Generated/CMSIS_DSP/TransformFunctions/arm_cfft_radix4_f32.c ****       arm_bitreversal_f32(pSrc, S->fftLen, S->bitRevFactor, S->pBitRevTable);
  81              	 .loc 1 88 0
  82 0048 7B68     	 ldr r3,[r7,#4]
  83 004a 1988     	 ldrh r1,[r3]
  84 004c 7B68     	 ldr r3,[r7,#4]
  85 004e DA89     	 ldrh r2,[r3,#14]
  86 0050 7B68     	 ldr r3,[r7,#4]
  87 0052 9B68     	 ldr r3,[r3,#8]
  88 0054 3868     	 ldr r0,[r7]
  89 0056 FFF7FEFF 	 bl arm_bitreversal_f32
  90              	.L1:
  89:../Dave/Generated/CMSIS_DSP/TransformFunctions/arm_cfft_radix4_f32.c ****    }
  90:../Dave/Generated/CMSIS_DSP/TransformFunctions/arm_cfft_radix4_f32.c **** 
  91:../Dave/Generated/CMSIS_DSP/TransformFunctions/arm_cfft_radix4_f32.c **** }
  91              	 .loc 1 91 0
  92 005a 0C37     	 adds r7,r7,#12
  93              	.LCFI3:
  94              	 .cfi_def_cfa_offset 12
  95 005c BD46     	 mov sp,r7
  96              	.LCFI4:
  97              	 .cfi_def_cfa_register 13
  98              	 
  99 005e 90BD     	 pop {r4,r7,pc}
 100              	 .cfi_endproc
 101              	.LFE135:
 103              	 .section .text.arm_radix4_butterfly_f32,"ax",%progbits
 104              	 .align 2
 105              	 .global arm_radix4_butterfly_f32
 106              	 .thumb
 107              	 .thumb_func
 109              	arm_radix4_butterfly_f32:
 110              	.LFB136:
  92:../Dave/Generated/CMSIS_DSP/TransformFunctions/arm_cfft_radix4_f32.c **** 
  93:../Dave/Generated/CMSIS_DSP/TransformFunctions/arm_cfft_radix4_f32.c **** /**
  94:../Dave/Generated/CMSIS_DSP/TransformFunctions/arm_cfft_radix4_f32.c **** * @} end of ComplexFFT group
  95:../Dave/Generated/CMSIS_DSP/TransformFunctions/arm_cfft_radix4_f32.c **** */
  96:../Dave/Generated/CMSIS_DSP/TransformFunctions/arm_cfft_radix4_f32.c **** 
  97:../Dave/Generated/CMSIS_DSP/TransformFunctions/arm_cfft_radix4_f32.c **** /* ----------------------------------------------------------------------
  98:../Dave/Generated/CMSIS_DSP/TransformFunctions/arm_cfft_radix4_f32.c ****  * Internal helper function used by the FFTs
  99:../Dave/Generated/CMSIS_DSP/TransformFunctions/arm_cfft_radix4_f32.c ****  * ---------------------------------------------------------------------- */
 100:../Dave/Generated/CMSIS_DSP/TransformFunctions/arm_cfft_radix4_f32.c **** 
 101:../Dave/Generated/CMSIS_DSP/TransformFunctions/arm_cfft_radix4_f32.c **** /*
 102:../Dave/Generated/CMSIS_DSP/TransformFunctions/arm_cfft_radix4_f32.c **** * @brief  Core function for the floating-point CFFT butterfly process.
 103:../Dave/Generated/CMSIS_DSP/TransformFunctions/arm_cfft_radix4_f32.c **** * @param[in, out] *pSrc            points to the in-place buffer of floating-point data type.
 104:../Dave/Generated/CMSIS_DSP/TransformFunctions/arm_cfft_radix4_f32.c **** * @param[in]      fftLen           length of the FFT.
 105:../Dave/Generated/CMSIS_DSP/TransformFunctions/arm_cfft_radix4_f32.c **** * @param[in]      *pCoef           points to the twiddle coefficient buffer.
 106:../Dave/Generated/CMSIS_DSP/TransformFunctions/arm_cfft_radix4_f32.c **** * @param[in]      twidCoefModifier twiddle coefficient modifier that supports different size FFTs w
 107:../Dave/Generated/CMSIS_DSP/TransformFunctions/arm_cfft_radix4_f32.c **** * @return none.
 108:../Dave/Generated/CMSIS_DSP/TransformFunctions/arm_cfft_radix4_f32.c **** */
 109:../Dave/Generated/CMSIS_DSP/TransformFunctions/arm_cfft_radix4_f32.c **** 
 110:../Dave/Generated/CMSIS_DSP/TransformFunctions/arm_cfft_radix4_f32.c **** void arm_radix4_butterfly_f32(
 111:../Dave/Generated/CMSIS_DSP/TransformFunctions/arm_cfft_radix4_f32.c **** float32_t * pSrc,
 112:../Dave/Generated/CMSIS_DSP/TransformFunctions/arm_cfft_radix4_f32.c **** uint16_t fftLen,
 113:../Dave/Generated/CMSIS_DSP/TransformFunctions/arm_cfft_radix4_f32.c **** float32_t * pCoef,
 114:../Dave/Generated/CMSIS_DSP/TransformFunctions/arm_cfft_radix4_f32.c **** uint16_t twidCoefModifier)
 115:../Dave/Generated/CMSIS_DSP/TransformFunctions/arm_cfft_radix4_f32.c **** {
 111              	 .loc 1 115 0
 112              	 .cfi_startproc
 113              	 
 114              	 
 115              	 
 116 0000 80B4     	 push {r7}
 117              	.LCFI5:
 118              	 .cfi_def_cfa_offset 4
 119              	 .cfi_offset 7,-4
 120 0002 C1B0     	 sub sp,sp,#260
 121              	.LCFI6:
 122              	 .cfi_def_cfa_offset 264
 123 0004 00AF     	 add r7,sp,#0
 124              	.LCFI7:
 125              	 .cfi_def_cfa_register 7
 126 0006 F860     	 str r0,[r7,#12]
 127 0008 7A60     	 str r2,[r7,#4]
 128 000a 1A46     	 mov r2,r3
 129 000c 0B46     	 mov r3,r1
 130 000e 7B81     	 strh r3,[r7,#10]
 131 0010 1346     	 mov r3,r2
 132 0012 3B81     	 strh r3,[r7,#8]
 116:../Dave/Generated/CMSIS_DSP/TransformFunctions/arm_cfft_radix4_f32.c **** 
 117:../Dave/Generated/CMSIS_DSP/TransformFunctions/arm_cfft_radix4_f32.c ****    float32_t co1, co2, co3, si1, si2, si3;
 118:../Dave/Generated/CMSIS_DSP/TransformFunctions/arm_cfft_radix4_f32.c ****    uint32_t ia1, ia2, ia3;
 119:../Dave/Generated/CMSIS_DSP/TransformFunctions/arm_cfft_radix4_f32.c ****    uint32_t i0, i1, i2, i3;
 120:../Dave/Generated/CMSIS_DSP/TransformFunctions/arm_cfft_radix4_f32.c ****    uint32_t n1, n2, j, k;
 121:../Dave/Generated/CMSIS_DSP/TransformFunctions/arm_cfft_radix4_f32.c **** 
 122:../Dave/Generated/CMSIS_DSP/TransformFunctions/arm_cfft_radix4_f32.c **** #if defined (ARM_MATH_DSP)
 123:../Dave/Generated/CMSIS_DSP/TransformFunctions/arm_cfft_radix4_f32.c **** 
 124:../Dave/Generated/CMSIS_DSP/TransformFunctions/arm_cfft_radix4_f32.c ****    /* Run the below code for Cortex-M4 and Cortex-M3 */
 125:../Dave/Generated/CMSIS_DSP/TransformFunctions/arm_cfft_radix4_f32.c **** 
 126:../Dave/Generated/CMSIS_DSP/TransformFunctions/arm_cfft_radix4_f32.c ****    float32_t xaIn, yaIn, xbIn, ybIn, xcIn, ycIn, xdIn, ydIn;
 127:../Dave/Generated/CMSIS_DSP/TransformFunctions/arm_cfft_radix4_f32.c ****    float32_t Xaplusc, Xbplusd, Yaplusc, Ybplusd, Xaminusc, Xbminusd, Yaminusc,
 128:../Dave/Generated/CMSIS_DSP/TransformFunctions/arm_cfft_radix4_f32.c ****    Ybminusd;
 129:../Dave/Generated/CMSIS_DSP/TransformFunctions/arm_cfft_radix4_f32.c ****    float32_t Xb12C_out, Yb12C_out, Xc12C_out, Yc12C_out, Xd12C_out, Yd12C_out;
 130:../Dave/Generated/CMSIS_DSP/TransformFunctions/arm_cfft_radix4_f32.c ****    float32_t Xb12_out, Yb12_out, Xc12_out, Yc12_out, Xd12_out, Yd12_out;
 131:../Dave/Generated/CMSIS_DSP/TransformFunctions/arm_cfft_radix4_f32.c ****    float32_t *ptr1;
 132:../Dave/Generated/CMSIS_DSP/TransformFunctions/arm_cfft_radix4_f32.c ****    float32_t p0,p1,p2,p3,p4,p5;
 133:../Dave/Generated/CMSIS_DSP/TransformFunctions/arm_cfft_radix4_f32.c ****    float32_t a0,a1,a2,a3,a4,a5,a6,a7;
 134:../Dave/Generated/CMSIS_DSP/TransformFunctions/arm_cfft_radix4_f32.c **** 
 135:../Dave/Generated/CMSIS_DSP/TransformFunctions/arm_cfft_radix4_f32.c ****    /*  Initializations for the first stage */
 136:../Dave/Generated/CMSIS_DSP/TransformFunctions/arm_cfft_radix4_f32.c ****    n2 = fftLen;
 133              	 .loc 1 136 0
 134 0014 7B89     	 ldrh r3,[r7,#10]
 135 0016 C7F8F430 	 str r3,[r7,#244]
 137:../Dave/Generated/CMSIS_DSP/TransformFunctions/arm_cfft_radix4_f32.c ****    n1 = n2;
 136              	 .loc 1 137 0
 137 001a D7F8F430 	 ldr r3,[r7,#244]
 138 001e C7F8E430 	 str r3,[r7,#228]
 138:../Dave/Generated/CMSIS_DSP/TransformFunctions/arm_cfft_radix4_f32.c **** 
 139:../Dave/Generated/CMSIS_DSP/TransformFunctions/arm_cfft_radix4_f32.c ****    /* n2 = fftLen/4 */
 140:../Dave/Generated/CMSIS_DSP/TransformFunctions/arm_cfft_radix4_f32.c ****    n2 >>= 2u;
 139              	 .loc 1 140 0
 140 0022 D7F8F430 	 ldr r3,[r7,#244]
 141 0026 9B08     	 lsrs r3,r3,#2
 142 0028 C7F8F430 	 str r3,[r7,#244]
 141:../Dave/Generated/CMSIS_DSP/TransformFunctions/arm_cfft_radix4_f32.c ****    i0 = 0u;
 143              	 .loc 1 141 0
 144 002c 0023     	 movs r3,#0
 145 002e C7F8F830 	 str r3,[r7,#248]
 142:../Dave/Generated/CMSIS_DSP/TransformFunctions/arm_cfft_radix4_f32.c ****    ia1 = 0u;
 146              	 .loc 1 142 0
 147 0032 0023     	 movs r3,#0
 148 0034 C7F8FC30 	 str r3,[r7,#252]
 143:../Dave/Generated/CMSIS_DSP/TransformFunctions/arm_cfft_radix4_f32.c **** 
 144:../Dave/Generated/CMSIS_DSP/TransformFunctions/arm_cfft_radix4_f32.c ****    j = n2;
 149              	 .loc 1 144 0
 150 0038 D7F8F430 	 ldr r3,[r7,#244]
 151 003c C7F8F030 	 str r3,[r7,#240]
 152              	.L6:
 145:../Dave/Generated/CMSIS_DSP/TransformFunctions/arm_cfft_radix4_f32.c **** 
 146:../Dave/Generated/CMSIS_DSP/TransformFunctions/arm_cfft_radix4_f32.c ****    /*  Calculation of first stage */
 147:../Dave/Generated/CMSIS_DSP/TransformFunctions/arm_cfft_radix4_f32.c ****    do
 148:../Dave/Generated/CMSIS_DSP/TransformFunctions/arm_cfft_radix4_f32.c ****    {
 149:../Dave/Generated/CMSIS_DSP/TransformFunctions/arm_cfft_radix4_f32.c ****       /*  index calculation for the input as, */
 150:../Dave/Generated/CMSIS_DSP/TransformFunctions/arm_cfft_radix4_f32.c ****       /*  pSrc[i0 + 0], pSrc[i0 + fftLen/4], pSrc[i0 + fftLen/2], pSrc[i0 + 3fftLen/4] */
 151:../Dave/Generated/CMSIS_DSP/TransformFunctions/arm_cfft_radix4_f32.c ****       i1 = i0 + n2;
 153              	 .loc 1 151 0 discriminator 1
 154 0040 D7F8F820 	 ldr r2,[r7,#248]
 155 0044 D7F8F430 	 ldr r3,[r7,#244]
 156 0048 1344     	 add r3,r3,r2
 157 004a C7F8E030 	 str r3,[r7,#224]
 152:../Dave/Generated/CMSIS_DSP/TransformFunctions/arm_cfft_radix4_f32.c ****       i2 = i1 + n2;
 158              	 .loc 1 152 0 discriminator 1
 159 004e D7F8E020 	 ldr r2,[r7,#224]
 160 0052 D7F8F430 	 ldr r3,[r7,#244]
 161 0056 1344     	 add r3,r3,r2
 162 0058 C7F8DC30 	 str r3,[r7,#220]
 153:../Dave/Generated/CMSIS_DSP/TransformFunctions/arm_cfft_radix4_f32.c ****       i3 = i2 + n2;
 163              	 .loc 1 153 0 discriminator 1
 164 005c D7F8DC20 	 ldr r2,[r7,#220]
 165 0060 D7F8F430 	 ldr r3,[r7,#244]
 166 0064 1344     	 add r3,r3,r2
 167 0066 C7F8D830 	 str r3,[r7,#216]
 154:../Dave/Generated/CMSIS_DSP/TransformFunctions/arm_cfft_radix4_f32.c **** 
 155:../Dave/Generated/CMSIS_DSP/TransformFunctions/arm_cfft_radix4_f32.c ****       xaIn = pSrc[(2u * i0)];
 168              	 .loc 1 155 0 discriminator 1
 169 006a D7F8F830 	 ldr r3,[r7,#248]
 170 006e DB00     	 lsls r3,r3,#3
 171 0070 FA68     	 ldr r2,[r7,#12]
 172 0072 1344     	 add r3,r3,r2
 173 0074 1B68     	 ldr r3,[r3]
 174 0076 C7F8D430 	 str r3,[r7,#212]
 156:../Dave/Generated/CMSIS_DSP/TransformFunctions/arm_cfft_radix4_f32.c ****       yaIn = pSrc[(2u * i0) + 1u];
 175              	 .loc 1 156 0 discriminator 1
 176 007a D7F8F830 	 ldr r3,[r7,#248]
 177 007e DB00     	 lsls r3,r3,#3
 178 0080 0433     	 adds r3,r3,#4
 179 0082 FA68     	 ldr r2,[r7,#12]
 180 0084 1344     	 add r3,r3,r2
 181 0086 1B68     	 ldr r3,[r3]
 182 0088 C7F8D030 	 str r3,[r7,#208]
 157:../Dave/Generated/CMSIS_DSP/TransformFunctions/arm_cfft_radix4_f32.c **** 
 158:../Dave/Generated/CMSIS_DSP/TransformFunctions/arm_cfft_radix4_f32.c ****       xbIn = pSrc[(2u * i1)];
 183              	 .loc 1 158 0 discriminator 1
 184 008c D7F8E030 	 ldr r3,[r7,#224]
 185 0090 DB00     	 lsls r3,r3,#3
 186 0092 FA68     	 ldr r2,[r7,#12]
 187 0094 1344     	 add r3,r3,r2
 188 0096 1B68     	 ldr r3,[r3]
 189 0098 C7F8CC30 	 str r3,[r7,#204]
 159:../Dave/Generated/CMSIS_DSP/TransformFunctions/arm_cfft_radix4_f32.c ****       ybIn = pSrc[(2u * i1) + 1u];
 190              	 .loc 1 159 0 discriminator 1
 191 009c D7F8E030 	 ldr r3,[r7,#224]
 192 00a0 DB00     	 lsls r3,r3,#3
 193 00a2 0433     	 adds r3,r3,#4
 194 00a4 FA68     	 ldr r2,[r7,#12]
 195 00a6 1344     	 add r3,r3,r2
 196 00a8 1B68     	 ldr r3,[r3]
 197 00aa C7F8C830 	 str r3,[r7,#200]
 160:../Dave/Generated/CMSIS_DSP/TransformFunctions/arm_cfft_radix4_f32.c **** 
 161:../Dave/Generated/CMSIS_DSP/TransformFunctions/arm_cfft_radix4_f32.c ****       xcIn = pSrc[(2u * i2)];
 198              	 .loc 1 161 0 discriminator 1
 199 00ae D7F8DC30 	 ldr r3,[r7,#220]
 200 00b2 DB00     	 lsls r3,r3,#3
 201 00b4 FA68     	 ldr r2,[r7,#12]
 202 00b6 1344     	 add r3,r3,r2
 203 00b8 1B68     	 ldr r3,[r3]
 204 00ba C7F8C430 	 str r3,[r7,#196]
 162:../Dave/Generated/CMSIS_DSP/TransformFunctions/arm_cfft_radix4_f32.c ****       ycIn = pSrc[(2u * i2) + 1u];
 205              	 .loc 1 162 0 discriminator 1
 206 00be D7F8DC30 	 ldr r3,[r7,#220]
 207 00c2 DB00     	 lsls r3,r3,#3
 208 00c4 0433     	 adds r3,r3,#4
 209 00c6 FA68     	 ldr r2,[r7,#12]
 210 00c8 1344     	 add r3,r3,r2
 211 00ca 1B68     	 ldr r3,[r3]
 212 00cc C7F8C030 	 str r3,[r7,#192]
 163:../Dave/Generated/CMSIS_DSP/TransformFunctions/arm_cfft_radix4_f32.c **** 
 164:../Dave/Generated/CMSIS_DSP/TransformFunctions/arm_cfft_radix4_f32.c ****       xdIn = pSrc[(2u * i3)];
 213              	 .loc 1 164 0 discriminator 1
 214 00d0 D7F8D830 	 ldr r3,[r7,#216]
 215 00d4 DB00     	 lsls r3,r3,#3
 216 00d6 FA68     	 ldr r2,[r7,#12]
 217 00d8 1344     	 add r3,r3,r2
 218 00da 1B68     	 ldr r3,[r3]
 219 00dc C7F8BC30 	 str r3,[r7,#188]
 165:../Dave/Generated/CMSIS_DSP/TransformFunctions/arm_cfft_radix4_f32.c ****       ydIn = pSrc[(2u * i3) + 1u];
 220              	 .loc 1 165 0 discriminator 1
 221 00e0 D7F8D830 	 ldr r3,[r7,#216]
 222 00e4 DB00     	 lsls r3,r3,#3
 223 00e6 0433     	 adds r3,r3,#4
 224 00e8 FA68     	 ldr r2,[r7,#12]
 225 00ea 1344     	 add r3,r3,r2
 226 00ec 1B68     	 ldr r3,[r3]
 227 00ee C7F8B830 	 str r3,[r7,#184]
 166:../Dave/Generated/CMSIS_DSP/TransformFunctions/arm_cfft_radix4_f32.c **** 
 167:../Dave/Generated/CMSIS_DSP/TransformFunctions/arm_cfft_radix4_f32.c ****       /* xa + xc */
 168:../Dave/Generated/CMSIS_DSP/TransformFunctions/arm_cfft_radix4_f32.c ****       Xaplusc = xaIn + xcIn;
 228              	 .loc 1 168 0 discriminator 1
 229 00f2 97ED357A 	 flds s14,[r7,#212]
 230 00f6 D7ED317A 	 flds s15,[r7,#196]
 231 00fa 77EE277A 	 fadds s15,s14,s15
 232 00fe C7ED2D7A 	 fsts s15,[r7,#180]
 169:../Dave/Generated/CMSIS_DSP/TransformFunctions/arm_cfft_radix4_f32.c ****       /* xb + xd */
 170:../Dave/Generated/CMSIS_DSP/TransformFunctions/arm_cfft_radix4_f32.c ****       Xbplusd = xbIn + xdIn;
 233              	 .loc 1 170 0 discriminator 1
 234 0102 97ED337A 	 flds s14,[r7,#204]
 235 0106 D7ED2F7A 	 flds s15,[r7,#188]
 236 010a 77EE277A 	 fadds s15,s14,s15
 237 010e C7ED2C7A 	 fsts s15,[r7,#176]
 171:../Dave/Generated/CMSIS_DSP/TransformFunctions/arm_cfft_radix4_f32.c ****       /* ya + yc */
 172:../Dave/Generated/CMSIS_DSP/TransformFunctions/arm_cfft_radix4_f32.c ****       Yaplusc = yaIn + ycIn;
 238              	 .loc 1 172 0 discriminator 1
 239 0112 97ED347A 	 flds s14,[r7,#208]
 240 0116 D7ED307A 	 flds s15,[r7,#192]
 241 011a 77EE277A 	 fadds s15,s14,s15
 242 011e C7ED2B7A 	 fsts s15,[r7,#172]
 173:../Dave/Generated/CMSIS_DSP/TransformFunctions/arm_cfft_radix4_f32.c ****       /* yb + yd */
 174:../Dave/Generated/CMSIS_DSP/TransformFunctions/arm_cfft_radix4_f32.c ****       Ybplusd = ybIn + ydIn;
 243              	 .loc 1 174 0 discriminator 1
 244 0122 97ED327A 	 flds s14,[r7,#200]
 245 0126 D7ED2E7A 	 flds s15,[r7,#184]
 246 012a 77EE277A 	 fadds s15,s14,s15
 247 012e C7ED2A7A 	 fsts s15,[r7,#168]
 175:../Dave/Generated/CMSIS_DSP/TransformFunctions/arm_cfft_radix4_f32.c **** 
 176:../Dave/Generated/CMSIS_DSP/TransformFunctions/arm_cfft_radix4_f32.c ****       /*  index calculation for the coefficients */
 177:../Dave/Generated/CMSIS_DSP/TransformFunctions/arm_cfft_radix4_f32.c ****       ia2 = ia1 + ia1;
 248              	 .loc 1 177 0 discriminator 1
 249 0132 D7F8FC20 	 ldr r2,[r7,#252]
 250 0136 D7F8FC30 	 ldr r3,[r7,#252]
 251 013a 1344     	 add r3,r3,r2
 252 013c C7F8A430 	 str r3,[r7,#164]
 178:../Dave/Generated/CMSIS_DSP/TransformFunctions/arm_cfft_radix4_f32.c ****       co2 = pCoef[ia2 * 2u];
 253              	 .loc 1 178 0 discriminator 1
 254 0140 D7F8A430 	 ldr r3,[r7,#164]
 255 0144 DB00     	 lsls r3,r3,#3
 256 0146 7A68     	 ldr r2,[r7,#4]
 257 0148 1344     	 add r3,r3,r2
 258 014a 1B68     	 ldr r3,[r3]
 259 014c C7F8A030 	 str r3,[r7,#160]
 179:../Dave/Generated/CMSIS_DSP/TransformFunctions/arm_cfft_radix4_f32.c ****       si2 = pCoef[(ia2 * 2u) + 1u];
 260              	 .loc 1 179 0 discriminator 1
 261 0150 D7F8A430 	 ldr r3,[r7,#164]
 262 0154 DB00     	 lsls r3,r3,#3
 263 0156 0433     	 adds r3,r3,#4
 264 0158 7A68     	 ldr r2,[r7,#4]
 265 015a 1344     	 add r3,r3,r2
 266 015c 1B68     	 ldr r3,[r3]
 267 015e C7F89C30 	 str r3,[r7,#156]
 180:../Dave/Generated/CMSIS_DSP/TransformFunctions/arm_cfft_radix4_f32.c **** 
 181:../Dave/Generated/CMSIS_DSP/TransformFunctions/arm_cfft_radix4_f32.c ****       /* xa - xc */
 182:../Dave/Generated/CMSIS_DSP/TransformFunctions/arm_cfft_radix4_f32.c ****       Xaminusc = xaIn - xcIn;
 268              	 .loc 1 182 0 discriminator 1
 269 0162 97ED357A 	 flds s14,[r7,#212]
 270 0166 D7ED317A 	 flds s15,[r7,#196]
 271 016a 77EE677A 	 fsubs s15,s14,s15
 272 016e C7ED267A 	 fsts s15,[r7,#152]
 183:../Dave/Generated/CMSIS_DSP/TransformFunctions/arm_cfft_radix4_f32.c ****       /* xb - xd */
 184:../Dave/Generated/CMSIS_DSP/TransformFunctions/arm_cfft_radix4_f32.c ****       Xbminusd = xbIn - xdIn;
 273              	 .loc 1 184 0 discriminator 1
 274 0172 97ED337A 	 flds s14,[r7,#204]
 275 0176 D7ED2F7A 	 flds s15,[r7,#188]
 276 017a 77EE677A 	 fsubs s15,s14,s15
 277 017e C7ED257A 	 fsts s15,[r7,#148]
 185:../Dave/Generated/CMSIS_DSP/TransformFunctions/arm_cfft_radix4_f32.c ****       /* ya - yc */
 186:../Dave/Generated/CMSIS_DSP/TransformFunctions/arm_cfft_radix4_f32.c ****       Yaminusc = yaIn - ycIn;
 278              	 .loc 1 186 0 discriminator 1
 279 0182 97ED347A 	 flds s14,[r7,#208]
 280 0186 D7ED307A 	 flds s15,[r7,#192]
 281 018a 77EE677A 	 fsubs s15,s14,s15
 282 018e C7ED247A 	 fsts s15,[r7,#144]
 187:../Dave/Generated/CMSIS_DSP/TransformFunctions/arm_cfft_radix4_f32.c ****       /* yb - yd */
 188:../Dave/Generated/CMSIS_DSP/TransformFunctions/arm_cfft_radix4_f32.c ****       Ybminusd = ybIn - ydIn;
 283              	 .loc 1 188 0 discriminator 1
 284 0192 97ED327A 	 flds s14,[r7,#200]
 285 0196 D7ED2E7A 	 flds s15,[r7,#184]
 286 019a 77EE677A 	 fsubs s15,s14,s15
 287 019e C7ED237A 	 fsts s15,[r7,#140]
 189:../Dave/Generated/CMSIS_DSP/TransformFunctions/arm_cfft_radix4_f32.c **** 
 190:../Dave/Generated/CMSIS_DSP/TransformFunctions/arm_cfft_radix4_f32.c ****       /* xa' = xa + xb + xc + xd */
 191:../Dave/Generated/CMSIS_DSP/TransformFunctions/arm_cfft_radix4_f32.c ****       pSrc[(2u * i0)] = Xaplusc + Xbplusd;
 288              	 .loc 1 191 0 discriminator 1
 289 01a2 D7F8F830 	 ldr r3,[r7,#248]
 290 01a6 DB00     	 lsls r3,r3,#3
 291 01a8 FA68     	 ldr r2,[r7,#12]
 292 01aa 1344     	 add r3,r3,r2
 293 01ac 97ED2D7A 	 flds s14,[r7,#180]
 294 01b0 D7ED2C7A 	 flds s15,[r7,#176]
 295 01b4 77EE277A 	 fadds s15,s14,s15
 296 01b8 C3ED007A 	 fsts s15,[r3]
 192:../Dave/Generated/CMSIS_DSP/TransformFunctions/arm_cfft_radix4_f32.c ****       /* ya' = ya + yb + yc + yd */
 193:../Dave/Generated/CMSIS_DSP/TransformFunctions/arm_cfft_radix4_f32.c ****       pSrc[(2u * i0) + 1u] = Yaplusc + Ybplusd;
 297              	 .loc 1 193 0 discriminator 1
 298 01bc D7F8F830 	 ldr r3,[r7,#248]
 299 01c0 DB00     	 lsls r3,r3,#3
 300 01c2 0433     	 adds r3,r3,#4
 301 01c4 FA68     	 ldr r2,[r7,#12]
 302 01c6 1344     	 add r3,r3,r2
 303 01c8 97ED2B7A 	 flds s14,[r7,#172]
 304 01cc D7ED2A7A 	 flds s15,[r7,#168]
 305 01d0 77EE277A 	 fadds s15,s14,s15
 306 01d4 C3ED007A 	 fsts s15,[r3]
 194:../Dave/Generated/CMSIS_DSP/TransformFunctions/arm_cfft_radix4_f32.c **** 
 195:../Dave/Generated/CMSIS_DSP/TransformFunctions/arm_cfft_radix4_f32.c ****       /* (xa - xc) + (yb - yd) */
 196:../Dave/Generated/CMSIS_DSP/TransformFunctions/arm_cfft_radix4_f32.c ****       Xb12C_out = (Xaminusc + Ybminusd);
 307              	 .loc 1 196 0 discriminator 1
 308 01d8 97ED267A 	 flds s14,[r7,#152]
 309 01dc D7ED237A 	 flds s15,[r7,#140]
 310 01e0 77EE277A 	 fadds s15,s14,s15
 311 01e4 C7ED227A 	 fsts s15,[r7,#136]
 197:../Dave/Generated/CMSIS_DSP/TransformFunctions/arm_cfft_radix4_f32.c ****       /* (ya - yc) + (xb - xd) */
 198:../Dave/Generated/CMSIS_DSP/TransformFunctions/arm_cfft_radix4_f32.c ****       Yb12C_out = (Yaminusc - Xbminusd);
 312              	 .loc 1 198 0 discriminator 1
 313 01e8 97ED247A 	 flds s14,[r7,#144]
 314 01ec D7ED257A 	 flds s15,[r7,#148]
 315 01f0 77EE677A 	 fsubs s15,s14,s15
 316 01f4 C7ED217A 	 fsts s15,[r7,#132]
 199:../Dave/Generated/CMSIS_DSP/TransformFunctions/arm_cfft_radix4_f32.c ****       /* (xa + xc) - (xb + xd) */
 200:../Dave/Generated/CMSIS_DSP/TransformFunctions/arm_cfft_radix4_f32.c ****       Xc12C_out = (Xaplusc - Xbplusd);
 317              	 .loc 1 200 0 discriminator 1
 318 01f8 97ED2D7A 	 flds s14,[r7,#180]
 319 01fc D7ED2C7A 	 flds s15,[r7,#176]
 320 0200 77EE677A 	 fsubs s15,s14,s15
 321 0204 C7ED207A 	 fsts s15,[r7,#128]
 201:../Dave/Generated/CMSIS_DSP/TransformFunctions/arm_cfft_radix4_f32.c ****       /* (ya + yc) - (yb + yd) */
 202:../Dave/Generated/CMSIS_DSP/TransformFunctions/arm_cfft_radix4_f32.c ****       Yc12C_out = (Yaplusc - Ybplusd);
 322              	 .loc 1 202 0 discriminator 1
 323 0208 97ED2B7A 	 flds s14,[r7,#172]
 324 020c D7ED2A7A 	 flds s15,[r7,#168]
 325 0210 77EE677A 	 fsubs s15,s14,s15
 326 0214 C7ED1F7A 	 fsts s15,[r7,#124]
 203:../Dave/Generated/CMSIS_DSP/TransformFunctions/arm_cfft_radix4_f32.c ****       /* (xa - xc) - (yb - yd) */
 204:../Dave/Generated/CMSIS_DSP/TransformFunctions/arm_cfft_radix4_f32.c ****       Xd12C_out = (Xaminusc - Ybminusd);
 327              	 .loc 1 204 0 discriminator 1
 328 0218 97ED267A 	 flds s14,[r7,#152]
 329 021c D7ED237A 	 flds s15,[r7,#140]
 330 0220 77EE677A 	 fsubs s15,s14,s15
 331 0224 C7ED1E7A 	 fsts s15,[r7,#120]
 205:../Dave/Generated/CMSIS_DSP/TransformFunctions/arm_cfft_radix4_f32.c ****       /* (ya - yc) + (xb - xd) */
 206:../Dave/Generated/CMSIS_DSP/TransformFunctions/arm_cfft_radix4_f32.c ****       Yd12C_out = (Xbminusd + Yaminusc);
 332              	 .loc 1 206 0 discriminator 1
 333 0228 97ED257A 	 flds s14,[r7,#148]
 334 022c D7ED247A 	 flds s15,[r7,#144]
 335 0230 77EE277A 	 fadds s15,s14,s15
 336 0234 C7ED1D7A 	 fsts s15,[r7,#116]
 207:../Dave/Generated/CMSIS_DSP/TransformFunctions/arm_cfft_radix4_f32.c **** 
 208:../Dave/Generated/CMSIS_DSP/TransformFunctions/arm_cfft_radix4_f32.c ****       co1 = pCoef[ia1 * 2u];
 337              	 .loc 1 208 0 discriminator 1
 338 0238 D7F8FC30 	 ldr r3,[r7,#252]
 339 023c DB00     	 lsls r3,r3,#3
 340 023e 7A68     	 ldr r2,[r7,#4]
 341 0240 1344     	 add r3,r3,r2
 342 0242 1B68     	 ldr r3,[r3]
 343 0244 3B67     	 str r3,[r7,#112]
 209:../Dave/Generated/CMSIS_DSP/TransformFunctions/arm_cfft_radix4_f32.c ****       si1 = pCoef[(ia1 * 2u) + 1u];
 344              	 .loc 1 209 0 discriminator 1
 345 0246 D7F8FC30 	 ldr r3,[r7,#252]
 346 024a DB00     	 lsls r3,r3,#3
 347 024c 0433     	 adds r3,r3,#4
 348 024e 7A68     	 ldr r2,[r7,#4]
 349 0250 1344     	 add r3,r3,r2
 350 0252 1B68     	 ldr r3,[r3]
 351 0254 FB66     	 str r3,[r7,#108]
 210:../Dave/Generated/CMSIS_DSP/TransformFunctions/arm_cfft_radix4_f32.c **** 
 211:../Dave/Generated/CMSIS_DSP/TransformFunctions/arm_cfft_radix4_f32.c ****       /*  index calculation for the coefficients */
 212:../Dave/Generated/CMSIS_DSP/TransformFunctions/arm_cfft_radix4_f32.c ****       ia3 = ia2 + ia1;
 352              	 .loc 1 212 0 discriminator 1
 353 0256 D7F8A420 	 ldr r2,[r7,#164]
 354 025a D7F8FC30 	 ldr r3,[r7,#252]
 355 025e 1344     	 add r3,r3,r2
 356 0260 BB66     	 str r3,[r7,#104]
 213:../Dave/Generated/CMSIS_DSP/TransformFunctions/arm_cfft_radix4_f32.c ****       co3 = pCoef[ia3 * 2u];
 357              	 .loc 1 213 0 discriminator 1
 358 0262 BB6E     	 ldr r3,[r7,#104]
 359 0264 DB00     	 lsls r3,r3,#3
 360 0266 7A68     	 ldr r2,[r7,#4]
 361 0268 1344     	 add r3,r3,r2
 362 026a 1B68     	 ldr r3,[r3]
 363 026c 7B66     	 str r3,[r7,#100]
 214:../Dave/Generated/CMSIS_DSP/TransformFunctions/arm_cfft_radix4_f32.c ****       si3 = pCoef[(ia3 * 2u) + 1u];
 364              	 .loc 1 214 0 discriminator 1
 365 026e BB6E     	 ldr r3,[r7,#104]
 366 0270 DB00     	 lsls r3,r3,#3
 367 0272 0433     	 adds r3,r3,#4
 368 0274 7A68     	 ldr r2,[r7,#4]
 369 0276 1344     	 add r3,r3,r2
 370 0278 1B68     	 ldr r3,[r3]
 371 027a 3B66     	 str r3,[r7,#96]
 215:../Dave/Generated/CMSIS_DSP/TransformFunctions/arm_cfft_radix4_f32.c **** 
 216:../Dave/Generated/CMSIS_DSP/TransformFunctions/arm_cfft_radix4_f32.c ****       Xb12_out = Xb12C_out * co1;
 372              	 .loc 1 216 0 discriminator 1
 373 027c 97ED227A 	 flds s14,[r7,#136]
 374 0280 D7ED1C7A 	 flds s15,[r7,#112]
 375 0284 67EE277A 	 fmuls s15,s14,s15
 376 0288 C7ED177A 	 fsts s15,[r7,#92]
 217:../Dave/Generated/CMSIS_DSP/TransformFunctions/arm_cfft_radix4_f32.c ****       Yb12_out = Yb12C_out * co1;
 377              	 .loc 1 217 0 discriminator 1
 378 028c 97ED217A 	 flds s14,[r7,#132]
 379 0290 D7ED1C7A 	 flds s15,[r7,#112]
 380 0294 67EE277A 	 fmuls s15,s14,s15
 381 0298 C7ED167A 	 fsts s15,[r7,#88]
 218:../Dave/Generated/CMSIS_DSP/TransformFunctions/arm_cfft_radix4_f32.c ****       Xc12_out = Xc12C_out * co2;
 382              	 .loc 1 218 0 discriminator 1
 383 029c 97ED207A 	 flds s14,[r7,#128]
 384 02a0 D7ED287A 	 flds s15,[r7,#160]
 385 02a4 67EE277A 	 fmuls s15,s14,s15
 386 02a8 C7ED157A 	 fsts s15,[r7,#84]
 219:../Dave/Generated/CMSIS_DSP/TransformFunctions/arm_cfft_radix4_f32.c ****       Yc12_out = Yc12C_out * co2;
 387              	 .loc 1 219 0 discriminator 1
 388 02ac 97ED1F7A 	 flds s14,[r7,#124]
 389 02b0 D7ED287A 	 flds s15,[r7,#160]
 390 02b4 67EE277A 	 fmuls s15,s14,s15
 391 02b8 C7ED147A 	 fsts s15,[r7,#80]
 220:../Dave/Generated/CMSIS_DSP/TransformFunctions/arm_cfft_radix4_f32.c ****       Xd12_out = Xd12C_out * co3;
 392              	 .loc 1 220 0 discriminator 1
 393 02bc 97ED1E7A 	 flds s14,[r7,#120]
 394 02c0 D7ED197A 	 flds s15,[r7,#100]
 395 02c4 67EE277A 	 fmuls s15,s14,s15
 396 02c8 C7ED137A 	 fsts s15,[r7,#76]
 221:../Dave/Generated/CMSIS_DSP/TransformFunctions/arm_cfft_radix4_f32.c ****       Yd12_out = Yd12C_out * co3;
 397              	 .loc 1 221 0 discriminator 1
 398 02cc 97ED1D7A 	 flds s14,[r7,#116]
 399 02d0 D7ED197A 	 flds s15,[r7,#100]
 400 02d4 67EE277A 	 fmuls s15,s14,s15
 401 02d8 C7ED127A 	 fsts s15,[r7,#72]
 222:../Dave/Generated/CMSIS_DSP/TransformFunctions/arm_cfft_radix4_f32.c **** 
 223:../Dave/Generated/CMSIS_DSP/TransformFunctions/arm_cfft_radix4_f32.c ****       /* xb' = (xa+yb-xc-yd)co1 - (ya-xb-yc+xd)(si1) */
 224:../Dave/Generated/CMSIS_DSP/TransformFunctions/arm_cfft_radix4_f32.c ****       //Xb12_out -= Yb12C_out * si1;
 225:../Dave/Generated/CMSIS_DSP/TransformFunctions/arm_cfft_radix4_f32.c ****       p0 = Yb12C_out * si1;
 402              	 .loc 1 225 0 discriminator 1
 403 02dc 97ED217A 	 flds s14,[r7,#132]
 404 02e0 D7ED1B7A 	 flds s15,[r7,#108]
 405 02e4 67EE277A 	 fmuls s15,s14,s15
 406 02e8 C7ED117A 	 fsts s15,[r7,#68]
 226:../Dave/Generated/CMSIS_DSP/TransformFunctions/arm_cfft_radix4_f32.c ****       /* yb' = (ya-xb-yc+xd)co1 + (xa+yb-xc-yd)(si1) */
 227:../Dave/Generated/CMSIS_DSP/TransformFunctions/arm_cfft_radix4_f32.c ****       //Yb12_out += Xb12C_out * si1;
 228:../Dave/Generated/CMSIS_DSP/TransformFunctions/arm_cfft_radix4_f32.c ****       p1 = Xb12C_out * si1;
 407              	 .loc 1 228 0 discriminator 1
 408 02ec 97ED227A 	 flds s14,[r7,#136]
 409 02f0 D7ED1B7A 	 flds s15,[r7,#108]
 410 02f4 67EE277A 	 fmuls s15,s14,s15
 411 02f8 C7ED107A 	 fsts s15,[r7,#64]
 229:../Dave/Generated/CMSIS_DSP/TransformFunctions/arm_cfft_radix4_f32.c ****       /* xc' = (xa-xb+xc-xd)co2 - (ya-yb+yc-yd)(si2) */
 230:../Dave/Generated/CMSIS_DSP/TransformFunctions/arm_cfft_radix4_f32.c ****       //Xc12_out -= Yc12C_out * si2;
 231:../Dave/Generated/CMSIS_DSP/TransformFunctions/arm_cfft_radix4_f32.c ****       p2 = Yc12C_out * si2;
 412              	 .loc 1 231 0 discriminator 1
 413 02fc 97ED1F7A 	 flds s14,[r7,#124]
 414 0300 D7ED277A 	 flds s15,[r7,#156]
 415 0304 67EE277A 	 fmuls s15,s14,s15
 416 0308 C7ED0F7A 	 fsts s15,[r7,#60]
 232:../Dave/Generated/CMSIS_DSP/TransformFunctions/arm_cfft_radix4_f32.c ****       /* yc' = (ya-yb+yc-yd)co2 + (xa-xb+xc-xd)(si2) */
 233:../Dave/Generated/CMSIS_DSP/TransformFunctions/arm_cfft_radix4_f32.c ****       //Yc12_out += Xc12C_out * si2;
 234:../Dave/Generated/CMSIS_DSP/TransformFunctions/arm_cfft_radix4_f32.c ****       p3 = Xc12C_out * si2;
 417              	 .loc 1 234 0 discriminator 1
 418 030c 97ED207A 	 flds s14,[r7,#128]
 419 0310 D7ED277A 	 flds s15,[r7,#156]
 420 0314 67EE277A 	 fmuls s15,s14,s15
 421 0318 C7ED0E7A 	 fsts s15,[r7,#56]
 235:../Dave/Generated/CMSIS_DSP/TransformFunctions/arm_cfft_radix4_f32.c ****       /* xd' = (xa-yb-xc+yd)co3 - (ya+xb-yc-xd)(si3) */
 236:../Dave/Generated/CMSIS_DSP/TransformFunctions/arm_cfft_radix4_f32.c ****       //Xd12_out -= Yd12C_out * si3;
 237:../Dave/Generated/CMSIS_DSP/TransformFunctions/arm_cfft_radix4_f32.c ****       p4 = Yd12C_out * si3;
 422              	 .loc 1 237 0 discriminator 1
 423 031c 97ED1D7A 	 flds s14,[r7,#116]
 424 0320 D7ED187A 	 flds s15,[r7,#96]
 425 0324 67EE277A 	 fmuls s15,s14,s15
 426 0328 C7ED0D7A 	 fsts s15,[r7,#52]
 238:../Dave/Generated/CMSIS_DSP/TransformFunctions/arm_cfft_radix4_f32.c ****       /* yd' = (ya+xb-yc-xd)co3 + (xa-yb-xc+yd)(si3) */
 239:../Dave/Generated/CMSIS_DSP/TransformFunctions/arm_cfft_radix4_f32.c ****       //Yd12_out += Xd12C_out * si3;
 240:../Dave/Generated/CMSIS_DSP/TransformFunctions/arm_cfft_radix4_f32.c ****       p5 = Xd12C_out * si3;
 427              	 .loc 1 240 0 discriminator 1
 428 032c 97ED1E7A 	 flds s14,[r7,#120]
 429 0330 D7ED187A 	 flds s15,[r7,#96]
 430 0334 67EE277A 	 fmuls s15,s14,s15
 431 0338 C7ED0C7A 	 fsts s15,[r7,#48]
 241:../Dave/Generated/CMSIS_DSP/TransformFunctions/arm_cfft_radix4_f32.c **** 
 242:../Dave/Generated/CMSIS_DSP/TransformFunctions/arm_cfft_radix4_f32.c ****       Xb12_out += p0;
 432              	 .loc 1 242 0 discriminator 1
 433 033c 97ED177A 	 flds s14,[r7,#92]
 434 0340 D7ED117A 	 flds s15,[r7,#68]
 435 0344 77EE277A 	 fadds s15,s14,s15
 436 0348 C7ED177A 	 fsts s15,[r7,#92]
 243:../Dave/Generated/CMSIS_DSP/TransformFunctions/arm_cfft_radix4_f32.c ****       Yb12_out -= p1;
 437              	 .loc 1 243 0 discriminator 1
 438 034c 97ED167A 	 flds s14,[r7,#88]
 439 0350 D7ED107A 	 flds s15,[r7,#64]
 440 0354 77EE677A 	 fsubs s15,s14,s15
 441 0358 C7ED167A 	 fsts s15,[r7,#88]
 244:../Dave/Generated/CMSIS_DSP/TransformFunctions/arm_cfft_radix4_f32.c ****       Xc12_out += p2;
 442              	 .loc 1 244 0 discriminator 1
 443 035c 97ED157A 	 flds s14,[r7,#84]
 444 0360 D7ED0F7A 	 flds s15,[r7,#60]
 445 0364 77EE277A 	 fadds s15,s14,s15
 446 0368 C7ED157A 	 fsts s15,[r7,#84]
 245:../Dave/Generated/CMSIS_DSP/TransformFunctions/arm_cfft_radix4_f32.c ****       Yc12_out -= p3;
 447              	 .loc 1 245 0 discriminator 1
 448 036c 97ED147A 	 flds s14,[r7,#80]
 449 0370 D7ED0E7A 	 flds s15,[r7,#56]
 450 0374 77EE677A 	 fsubs s15,s14,s15
 451 0378 C7ED147A 	 fsts s15,[r7,#80]
 246:../Dave/Generated/CMSIS_DSP/TransformFunctions/arm_cfft_radix4_f32.c ****       Xd12_out += p4;
 452              	 .loc 1 246 0 discriminator 1
 453 037c 97ED137A 	 flds s14,[r7,#76]
 454 0380 D7ED0D7A 	 flds s15,[r7,#52]
 455 0384 77EE277A 	 fadds s15,s14,s15
 456 0388 C7ED137A 	 fsts s15,[r7,#76]
 247:../Dave/Generated/CMSIS_DSP/TransformFunctions/arm_cfft_radix4_f32.c ****       Yd12_out -= p5;
 457              	 .loc 1 247 0 discriminator 1
 458 038c 97ED127A 	 flds s14,[r7,#72]
 459 0390 D7ED0C7A 	 flds s15,[r7,#48]
 460 0394 77EE677A 	 fsubs s15,s14,s15
 461 0398 C7ED127A 	 fsts s15,[r7,#72]
 248:../Dave/Generated/CMSIS_DSP/TransformFunctions/arm_cfft_radix4_f32.c **** 
 249:../Dave/Generated/CMSIS_DSP/TransformFunctions/arm_cfft_radix4_f32.c ****       /* xc' = (xa-xb+xc-xd)co2 + (ya-yb+yc-yd)(si2) */
 250:../Dave/Generated/CMSIS_DSP/TransformFunctions/arm_cfft_radix4_f32.c ****       pSrc[2u * i1] = Xc12_out;
 462              	 .loc 1 250 0 discriminator 1
 463 039c D7F8E030 	 ldr r3,[r7,#224]
 464 03a0 DB00     	 lsls r3,r3,#3
 465 03a2 FA68     	 ldr r2,[r7,#12]
 466 03a4 1344     	 add r3,r3,r2
 467 03a6 7A6D     	 ldr r2,[r7,#84]
 468 03a8 1A60     	 str r2,[r3]
 251:../Dave/Generated/CMSIS_DSP/TransformFunctions/arm_cfft_radix4_f32.c **** 
 252:../Dave/Generated/CMSIS_DSP/TransformFunctions/arm_cfft_radix4_f32.c ****       /* yc' = (ya-yb+yc-yd)co2 - (xa-xb+xc-xd)(si2) */
 253:../Dave/Generated/CMSIS_DSP/TransformFunctions/arm_cfft_radix4_f32.c ****       pSrc[(2u * i1) + 1u] = Yc12_out;
 469              	 .loc 1 253 0 discriminator 1
 470 03aa D7F8E030 	 ldr r3,[r7,#224]
 471 03ae DB00     	 lsls r3,r3,#3
 472 03b0 0433     	 adds r3,r3,#4
 473 03b2 FA68     	 ldr r2,[r7,#12]
 474 03b4 1344     	 add r3,r3,r2
 475 03b6 3A6D     	 ldr r2,[r7,#80]
 476 03b8 1A60     	 str r2,[r3]
 254:../Dave/Generated/CMSIS_DSP/TransformFunctions/arm_cfft_radix4_f32.c **** 
 255:../Dave/Generated/CMSIS_DSP/TransformFunctions/arm_cfft_radix4_f32.c ****       /* xb' = (xa+yb-xc-yd)co1 + (ya-xb-yc+xd)(si1) */
 256:../Dave/Generated/CMSIS_DSP/TransformFunctions/arm_cfft_radix4_f32.c ****       pSrc[2u * i2] = Xb12_out;
 477              	 .loc 1 256 0 discriminator 1
 478 03ba D7F8DC30 	 ldr r3,[r7,#220]
 479 03be DB00     	 lsls r3,r3,#3
 480 03c0 FA68     	 ldr r2,[r7,#12]
 481 03c2 1344     	 add r3,r3,r2
 482 03c4 FA6D     	 ldr r2,[r7,#92]
 483 03c6 1A60     	 str r2,[r3]
 257:../Dave/Generated/CMSIS_DSP/TransformFunctions/arm_cfft_radix4_f32.c **** 
 258:../Dave/Generated/CMSIS_DSP/TransformFunctions/arm_cfft_radix4_f32.c ****       /* yb' = (ya-xb-yc+xd)co1 - (xa+yb-xc-yd)(si1) */
 259:../Dave/Generated/CMSIS_DSP/TransformFunctions/arm_cfft_radix4_f32.c ****       pSrc[(2u * i2) + 1u] = Yb12_out;
 484              	 .loc 1 259 0 discriminator 1
 485 03c8 D7F8DC30 	 ldr r3,[r7,#220]
 486 03cc DB00     	 lsls r3,r3,#3
 487 03ce 0433     	 adds r3,r3,#4
 488 03d0 FA68     	 ldr r2,[r7,#12]
 489 03d2 1344     	 add r3,r3,r2
 490 03d4 BA6D     	 ldr r2,[r7,#88]
 491 03d6 1A60     	 str r2,[r3]
 260:../Dave/Generated/CMSIS_DSP/TransformFunctions/arm_cfft_radix4_f32.c **** 
 261:../Dave/Generated/CMSIS_DSP/TransformFunctions/arm_cfft_radix4_f32.c ****       /* xd' = (xa-yb-xc+yd)co3 + (ya+xb-yc-xd)(si3) */
 262:../Dave/Generated/CMSIS_DSP/TransformFunctions/arm_cfft_radix4_f32.c ****       pSrc[2u * i3] = Xd12_out;
 492              	 .loc 1 262 0 discriminator 1
 493 03d8 D7F8D830 	 ldr r3,[r7,#216]
 494 03dc DB00     	 lsls r3,r3,#3
 495 03de FA68     	 ldr r2,[r7,#12]
 496 03e0 1344     	 add r3,r3,r2
 497 03e2 FA6C     	 ldr r2,[r7,#76]
 498 03e4 1A60     	 str r2,[r3]
 263:../Dave/Generated/CMSIS_DSP/TransformFunctions/arm_cfft_radix4_f32.c **** 
 264:../Dave/Generated/CMSIS_DSP/TransformFunctions/arm_cfft_radix4_f32.c ****       /* yd' = (ya+xb-yc-xd)co3 - (xa-yb-xc+yd)(si3) */
 265:../Dave/Generated/CMSIS_DSP/TransformFunctions/arm_cfft_radix4_f32.c ****       pSrc[(2u * i3) + 1u] = Yd12_out;
 499              	 .loc 1 265 0 discriminator 1
 500 03e6 D7F8D830 	 ldr r3,[r7,#216]
 501 03ea DB00     	 lsls r3,r3,#3
 502 03ec 0433     	 adds r3,r3,#4
 503 03ee FA68     	 ldr r2,[r7,#12]
 504 03f0 1344     	 add r3,r3,r2
 505 03f2 BA6C     	 ldr r2,[r7,#72]
 506 03f4 1A60     	 str r2,[r3]
 266:../Dave/Generated/CMSIS_DSP/TransformFunctions/arm_cfft_radix4_f32.c **** 
 267:../Dave/Generated/CMSIS_DSP/TransformFunctions/arm_cfft_radix4_f32.c ****       /*  Twiddle coefficients index modifier */
 268:../Dave/Generated/CMSIS_DSP/TransformFunctions/arm_cfft_radix4_f32.c ****       ia1 += twidCoefModifier;
 507              	 .loc 1 268 0 discriminator 1
 508 03f6 3B89     	 ldrh r3,[r7,#8]
 509 03f8 D7F8FC20 	 ldr r2,[r7,#252]
 510 03fc 1344     	 add r3,r3,r2
 511 03fe C7F8FC30 	 str r3,[r7,#252]
 269:../Dave/Generated/CMSIS_DSP/TransformFunctions/arm_cfft_radix4_f32.c **** 
 270:../Dave/Generated/CMSIS_DSP/TransformFunctions/arm_cfft_radix4_f32.c ****       /*  Updating input index */
 271:../Dave/Generated/CMSIS_DSP/TransformFunctions/arm_cfft_radix4_f32.c ****       i0++;
 512              	 .loc 1 271 0 discriminator 1
 513 0402 D7F8F830 	 ldr r3,[r7,#248]
 514 0406 0133     	 adds r3,r3,#1
 515 0408 C7F8F830 	 str r3,[r7,#248]
 272:../Dave/Generated/CMSIS_DSP/TransformFunctions/arm_cfft_radix4_f32.c **** 
 273:../Dave/Generated/CMSIS_DSP/TransformFunctions/arm_cfft_radix4_f32.c ****    }
 274:../Dave/Generated/CMSIS_DSP/TransformFunctions/arm_cfft_radix4_f32.c ****    while (--j);
 516              	 .loc 1 274 0 discriminator 1
 517 040c D7F8F030 	 ldr r3,[r7,#240]
 518 0410 013B     	 subs r3,r3,#1
 519 0412 C7F8F030 	 str r3,[r7,#240]
 520 0416 D7F8F030 	 ldr r3,[r7,#240]
 521 041a 002B     	 cmp r3,#0
 522 041c 7FF410AE 	 bne .L6
 275:../Dave/Generated/CMSIS_DSP/TransformFunctions/arm_cfft_radix4_f32.c **** 
 276:../Dave/Generated/CMSIS_DSP/TransformFunctions/arm_cfft_radix4_f32.c ****    twidCoefModifier <<= 2u;
 523              	 .loc 1 276 0
 524 0420 3B89     	 ldrh r3,[r7,#8]
 525 0422 9B00     	 lsls r3,r3,#2
 526 0424 3B81     	 strh r3,[r7,#8]
 277:../Dave/Generated/CMSIS_DSP/TransformFunctions/arm_cfft_radix4_f32.c **** 
 278:../Dave/Generated/CMSIS_DSP/TransformFunctions/arm_cfft_radix4_f32.c ****    /*  Calculation of second stage to excluding last stage */
 279:../Dave/Generated/CMSIS_DSP/TransformFunctions/arm_cfft_radix4_f32.c ****    for (k = fftLen >> 2u; k > 4u; k >>= 2u)
 527              	 .loc 1 279 0
 528 0426 7B89     	 ldrh r3,[r7,#10]
 529 0428 9B08     	 lsrs r3,r3,#2
 530 042a 9BB2     	 uxth r3,r3
 531 042c C7F8EC30 	 str r3,[r7,#236]
 532 0430 15E2     	 b .L7
 533              	.L10:
 280:../Dave/Generated/CMSIS_DSP/TransformFunctions/arm_cfft_radix4_f32.c ****    {
 281:../Dave/Generated/CMSIS_DSP/TransformFunctions/arm_cfft_radix4_f32.c ****       /*  Initializations for the first stage */
 282:../Dave/Generated/CMSIS_DSP/TransformFunctions/arm_cfft_radix4_f32.c ****       n1 = n2;
 534              	 .loc 1 282 0
 535 0432 D7F8F430 	 ldr r3,[r7,#244]
 536 0436 C7F8E430 	 str r3,[r7,#228]
 283:../Dave/Generated/CMSIS_DSP/TransformFunctions/arm_cfft_radix4_f32.c ****       n2 >>= 2u;
 537              	 .loc 1 283 0
 538 043a D7F8F430 	 ldr r3,[r7,#244]
 539 043e 9B08     	 lsrs r3,r3,#2
 540 0440 C7F8F430 	 str r3,[r7,#244]
 284:../Dave/Generated/CMSIS_DSP/TransformFunctions/arm_cfft_radix4_f32.c ****       ia1 = 0u;
 541              	 .loc 1 284 0
 542 0444 0023     	 movs r3,#0
 543 0446 C7F8FC30 	 str r3,[r7,#252]
 285:../Dave/Generated/CMSIS_DSP/TransformFunctions/arm_cfft_radix4_f32.c **** 
 286:../Dave/Generated/CMSIS_DSP/TransformFunctions/arm_cfft_radix4_f32.c ****       /*  Calculation of first stage */
 287:../Dave/Generated/CMSIS_DSP/TransformFunctions/arm_cfft_radix4_f32.c ****       j = 0;
 544              	 .loc 1 287 0
 545 044a 0023     	 movs r3,#0
 546 044c C7F8F030 	 str r3,[r7,#240]
 547              	.L9:
 288:../Dave/Generated/CMSIS_DSP/TransformFunctions/arm_cfft_radix4_f32.c ****       do
 289:../Dave/Generated/CMSIS_DSP/TransformFunctions/arm_cfft_radix4_f32.c ****       {
 290:../Dave/Generated/CMSIS_DSP/TransformFunctions/arm_cfft_radix4_f32.c ****          /*  index calculation for the coefficients */
 291:../Dave/Generated/CMSIS_DSP/TransformFunctions/arm_cfft_radix4_f32.c ****          ia2 = ia1 + ia1;
 548              	 .loc 1 291 0
 549 0450 D7F8FC20 	 ldr r2,[r7,#252]
 550 0454 D7F8FC30 	 ldr r3,[r7,#252]
 551 0458 1344     	 add r3,r3,r2
 552 045a C7F8A430 	 str r3,[r7,#164]
 292:../Dave/Generated/CMSIS_DSP/TransformFunctions/arm_cfft_radix4_f32.c ****          ia3 = ia2 + ia1;
 553              	 .loc 1 292 0
 554 045e D7F8A420 	 ldr r2,[r7,#164]
 555 0462 D7F8FC30 	 ldr r3,[r7,#252]
 556 0466 1344     	 add r3,r3,r2
 557 0468 BB66     	 str r3,[r7,#104]
 293:../Dave/Generated/CMSIS_DSP/TransformFunctions/arm_cfft_radix4_f32.c ****          co1 = pCoef[ia1 * 2u];
 558              	 .loc 1 293 0
 559 046a D7F8FC30 	 ldr r3,[r7,#252]
 560 046e DB00     	 lsls r3,r3,#3
 561 0470 7A68     	 ldr r2,[r7,#4]
 562 0472 1344     	 add r3,r3,r2
 563 0474 1B68     	 ldr r3,[r3]
 564 0476 3B67     	 str r3,[r7,#112]
 294:../Dave/Generated/CMSIS_DSP/TransformFunctions/arm_cfft_radix4_f32.c ****          si1 = pCoef[(ia1 * 2u) + 1u];
 565              	 .loc 1 294 0
 566 0478 D7F8FC30 	 ldr r3,[r7,#252]
 567 047c DB00     	 lsls r3,r3,#3
 568 047e 0433     	 adds r3,r3,#4
 569 0480 7A68     	 ldr r2,[r7,#4]
 570 0482 1344     	 add r3,r3,r2
 571 0484 1B68     	 ldr r3,[r3]
 572 0486 FB66     	 str r3,[r7,#108]
 295:../Dave/Generated/CMSIS_DSP/TransformFunctions/arm_cfft_radix4_f32.c ****          co2 = pCoef[ia2 * 2u];
 573              	 .loc 1 295 0
 574 0488 D7F8A430 	 ldr r3,[r7,#164]
 575 048c DB00     	 lsls r3,r3,#3
 576 048e 7A68     	 ldr r2,[r7,#4]
 577 0490 1344     	 add r3,r3,r2
 578 0492 1B68     	 ldr r3,[r3]
 579 0494 C7F8A030 	 str r3,[r7,#160]
 296:../Dave/Generated/CMSIS_DSP/TransformFunctions/arm_cfft_radix4_f32.c ****          si2 = pCoef[(ia2 * 2u) + 1u];
 580              	 .loc 1 296 0
 581 0498 D7F8A430 	 ldr r3,[r7,#164]
 582 049c DB00     	 lsls r3,r3,#3
 583 049e 0433     	 adds r3,r3,#4
 584 04a0 7A68     	 ldr r2,[r7,#4]
 585 04a2 1344     	 add r3,r3,r2
 586 04a4 1B68     	 ldr r3,[r3]
 587 04a6 C7F89C30 	 str r3,[r7,#156]
 297:../Dave/Generated/CMSIS_DSP/TransformFunctions/arm_cfft_radix4_f32.c ****          co3 = pCoef[ia3 * 2u];
 588              	 .loc 1 297 0
 589 04aa BB6E     	 ldr r3,[r7,#104]
 590 04ac DB00     	 lsls r3,r3,#3
 591 04ae 7A68     	 ldr r2,[r7,#4]
 592 04b0 1344     	 add r3,r3,r2
 593 04b2 1B68     	 ldr r3,[r3]
 594 04b4 7B66     	 str r3,[r7,#100]
 298:../Dave/Generated/CMSIS_DSP/TransformFunctions/arm_cfft_radix4_f32.c ****          si3 = pCoef[(ia3 * 2u) + 1u];
 595              	 .loc 1 298 0
 596 04b6 BB6E     	 ldr r3,[r7,#104]
 597 04b8 DB00     	 lsls r3,r3,#3
 598 04ba 0433     	 adds r3,r3,#4
 599 04bc 7A68     	 ldr r2,[r7,#4]
 600 04be 1344     	 add r3,r3,r2
 601 04c0 1B68     	 ldr r3,[r3]
 602 04c2 3B66     	 str r3,[r7,#96]
 299:../Dave/Generated/CMSIS_DSP/TransformFunctions/arm_cfft_radix4_f32.c **** 
 300:../Dave/Generated/CMSIS_DSP/TransformFunctions/arm_cfft_radix4_f32.c ****          /*  Twiddle coefficients index modifier */
 301:../Dave/Generated/CMSIS_DSP/TransformFunctions/arm_cfft_radix4_f32.c ****          ia1 += twidCoefModifier;
 603              	 .loc 1 301 0
 604 04c4 3B89     	 ldrh r3,[r7,#8]
 605 04c6 D7F8FC20 	 ldr r2,[r7,#252]
 606 04ca 1344     	 add r3,r3,r2
 607 04cc C7F8FC30 	 str r3,[r7,#252]
 302:../Dave/Generated/CMSIS_DSP/TransformFunctions/arm_cfft_radix4_f32.c **** 
 303:../Dave/Generated/CMSIS_DSP/TransformFunctions/arm_cfft_radix4_f32.c ****          i0 = j;
 608              	 .loc 1 303 0
 609 04d0 D7F8F030 	 ldr r3,[r7,#240]
 610 04d4 C7F8F830 	 str r3,[r7,#248]
 611              	.L8:
 304:../Dave/Generated/CMSIS_DSP/TransformFunctions/arm_cfft_radix4_f32.c ****          do
 305:../Dave/Generated/CMSIS_DSP/TransformFunctions/arm_cfft_radix4_f32.c ****          {
 306:../Dave/Generated/CMSIS_DSP/TransformFunctions/arm_cfft_radix4_f32.c ****             /*  index calculation for the input as, */
 307:../Dave/Generated/CMSIS_DSP/TransformFunctions/arm_cfft_radix4_f32.c ****             /*  pSrc[i0 + 0], pSrc[i0 + fftLen/4], pSrc[i0 + fftLen/2], pSrc[i0 + 3fftLen/4] */
 308:../Dave/Generated/CMSIS_DSP/TransformFunctions/arm_cfft_radix4_f32.c ****             i1 = i0 + n2;
 612              	 .loc 1 308 0 discriminator 1
 613 04d8 D7F8F820 	 ldr r2,[r7,#248]
 614 04dc D7F8F430 	 ldr r3,[r7,#244]
 615 04e0 1344     	 add r3,r3,r2
 616 04e2 C7F8E030 	 str r3,[r7,#224]
 309:../Dave/Generated/CMSIS_DSP/TransformFunctions/arm_cfft_radix4_f32.c ****             i2 = i1 + n2;
 617              	 .loc 1 309 0 discriminator 1
 618 04e6 D7F8E020 	 ldr r2,[r7,#224]
 619 04ea D7F8F430 	 ldr r3,[r7,#244]
 620 04ee 1344     	 add r3,r3,r2
 621 04f0 C7F8DC30 	 str r3,[r7,#220]
 310:../Dave/Generated/CMSIS_DSP/TransformFunctions/arm_cfft_radix4_f32.c ****             i3 = i2 + n2;
 622              	 .loc 1 310 0 discriminator 1
 623 04f4 D7F8DC20 	 ldr r2,[r7,#220]
 624 04f8 D7F8F430 	 ldr r3,[r7,#244]
 625 04fc 1344     	 add r3,r3,r2
 626 04fe C7F8D830 	 str r3,[r7,#216]
 311:../Dave/Generated/CMSIS_DSP/TransformFunctions/arm_cfft_radix4_f32.c **** 
 312:../Dave/Generated/CMSIS_DSP/TransformFunctions/arm_cfft_radix4_f32.c ****             xaIn = pSrc[(2u * i0)];
 627              	 .loc 1 312 0 discriminator 1
 628 0502 D7F8F830 	 ldr r3,[r7,#248]
 629 0506 DB00     	 lsls r3,r3,#3
 630 0508 FA68     	 ldr r2,[r7,#12]
 631 050a 1344     	 add r3,r3,r2
 632 050c 1B68     	 ldr r3,[r3]
 633 050e C7F8D430 	 str r3,[r7,#212]
 313:../Dave/Generated/CMSIS_DSP/TransformFunctions/arm_cfft_radix4_f32.c ****             yaIn = pSrc[(2u * i0) + 1u];
 634              	 .loc 1 313 0 discriminator 1
 635 0512 D7F8F830 	 ldr r3,[r7,#248]
 636 0516 DB00     	 lsls r3,r3,#3
 637 0518 0433     	 adds r3,r3,#4
 638 051a FA68     	 ldr r2,[r7,#12]
 639 051c 1344     	 add r3,r3,r2
 640 051e 1B68     	 ldr r3,[r3]
 641 0520 C7F8D030 	 str r3,[r7,#208]
 314:../Dave/Generated/CMSIS_DSP/TransformFunctions/arm_cfft_radix4_f32.c **** 
 315:../Dave/Generated/CMSIS_DSP/TransformFunctions/arm_cfft_radix4_f32.c ****             xbIn = pSrc[(2u * i1)];
 642              	 .loc 1 315 0 discriminator 1
 643 0524 D7F8E030 	 ldr r3,[r7,#224]
 644 0528 DB00     	 lsls r3,r3,#3
 645 052a FA68     	 ldr r2,[r7,#12]
 646 052c 1344     	 add r3,r3,r2
 647 052e 1B68     	 ldr r3,[r3]
 648 0530 C7F8CC30 	 str r3,[r7,#204]
 316:../Dave/Generated/CMSIS_DSP/TransformFunctions/arm_cfft_radix4_f32.c ****             ybIn = pSrc[(2u * i1) + 1u];
 649              	 .loc 1 316 0 discriminator 1
 650 0534 D7F8E030 	 ldr r3,[r7,#224]
 651 0538 DB00     	 lsls r3,r3,#3
 652 053a 0433     	 adds r3,r3,#4
 653 053c FA68     	 ldr r2,[r7,#12]
 654 053e 1344     	 add r3,r3,r2
 655 0540 1B68     	 ldr r3,[r3]
 656 0542 C7F8C830 	 str r3,[r7,#200]
 317:../Dave/Generated/CMSIS_DSP/TransformFunctions/arm_cfft_radix4_f32.c **** 
 318:../Dave/Generated/CMSIS_DSP/TransformFunctions/arm_cfft_radix4_f32.c ****             xcIn = pSrc[(2u * i2)];
 657              	 .loc 1 318 0 discriminator 1
 658 0546 D7F8DC30 	 ldr r3,[r7,#220]
 659 054a DB00     	 lsls r3,r3,#3
 660 054c FA68     	 ldr r2,[r7,#12]
 661 054e 1344     	 add r3,r3,r2
 662 0550 1B68     	 ldr r3,[r3]
 663 0552 C7F8C430 	 str r3,[r7,#196]
 319:../Dave/Generated/CMSIS_DSP/TransformFunctions/arm_cfft_radix4_f32.c ****             ycIn = pSrc[(2u * i2) + 1u];
 664              	 .loc 1 319 0 discriminator 1
 665 0556 D7F8DC30 	 ldr r3,[r7,#220]
 666 055a DB00     	 lsls r3,r3,#3
 667 055c 0433     	 adds r3,r3,#4
 668 055e FA68     	 ldr r2,[r7,#12]
 669 0560 1344     	 add r3,r3,r2
 670 0562 1B68     	 ldr r3,[r3]
 671 0564 C7F8C030 	 str r3,[r7,#192]
 320:../Dave/Generated/CMSIS_DSP/TransformFunctions/arm_cfft_radix4_f32.c **** 
 321:../Dave/Generated/CMSIS_DSP/TransformFunctions/arm_cfft_radix4_f32.c ****             xdIn = pSrc[(2u * i3)];
 672              	 .loc 1 321 0 discriminator 1
 673 0568 D7F8D830 	 ldr r3,[r7,#216]
 674 056c DB00     	 lsls r3,r3,#3
 675 056e FA68     	 ldr r2,[r7,#12]
 676 0570 1344     	 add r3,r3,r2
 677 0572 1B68     	 ldr r3,[r3]
 678 0574 C7F8BC30 	 str r3,[r7,#188]
 322:../Dave/Generated/CMSIS_DSP/TransformFunctions/arm_cfft_radix4_f32.c ****             ydIn = pSrc[(2u * i3) + 1u];
 679              	 .loc 1 322 0 discriminator 1
 680 0578 D7F8D830 	 ldr r3,[r7,#216]
 681 057c DB00     	 lsls r3,r3,#3
 682 057e 0433     	 adds r3,r3,#4
 683 0580 FA68     	 ldr r2,[r7,#12]
 684 0582 1344     	 add r3,r3,r2
 685 0584 1B68     	 ldr r3,[r3]
 686 0586 C7F8B830 	 str r3,[r7,#184]
 323:../Dave/Generated/CMSIS_DSP/TransformFunctions/arm_cfft_radix4_f32.c **** 
 324:../Dave/Generated/CMSIS_DSP/TransformFunctions/arm_cfft_radix4_f32.c ****             /* xa - xc */
 325:../Dave/Generated/CMSIS_DSP/TransformFunctions/arm_cfft_radix4_f32.c ****             Xaminusc = xaIn - xcIn;
 687              	 .loc 1 325 0 discriminator 1
 688 058a 97ED357A 	 flds s14,[r7,#212]
 689 058e D7ED317A 	 flds s15,[r7,#196]
 690 0592 77EE677A 	 fsubs s15,s14,s15
 691 0596 C7ED267A 	 fsts s15,[r7,#152]
 326:../Dave/Generated/CMSIS_DSP/TransformFunctions/arm_cfft_radix4_f32.c ****             /* (xb - xd) */
 327:../Dave/Generated/CMSIS_DSP/TransformFunctions/arm_cfft_radix4_f32.c ****             Xbminusd = xbIn - xdIn;
 692              	 .loc 1 327 0 discriminator 1
 693 059a 97ED337A 	 flds s14,[r7,#204]
 694 059e D7ED2F7A 	 flds s15,[r7,#188]
 695 05a2 77EE677A 	 fsubs s15,s14,s15
 696 05a6 C7ED257A 	 fsts s15,[r7,#148]
 328:../Dave/Generated/CMSIS_DSP/TransformFunctions/arm_cfft_radix4_f32.c ****             /* ya - yc */
 329:../Dave/Generated/CMSIS_DSP/TransformFunctions/arm_cfft_radix4_f32.c ****             Yaminusc = yaIn - ycIn;
 697              	 .loc 1 329 0 discriminator 1
 698 05aa 97ED347A 	 flds s14,[r7,#208]
 699 05ae D7ED307A 	 flds s15,[r7,#192]
 700 05b2 77EE677A 	 fsubs s15,s14,s15
 701 05b6 C7ED247A 	 fsts s15,[r7,#144]
 330:../Dave/Generated/CMSIS_DSP/TransformFunctions/arm_cfft_radix4_f32.c ****             /* (yb - yd) */
 331:../Dave/Generated/CMSIS_DSP/TransformFunctions/arm_cfft_radix4_f32.c ****             Ybminusd = ybIn - ydIn;
 702              	 .loc 1 331 0 discriminator 1
 703 05ba 97ED327A 	 flds s14,[r7,#200]
 704 05be D7ED2E7A 	 flds s15,[r7,#184]
 705 05c2 77EE677A 	 fsubs s15,s14,s15
 706 05c6 C7ED237A 	 fsts s15,[r7,#140]
 332:../Dave/Generated/CMSIS_DSP/TransformFunctions/arm_cfft_radix4_f32.c **** 
 333:../Dave/Generated/CMSIS_DSP/TransformFunctions/arm_cfft_radix4_f32.c ****             /* xa + xc */
 334:../Dave/Generated/CMSIS_DSP/TransformFunctions/arm_cfft_radix4_f32.c ****             Xaplusc = xaIn + xcIn;
 707              	 .loc 1 334 0 discriminator 1
 708 05ca 97ED357A 	 flds s14,[r7,#212]
 709 05ce D7ED317A 	 flds s15,[r7,#196]
 710 05d2 77EE277A 	 fadds s15,s14,s15
 711 05d6 C7ED2D7A 	 fsts s15,[r7,#180]
 335:../Dave/Generated/CMSIS_DSP/TransformFunctions/arm_cfft_radix4_f32.c ****             /* xb + xd */
 336:../Dave/Generated/CMSIS_DSP/TransformFunctions/arm_cfft_radix4_f32.c ****             Xbplusd = xbIn + xdIn;
 712              	 .loc 1 336 0 discriminator 1
 713 05da 97ED337A 	 flds s14,[r7,#204]
 714 05de D7ED2F7A 	 flds s15,[r7,#188]
 715 05e2 77EE277A 	 fadds s15,s14,s15
 716 05e6 C7ED2C7A 	 fsts s15,[r7,#176]
 337:../Dave/Generated/CMSIS_DSP/TransformFunctions/arm_cfft_radix4_f32.c ****             /* ya + yc */
 338:../Dave/Generated/CMSIS_DSP/TransformFunctions/arm_cfft_radix4_f32.c ****             Yaplusc = yaIn + ycIn;
 717              	 .loc 1 338 0 discriminator 1
 718 05ea 97ED347A 	 flds s14,[r7,#208]
 719 05ee D7ED307A 	 flds s15,[r7,#192]
 720 05f2 77EE277A 	 fadds s15,s14,s15
 721 05f6 C7ED2B7A 	 fsts s15,[r7,#172]
 339:../Dave/Generated/CMSIS_DSP/TransformFunctions/arm_cfft_radix4_f32.c ****             /* yb + yd */
 340:../Dave/Generated/CMSIS_DSP/TransformFunctions/arm_cfft_radix4_f32.c ****             Ybplusd = ybIn + ydIn;
 722              	 .loc 1 340 0 discriminator 1
 723 05fa 97ED327A 	 flds s14,[r7,#200]
 724 05fe D7ED2E7A 	 flds s15,[r7,#184]
 725 0602 77EE277A 	 fadds s15,s14,s15
 726 0606 C7ED2A7A 	 fsts s15,[r7,#168]
 341:../Dave/Generated/CMSIS_DSP/TransformFunctions/arm_cfft_radix4_f32.c **** 
 342:../Dave/Generated/CMSIS_DSP/TransformFunctions/arm_cfft_radix4_f32.c ****             /* (xa - xc) + (yb - yd) */
 343:../Dave/Generated/CMSIS_DSP/TransformFunctions/arm_cfft_radix4_f32.c ****             Xb12C_out = (Xaminusc + Ybminusd);
 727              	 .loc 1 343 0 discriminator 1
 728 060a 97ED267A 	 flds s14,[r7,#152]
 729 060e D7ED237A 	 flds s15,[r7,#140]
 730 0612 77EE277A 	 fadds s15,s14,s15
 731 0616 C7ED227A 	 fsts s15,[r7,#136]
 344:../Dave/Generated/CMSIS_DSP/TransformFunctions/arm_cfft_radix4_f32.c ****             /* (ya - yc) -  (xb - xd) */
 345:../Dave/Generated/CMSIS_DSP/TransformFunctions/arm_cfft_radix4_f32.c ****             Yb12C_out = (Yaminusc - Xbminusd);
 732              	 .loc 1 345 0 discriminator 1
 733 061a 97ED247A 	 flds s14,[r7,#144]
 734 061e D7ED257A 	 flds s15,[r7,#148]
 735 0622 77EE677A 	 fsubs s15,s14,s15
 736 0626 C7ED217A 	 fsts s15,[r7,#132]
 346:../Dave/Generated/CMSIS_DSP/TransformFunctions/arm_cfft_radix4_f32.c ****             /* xa + xc -(xb + xd) */
 347:../Dave/Generated/CMSIS_DSP/TransformFunctions/arm_cfft_radix4_f32.c ****             Xc12C_out = (Xaplusc - Xbplusd);
 737              	 .loc 1 347 0 discriminator 1
 738 062a 97ED2D7A 	 flds s14,[r7,#180]
 739 062e D7ED2C7A 	 flds s15,[r7,#176]
 740 0632 77EE677A 	 fsubs s15,s14,s15
 741 0636 C7ED207A 	 fsts s15,[r7,#128]
 348:../Dave/Generated/CMSIS_DSP/TransformFunctions/arm_cfft_radix4_f32.c ****             /* (ya + yc) - (yb + yd) */
 349:../Dave/Generated/CMSIS_DSP/TransformFunctions/arm_cfft_radix4_f32.c ****             Yc12C_out = (Yaplusc - Ybplusd);
 742              	 .loc 1 349 0 discriminator 1
 743 063a 97ED2B7A 	 flds s14,[r7,#172]
 744 063e D7ED2A7A 	 flds s15,[r7,#168]
 745 0642 77EE677A 	 fsubs s15,s14,s15
 746 0646 C7ED1F7A 	 fsts s15,[r7,#124]
 350:../Dave/Generated/CMSIS_DSP/TransformFunctions/arm_cfft_radix4_f32.c ****             /* (xa - xc) - (yb - yd) */
 351:../Dave/Generated/CMSIS_DSP/TransformFunctions/arm_cfft_radix4_f32.c ****             Xd12C_out = (Xaminusc - Ybminusd);
 747              	 .loc 1 351 0 discriminator 1
 748 064a 97ED267A 	 flds s14,[r7,#152]
 749 064e D7ED237A 	 flds s15,[r7,#140]
 750 0652 77EE677A 	 fsubs s15,s14,s15
 751 0656 C7ED1E7A 	 fsts s15,[r7,#120]
 352:../Dave/Generated/CMSIS_DSP/TransformFunctions/arm_cfft_radix4_f32.c ****             /* (ya - yc) +  (xb - xd) */
 353:../Dave/Generated/CMSIS_DSP/TransformFunctions/arm_cfft_radix4_f32.c ****             Yd12C_out = (Xbminusd + Yaminusc);
 752              	 .loc 1 353 0 discriminator 1
 753 065a 97ED257A 	 flds s14,[r7,#148]
 754 065e D7ED247A 	 flds s15,[r7,#144]
 755 0662 77EE277A 	 fadds s15,s14,s15
 756 0666 C7ED1D7A 	 fsts s15,[r7,#116]
 354:../Dave/Generated/CMSIS_DSP/TransformFunctions/arm_cfft_radix4_f32.c **** 
 355:../Dave/Generated/CMSIS_DSP/TransformFunctions/arm_cfft_radix4_f32.c ****             pSrc[(2u * i0)] = Xaplusc + Xbplusd;
 757              	 .loc 1 355 0 discriminator 1
 758 066a D7F8F830 	 ldr r3,[r7,#248]
 759 066e DB00     	 lsls r3,r3,#3
 760 0670 FA68     	 ldr r2,[r7,#12]
 761 0672 1344     	 add r3,r3,r2
 762 0674 97ED2D7A 	 flds s14,[r7,#180]
 763 0678 D7ED2C7A 	 flds s15,[r7,#176]
 764 067c 77EE277A 	 fadds s15,s14,s15
 765 0680 C3ED007A 	 fsts s15,[r3]
 356:../Dave/Generated/CMSIS_DSP/TransformFunctions/arm_cfft_radix4_f32.c ****             pSrc[(2u * i0) + 1u] = Yaplusc + Ybplusd;
 766              	 .loc 1 356 0 discriminator 1
 767 0684 D7F8F830 	 ldr r3,[r7,#248]
 768 0688 DB00     	 lsls r3,r3,#3
 769 068a 0433     	 adds r3,r3,#4
 770 068c FA68     	 ldr r2,[r7,#12]
 771 068e 1344     	 add r3,r3,r2
 772 0690 97ED2B7A 	 flds s14,[r7,#172]
 773 0694 D7ED2A7A 	 flds s15,[r7,#168]
 774 0698 77EE277A 	 fadds s15,s14,s15
 775 069c C3ED007A 	 fsts s15,[r3]
 357:../Dave/Generated/CMSIS_DSP/TransformFunctions/arm_cfft_radix4_f32.c **** 
 358:../Dave/Generated/CMSIS_DSP/TransformFunctions/arm_cfft_radix4_f32.c ****             Xb12_out = Xb12C_out * co1;
 776              	 .loc 1 358 0 discriminator 1
 777 06a0 97ED227A 	 flds s14,[r7,#136]
 778 06a4 D7ED1C7A 	 flds s15,[r7,#112]
 779 06a8 67EE277A 	 fmuls s15,s14,s15
 780 06ac C7ED177A 	 fsts s15,[r7,#92]
 359:../Dave/Generated/CMSIS_DSP/TransformFunctions/arm_cfft_radix4_f32.c ****             Yb12_out = Yb12C_out * co1;
 781              	 .loc 1 359 0 discriminator 1
 782 06b0 97ED217A 	 flds s14,[r7,#132]
 783 06b4 D7ED1C7A 	 flds s15,[r7,#112]
 784 06b8 67EE277A 	 fmuls s15,s14,s15
 785 06bc C7ED167A 	 fsts s15,[r7,#88]
 360:../Dave/Generated/CMSIS_DSP/TransformFunctions/arm_cfft_radix4_f32.c ****             Xc12_out = Xc12C_out * co2;
 786              	 .loc 1 360 0 discriminator 1
 787 06c0 97ED207A 	 flds s14,[r7,#128]
 788 06c4 D7ED287A 	 flds s15,[r7,#160]
 789 06c8 67EE277A 	 fmuls s15,s14,s15
 790 06cc C7ED157A 	 fsts s15,[r7,#84]
 361:../Dave/Generated/CMSIS_DSP/TransformFunctions/arm_cfft_radix4_f32.c ****             Yc12_out = Yc12C_out * co2;
 791              	 .loc 1 361 0 discriminator 1
 792 06d0 97ED1F7A 	 flds s14,[r7,#124]
 793 06d4 D7ED287A 	 flds s15,[r7,#160]
 794 06d8 67EE277A 	 fmuls s15,s14,s15
 795 06dc C7ED147A 	 fsts s15,[r7,#80]
 362:../Dave/Generated/CMSIS_DSP/TransformFunctions/arm_cfft_radix4_f32.c ****             Xd12_out = Xd12C_out * co3;
 796              	 .loc 1 362 0 discriminator 1
 797 06e0 97ED1E7A 	 flds s14,[r7,#120]
 798 06e4 D7ED197A 	 flds s15,[r7,#100]
 799 06e8 67EE277A 	 fmuls s15,s14,s15
 800 06ec C7ED137A 	 fsts s15,[r7,#76]
 363:../Dave/Generated/CMSIS_DSP/TransformFunctions/arm_cfft_radix4_f32.c ****             Yd12_out = Yd12C_out * co3;
 801              	 .loc 1 363 0 discriminator 1
 802 06f0 97ED1D7A 	 flds s14,[r7,#116]
 803 06f4 D7ED197A 	 flds s15,[r7,#100]
 804 06f8 67EE277A 	 fmuls s15,s14,s15
 805 06fc C7ED127A 	 fsts s15,[r7,#72]
 364:../Dave/Generated/CMSIS_DSP/TransformFunctions/arm_cfft_radix4_f32.c **** 
 365:../Dave/Generated/CMSIS_DSP/TransformFunctions/arm_cfft_radix4_f32.c ****             /* xb' = (xa+yb-xc-yd)co1 - (ya-xb-yc+xd)(si1) */
 366:../Dave/Generated/CMSIS_DSP/TransformFunctions/arm_cfft_radix4_f32.c ****             //Xb12_out -= Yb12C_out * si1;
 367:../Dave/Generated/CMSIS_DSP/TransformFunctions/arm_cfft_radix4_f32.c ****             p0 = Yb12C_out * si1;
 806              	 .loc 1 367 0 discriminator 1
 807 0700 97ED217A 	 flds s14,[r7,#132]
 808 0704 D7ED1B7A 	 flds s15,[r7,#108]
 809 0708 67EE277A 	 fmuls s15,s14,s15
 810 070c C7ED117A 	 fsts s15,[r7,#68]
 368:../Dave/Generated/CMSIS_DSP/TransformFunctions/arm_cfft_radix4_f32.c ****             /* yb' = (ya-xb-yc+xd)co1 + (xa+yb-xc-yd)(si1) */
 369:../Dave/Generated/CMSIS_DSP/TransformFunctions/arm_cfft_radix4_f32.c ****             //Yb12_out += Xb12C_out * si1;
 370:../Dave/Generated/CMSIS_DSP/TransformFunctions/arm_cfft_radix4_f32.c ****             p1 = Xb12C_out * si1;
 811              	 .loc 1 370 0 discriminator 1
 812 0710 97ED227A 	 flds s14,[r7,#136]
 813 0714 D7ED1B7A 	 flds s15,[r7,#108]
 814 0718 67EE277A 	 fmuls s15,s14,s15
 815 071c C7ED107A 	 fsts s15,[r7,#64]
 371:../Dave/Generated/CMSIS_DSP/TransformFunctions/arm_cfft_radix4_f32.c ****             /* xc' = (xa-xb+xc-xd)co2 - (ya-yb+yc-yd)(si2) */
 372:../Dave/Generated/CMSIS_DSP/TransformFunctions/arm_cfft_radix4_f32.c ****             //Xc12_out -= Yc12C_out * si2;
 373:../Dave/Generated/CMSIS_DSP/TransformFunctions/arm_cfft_radix4_f32.c ****             p2 = Yc12C_out * si2;
 816              	 .loc 1 373 0 discriminator 1
 817 0720 97ED1F7A 	 flds s14,[r7,#124]
 818 0724 D7ED277A 	 flds s15,[r7,#156]
 819 0728 67EE277A 	 fmuls s15,s14,s15
 820 072c C7ED0F7A 	 fsts s15,[r7,#60]
 374:../Dave/Generated/CMSIS_DSP/TransformFunctions/arm_cfft_radix4_f32.c ****             /* yc' = (ya-yb+yc-yd)co2 + (xa-xb+xc-xd)(si2) */
 375:../Dave/Generated/CMSIS_DSP/TransformFunctions/arm_cfft_radix4_f32.c ****             //Yc12_out += Xc12C_out * si2;
 376:../Dave/Generated/CMSIS_DSP/TransformFunctions/arm_cfft_radix4_f32.c ****             p3 = Xc12C_out * si2;
 821              	 .loc 1 376 0 discriminator 1
 822 0730 97ED207A 	 flds s14,[r7,#128]
 823 0734 D7ED277A 	 flds s15,[r7,#156]
 824 0738 67EE277A 	 fmuls s15,s14,s15
 825 073c C7ED0E7A 	 fsts s15,[r7,#56]
 377:../Dave/Generated/CMSIS_DSP/TransformFunctions/arm_cfft_radix4_f32.c ****             /* xd' = (xa-yb-xc+yd)co3 - (ya+xb-yc-xd)(si3) */
 378:../Dave/Generated/CMSIS_DSP/TransformFunctions/arm_cfft_radix4_f32.c ****             //Xd12_out -= Yd12C_out * si3;
 379:../Dave/Generated/CMSIS_DSP/TransformFunctions/arm_cfft_radix4_f32.c ****             p4 = Yd12C_out * si3;
 826              	 .loc 1 379 0 discriminator 1
 827 0740 97ED1D7A 	 flds s14,[r7,#116]
 828 0744 D7ED187A 	 flds s15,[r7,#96]
 829 0748 67EE277A 	 fmuls s15,s14,s15
 830 074c C7ED0D7A 	 fsts s15,[r7,#52]
 380:../Dave/Generated/CMSIS_DSP/TransformFunctions/arm_cfft_radix4_f32.c ****             /* yd' = (ya+xb-yc-xd)co3 + (xa-yb-xc+yd)(si3) */
 381:../Dave/Generated/CMSIS_DSP/TransformFunctions/arm_cfft_radix4_f32.c ****             //Yd12_out += Xd12C_out * si3;
 382:../Dave/Generated/CMSIS_DSP/TransformFunctions/arm_cfft_radix4_f32.c ****             p5 = Xd12C_out * si3;
 831              	 .loc 1 382 0 discriminator 1
 832 0750 97ED1E7A 	 flds s14,[r7,#120]
 833 0754 D7ED187A 	 flds s15,[r7,#96]
 834 0758 67EE277A 	 fmuls s15,s14,s15
 835 075c C7ED0C7A 	 fsts s15,[r7,#48]
 383:../Dave/Generated/CMSIS_DSP/TransformFunctions/arm_cfft_radix4_f32.c **** 
 384:../Dave/Generated/CMSIS_DSP/TransformFunctions/arm_cfft_radix4_f32.c ****             Xb12_out += p0;
 836              	 .loc 1 384 0 discriminator 1
 837 0760 97ED177A 	 flds s14,[r7,#92]
 838 0764 D7ED117A 	 flds s15,[r7,#68]
 839 0768 77EE277A 	 fadds s15,s14,s15
 840 076c C7ED177A 	 fsts s15,[r7,#92]
 385:../Dave/Generated/CMSIS_DSP/TransformFunctions/arm_cfft_radix4_f32.c ****             Yb12_out -= p1;
 841              	 .loc 1 385 0 discriminator 1
 842 0770 97ED167A 	 flds s14,[r7,#88]
 843 0774 D7ED107A 	 flds s15,[r7,#64]
 844 0778 77EE677A 	 fsubs s15,s14,s15
 845 077c C7ED167A 	 fsts s15,[r7,#88]
 386:../Dave/Generated/CMSIS_DSP/TransformFunctions/arm_cfft_radix4_f32.c ****             Xc12_out += p2;
 846              	 .loc 1 386 0 discriminator 1
 847 0780 97ED157A 	 flds s14,[r7,#84]
 848 0784 D7ED0F7A 	 flds s15,[r7,#60]
 849 0788 77EE277A 	 fadds s15,s14,s15
 850 078c C7ED157A 	 fsts s15,[r7,#84]
 387:../Dave/Generated/CMSIS_DSP/TransformFunctions/arm_cfft_radix4_f32.c ****             Yc12_out -= p3;
 851              	 .loc 1 387 0 discriminator 1
 852 0790 97ED147A 	 flds s14,[r7,#80]
 853 0794 D7ED0E7A 	 flds s15,[r7,#56]
 854 0798 77EE677A 	 fsubs s15,s14,s15
 855 079c C7ED147A 	 fsts s15,[r7,#80]
 388:../Dave/Generated/CMSIS_DSP/TransformFunctions/arm_cfft_radix4_f32.c ****             Xd12_out += p4;
 856              	 .loc 1 388 0 discriminator 1
 857 07a0 97ED137A 	 flds s14,[r7,#76]
 858 07a4 D7ED0D7A 	 flds s15,[r7,#52]
 859 07a8 77EE277A 	 fadds s15,s14,s15
 860 07ac C7ED137A 	 fsts s15,[r7,#76]
 389:../Dave/Generated/CMSIS_DSP/TransformFunctions/arm_cfft_radix4_f32.c ****             Yd12_out -= p5;
 861              	 .loc 1 389 0 discriminator 1
 862 07b0 97ED127A 	 flds s14,[r7,#72]
 863 07b4 D7ED0C7A 	 flds s15,[r7,#48]
 864 07b8 77EE677A 	 fsubs s15,s14,s15
 865 07bc C7ED127A 	 fsts s15,[r7,#72]
 390:../Dave/Generated/CMSIS_DSP/TransformFunctions/arm_cfft_radix4_f32.c **** 
 391:../Dave/Generated/CMSIS_DSP/TransformFunctions/arm_cfft_radix4_f32.c ****             /* xc' = (xa-xb+xc-xd)co2 + (ya-yb+yc-yd)(si2) */
 392:../Dave/Generated/CMSIS_DSP/TransformFunctions/arm_cfft_radix4_f32.c ****             pSrc[2u * i1] = Xc12_out;
 866              	 .loc 1 392 0 discriminator 1
 867 07c0 D7F8E030 	 ldr r3,[r7,#224]
 868 07c4 DB00     	 lsls r3,r3,#3
 869 07c6 FA68     	 ldr r2,[r7,#12]
 870 07c8 1344     	 add r3,r3,r2
 871 07ca 7A6D     	 ldr r2,[r7,#84]
 872 07cc 1A60     	 str r2,[r3]
 393:../Dave/Generated/CMSIS_DSP/TransformFunctions/arm_cfft_radix4_f32.c **** 
 394:../Dave/Generated/CMSIS_DSP/TransformFunctions/arm_cfft_radix4_f32.c ****             /* yc' = (ya-yb+yc-yd)co2 - (xa-xb+xc-xd)(si2) */
 395:../Dave/Generated/CMSIS_DSP/TransformFunctions/arm_cfft_radix4_f32.c ****             pSrc[(2u * i1) + 1u] = Yc12_out;
 873              	 .loc 1 395 0 discriminator 1
 874 07ce D7F8E030 	 ldr r3,[r7,#224]
 875 07d2 DB00     	 lsls r3,r3,#3
 876 07d4 0433     	 adds r3,r3,#4
 877 07d6 FA68     	 ldr r2,[r7,#12]
 878 07d8 1344     	 add r3,r3,r2
 879 07da 3A6D     	 ldr r2,[r7,#80]
 880 07dc 1A60     	 str r2,[r3]
 396:../Dave/Generated/CMSIS_DSP/TransformFunctions/arm_cfft_radix4_f32.c **** 
 397:../Dave/Generated/CMSIS_DSP/TransformFunctions/arm_cfft_radix4_f32.c ****             /* xb' = (xa+yb-xc-yd)co1 + (ya-xb-yc+xd)(si1) */
 398:../Dave/Generated/CMSIS_DSP/TransformFunctions/arm_cfft_radix4_f32.c ****             pSrc[2u * i2] = Xb12_out;
 881              	 .loc 1 398 0 discriminator 1
 882 07de D7F8DC30 	 ldr r3,[r7,#220]
 883 07e2 DB00     	 lsls r3,r3,#3
 884 07e4 FA68     	 ldr r2,[r7,#12]
 885 07e6 1344     	 add r3,r3,r2
 886 07e8 FA6D     	 ldr r2,[r7,#92]
 887 07ea 1A60     	 str r2,[r3]
 399:../Dave/Generated/CMSIS_DSP/TransformFunctions/arm_cfft_radix4_f32.c **** 
 400:../Dave/Generated/CMSIS_DSP/TransformFunctions/arm_cfft_radix4_f32.c ****             /* yb' = (ya-xb-yc+xd)co1 - (xa+yb-xc-yd)(si1) */
 401:../Dave/Generated/CMSIS_DSP/TransformFunctions/arm_cfft_radix4_f32.c ****             pSrc[(2u * i2) + 1u] = Yb12_out;
 888              	 .loc 1 401 0 discriminator 1
 889 07ec D7F8DC30 	 ldr r3,[r7,#220]
 890 07f0 DB00     	 lsls r3,r3,#3
 891 07f2 0433     	 adds r3,r3,#4
 892 07f4 FA68     	 ldr r2,[r7,#12]
 893 07f6 1344     	 add r3,r3,r2
 894 07f8 BA6D     	 ldr r2,[r7,#88]
 895 07fa 1A60     	 str r2,[r3]
 402:../Dave/Generated/CMSIS_DSP/TransformFunctions/arm_cfft_radix4_f32.c **** 
 403:../Dave/Generated/CMSIS_DSP/TransformFunctions/arm_cfft_radix4_f32.c ****             /* xd' = (xa-yb-xc+yd)co3 + (ya+xb-yc-xd)(si3) */
 404:../Dave/Generated/CMSIS_DSP/TransformFunctions/arm_cfft_radix4_f32.c ****             pSrc[2u * i3] = Xd12_out;
 896              	 .loc 1 404 0 discriminator 1
 897 07fc D7F8D830 	 ldr r3,[r7,#216]
 898 0800 DB00     	 lsls r3,r3,#3
 899 0802 FA68     	 ldr r2,[r7,#12]
 900 0804 1344     	 add r3,r3,r2
 901 0806 FA6C     	 ldr r2,[r7,#76]
 902 0808 1A60     	 str r2,[r3]
 405:../Dave/Generated/CMSIS_DSP/TransformFunctions/arm_cfft_radix4_f32.c **** 
 406:../Dave/Generated/CMSIS_DSP/TransformFunctions/arm_cfft_radix4_f32.c ****             /* yd' = (ya+xb-yc-xd)co3 - (xa-yb-xc+yd)(si3) */
 407:../Dave/Generated/CMSIS_DSP/TransformFunctions/arm_cfft_radix4_f32.c ****             pSrc[(2u * i3) + 1u] = Yd12_out;
 903              	 .loc 1 407 0 discriminator 1
 904 080a D7F8D830 	 ldr r3,[r7,#216]
 905 080e DB00     	 lsls r3,r3,#3
 906 0810 0433     	 adds r3,r3,#4
 907 0812 FA68     	 ldr r2,[r7,#12]
 908 0814 1344     	 add r3,r3,r2
 909 0816 BA6C     	 ldr r2,[r7,#72]
 910 0818 1A60     	 str r2,[r3]
 408:../Dave/Generated/CMSIS_DSP/TransformFunctions/arm_cfft_radix4_f32.c **** 
 409:../Dave/Generated/CMSIS_DSP/TransformFunctions/arm_cfft_radix4_f32.c ****             i0 += n1;
 911              	 .loc 1 409 0 discriminator 1
 912 081a D7F8F820 	 ldr r2,[r7,#248]
 913 081e D7F8E430 	 ldr r3,[r7,#228]
 914 0822 1344     	 add r3,r3,r2
 915 0824 C7F8F830 	 str r3,[r7,#248]
 410:../Dave/Generated/CMSIS_DSP/TransformFunctions/arm_cfft_radix4_f32.c ****          } while (i0 < fftLen);
 916              	 .loc 1 410 0 discriminator 1
 917 0828 7A89     	 ldrh r2,[r7,#10]
 918 082a D7F8F830 	 ldr r3,[r7,#248]
 919 082e 9A42     	 cmp r2,r3
 920 0830 3FF652AE 	 bhi .L8
 411:../Dave/Generated/CMSIS_DSP/TransformFunctions/arm_cfft_radix4_f32.c ****          j++;
 921              	 .loc 1 411 0
 922 0834 D7F8F030 	 ldr r3,[r7,#240]
 923 0838 0133     	 adds r3,r3,#1
 924 083a C7F8F030 	 str r3,[r7,#240]
 412:../Dave/Generated/CMSIS_DSP/TransformFunctions/arm_cfft_radix4_f32.c ****       } while (j <= (n2 - 1u));
 925              	 .loc 1 412 0
 926 083e D7F8F430 	 ldr r3,[r7,#244]
 927 0842 5A1E     	 subs r2,r3,#1
 928 0844 D7F8F030 	 ldr r3,[r7,#240]
 929 0848 9A42     	 cmp r2,r3
 930 084a BFF401AE 	 bcs .L9
 413:../Dave/Generated/CMSIS_DSP/TransformFunctions/arm_cfft_radix4_f32.c ****       twidCoefModifier <<= 2u;
 931              	 .loc 1 413 0 discriminator 2
 932 084e 3B89     	 ldrh r3,[r7,#8]
 933 0850 9B00     	 lsls r3,r3,#2
 934 0852 3B81     	 strh r3,[r7,#8]
 279:../Dave/Generated/CMSIS_DSP/TransformFunctions/arm_cfft_radix4_f32.c ****    {
 935              	 .loc 1 279 0 discriminator 2
 936 0854 D7F8EC30 	 ldr r3,[r7,#236]
 937 0858 9B08     	 lsrs r3,r3,#2
 938 085a C7F8EC30 	 str r3,[r7,#236]
 939              	.L7:
 279:../Dave/Generated/CMSIS_DSP/TransformFunctions/arm_cfft_radix4_f32.c ****    {
 940              	 .loc 1 279 0 is_stmt 0 discriminator 1
 941 085e D7F8EC30 	 ldr r3,[r7,#236]
 942 0862 042B     	 cmp r3,#4
 943 0864 3FF6E5AD 	 bhi .L10
 414:../Dave/Generated/CMSIS_DSP/TransformFunctions/arm_cfft_radix4_f32.c ****    }
 415:../Dave/Generated/CMSIS_DSP/TransformFunctions/arm_cfft_radix4_f32.c **** 
 416:../Dave/Generated/CMSIS_DSP/TransformFunctions/arm_cfft_radix4_f32.c ****    j = fftLen >> 2;
 944              	 .loc 1 416 0 is_stmt 1
 945 0868 7B89     	 ldrh r3,[r7,#10]
 946 086a 9B08     	 lsrs r3,r3,#2
 947 086c 9BB2     	 uxth r3,r3
 948 086e C7F8F030 	 str r3,[r7,#240]
 417:../Dave/Generated/CMSIS_DSP/TransformFunctions/arm_cfft_radix4_f32.c ****    ptr1 = &pSrc[0];
 949              	 .loc 1 417 0
 950 0872 FB68     	 ldr r3,[r7,#12]
 951 0874 C7F8E830 	 str r3,[r7,#232]
 952              	.L11:
 418:../Dave/Generated/CMSIS_DSP/TransformFunctions/arm_cfft_radix4_f32.c **** 
 419:../Dave/Generated/CMSIS_DSP/TransformFunctions/arm_cfft_radix4_f32.c ****    /*  Calculations of last stage */
 420:../Dave/Generated/CMSIS_DSP/TransformFunctions/arm_cfft_radix4_f32.c ****    do
 421:../Dave/Generated/CMSIS_DSP/TransformFunctions/arm_cfft_radix4_f32.c ****    {
 422:../Dave/Generated/CMSIS_DSP/TransformFunctions/arm_cfft_radix4_f32.c ****       xaIn = ptr1[0];
 953              	 .loc 1 422 0 discriminator 1
 954 0878 D7F8E830 	 ldr r3,[r7,#232]
 955 087c 1B68     	 ldr r3,[r3]
 956 087e C7F8D430 	 str r3,[r7,#212]
 423:../Dave/Generated/CMSIS_DSP/TransformFunctions/arm_cfft_radix4_f32.c ****       yaIn = ptr1[1];
 957              	 .loc 1 423 0 discriminator 1
 958 0882 D7F8E830 	 ldr r3,[r7,#232]
 959 0886 5B68     	 ldr r3,[r3,#4]
 960 0888 C7F8D030 	 str r3,[r7,#208]
 424:../Dave/Generated/CMSIS_DSP/TransformFunctions/arm_cfft_radix4_f32.c ****       xbIn = ptr1[2];
 961              	 .loc 1 424 0 discriminator 1
 962 088c D7F8E830 	 ldr r3,[r7,#232]
 963 0890 9B68     	 ldr r3,[r3,#8]
 964 0892 C7F8CC30 	 str r3,[r7,#204]
 425:../Dave/Generated/CMSIS_DSP/TransformFunctions/arm_cfft_radix4_f32.c ****       ybIn = ptr1[3];
 965              	 .loc 1 425 0 discriminator 1
 966 0896 D7F8E830 	 ldr r3,[r7,#232]
 967 089a DB68     	 ldr r3,[r3,#12]
 968 089c C7F8C830 	 str r3,[r7,#200]
 426:../Dave/Generated/CMSIS_DSP/TransformFunctions/arm_cfft_radix4_f32.c ****       xcIn = ptr1[4];
 969              	 .loc 1 426 0 discriminator 1
 970 08a0 D7F8E830 	 ldr r3,[r7,#232]
 971 08a4 1B69     	 ldr r3,[r3,#16]
 972 08a6 C7F8C430 	 str r3,[r7,#196]
 427:../Dave/Generated/CMSIS_DSP/TransformFunctions/arm_cfft_radix4_f32.c ****       ycIn = ptr1[5];
 973              	 .loc 1 427 0 discriminator 1
 974 08aa D7F8E830 	 ldr r3,[r7,#232]
 975 08ae 5B69     	 ldr r3,[r3,#20]
 976 08b0 C7F8C030 	 str r3,[r7,#192]
 428:../Dave/Generated/CMSIS_DSP/TransformFunctions/arm_cfft_radix4_f32.c ****       xdIn = ptr1[6];
 977              	 .loc 1 428 0 discriminator 1
 978 08b4 D7F8E830 	 ldr r3,[r7,#232]
 979 08b8 9B69     	 ldr r3,[r3,#24]
 980 08ba C7F8BC30 	 str r3,[r7,#188]
 429:../Dave/Generated/CMSIS_DSP/TransformFunctions/arm_cfft_radix4_f32.c ****       ydIn = ptr1[7];
 981              	 .loc 1 429 0 discriminator 1
 982 08be D7F8E830 	 ldr r3,[r7,#232]
 983 08c2 DB69     	 ldr r3,[r3,#28]
 984 08c4 C7F8B830 	 str r3,[r7,#184]
 430:../Dave/Generated/CMSIS_DSP/TransformFunctions/arm_cfft_radix4_f32.c **** 
 431:../Dave/Generated/CMSIS_DSP/TransformFunctions/arm_cfft_radix4_f32.c ****       /* xa + xc */
 432:../Dave/Generated/CMSIS_DSP/TransformFunctions/arm_cfft_radix4_f32.c ****       Xaplusc = xaIn + xcIn;
 985              	 .loc 1 432 0 discriminator 1
 986 08c8 97ED357A 	 flds s14,[r7,#212]
 987 08cc D7ED317A 	 flds s15,[r7,#196]
 988 08d0 77EE277A 	 fadds s15,s14,s15
 989 08d4 C7ED2D7A 	 fsts s15,[r7,#180]
 433:../Dave/Generated/CMSIS_DSP/TransformFunctions/arm_cfft_radix4_f32.c **** 
 434:../Dave/Generated/CMSIS_DSP/TransformFunctions/arm_cfft_radix4_f32.c ****       /* xa - xc */
 435:../Dave/Generated/CMSIS_DSP/TransformFunctions/arm_cfft_radix4_f32.c ****       Xaminusc = xaIn - xcIn;
 990              	 .loc 1 435 0 discriminator 1
 991 08d8 97ED357A 	 flds s14,[r7,#212]
 992 08dc D7ED317A 	 flds s15,[r7,#196]
 993 08e0 77EE677A 	 fsubs s15,s14,s15
 994 08e4 C7ED267A 	 fsts s15,[r7,#152]
 436:../Dave/Generated/CMSIS_DSP/TransformFunctions/arm_cfft_radix4_f32.c **** 
 437:../Dave/Generated/CMSIS_DSP/TransformFunctions/arm_cfft_radix4_f32.c ****       /* ya + yc */
 438:../Dave/Generated/CMSIS_DSP/TransformFunctions/arm_cfft_radix4_f32.c ****       Yaplusc = yaIn + ycIn;
 995              	 .loc 1 438 0 discriminator 1
 996 08e8 97ED347A 	 flds s14,[r7,#208]
 997 08ec D7ED307A 	 flds s15,[r7,#192]
 998 08f0 77EE277A 	 fadds s15,s14,s15
 999 08f4 C7ED2B7A 	 fsts s15,[r7,#172]
 439:../Dave/Generated/CMSIS_DSP/TransformFunctions/arm_cfft_radix4_f32.c **** 
 440:../Dave/Generated/CMSIS_DSP/TransformFunctions/arm_cfft_radix4_f32.c ****       /* ya - yc */
 441:../Dave/Generated/CMSIS_DSP/TransformFunctions/arm_cfft_radix4_f32.c ****       Yaminusc = yaIn - ycIn;
 1000              	 .loc 1 441 0 discriminator 1
 1001 08f8 97ED347A 	 flds s14,[r7,#208]
 1002 08fc D7ED307A 	 flds s15,[r7,#192]
 1003 0900 77EE677A 	 fsubs s15,s14,s15
 1004 0904 C7ED247A 	 fsts s15,[r7,#144]
 442:../Dave/Generated/CMSIS_DSP/TransformFunctions/arm_cfft_radix4_f32.c **** 
 443:../Dave/Generated/CMSIS_DSP/TransformFunctions/arm_cfft_radix4_f32.c ****       /* xb + xd */
 444:../Dave/Generated/CMSIS_DSP/TransformFunctions/arm_cfft_radix4_f32.c ****       Xbplusd = xbIn + xdIn;
 1005              	 .loc 1 444 0 discriminator 1
 1006 0908 97ED337A 	 flds s14,[r7,#204]
 1007 090c D7ED2F7A 	 flds s15,[r7,#188]
 1008 0910 77EE277A 	 fadds s15,s14,s15
 1009 0914 C7ED2C7A 	 fsts s15,[r7,#176]
 445:../Dave/Generated/CMSIS_DSP/TransformFunctions/arm_cfft_radix4_f32.c **** 
 446:../Dave/Generated/CMSIS_DSP/TransformFunctions/arm_cfft_radix4_f32.c ****       /* yb + yd */
 447:../Dave/Generated/CMSIS_DSP/TransformFunctions/arm_cfft_radix4_f32.c ****       Ybplusd = ybIn + ydIn;
 1010              	 .loc 1 447 0 discriminator 1
 1011 0918 97ED327A 	 flds s14,[r7,#200]
 1012 091c D7ED2E7A 	 flds s15,[r7,#184]
 1013 0920 77EE277A 	 fadds s15,s14,s15
 1014 0924 C7ED2A7A 	 fsts s15,[r7,#168]
 448:../Dave/Generated/CMSIS_DSP/TransformFunctions/arm_cfft_radix4_f32.c **** 
 449:../Dave/Generated/CMSIS_DSP/TransformFunctions/arm_cfft_radix4_f32.c ****       /* (xb-xd) */
 450:../Dave/Generated/CMSIS_DSP/TransformFunctions/arm_cfft_radix4_f32.c ****       Xbminusd = xbIn - xdIn;
 1015              	 .loc 1 450 0 discriminator 1
 1016 0928 97ED337A 	 flds s14,[r7,#204]
 1017 092c D7ED2F7A 	 flds s15,[r7,#188]
 1018 0930 77EE677A 	 fsubs s15,s14,s15
 1019 0934 C7ED257A 	 fsts s15,[r7,#148]
 451:../Dave/Generated/CMSIS_DSP/TransformFunctions/arm_cfft_radix4_f32.c **** 
 452:../Dave/Generated/CMSIS_DSP/TransformFunctions/arm_cfft_radix4_f32.c ****       /* (yb-yd) */
 453:../Dave/Generated/CMSIS_DSP/TransformFunctions/arm_cfft_radix4_f32.c ****       Ybminusd = ybIn - ydIn;
 1020              	 .loc 1 453 0 discriminator 1
 1021 0938 97ED327A 	 flds s14,[r7,#200]
 1022 093c D7ED2E7A 	 flds s15,[r7,#184]
 1023 0940 77EE677A 	 fsubs s15,s14,s15
 1024 0944 C7ED237A 	 fsts s15,[r7,#140]
 454:../Dave/Generated/CMSIS_DSP/TransformFunctions/arm_cfft_radix4_f32.c **** 
 455:../Dave/Generated/CMSIS_DSP/TransformFunctions/arm_cfft_radix4_f32.c ****       /* xa' = xa + xb + xc + xd */
 456:../Dave/Generated/CMSIS_DSP/TransformFunctions/arm_cfft_radix4_f32.c ****       a0 = (Xaplusc + Xbplusd);
 1025              	 .loc 1 456 0 discriminator 1
 1026 0948 97ED2D7A 	 flds s14,[r7,#180]
 1027 094c D7ED2C7A 	 flds s15,[r7,#176]
 1028 0950 77EE277A 	 fadds s15,s14,s15
 1029 0954 C7ED0B7A 	 fsts s15,[r7,#44]
 457:../Dave/Generated/CMSIS_DSP/TransformFunctions/arm_cfft_radix4_f32.c ****       /* ya' = ya + yb + yc + yd */
 458:../Dave/Generated/CMSIS_DSP/TransformFunctions/arm_cfft_radix4_f32.c ****       a1 = (Yaplusc + Ybplusd);
 1030              	 .loc 1 458 0 discriminator 1
 1031 0958 97ED2B7A 	 flds s14,[r7,#172]
 1032 095c D7ED2A7A 	 flds s15,[r7,#168]
 1033 0960 77EE277A 	 fadds s15,s14,s15
 1034 0964 C7ED0A7A 	 fsts s15,[r7,#40]
 459:../Dave/Generated/CMSIS_DSP/TransformFunctions/arm_cfft_radix4_f32.c ****       /* xc' = (xa-xb+xc-xd) */
 460:../Dave/Generated/CMSIS_DSP/TransformFunctions/arm_cfft_radix4_f32.c ****       a2 = (Xaplusc - Xbplusd);
 1035              	 .loc 1 460 0 discriminator 1
 1036 0968 97ED2D7A 	 flds s14,[r7,#180]
 1037 096c D7ED2C7A 	 flds s15,[r7,#176]
 1038 0970 77EE677A 	 fsubs s15,s14,s15
 1039 0974 C7ED097A 	 fsts s15,[r7,#36]
 461:../Dave/Generated/CMSIS_DSP/TransformFunctions/arm_cfft_radix4_f32.c ****       /* yc' = (ya-yb+yc-yd) */
 462:../Dave/Generated/CMSIS_DSP/TransformFunctions/arm_cfft_radix4_f32.c ****       a3 = (Yaplusc - Ybplusd);
 1040              	 .loc 1 462 0 discriminator 1
 1041 0978 97ED2B7A 	 flds s14,[r7,#172]
 1042 097c D7ED2A7A 	 flds s15,[r7,#168]
 1043 0980 77EE677A 	 fsubs s15,s14,s15
 1044 0984 C7ED087A 	 fsts s15,[r7,#32]
 463:../Dave/Generated/CMSIS_DSP/TransformFunctions/arm_cfft_radix4_f32.c ****       /* xb' = (xa+yb-xc-yd) */
 464:../Dave/Generated/CMSIS_DSP/TransformFunctions/arm_cfft_radix4_f32.c ****       a4 = (Xaminusc + Ybminusd);
 1045              	 .loc 1 464 0 discriminator 1
 1046 0988 97ED267A 	 flds s14,[r7,#152]
 1047 098c D7ED237A 	 flds s15,[r7,#140]
 1048 0990 77EE277A 	 fadds s15,s14,s15
 1049 0994 C7ED077A 	 fsts s15,[r7,#28]
 465:../Dave/Generated/CMSIS_DSP/TransformFunctions/arm_cfft_radix4_f32.c ****       /* yb' = (ya-xb-yc+xd) */
 466:../Dave/Generated/CMSIS_DSP/TransformFunctions/arm_cfft_radix4_f32.c ****       a5 = (Yaminusc - Xbminusd);
 1050              	 .loc 1 466 0 discriminator 1
 1051 0998 97ED247A 	 flds s14,[r7,#144]
 1052 099c D7ED257A 	 flds s15,[r7,#148]
 1053 09a0 77EE677A 	 fsubs s15,s14,s15
 1054 09a4 C7ED067A 	 fsts s15,[r7,#24]
 467:../Dave/Generated/CMSIS_DSP/TransformFunctions/arm_cfft_radix4_f32.c ****       /* xd' = (xa-yb-xc+yd)) */
 468:../Dave/Generated/CMSIS_DSP/TransformFunctions/arm_cfft_radix4_f32.c ****       a6 = (Xaminusc - Ybminusd);
 1055              	 .loc 1 468 0 discriminator 1
 1056 09a8 97ED267A 	 flds s14,[r7,#152]
 1057 09ac D7ED237A 	 flds s15,[r7,#140]
 1058 09b0 77EE677A 	 fsubs s15,s14,s15
 1059 09b4 C7ED057A 	 fsts s15,[r7,#20]
 469:../Dave/Generated/CMSIS_DSP/TransformFunctions/arm_cfft_radix4_f32.c ****       /* yd' = (ya+xb-yc-xd) */
 470:../Dave/Generated/CMSIS_DSP/TransformFunctions/arm_cfft_radix4_f32.c ****       a7 = (Xbminusd + Yaminusc);
 1060              	 .loc 1 470 0 discriminator 1
 1061 09b8 97ED257A 	 flds s14,[r7,#148]
 1062 09bc D7ED247A 	 flds s15,[r7,#144]
 1063 09c0 77EE277A 	 fadds s15,s14,s15
 1064 09c4 C7ED047A 	 fsts s15,[r7,#16]
 471:../Dave/Generated/CMSIS_DSP/TransformFunctions/arm_cfft_radix4_f32.c **** 
 472:../Dave/Generated/CMSIS_DSP/TransformFunctions/arm_cfft_radix4_f32.c ****       ptr1[0] = a0;
 1065              	 .loc 1 472 0 discriminator 1
 1066 09c8 D7F8E830 	 ldr r3,[r7,#232]
 1067 09cc FA6A     	 ldr r2,[r7,#44]
 1068 09ce 1A60     	 str r2,[r3]
 473:../Dave/Generated/CMSIS_DSP/TransformFunctions/arm_cfft_radix4_f32.c ****       ptr1[1] = a1;
 1069              	 .loc 1 473 0 discriminator 1
 1070 09d0 D7F8E830 	 ldr r3,[r7,#232]
 1071 09d4 0433     	 adds r3,r3,#4
 1072 09d6 BA6A     	 ldr r2,[r7,#40]
 1073 09d8 1A60     	 str r2,[r3]
 474:../Dave/Generated/CMSIS_DSP/TransformFunctions/arm_cfft_radix4_f32.c ****       ptr1[2] = a2;
 1074              	 .loc 1 474 0 discriminator 1
 1075 09da D7F8E830 	 ldr r3,[r7,#232]
 1076 09de 0833     	 adds r3,r3,#8
 1077 09e0 7A6A     	 ldr r2,[r7,#36]
 1078 09e2 1A60     	 str r2,[r3]
 475:../Dave/Generated/CMSIS_DSP/TransformFunctions/arm_cfft_radix4_f32.c ****       ptr1[3] = a3;
 1079              	 .loc 1 475 0 discriminator 1
 1080 09e4 D7F8E830 	 ldr r3,[r7,#232]
 1081 09e8 0C33     	 adds r3,r3,#12
 1082 09ea 3A6A     	 ldr r2,[r7,#32]
 1083 09ec 1A60     	 str r2,[r3]
 476:../Dave/Generated/CMSIS_DSP/TransformFunctions/arm_cfft_radix4_f32.c ****       ptr1[4] = a4;
 1084              	 .loc 1 476 0 discriminator 1
 1085 09ee D7F8E830 	 ldr r3,[r7,#232]
 1086 09f2 1033     	 adds r3,r3,#16
 1087 09f4 FA69     	 ldr r2,[r7,#28]
 1088 09f6 1A60     	 str r2,[r3]
 477:../Dave/Generated/CMSIS_DSP/TransformFunctions/arm_cfft_radix4_f32.c ****       ptr1[5] = a5;
 1089              	 .loc 1 477 0 discriminator 1
 1090 09f8 D7F8E830 	 ldr r3,[r7,#232]
 1091 09fc 1433     	 adds r3,r3,#20
 1092 09fe BA69     	 ldr r2,[r7,#24]
 1093 0a00 1A60     	 str r2,[r3]
 478:../Dave/Generated/CMSIS_DSP/TransformFunctions/arm_cfft_radix4_f32.c ****       ptr1[6] = a6;
 1094              	 .loc 1 478 0 discriminator 1
 1095 0a02 D7F8E830 	 ldr r3,[r7,#232]
 1096 0a06 1833     	 adds r3,r3,#24
 1097 0a08 7A69     	 ldr r2,[r7,#20]
 1098 0a0a 1A60     	 str r2,[r3]
 479:../Dave/Generated/CMSIS_DSP/TransformFunctions/arm_cfft_radix4_f32.c ****       ptr1[7] = a7;
 1099              	 .loc 1 479 0 discriminator 1
 1100 0a0c D7F8E830 	 ldr r3,[r7,#232]
 1101 0a10 1C33     	 adds r3,r3,#28
 1102 0a12 3A69     	 ldr r2,[r7,#16]
 1103 0a14 1A60     	 str r2,[r3]
 480:../Dave/Generated/CMSIS_DSP/TransformFunctions/arm_cfft_radix4_f32.c **** 
 481:../Dave/Generated/CMSIS_DSP/TransformFunctions/arm_cfft_radix4_f32.c ****       /* increment pointer by 8 */
 482:../Dave/Generated/CMSIS_DSP/TransformFunctions/arm_cfft_radix4_f32.c ****       ptr1 += 8u;
 1104              	 .loc 1 482 0 discriminator 1
 1105 0a16 D7F8E830 	 ldr r3,[r7,#232]
 1106 0a1a 2033     	 adds r3,r3,#32
 1107 0a1c C7F8E830 	 str r3,[r7,#232]
 483:../Dave/Generated/CMSIS_DSP/TransformFunctions/arm_cfft_radix4_f32.c ****    } while (--j);
 1108              	 .loc 1 483 0 discriminator 1
 1109 0a20 D7F8F030 	 ldr r3,[r7,#240]
 1110 0a24 013B     	 subs r3,r3,#1
 1111 0a26 C7F8F030 	 str r3,[r7,#240]
 1112 0a2a D7F8F030 	 ldr r3,[r7,#240]
 1113 0a2e 002B     	 cmp r3,#0
 1114 0a30 7FF422AF 	 bne .L11
 484:../Dave/Generated/CMSIS_DSP/TransformFunctions/arm_cfft_radix4_f32.c **** 
 485:../Dave/Generated/CMSIS_DSP/TransformFunctions/arm_cfft_radix4_f32.c **** #else
 486:../Dave/Generated/CMSIS_DSP/TransformFunctions/arm_cfft_radix4_f32.c **** 
 487:../Dave/Generated/CMSIS_DSP/TransformFunctions/arm_cfft_radix4_f32.c ****    float32_t t1, t2, r1, r2, s1, s2;
 488:../Dave/Generated/CMSIS_DSP/TransformFunctions/arm_cfft_radix4_f32.c **** 
 489:../Dave/Generated/CMSIS_DSP/TransformFunctions/arm_cfft_radix4_f32.c ****    /* Run the below code for Cortex-M0 */
 490:../Dave/Generated/CMSIS_DSP/TransformFunctions/arm_cfft_radix4_f32.c **** 
 491:../Dave/Generated/CMSIS_DSP/TransformFunctions/arm_cfft_radix4_f32.c ****    /*  Initializations for the fft calculation */
 492:../Dave/Generated/CMSIS_DSP/TransformFunctions/arm_cfft_radix4_f32.c ****    n2 = fftLen;
 493:../Dave/Generated/CMSIS_DSP/TransformFunctions/arm_cfft_radix4_f32.c ****    n1 = n2;
 494:../Dave/Generated/CMSIS_DSP/TransformFunctions/arm_cfft_radix4_f32.c ****    for (k = fftLen; k > 1u; k >>= 2u)
 495:../Dave/Generated/CMSIS_DSP/TransformFunctions/arm_cfft_radix4_f32.c ****    {
 496:../Dave/Generated/CMSIS_DSP/TransformFunctions/arm_cfft_radix4_f32.c ****       /*  Initializations for the fft calculation */
 497:../Dave/Generated/CMSIS_DSP/TransformFunctions/arm_cfft_radix4_f32.c ****       n1 = n2;
 498:../Dave/Generated/CMSIS_DSP/TransformFunctions/arm_cfft_radix4_f32.c ****       n2 >>= 2u;
 499:../Dave/Generated/CMSIS_DSP/TransformFunctions/arm_cfft_radix4_f32.c ****       ia1 = 0u;
 500:../Dave/Generated/CMSIS_DSP/TransformFunctions/arm_cfft_radix4_f32.c **** 
 501:../Dave/Generated/CMSIS_DSP/TransformFunctions/arm_cfft_radix4_f32.c ****       /*  FFT Calculation */
 502:../Dave/Generated/CMSIS_DSP/TransformFunctions/arm_cfft_radix4_f32.c ****       j = 0;
 503:../Dave/Generated/CMSIS_DSP/TransformFunctions/arm_cfft_radix4_f32.c ****       do
 504:../Dave/Generated/CMSIS_DSP/TransformFunctions/arm_cfft_radix4_f32.c ****       {
 505:../Dave/Generated/CMSIS_DSP/TransformFunctions/arm_cfft_radix4_f32.c ****          /*  index calculation for the coefficients */
 506:../Dave/Generated/CMSIS_DSP/TransformFunctions/arm_cfft_radix4_f32.c ****          ia2 = ia1 + ia1;
 507:../Dave/Generated/CMSIS_DSP/TransformFunctions/arm_cfft_radix4_f32.c ****          ia3 = ia2 + ia1;
 508:../Dave/Generated/CMSIS_DSP/TransformFunctions/arm_cfft_radix4_f32.c ****          co1 = pCoef[ia1 * 2u];
 509:../Dave/Generated/CMSIS_DSP/TransformFunctions/arm_cfft_radix4_f32.c ****          si1 = pCoef[(ia1 * 2u) + 1u];
 510:../Dave/Generated/CMSIS_DSP/TransformFunctions/arm_cfft_radix4_f32.c ****          co2 = pCoef[ia2 * 2u];
 511:../Dave/Generated/CMSIS_DSP/TransformFunctions/arm_cfft_radix4_f32.c ****          si2 = pCoef[(ia2 * 2u) + 1u];
 512:../Dave/Generated/CMSIS_DSP/TransformFunctions/arm_cfft_radix4_f32.c ****          co3 = pCoef[ia3 * 2u];
 513:../Dave/Generated/CMSIS_DSP/TransformFunctions/arm_cfft_radix4_f32.c ****          si3 = pCoef[(ia3 * 2u) + 1u];
 514:../Dave/Generated/CMSIS_DSP/TransformFunctions/arm_cfft_radix4_f32.c **** 
 515:../Dave/Generated/CMSIS_DSP/TransformFunctions/arm_cfft_radix4_f32.c ****          /*  Twiddle coefficients index modifier */
 516:../Dave/Generated/CMSIS_DSP/TransformFunctions/arm_cfft_radix4_f32.c ****          ia1 = ia1 + twidCoefModifier;
 517:../Dave/Generated/CMSIS_DSP/TransformFunctions/arm_cfft_radix4_f32.c **** 
 518:../Dave/Generated/CMSIS_DSP/TransformFunctions/arm_cfft_radix4_f32.c ****          i0 = j;
 519:../Dave/Generated/CMSIS_DSP/TransformFunctions/arm_cfft_radix4_f32.c ****          do
 520:../Dave/Generated/CMSIS_DSP/TransformFunctions/arm_cfft_radix4_f32.c ****          {
 521:../Dave/Generated/CMSIS_DSP/TransformFunctions/arm_cfft_radix4_f32.c ****             /*  index calculation for the input as, */
 522:../Dave/Generated/CMSIS_DSP/TransformFunctions/arm_cfft_radix4_f32.c ****             /*  pSrc[i0 + 0], pSrc[i0 + fftLen/4], pSrc[i0 + fftLen/2], pSrc[i0 + 3fftLen/4] */
 523:../Dave/Generated/CMSIS_DSP/TransformFunctions/arm_cfft_radix4_f32.c ****             i1 = i0 + n2;
 524:../Dave/Generated/CMSIS_DSP/TransformFunctions/arm_cfft_radix4_f32.c ****             i2 = i1 + n2;
 525:../Dave/Generated/CMSIS_DSP/TransformFunctions/arm_cfft_radix4_f32.c ****             i3 = i2 + n2;
 526:../Dave/Generated/CMSIS_DSP/TransformFunctions/arm_cfft_radix4_f32.c **** 
 527:../Dave/Generated/CMSIS_DSP/TransformFunctions/arm_cfft_radix4_f32.c ****             /* xa + xc */
 528:../Dave/Generated/CMSIS_DSP/TransformFunctions/arm_cfft_radix4_f32.c ****             r1 = pSrc[(2u * i0)] + pSrc[(2u * i2)];
 529:../Dave/Generated/CMSIS_DSP/TransformFunctions/arm_cfft_radix4_f32.c **** 
 530:../Dave/Generated/CMSIS_DSP/TransformFunctions/arm_cfft_radix4_f32.c ****             /* xa - xc */
 531:../Dave/Generated/CMSIS_DSP/TransformFunctions/arm_cfft_radix4_f32.c ****             r2 = pSrc[(2u * i0)] - pSrc[(2u * i2)];
 532:../Dave/Generated/CMSIS_DSP/TransformFunctions/arm_cfft_radix4_f32.c **** 
 533:../Dave/Generated/CMSIS_DSP/TransformFunctions/arm_cfft_radix4_f32.c ****             /* ya + yc */
 534:../Dave/Generated/CMSIS_DSP/TransformFunctions/arm_cfft_radix4_f32.c ****             s1 = pSrc[(2u * i0) + 1u] + pSrc[(2u * i2) + 1u];
 535:../Dave/Generated/CMSIS_DSP/TransformFunctions/arm_cfft_radix4_f32.c **** 
 536:../Dave/Generated/CMSIS_DSP/TransformFunctions/arm_cfft_radix4_f32.c ****             /* ya - yc */
 537:../Dave/Generated/CMSIS_DSP/TransformFunctions/arm_cfft_radix4_f32.c ****             s2 = pSrc[(2u * i0) + 1u] - pSrc[(2u * i2) + 1u];
 538:../Dave/Generated/CMSIS_DSP/TransformFunctions/arm_cfft_radix4_f32.c **** 
 539:../Dave/Generated/CMSIS_DSP/TransformFunctions/arm_cfft_radix4_f32.c ****             /* xb + xd */
 540:../Dave/Generated/CMSIS_DSP/TransformFunctions/arm_cfft_radix4_f32.c ****             t1 = pSrc[2u * i1] + pSrc[2u * i3];
 541:../Dave/Generated/CMSIS_DSP/TransformFunctions/arm_cfft_radix4_f32.c **** 
 542:../Dave/Generated/CMSIS_DSP/TransformFunctions/arm_cfft_radix4_f32.c ****             /* xa' = xa + xb + xc + xd */
 543:../Dave/Generated/CMSIS_DSP/TransformFunctions/arm_cfft_radix4_f32.c ****             pSrc[2u * i0] = r1 + t1;
 544:../Dave/Generated/CMSIS_DSP/TransformFunctions/arm_cfft_radix4_f32.c **** 
 545:../Dave/Generated/CMSIS_DSP/TransformFunctions/arm_cfft_radix4_f32.c ****             /* xa + xc -(xb + xd) */
 546:../Dave/Generated/CMSIS_DSP/TransformFunctions/arm_cfft_radix4_f32.c ****             r1 = r1 - t1;
 547:../Dave/Generated/CMSIS_DSP/TransformFunctions/arm_cfft_radix4_f32.c **** 
 548:../Dave/Generated/CMSIS_DSP/TransformFunctions/arm_cfft_radix4_f32.c ****             /* yb + yd */
 549:../Dave/Generated/CMSIS_DSP/TransformFunctions/arm_cfft_radix4_f32.c ****             t2 = pSrc[(2u * i1) + 1u] + pSrc[(2u * i3) + 1u];
 550:../Dave/Generated/CMSIS_DSP/TransformFunctions/arm_cfft_radix4_f32.c **** 
 551:../Dave/Generated/CMSIS_DSP/TransformFunctions/arm_cfft_radix4_f32.c ****             /* ya' = ya + yb + yc + yd */
 552:../Dave/Generated/CMSIS_DSP/TransformFunctions/arm_cfft_radix4_f32.c ****             pSrc[(2u * i0) + 1u] = s1 + t2;
 553:../Dave/Generated/CMSIS_DSP/TransformFunctions/arm_cfft_radix4_f32.c **** 
 554:../Dave/Generated/CMSIS_DSP/TransformFunctions/arm_cfft_radix4_f32.c ****             /* (ya + yc) - (yb + yd) */
 555:../Dave/Generated/CMSIS_DSP/TransformFunctions/arm_cfft_radix4_f32.c ****             s1 = s1 - t2;
 556:../Dave/Generated/CMSIS_DSP/TransformFunctions/arm_cfft_radix4_f32.c **** 
 557:../Dave/Generated/CMSIS_DSP/TransformFunctions/arm_cfft_radix4_f32.c ****             /* (yb - yd) */
 558:../Dave/Generated/CMSIS_DSP/TransformFunctions/arm_cfft_radix4_f32.c ****             t1 = pSrc[(2u * i1) + 1u] - pSrc[(2u * i3) + 1u];
 559:../Dave/Generated/CMSIS_DSP/TransformFunctions/arm_cfft_radix4_f32.c **** 
 560:../Dave/Generated/CMSIS_DSP/TransformFunctions/arm_cfft_radix4_f32.c ****             /* (xb - xd) */
 561:../Dave/Generated/CMSIS_DSP/TransformFunctions/arm_cfft_radix4_f32.c ****             t2 = pSrc[2u * i1] - pSrc[2u * i3];
 562:../Dave/Generated/CMSIS_DSP/TransformFunctions/arm_cfft_radix4_f32.c **** 
 563:../Dave/Generated/CMSIS_DSP/TransformFunctions/arm_cfft_radix4_f32.c ****             /* xc' = (xa-xb+xc-xd)co2 + (ya-yb+yc-yd)(si2) */
 564:../Dave/Generated/CMSIS_DSP/TransformFunctions/arm_cfft_radix4_f32.c ****             pSrc[2u * i1] = (r1 * co2) + (s1 * si2);
 565:../Dave/Generated/CMSIS_DSP/TransformFunctions/arm_cfft_radix4_f32.c **** 
 566:../Dave/Generated/CMSIS_DSP/TransformFunctions/arm_cfft_radix4_f32.c ****             /* yc' = (ya-yb+yc-yd)co2 - (xa-xb+xc-xd)(si2) */
 567:../Dave/Generated/CMSIS_DSP/TransformFunctions/arm_cfft_radix4_f32.c ****             pSrc[(2u * i1) + 1u] = (s1 * co2) - (r1 * si2);
 568:../Dave/Generated/CMSIS_DSP/TransformFunctions/arm_cfft_radix4_f32.c **** 
 569:../Dave/Generated/CMSIS_DSP/TransformFunctions/arm_cfft_radix4_f32.c ****             /* (xa - xc) + (yb - yd) */
 570:../Dave/Generated/CMSIS_DSP/TransformFunctions/arm_cfft_radix4_f32.c ****             r1 = r2 + t1;
 571:../Dave/Generated/CMSIS_DSP/TransformFunctions/arm_cfft_radix4_f32.c **** 
 572:../Dave/Generated/CMSIS_DSP/TransformFunctions/arm_cfft_radix4_f32.c ****             /* (xa - xc) - (yb - yd) */
 573:../Dave/Generated/CMSIS_DSP/TransformFunctions/arm_cfft_radix4_f32.c ****             r2 = r2 - t1;
 574:../Dave/Generated/CMSIS_DSP/TransformFunctions/arm_cfft_radix4_f32.c **** 
 575:../Dave/Generated/CMSIS_DSP/TransformFunctions/arm_cfft_radix4_f32.c ****             /* (ya - yc) -  (xb - xd) */
 576:../Dave/Generated/CMSIS_DSP/TransformFunctions/arm_cfft_radix4_f32.c ****             s1 = s2 - t2;
 577:../Dave/Generated/CMSIS_DSP/TransformFunctions/arm_cfft_radix4_f32.c **** 
 578:../Dave/Generated/CMSIS_DSP/TransformFunctions/arm_cfft_radix4_f32.c ****             /* (ya - yc) +  (xb - xd) */
 579:../Dave/Generated/CMSIS_DSP/TransformFunctions/arm_cfft_radix4_f32.c ****             s2 = s2 + t2;
 580:../Dave/Generated/CMSIS_DSP/TransformFunctions/arm_cfft_radix4_f32.c **** 
 581:../Dave/Generated/CMSIS_DSP/TransformFunctions/arm_cfft_radix4_f32.c ****             /* xb' = (xa+yb-xc-yd)co1 + (ya-xb-yc+xd)(si1) */
 582:../Dave/Generated/CMSIS_DSP/TransformFunctions/arm_cfft_radix4_f32.c ****             pSrc[2u * i2] = (r1 * co1) + (s1 * si1);
 583:../Dave/Generated/CMSIS_DSP/TransformFunctions/arm_cfft_radix4_f32.c **** 
 584:../Dave/Generated/CMSIS_DSP/TransformFunctions/arm_cfft_radix4_f32.c ****             /* yb' = (ya-xb-yc+xd)co1 - (xa+yb-xc-yd)(si1) */
 585:../Dave/Generated/CMSIS_DSP/TransformFunctions/arm_cfft_radix4_f32.c ****             pSrc[(2u * i2) + 1u] = (s1 * co1) - (r1 * si1);
 586:../Dave/Generated/CMSIS_DSP/TransformFunctions/arm_cfft_radix4_f32.c **** 
 587:../Dave/Generated/CMSIS_DSP/TransformFunctions/arm_cfft_radix4_f32.c ****             /* xd' = (xa-yb-xc+yd)co3 + (ya+xb-yc-xd)(si3) */
 588:../Dave/Generated/CMSIS_DSP/TransformFunctions/arm_cfft_radix4_f32.c ****             pSrc[2u * i3] = (r2 * co3) + (s2 * si3);
 589:../Dave/Generated/CMSIS_DSP/TransformFunctions/arm_cfft_radix4_f32.c **** 
 590:../Dave/Generated/CMSIS_DSP/TransformFunctions/arm_cfft_radix4_f32.c ****             /* yd' = (ya+xb-yc-xd)co3 - (xa-yb-xc+yd)(si3) */
 591:../Dave/Generated/CMSIS_DSP/TransformFunctions/arm_cfft_radix4_f32.c ****             pSrc[(2u * i3) + 1u] = (s2 * co3) - (r2 * si3);
 592:../Dave/Generated/CMSIS_DSP/TransformFunctions/arm_cfft_radix4_f32.c **** 
 593:../Dave/Generated/CMSIS_DSP/TransformFunctions/arm_cfft_radix4_f32.c ****             i0 += n1;
 594:../Dave/Generated/CMSIS_DSP/TransformFunctions/arm_cfft_radix4_f32.c ****          } while ( i0 < fftLen);
 595:../Dave/Generated/CMSIS_DSP/TransformFunctions/arm_cfft_radix4_f32.c ****          j++;
 596:../Dave/Generated/CMSIS_DSP/TransformFunctions/arm_cfft_radix4_f32.c ****       } while (j <= (n2 - 1u));
 597:../Dave/Generated/CMSIS_DSP/TransformFunctions/arm_cfft_radix4_f32.c ****       twidCoefModifier <<= 2u;
 598:../Dave/Generated/CMSIS_DSP/TransformFunctions/arm_cfft_radix4_f32.c ****    }
 599:../Dave/Generated/CMSIS_DSP/TransformFunctions/arm_cfft_radix4_f32.c **** 
 600:../Dave/Generated/CMSIS_DSP/TransformFunctions/arm_cfft_radix4_f32.c **** #endif /* #if defined (ARM_MATH_DSP) */
 601:../Dave/Generated/CMSIS_DSP/TransformFunctions/arm_cfft_radix4_f32.c **** 
 602:../Dave/Generated/CMSIS_DSP/TransformFunctions/arm_cfft_radix4_f32.c **** }
 1115              	 .loc 1 602 0
 1116 0a34 07F58277 	 add r7,r7,#260
 1117              	.LCFI8:
 1118              	 .cfi_def_cfa_offset 4
 1119 0a38 BD46     	 mov sp,r7
 1120              	.LCFI9:
 1121              	 .cfi_def_cfa_register 13
 1122              	 
 1123 0a3a 5DF8047B 	 ldr r7,[sp],#4
 1124              	.LCFI10:
 1125              	 .cfi_restore 7
 1126              	 .cfi_def_cfa_offset 0
 1127 0a3e 7047     	 bx lr
 1128              	 .cfi_endproc
 1129              	.LFE136:
 1131              	 .section .text.arm_radix4_butterfly_inverse_f32,"ax",%progbits
 1132              	 .align 2
 1133              	 .global arm_radix4_butterfly_inverse_f32
 1134              	 .thumb
 1135              	 .thumb_func
 1137              	arm_radix4_butterfly_inverse_f32:
 1138              	.LFB137:
 603:../Dave/Generated/CMSIS_DSP/TransformFunctions/arm_cfft_radix4_f32.c **** 
 604:../Dave/Generated/CMSIS_DSP/TransformFunctions/arm_cfft_radix4_f32.c **** /*
 605:../Dave/Generated/CMSIS_DSP/TransformFunctions/arm_cfft_radix4_f32.c **** * @brief  Core function for the floating-point CIFFT butterfly process.
 606:../Dave/Generated/CMSIS_DSP/TransformFunctions/arm_cfft_radix4_f32.c **** * @param[in, out] *pSrc            points to the in-place buffer of floating-point data type.
 607:../Dave/Generated/CMSIS_DSP/TransformFunctions/arm_cfft_radix4_f32.c **** * @param[in]      fftLen           length of the FFT.
 608:../Dave/Generated/CMSIS_DSP/TransformFunctions/arm_cfft_radix4_f32.c **** * @param[in]      *pCoef           points to twiddle coefficient buffer.
 609:../Dave/Generated/CMSIS_DSP/TransformFunctions/arm_cfft_radix4_f32.c **** * @param[in]      twidCoefModifier twiddle coefficient modifier that supports different size FFTs w
 610:../Dave/Generated/CMSIS_DSP/TransformFunctions/arm_cfft_radix4_f32.c **** * @param[in]      onebyfftLen      value of 1/fftLen.
 611:../Dave/Generated/CMSIS_DSP/TransformFunctions/arm_cfft_radix4_f32.c **** * @return none.
 612:../Dave/Generated/CMSIS_DSP/TransformFunctions/arm_cfft_radix4_f32.c **** */
 613:../Dave/Generated/CMSIS_DSP/TransformFunctions/arm_cfft_radix4_f32.c **** 
 614:../Dave/Generated/CMSIS_DSP/TransformFunctions/arm_cfft_radix4_f32.c **** void arm_radix4_butterfly_inverse_f32(
 615:../Dave/Generated/CMSIS_DSP/TransformFunctions/arm_cfft_radix4_f32.c **** float32_t * pSrc,
 616:../Dave/Generated/CMSIS_DSP/TransformFunctions/arm_cfft_radix4_f32.c **** uint16_t fftLen,
 617:../Dave/Generated/CMSIS_DSP/TransformFunctions/arm_cfft_radix4_f32.c **** float32_t * pCoef,
 618:../Dave/Generated/CMSIS_DSP/TransformFunctions/arm_cfft_radix4_f32.c **** uint16_t twidCoefModifier,
 619:../Dave/Generated/CMSIS_DSP/TransformFunctions/arm_cfft_radix4_f32.c **** float32_t onebyfftLen)
 620:../Dave/Generated/CMSIS_DSP/TransformFunctions/arm_cfft_radix4_f32.c **** {
 1139              	 .loc 1 620 0
 1140              	 .cfi_startproc
 1141              	 
 1142              	 
 1143              	 
 1144 0000 80B4     	 push {r7}
 1145              	.LCFI11:
 1146              	 .cfi_def_cfa_offset 4
 1147              	 .cfi_offset 7,-4
 1148 0002 C3B0     	 sub sp,sp,#268
 1149              	.LCFI12:
 1150              	 .cfi_def_cfa_offset 272
 1151 0004 00AF     	 add r7,sp,#0
 1152              	.LCFI13:
 1153              	 .cfi_def_cfa_register 7
 1154 0006 F860     	 str r0,[r7,#12]
 1155 0008 0846     	 mov r0,r1
 1156 000a 391D     	 adds r1,r7,#4
 1157 000c 0A60     	 str r2,[r1]
 1158 000e 1A46     	 mov r2,r3
 1159 0010 0346     	 mov r3,r0
 1160 0012 7B81     	 strh r3,[r7,#10]
 1161 0014 07F10803 	 add r3,r7,#8
 1162 0018 1A80     	 strh r2,[r3]
 621:../Dave/Generated/CMSIS_DSP/TransformFunctions/arm_cfft_radix4_f32.c ****    float32_t co1, co2, co3, si1, si2, si3;
 622:../Dave/Generated/CMSIS_DSP/TransformFunctions/arm_cfft_radix4_f32.c ****    uint32_t ia1, ia2, ia3;
 623:../Dave/Generated/CMSIS_DSP/TransformFunctions/arm_cfft_radix4_f32.c ****    uint32_t i0, i1, i2, i3;
 624:../Dave/Generated/CMSIS_DSP/TransformFunctions/arm_cfft_radix4_f32.c ****    uint32_t n1, n2, j, k;
 625:../Dave/Generated/CMSIS_DSP/TransformFunctions/arm_cfft_radix4_f32.c **** 
 626:../Dave/Generated/CMSIS_DSP/TransformFunctions/arm_cfft_radix4_f32.c **** #if defined (ARM_MATH_DSP)
 627:../Dave/Generated/CMSIS_DSP/TransformFunctions/arm_cfft_radix4_f32.c **** 
 628:../Dave/Generated/CMSIS_DSP/TransformFunctions/arm_cfft_radix4_f32.c ****    float32_t xaIn, yaIn, xbIn, ybIn, xcIn, ycIn, xdIn, ydIn;
 629:../Dave/Generated/CMSIS_DSP/TransformFunctions/arm_cfft_radix4_f32.c ****    float32_t Xaplusc, Xbplusd, Yaplusc, Ybplusd, Xaminusc, Xbminusd, Yaminusc,
 630:../Dave/Generated/CMSIS_DSP/TransformFunctions/arm_cfft_radix4_f32.c ****    Ybminusd;
 631:../Dave/Generated/CMSIS_DSP/TransformFunctions/arm_cfft_radix4_f32.c ****    float32_t Xb12C_out, Yb12C_out, Xc12C_out, Yc12C_out, Xd12C_out, Yd12C_out;
 632:../Dave/Generated/CMSIS_DSP/TransformFunctions/arm_cfft_radix4_f32.c ****    float32_t Xb12_out, Yb12_out, Xc12_out, Yc12_out, Xd12_out, Yd12_out;
 633:../Dave/Generated/CMSIS_DSP/TransformFunctions/arm_cfft_radix4_f32.c ****    float32_t *ptr1;
 634:../Dave/Generated/CMSIS_DSP/TransformFunctions/arm_cfft_radix4_f32.c ****    float32_t p0,p1,p2,p3,p4,p5,p6,p7;
 635:../Dave/Generated/CMSIS_DSP/TransformFunctions/arm_cfft_radix4_f32.c ****    float32_t a0,a1,a2,a3,a4,a5,a6,a7;
 636:../Dave/Generated/CMSIS_DSP/TransformFunctions/arm_cfft_radix4_f32.c **** 
 637:../Dave/Generated/CMSIS_DSP/TransformFunctions/arm_cfft_radix4_f32.c **** 
 638:../Dave/Generated/CMSIS_DSP/TransformFunctions/arm_cfft_radix4_f32.c ****    /*  Initializations for the first stage */
 639:../Dave/Generated/CMSIS_DSP/TransformFunctions/arm_cfft_radix4_f32.c ****    n2 = fftLen;
 1163              	 .loc 1 639 0
 1164 001a 7B89     	 ldrh r3,[r7,#10]
 1165 001c C7F8FC30 	 str r3,[r7,#252]
 640:../Dave/Generated/CMSIS_DSP/TransformFunctions/arm_cfft_radix4_f32.c ****    n1 = n2;
 1166              	 .loc 1 640 0
 1167 0020 D7F8FC30 	 ldr r3,[r7,#252]
 1168 0024 C7F8EC30 	 str r3,[r7,#236]
 641:../Dave/Generated/CMSIS_DSP/TransformFunctions/arm_cfft_radix4_f32.c **** 
 642:../Dave/Generated/CMSIS_DSP/TransformFunctions/arm_cfft_radix4_f32.c ****    /* n2 = fftLen/4 */
 643:../Dave/Generated/CMSIS_DSP/TransformFunctions/arm_cfft_radix4_f32.c ****    n2 >>= 2u;
 1169              	 .loc 1 643 0
 1170 0028 D7F8FC30 	 ldr r3,[r7,#252]
 1171 002c 9B08     	 lsrs r3,r3,#2
 1172 002e C7F8FC30 	 str r3,[r7,#252]
 644:../Dave/Generated/CMSIS_DSP/TransformFunctions/arm_cfft_radix4_f32.c ****    i0 = 0u;
 1173              	 .loc 1 644 0
 1174 0032 0023     	 movs r3,#0
 1175 0034 C7F80031 	 str r3,[r7,#256]
 645:../Dave/Generated/CMSIS_DSP/TransformFunctions/arm_cfft_radix4_f32.c ****    ia1 = 0u;
 1176              	 .loc 1 645 0
 1177 0038 0023     	 movs r3,#0
 1178 003a C7F80431 	 str r3,[r7,#260]
 646:../Dave/Generated/CMSIS_DSP/TransformFunctions/arm_cfft_radix4_f32.c **** 
 647:../Dave/Generated/CMSIS_DSP/TransformFunctions/arm_cfft_radix4_f32.c ****    j = n2;
 1179              	 .loc 1 647 0
 1180 003e D7F8FC30 	 ldr r3,[r7,#252]
 1181 0042 C7F8F830 	 str r3,[r7,#248]
 1182              	.L13:
 648:../Dave/Generated/CMSIS_DSP/TransformFunctions/arm_cfft_radix4_f32.c **** 
 649:../Dave/Generated/CMSIS_DSP/TransformFunctions/arm_cfft_radix4_f32.c ****    /*  Calculation of first stage */
 650:../Dave/Generated/CMSIS_DSP/TransformFunctions/arm_cfft_radix4_f32.c ****    do
 651:../Dave/Generated/CMSIS_DSP/TransformFunctions/arm_cfft_radix4_f32.c ****    {
 652:../Dave/Generated/CMSIS_DSP/TransformFunctions/arm_cfft_radix4_f32.c ****       /*  index calculation for the input as, */
 653:../Dave/Generated/CMSIS_DSP/TransformFunctions/arm_cfft_radix4_f32.c ****       /*  pSrc[i0 + 0], pSrc[i0 + fftLen/4], pSrc[i0 + fftLen/2], pSrc[i0 + 3fftLen/4] */
 654:../Dave/Generated/CMSIS_DSP/TransformFunctions/arm_cfft_radix4_f32.c ****       i1 = i0 + n2;
 1183              	 .loc 1 654 0 discriminator 1
 1184 0046 D7F80021 	 ldr r2,[r7,#256]
 1185 004a D7F8FC30 	 ldr r3,[r7,#252]
 1186 004e 1344     	 add r3,r3,r2
 1187 0050 C7F8E830 	 str r3,[r7,#232]
 655:../Dave/Generated/CMSIS_DSP/TransformFunctions/arm_cfft_radix4_f32.c ****       i2 = i1 + n2;
 1188              	 .loc 1 655 0 discriminator 1
 1189 0054 D7F8E820 	 ldr r2,[r7,#232]
 1190 0058 D7F8FC30 	 ldr r3,[r7,#252]
 1191 005c 1344     	 add r3,r3,r2
 1192 005e C7F8E430 	 str r3,[r7,#228]
 656:../Dave/Generated/CMSIS_DSP/TransformFunctions/arm_cfft_radix4_f32.c ****       i3 = i2 + n2;
 1193              	 .loc 1 656 0 discriminator 1
 1194 0062 D7F8E420 	 ldr r2,[r7,#228]
 1195 0066 D7F8FC30 	 ldr r3,[r7,#252]
 1196 006a 1344     	 add r3,r3,r2
 1197 006c C7F8E030 	 str r3,[r7,#224]
 657:../Dave/Generated/CMSIS_DSP/TransformFunctions/arm_cfft_radix4_f32.c **** 
 658:../Dave/Generated/CMSIS_DSP/TransformFunctions/arm_cfft_radix4_f32.c ****       /*  Butterfly implementation */
 659:../Dave/Generated/CMSIS_DSP/TransformFunctions/arm_cfft_radix4_f32.c ****       xaIn = pSrc[(2u * i0)];
 1198              	 .loc 1 659 0 discriminator 1
 1199 0070 D7F80031 	 ldr r3,[r7,#256]
 1200 0074 DB00     	 lsls r3,r3,#3
 1201 0076 FA68     	 ldr r2,[r7,#12]
 1202 0078 1344     	 add r3,r3,r2
 1203 007a 1B68     	 ldr r3,[r3]
 1204 007c C7F8DC30 	 str r3,[r7,#220]
 660:../Dave/Generated/CMSIS_DSP/TransformFunctions/arm_cfft_radix4_f32.c ****       yaIn = pSrc[(2u * i0) + 1u];
 1205              	 .loc 1 660 0 discriminator 1
 1206 0080 D7F80031 	 ldr r3,[r7,#256]
 1207 0084 DB00     	 lsls r3,r3,#3
 1208 0086 0433     	 adds r3,r3,#4
 1209 0088 FA68     	 ldr r2,[r7,#12]
 1210 008a 1344     	 add r3,r3,r2
 1211 008c 1B68     	 ldr r3,[r3]
 1212 008e C7F8D830 	 str r3,[r7,#216]
 661:../Dave/Generated/CMSIS_DSP/TransformFunctions/arm_cfft_radix4_f32.c **** 
 662:../Dave/Generated/CMSIS_DSP/TransformFunctions/arm_cfft_radix4_f32.c ****       xcIn = pSrc[(2u * i2)];
 1213              	 .loc 1 662 0 discriminator 1
 1214 0092 D7F8E430 	 ldr r3,[r7,#228]
 1215 0096 DB00     	 lsls r3,r3,#3
 1216 0098 FA68     	 ldr r2,[r7,#12]
 1217 009a 1344     	 add r3,r3,r2
 1218 009c 1B68     	 ldr r3,[r3]
 1219 009e C7F8D430 	 str r3,[r7,#212]
 663:../Dave/Generated/CMSIS_DSP/TransformFunctions/arm_cfft_radix4_f32.c ****       ycIn = pSrc[(2u * i2) + 1u];
 1220              	 .loc 1 663 0 discriminator 1
 1221 00a2 D7F8E430 	 ldr r3,[r7,#228]
 1222 00a6 DB00     	 lsls r3,r3,#3
 1223 00a8 0433     	 adds r3,r3,#4
 1224 00aa FA68     	 ldr r2,[r7,#12]
 1225 00ac 1344     	 add r3,r3,r2
 1226 00ae 1B68     	 ldr r3,[r3]
 1227 00b0 C7F8D030 	 str r3,[r7,#208]
 664:../Dave/Generated/CMSIS_DSP/TransformFunctions/arm_cfft_radix4_f32.c **** 
 665:../Dave/Generated/CMSIS_DSP/TransformFunctions/arm_cfft_radix4_f32.c ****       xbIn = pSrc[(2u * i1)];
 1228              	 .loc 1 665 0 discriminator 1
 1229 00b4 D7F8E830 	 ldr r3,[r7,#232]
 1230 00b8 DB00     	 lsls r3,r3,#3
 1231 00ba FA68     	 ldr r2,[r7,#12]
 1232 00bc 1344     	 add r3,r3,r2
 1233 00be 1B68     	 ldr r3,[r3]
 1234 00c0 C7F8CC30 	 str r3,[r7,#204]
 666:../Dave/Generated/CMSIS_DSP/TransformFunctions/arm_cfft_radix4_f32.c ****       ybIn = pSrc[(2u * i1) + 1u];
 1235              	 .loc 1 666 0 discriminator 1
 1236 00c4 D7F8E830 	 ldr r3,[r7,#232]
 1237 00c8 DB00     	 lsls r3,r3,#3
 1238 00ca 0433     	 adds r3,r3,#4
 1239 00cc FA68     	 ldr r2,[r7,#12]
 1240 00ce 1344     	 add r3,r3,r2
 1241 00d0 1B68     	 ldr r3,[r3]
 1242 00d2 C7F8C830 	 str r3,[r7,#200]
 667:../Dave/Generated/CMSIS_DSP/TransformFunctions/arm_cfft_radix4_f32.c **** 
 668:../Dave/Generated/CMSIS_DSP/TransformFunctions/arm_cfft_radix4_f32.c ****       xdIn = pSrc[(2u * i3)];
 1243              	 .loc 1 668 0 discriminator 1
 1244 00d6 D7F8E030 	 ldr r3,[r7,#224]
 1245 00da DB00     	 lsls r3,r3,#3
 1246 00dc FA68     	 ldr r2,[r7,#12]
 1247 00de 1344     	 add r3,r3,r2
 1248 00e0 1B68     	 ldr r3,[r3]
 1249 00e2 C7F8C430 	 str r3,[r7,#196]
 669:../Dave/Generated/CMSIS_DSP/TransformFunctions/arm_cfft_radix4_f32.c ****       ydIn = pSrc[(2u * i3) + 1u];
 1250              	 .loc 1 669 0 discriminator 1
 1251 00e6 D7F8E030 	 ldr r3,[r7,#224]
 1252 00ea DB00     	 lsls r3,r3,#3
 1253 00ec 0433     	 adds r3,r3,#4
 1254 00ee FA68     	 ldr r2,[r7,#12]
 1255 00f0 1344     	 add r3,r3,r2
 1256 00f2 1B68     	 ldr r3,[r3]
 1257 00f4 C7F8C030 	 str r3,[r7,#192]
 670:../Dave/Generated/CMSIS_DSP/TransformFunctions/arm_cfft_radix4_f32.c **** 
 671:../Dave/Generated/CMSIS_DSP/TransformFunctions/arm_cfft_radix4_f32.c ****       /* xa + xc */
 672:../Dave/Generated/CMSIS_DSP/TransformFunctions/arm_cfft_radix4_f32.c ****       Xaplusc = xaIn + xcIn;
 1258              	 .loc 1 672 0 discriminator 1
 1259 00f8 97ED377A 	 flds s14,[r7,#220]
 1260 00fc D7ED357A 	 flds s15,[r7,#212]
 1261 0100 77EE277A 	 fadds s15,s14,s15
 1262 0104 C7ED2F7A 	 fsts s15,[r7,#188]
 673:../Dave/Generated/CMSIS_DSP/TransformFunctions/arm_cfft_radix4_f32.c ****       /* xb + xd */
 674:../Dave/Generated/CMSIS_DSP/TransformFunctions/arm_cfft_radix4_f32.c ****       Xbplusd = xbIn + xdIn;
 1263              	 .loc 1 674 0 discriminator 1
 1264 0108 97ED337A 	 flds s14,[r7,#204]
 1265 010c D7ED317A 	 flds s15,[r7,#196]
 1266 0110 77EE277A 	 fadds s15,s14,s15
 1267 0114 C7ED2E7A 	 fsts s15,[r7,#184]
 675:../Dave/Generated/CMSIS_DSP/TransformFunctions/arm_cfft_radix4_f32.c ****       /* ya + yc */
 676:../Dave/Generated/CMSIS_DSP/TransformFunctions/arm_cfft_radix4_f32.c ****       Yaplusc = yaIn + ycIn;
 1268              	 .loc 1 676 0 discriminator 1
 1269 0118 97ED367A 	 flds s14,[r7,#216]
 1270 011c D7ED347A 	 flds s15,[r7,#208]
 1271 0120 77EE277A 	 fadds s15,s14,s15
 1272 0124 C7ED2D7A 	 fsts s15,[r7,#180]
 677:../Dave/Generated/CMSIS_DSP/TransformFunctions/arm_cfft_radix4_f32.c ****       /* yb + yd */
 678:../Dave/Generated/CMSIS_DSP/TransformFunctions/arm_cfft_radix4_f32.c ****       Ybplusd = ybIn + ydIn;
 1273              	 .loc 1 678 0 discriminator 1
 1274 0128 97ED327A 	 flds s14,[r7,#200]
 1275 012c D7ED307A 	 flds s15,[r7,#192]
 1276 0130 77EE277A 	 fadds s15,s14,s15
 1277 0134 C7ED2C7A 	 fsts s15,[r7,#176]
 679:../Dave/Generated/CMSIS_DSP/TransformFunctions/arm_cfft_radix4_f32.c **** 
 680:../Dave/Generated/CMSIS_DSP/TransformFunctions/arm_cfft_radix4_f32.c ****       /*  index calculation for the coefficients */
 681:../Dave/Generated/CMSIS_DSP/TransformFunctions/arm_cfft_radix4_f32.c ****       ia2 = ia1 + ia1;
 1278              	 .loc 1 681 0 discriminator 1
 1279 0138 D7F80421 	 ldr r2,[r7,#260]
 1280 013c D7F80431 	 ldr r3,[r7,#260]
 1281 0140 1344     	 add r3,r3,r2
 1282 0142 C7F8AC30 	 str r3,[r7,#172]
 682:../Dave/Generated/CMSIS_DSP/TransformFunctions/arm_cfft_radix4_f32.c ****       co2 = pCoef[ia2 * 2u];
 1283              	 .loc 1 682 0 discriminator 1
 1284 0146 D7F8AC30 	 ldr r3,[r7,#172]
 1285 014a DB00     	 lsls r3,r3,#3
 1286 014c 3A1D     	 adds r2,r7,#4
 1287 014e 1268     	 ldr r2,[r2]
 1288 0150 1344     	 add r3,r3,r2
 1289 0152 1B68     	 ldr r3,[r3]
 1290 0154 C7F8A830 	 str r3,[r7,#168]
 683:../Dave/Generated/CMSIS_DSP/TransformFunctions/arm_cfft_radix4_f32.c ****       si2 = pCoef[(ia2 * 2u) + 1u];
 1291              	 .loc 1 683 0 discriminator 1
 1292 0158 D7F8AC30 	 ldr r3,[r7,#172]
 1293 015c DB00     	 lsls r3,r3,#3
 1294 015e 0433     	 adds r3,r3,#4
 1295 0160 3A1D     	 adds r2,r7,#4
 1296 0162 1268     	 ldr r2,[r2]
 1297 0164 1344     	 add r3,r3,r2
 1298 0166 1B68     	 ldr r3,[r3]
 1299 0168 C7F8A430 	 str r3,[r7,#164]
 684:../Dave/Generated/CMSIS_DSP/TransformFunctions/arm_cfft_radix4_f32.c **** 
 685:../Dave/Generated/CMSIS_DSP/TransformFunctions/arm_cfft_radix4_f32.c ****       /* xa - xc */
 686:../Dave/Generated/CMSIS_DSP/TransformFunctions/arm_cfft_radix4_f32.c ****       Xaminusc = xaIn - xcIn;
 1300              	 .loc 1 686 0 discriminator 1
 1301 016c 97ED377A 	 flds s14,[r7,#220]
 1302 0170 D7ED357A 	 flds s15,[r7,#212]
 1303 0174 77EE677A 	 fsubs s15,s14,s15
 1304 0178 C7ED287A 	 fsts s15,[r7,#160]
 687:../Dave/Generated/CMSIS_DSP/TransformFunctions/arm_cfft_radix4_f32.c ****       /* xb - xd */
 688:../Dave/Generated/CMSIS_DSP/TransformFunctions/arm_cfft_radix4_f32.c ****       Xbminusd = xbIn - xdIn;
 1305              	 .loc 1 688 0 discriminator 1
 1306 017c 97ED337A 	 flds s14,[r7,#204]
 1307 0180 D7ED317A 	 flds s15,[r7,#196]
 1308 0184 77EE677A 	 fsubs s15,s14,s15
 1309 0188 C7ED277A 	 fsts s15,[r7,#156]
 689:../Dave/Generated/CMSIS_DSP/TransformFunctions/arm_cfft_radix4_f32.c ****       /* ya - yc */
 690:../Dave/Generated/CMSIS_DSP/TransformFunctions/arm_cfft_radix4_f32.c ****       Yaminusc = yaIn - ycIn;
 1310              	 .loc 1 690 0 discriminator 1
 1311 018c 97ED367A 	 flds s14,[r7,#216]
 1312 0190 D7ED347A 	 flds s15,[r7,#208]
 1313 0194 77EE677A 	 fsubs s15,s14,s15
 1314 0198 C7ED267A 	 fsts s15,[r7,#152]
 691:../Dave/Generated/CMSIS_DSP/TransformFunctions/arm_cfft_radix4_f32.c ****       /* yb - yd */
 692:../Dave/Generated/CMSIS_DSP/TransformFunctions/arm_cfft_radix4_f32.c ****       Ybminusd = ybIn - ydIn;
 1315              	 .loc 1 692 0 discriminator 1
 1316 019c 97ED327A 	 flds s14,[r7,#200]
 1317 01a0 D7ED307A 	 flds s15,[r7,#192]
 1318 01a4 77EE677A 	 fsubs s15,s14,s15
 1319 01a8 C7ED257A 	 fsts s15,[r7,#148]
 693:../Dave/Generated/CMSIS_DSP/TransformFunctions/arm_cfft_radix4_f32.c **** 
 694:../Dave/Generated/CMSIS_DSP/TransformFunctions/arm_cfft_radix4_f32.c ****       /* xa' = xa + xb + xc + xd */
 695:../Dave/Generated/CMSIS_DSP/TransformFunctions/arm_cfft_radix4_f32.c ****       pSrc[(2u * i0)] = Xaplusc + Xbplusd;
 1320              	 .loc 1 695 0 discriminator 1
 1321 01ac D7F80031 	 ldr r3,[r7,#256]
 1322 01b0 DB00     	 lsls r3,r3,#3
 1323 01b2 FA68     	 ldr r2,[r7,#12]
 1324 01b4 1344     	 add r3,r3,r2
 1325 01b6 97ED2F7A 	 flds s14,[r7,#188]
 1326 01ba D7ED2E7A 	 flds s15,[r7,#184]
 1327 01be 77EE277A 	 fadds s15,s14,s15
 1328 01c2 C3ED007A 	 fsts s15,[r3]
 696:../Dave/Generated/CMSIS_DSP/TransformFunctions/arm_cfft_radix4_f32.c **** 
 697:../Dave/Generated/CMSIS_DSP/TransformFunctions/arm_cfft_radix4_f32.c ****       /* ya' = ya + yb + yc + yd */
 698:../Dave/Generated/CMSIS_DSP/TransformFunctions/arm_cfft_radix4_f32.c ****       pSrc[(2u * i0) + 1u] = Yaplusc + Ybplusd;
 1329              	 .loc 1 698 0 discriminator 1
 1330 01c6 D7F80031 	 ldr r3,[r7,#256]
 1331 01ca DB00     	 lsls r3,r3,#3
 1332 01cc 0433     	 adds r3,r3,#4
 1333 01ce FA68     	 ldr r2,[r7,#12]
 1334 01d0 1344     	 add r3,r3,r2
 1335 01d2 97ED2D7A 	 flds s14,[r7,#180]
 1336 01d6 D7ED2C7A 	 flds s15,[r7,#176]
 1337 01da 77EE277A 	 fadds s15,s14,s15
 1338 01de C3ED007A 	 fsts s15,[r3]
 699:../Dave/Generated/CMSIS_DSP/TransformFunctions/arm_cfft_radix4_f32.c **** 
 700:../Dave/Generated/CMSIS_DSP/TransformFunctions/arm_cfft_radix4_f32.c ****       /* (xa - xc) - (yb - yd) */
 701:../Dave/Generated/CMSIS_DSP/TransformFunctions/arm_cfft_radix4_f32.c ****       Xb12C_out = (Xaminusc - Ybminusd);
 1339              	 .loc 1 701 0 discriminator 1
 1340 01e2 97ED287A 	 flds s14,[r7,#160]
 1341 01e6 D7ED257A 	 flds s15,[r7,#148]
 1342 01ea 77EE677A 	 fsubs s15,s14,s15
 1343 01ee C7ED247A 	 fsts s15,[r7,#144]
 702:../Dave/Generated/CMSIS_DSP/TransformFunctions/arm_cfft_radix4_f32.c ****       /* (ya - yc) + (xb - xd) */
 703:../Dave/Generated/CMSIS_DSP/TransformFunctions/arm_cfft_radix4_f32.c ****       Yb12C_out = (Yaminusc + Xbminusd);
 1344              	 .loc 1 703 0 discriminator 1
 1345 01f2 97ED267A 	 flds s14,[r7,#152]
 1346 01f6 D7ED277A 	 flds s15,[r7,#156]
 1347 01fa 77EE277A 	 fadds s15,s14,s15
 1348 01fe C7ED237A 	 fsts s15,[r7,#140]
 704:../Dave/Generated/CMSIS_DSP/TransformFunctions/arm_cfft_radix4_f32.c ****       /* (xa + xc) - (xb + xd) */
 705:../Dave/Generated/CMSIS_DSP/TransformFunctions/arm_cfft_radix4_f32.c ****       Xc12C_out = (Xaplusc - Xbplusd);
 1349              	 .loc 1 705 0 discriminator 1
 1350 0202 97ED2F7A 	 flds s14,[r7,#188]
 1351 0206 D7ED2E7A 	 flds s15,[r7,#184]
 1352 020a 77EE677A 	 fsubs s15,s14,s15
 1353 020e C7ED227A 	 fsts s15,[r7,#136]
 706:../Dave/Generated/CMSIS_DSP/TransformFunctions/arm_cfft_radix4_f32.c ****       /* (ya + yc) - (yb + yd) */
 707:../Dave/Generated/CMSIS_DSP/TransformFunctions/arm_cfft_radix4_f32.c ****       Yc12C_out = (Yaplusc - Ybplusd);
 1354              	 .loc 1 707 0 discriminator 1
 1355 0212 97ED2D7A 	 flds s14,[r7,#180]
 1356 0216 D7ED2C7A 	 flds s15,[r7,#176]
 1357 021a 77EE677A 	 fsubs s15,s14,s15
 1358 021e C7ED217A 	 fsts s15,[r7,#132]
 708:../Dave/Generated/CMSIS_DSP/TransformFunctions/arm_cfft_radix4_f32.c ****       /* (xa - xc) + (yb - yd) */
 709:../Dave/Generated/CMSIS_DSP/TransformFunctions/arm_cfft_radix4_f32.c ****       Xd12C_out = (Xaminusc + Ybminusd);
 1359              	 .loc 1 709 0 discriminator 1
 1360 0222 97ED287A 	 flds s14,[r7,#160]
 1361 0226 D7ED257A 	 flds s15,[r7,#148]
 1362 022a 77EE277A 	 fadds s15,s14,s15
 1363 022e C7ED207A 	 fsts s15,[r7,#128]
 710:../Dave/Generated/CMSIS_DSP/TransformFunctions/arm_cfft_radix4_f32.c ****       /* (ya - yc) - (xb - xd) */
 711:../Dave/Generated/CMSIS_DSP/TransformFunctions/arm_cfft_radix4_f32.c ****       Yd12C_out = (Yaminusc - Xbminusd);
 1364              	 .loc 1 711 0 discriminator 1
 1365 0232 97ED267A 	 flds s14,[r7,#152]
 1366 0236 D7ED277A 	 flds s15,[r7,#156]
 1367 023a 77EE677A 	 fsubs s15,s14,s15
 1368 023e C7ED1F7A 	 fsts s15,[r7,#124]
 712:../Dave/Generated/CMSIS_DSP/TransformFunctions/arm_cfft_radix4_f32.c **** 
 713:../Dave/Generated/CMSIS_DSP/TransformFunctions/arm_cfft_radix4_f32.c ****       co1 = pCoef[ia1 * 2u];
 1369              	 .loc 1 713 0 discriminator 1
 1370 0242 D7F80431 	 ldr r3,[r7,#260]
 1371 0246 DB00     	 lsls r3,r3,#3
 1372 0248 3A1D     	 adds r2,r7,#4
 1373 024a 1268     	 ldr r2,[r2]
 1374 024c 1344     	 add r3,r3,r2
 1375 024e 1B68     	 ldr r3,[r3]
 1376 0250 BB67     	 str r3,[r7,#120]
 714:../Dave/Generated/CMSIS_DSP/TransformFunctions/arm_cfft_radix4_f32.c ****       si1 = pCoef[(ia1 * 2u) + 1u];
 1377              	 .loc 1 714 0 discriminator 1
 1378 0252 D7F80431 	 ldr r3,[r7,#260]
 1379 0256 DB00     	 lsls r3,r3,#3
 1380 0258 0433     	 adds r3,r3,#4
 1381 025a 3A1D     	 adds r2,r7,#4
 1382 025c 1268     	 ldr r2,[r2]
 1383 025e 1344     	 add r3,r3,r2
 1384 0260 1B68     	 ldr r3,[r3]
 1385 0262 7B67     	 str r3,[r7,#116]
 715:../Dave/Generated/CMSIS_DSP/TransformFunctions/arm_cfft_radix4_f32.c **** 
 716:../Dave/Generated/CMSIS_DSP/TransformFunctions/arm_cfft_radix4_f32.c ****       /*  index calculation for the coefficients */
 717:../Dave/Generated/CMSIS_DSP/TransformFunctions/arm_cfft_radix4_f32.c ****       ia3 = ia2 + ia1;
 1386              	 .loc 1 717 0 discriminator 1
 1387 0264 D7F8AC20 	 ldr r2,[r7,#172]
 1388 0268 D7F80431 	 ldr r3,[r7,#260]
 1389 026c 1344     	 add r3,r3,r2
 1390 026e 3B67     	 str r3,[r7,#112]
 718:../Dave/Generated/CMSIS_DSP/TransformFunctions/arm_cfft_radix4_f32.c ****       co3 = pCoef[ia3 * 2u];
 1391              	 .loc 1 718 0 discriminator 1
 1392 0270 3B6F     	 ldr r3,[r7,#112]
 1393 0272 DB00     	 lsls r3,r3,#3
 1394 0274 3A1D     	 adds r2,r7,#4
 1395 0276 1268     	 ldr r2,[r2]
 1396 0278 1344     	 add r3,r3,r2
 1397 027a 1B68     	 ldr r3,[r3]
 1398 027c FB66     	 str r3,[r7,#108]
 719:../Dave/Generated/CMSIS_DSP/TransformFunctions/arm_cfft_radix4_f32.c ****       si3 = pCoef[(ia3 * 2u) + 1u];
 1399              	 .loc 1 719 0 discriminator 1
 1400 027e 3B6F     	 ldr r3,[r7,#112]
 1401 0280 DB00     	 lsls r3,r3,#3
 1402 0282 0433     	 adds r3,r3,#4
 1403 0284 3A1D     	 adds r2,r7,#4
 1404 0286 1268     	 ldr r2,[r2]
 1405 0288 1344     	 add r3,r3,r2
 1406 028a 1B68     	 ldr r3,[r3]
 1407 028c BB66     	 str r3,[r7,#104]
 720:../Dave/Generated/CMSIS_DSP/TransformFunctions/arm_cfft_radix4_f32.c **** 
 721:../Dave/Generated/CMSIS_DSP/TransformFunctions/arm_cfft_radix4_f32.c ****       Xb12_out = Xb12C_out * co1;
 1408              	 .loc 1 721 0 discriminator 1
 1409 028e 97ED247A 	 flds s14,[r7,#144]
 1410 0292 D7ED1E7A 	 flds s15,[r7,#120]
 1411 0296 67EE277A 	 fmuls s15,s14,s15
 1412 029a C7ED197A 	 fsts s15,[r7,#100]
 722:../Dave/Generated/CMSIS_DSP/TransformFunctions/arm_cfft_radix4_f32.c ****       Yb12_out = Yb12C_out * co1;
 1413              	 .loc 1 722 0 discriminator 1
 1414 029e 97ED237A 	 flds s14,[r7,#140]
 1415 02a2 D7ED1E7A 	 flds s15,[r7,#120]
 1416 02a6 67EE277A 	 fmuls s15,s14,s15
 1417 02aa C7ED187A 	 fsts s15,[r7,#96]
 723:../Dave/Generated/CMSIS_DSP/TransformFunctions/arm_cfft_radix4_f32.c ****       Xc12_out = Xc12C_out * co2;
 1418              	 .loc 1 723 0 discriminator 1
 1419 02ae 97ED227A 	 flds s14,[r7,#136]
 1420 02b2 D7ED2A7A 	 flds s15,[r7,#168]
 1421 02b6 67EE277A 	 fmuls s15,s14,s15
 1422 02ba C7ED177A 	 fsts s15,[r7,#92]
 724:../Dave/Generated/CMSIS_DSP/TransformFunctions/arm_cfft_radix4_f32.c ****       Yc12_out = Yc12C_out * co2;
 1423              	 .loc 1 724 0 discriminator 1
 1424 02be 97ED217A 	 flds s14,[r7,#132]
 1425 02c2 D7ED2A7A 	 flds s15,[r7,#168]
 1426 02c6 67EE277A 	 fmuls s15,s14,s15
 1427 02ca C7ED167A 	 fsts s15,[r7,#88]
 725:../Dave/Generated/CMSIS_DSP/TransformFunctions/arm_cfft_radix4_f32.c ****       Xd12_out = Xd12C_out * co3;
 1428              	 .loc 1 725 0 discriminator 1
 1429 02ce 97ED207A 	 flds s14,[r7,#128]
 1430 02d2 D7ED1B7A 	 flds s15,[r7,#108]
 1431 02d6 67EE277A 	 fmuls s15,s14,s15
 1432 02da C7ED157A 	 fsts s15,[r7,#84]
 726:../Dave/Generated/CMSIS_DSP/TransformFunctions/arm_cfft_radix4_f32.c ****       Yd12_out = Yd12C_out * co3;
 1433              	 .loc 1 726 0 discriminator 1
 1434 02de 97ED1F7A 	 flds s14,[r7,#124]
 1435 02e2 D7ED1B7A 	 flds s15,[r7,#108]
 1436 02e6 67EE277A 	 fmuls s15,s14,s15
 1437 02ea C7ED147A 	 fsts s15,[r7,#80]
 727:../Dave/Generated/CMSIS_DSP/TransformFunctions/arm_cfft_radix4_f32.c **** 
 728:../Dave/Generated/CMSIS_DSP/TransformFunctions/arm_cfft_radix4_f32.c ****       /* xb' = (xa+yb-xc-yd)co1 - (ya-xb-yc+xd)(si1) */
 729:../Dave/Generated/CMSIS_DSP/TransformFunctions/arm_cfft_radix4_f32.c ****       //Xb12_out -= Yb12C_out * si1;
 730:../Dave/Generated/CMSIS_DSP/TransformFunctions/arm_cfft_radix4_f32.c ****       p0 = Yb12C_out * si1;
 1438              	 .loc 1 730 0 discriminator 1
 1439 02ee 97ED237A 	 flds s14,[r7,#140]
 1440 02f2 D7ED1D7A 	 flds s15,[r7,#116]
 1441 02f6 67EE277A 	 fmuls s15,s14,s15
 1442 02fa C7ED137A 	 fsts s15,[r7,#76]
 731:../Dave/Generated/CMSIS_DSP/TransformFunctions/arm_cfft_radix4_f32.c ****       /* yb' = (ya-xb-yc+xd)co1 + (xa+yb-xc-yd)(si1) */
 732:../Dave/Generated/CMSIS_DSP/TransformFunctions/arm_cfft_radix4_f32.c ****       //Yb12_out += Xb12C_out * si1;
 733:../Dave/Generated/CMSIS_DSP/TransformFunctions/arm_cfft_radix4_f32.c ****       p1 = Xb12C_out * si1;
 1443              	 .loc 1 733 0 discriminator 1
 1444 02fe 97ED247A 	 flds s14,[r7,#144]
 1445 0302 D7ED1D7A 	 flds s15,[r7,#116]
 1446 0306 67EE277A 	 fmuls s15,s14,s15
 1447 030a C7ED127A 	 fsts s15,[r7,#72]
 734:../Dave/Generated/CMSIS_DSP/TransformFunctions/arm_cfft_radix4_f32.c ****       /* xc' = (xa-xb+xc-xd)co2 - (ya-yb+yc-yd)(si2) */
 735:../Dave/Generated/CMSIS_DSP/TransformFunctions/arm_cfft_radix4_f32.c ****       //Xc12_out -= Yc12C_out * si2;
 736:../Dave/Generated/CMSIS_DSP/TransformFunctions/arm_cfft_radix4_f32.c ****       p2 = Yc12C_out * si2;
 1448              	 .loc 1 736 0 discriminator 1
 1449 030e 97ED217A 	 flds s14,[r7,#132]
 1450 0312 D7ED297A 	 flds s15,[r7,#164]
 1451 0316 67EE277A 	 fmuls s15,s14,s15
 1452 031a C7ED117A 	 fsts s15,[r7,#68]
 737:../Dave/Generated/CMSIS_DSP/TransformFunctions/arm_cfft_radix4_f32.c ****       /* yc' = (ya-yb+yc-yd)co2 + (xa-xb+xc-xd)(si2) */
 738:../Dave/Generated/CMSIS_DSP/TransformFunctions/arm_cfft_radix4_f32.c ****       //Yc12_out += Xc12C_out * si2;
 739:../Dave/Generated/CMSIS_DSP/TransformFunctions/arm_cfft_radix4_f32.c ****       p3 = Xc12C_out * si2;
 1453              	 .loc 1 739 0 discriminator 1
 1454 031e 97ED227A 	 flds s14,[r7,#136]
 1455 0322 D7ED297A 	 flds s15,[r7,#164]
 1456 0326 67EE277A 	 fmuls s15,s14,s15
 1457 032a C7ED107A 	 fsts s15,[r7,#64]
 740:../Dave/Generated/CMSIS_DSP/TransformFunctions/arm_cfft_radix4_f32.c ****       /* xd' = (xa-yb-xc+yd)co3 - (ya+xb-yc-xd)(si3) */
 741:../Dave/Generated/CMSIS_DSP/TransformFunctions/arm_cfft_radix4_f32.c ****       //Xd12_out -= Yd12C_out * si3;
 742:../Dave/Generated/CMSIS_DSP/TransformFunctions/arm_cfft_radix4_f32.c ****       p4 = Yd12C_out * si3;
 1458              	 .loc 1 742 0 discriminator 1
 1459 032e 97ED1F7A 	 flds s14,[r7,#124]
 1460 0332 D7ED1A7A 	 flds s15,[r7,#104]
 1461 0336 67EE277A 	 fmuls s15,s14,s15
 1462 033a C7ED0F7A 	 fsts s15,[r7,#60]
 743:../Dave/Generated/CMSIS_DSP/TransformFunctions/arm_cfft_radix4_f32.c ****       /* yd' = (ya+xb-yc-xd)co3 + (xa-yb-xc+yd)(si3) */
 744:../Dave/Generated/CMSIS_DSP/TransformFunctions/arm_cfft_radix4_f32.c ****       //Yd12_out += Xd12C_out * si3;
 745:../Dave/Generated/CMSIS_DSP/TransformFunctions/arm_cfft_radix4_f32.c ****       p5 = Xd12C_out * si3;
 1463              	 .loc 1 745 0 discriminator 1
 1464 033e 97ED207A 	 flds s14,[r7,#128]
 1465 0342 D7ED1A7A 	 flds s15,[r7,#104]
 1466 0346 67EE277A 	 fmuls s15,s14,s15
 1467 034a C7ED0E7A 	 fsts s15,[r7,#56]
 746:../Dave/Generated/CMSIS_DSP/TransformFunctions/arm_cfft_radix4_f32.c **** 
 747:../Dave/Generated/CMSIS_DSP/TransformFunctions/arm_cfft_radix4_f32.c ****       Xb12_out -= p0;
 1468              	 .loc 1 747 0 discriminator 1
 1469 034e 97ED197A 	 flds s14,[r7,#100]
 1470 0352 D7ED137A 	 flds s15,[r7,#76]
 1471 0356 77EE677A 	 fsubs s15,s14,s15
 1472 035a C7ED197A 	 fsts s15,[r7,#100]
 748:../Dave/Generated/CMSIS_DSP/TransformFunctions/arm_cfft_radix4_f32.c ****       Yb12_out += p1;
 1473              	 .loc 1 748 0 discriminator 1
 1474 035e 97ED187A 	 flds s14,[r7,#96]
 1475 0362 D7ED127A 	 flds s15,[r7,#72]
 1476 0366 77EE277A 	 fadds s15,s14,s15
 1477 036a C7ED187A 	 fsts s15,[r7,#96]
 749:../Dave/Generated/CMSIS_DSP/TransformFunctions/arm_cfft_radix4_f32.c ****       Xc12_out -= p2;
 1478              	 .loc 1 749 0 discriminator 1
 1479 036e 97ED177A 	 flds s14,[r7,#92]
 1480 0372 D7ED117A 	 flds s15,[r7,#68]
 1481 0376 77EE677A 	 fsubs s15,s14,s15
 1482 037a C7ED177A 	 fsts s15,[r7,#92]
 750:../Dave/Generated/CMSIS_DSP/TransformFunctions/arm_cfft_radix4_f32.c ****       Yc12_out += p3;
 1483              	 .loc 1 750 0 discriminator 1
 1484 037e 97ED167A 	 flds s14,[r7,#88]
 1485 0382 D7ED107A 	 flds s15,[r7,#64]
 1486 0386 77EE277A 	 fadds s15,s14,s15
 1487 038a C7ED167A 	 fsts s15,[r7,#88]
 751:../Dave/Generated/CMSIS_DSP/TransformFunctions/arm_cfft_radix4_f32.c ****       Xd12_out -= p4;
 1488              	 .loc 1 751 0 discriminator 1
 1489 038e 97ED157A 	 flds s14,[r7,#84]
 1490 0392 D7ED0F7A 	 flds s15,[r7,#60]
 1491 0396 77EE677A 	 fsubs s15,s14,s15
 1492 039a C7ED157A 	 fsts s15,[r7,#84]
 752:../Dave/Generated/CMSIS_DSP/TransformFunctions/arm_cfft_radix4_f32.c ****       Yd12_out += p5;
 1493              	 .loc 1 752 0 discriminator 1
 1494 039e 97ED147A 	 flds s14,[r7,#80]
 1495 03a2 D7ED0E7A 	 flds s15,[r7,#56]
 1496 03a6 77EE277A 	 fadds s15,s14,s15
 1497 03aa C7ED147A 	 fsts s15,[r7,#80]
 753:../Dave/Generated/CMSIS_DSP/TransformFunctions/arm_cfft_radix4_f32.c **** 
 754:../Dave/Generated/CMSIS_DSP/TransformFunctions/arm_cfft_radix4_f32.c ****       /* xc' = (xa-xb+xc-xd)co2 - (ya-yb+yc-yd)(si2) */
 755:../Dave/Generated/CMSIS_DSP/TransformFunctions/arm_cfft_radix4_f32.c ****       pSrc[2u * i1] = Xc12_out;
 1498              	 .loc 1 755 0 discriminator 1
 1499 03ae D7F8E830 	 ldr r3,[r7,#232]
 1500 03b2 DB00     	 lsls r3,r3,#3
 1501 03b4 FA68     	 ldr r2,[r7,#12]
 1502 03b6 1344     	 add r3,r3,r2
 1503 03b8 FA6D     	 ldr r2,[r7,#92]
 1504 03ba 1A60     	 str r2,[r3]
 756:../Dave/Generated/CMSIS_DSP/TransformFunctions/arm_cfft_radix4_f32.c **** 
 757:../Dave/Generated/CMSIS_DSP/TransformFunctions/arm_cfft_radix4_f32.c ****       /* yc' = (ya-yb+yc-yd)co2 + (xa-xb+xc-xd)(si2) */
 758:../Dave/Generated/CMSIS_DSP/TransformFunctions/arm_cfft_radix4_f32.c ****       pSrc[(2u * i1) + 1u] = Yc12_out;
 1505              	 .loc 1 758 0 discriminator 1
 1506 03bc D7F8E830 	 ldr r3,[r7,#232]
 1507 03c0 DB00     	 lsls r3,r3,#3
 1508 03c2 0433     	 adds r3,r3,#4
 1509 03c4 FA68     	 ldr r2,[r7,#12]
 1510 03c6 1344     	 add r3,r3,r2
 1511 03c8 BA6D     	 ldr r2,[r7,#88]
 1512 03ca 1A60     	 str r2,[r3]
 759:../Dave/Generated/CMSIS_DSP/TransformFunctions/arm_cfft_radix4_f32.c **** 
 760:../Dave/Generated/CMSIS_DSP/TransformFunctions/arm_cfft_radix4_f32.c ****       /* xb' = (xa+yb-xc-yd)co1 - (ya-xb-yc+xd)(si1) */
 761:../Dave/Generated/CMSIS_DSP/TransformFunctions/arm_cfft_radix4_f32.c ****       pSrc[2u * i2] = Xb12_out;
 1513              	 .loc 1 761 0 discriminator 1
 1514 03cc D7F8E430 	 ldr r3,[r7,#228]
 1515 03d0 DB00     	 lsls r3,r3,#3
 1516 03d2 FA68     	 ldr r2,[r7,#12]
 1517 03d4 1344     	 add r3,r3,r2
 1518 03d6 7A6E     	 ldr r2,[r7,#100]
 1519 03d8 1A60     	 str r2,[r3]
 762:../Dave/Generated/CMSIS_DSP/TransformFunctions/arm_cfft_radix4_f32.c **** 
 763:../Dave/Generated/CMSIS_DSP/TransformFunctions/arm_cfft_radix4_f32.c ****       /* yb' = (ya-xb-yc+xd)co1 + (xa+yb-xc-yd)(si1) */
 764:../Dave/Generated/CMSIS_DSP/TransformFunctions/arm_cfft_radix4_f32.c ****       pSrc[(2u * i2) + 1u] = Yb12_out;
 1520              	 .loc 1 764 0 discriminator 1
 1521 03da D7F8E430 	 ldr r3,[r7,#228]
 1522 03de DB00     	 lsls r3,r3,#3
 1523 03e0 0433     	 adds r3,r3,#4
 1524 03e2 FA68     	 ldr r2,[r7,#12]
 1525 03e4 1344     	 add r3,r3,r2
 1526 03e6 3A6E     	 ldr r2,[r7,#96]
 1527 03e8 1A60     	 str r2,[r3]
 765:../Dave/Generated/CMSIS_DSP/TransformFunctions/arm_cfft_radix4_f32.c **** 
 766:../Dave/Generated/CMSIS_DSP/TransformFunctions/arm_cfft_radix4_f32.c ****       /* xd' = (xa-yb-xc+yd)co3 - (ya+xb-yc-xd)(si3) */
 767:../Dave/Generated/CMSIS_DSP/TransformFunctions/arm_cfft_radix4_f32.c ****       pSrc[2u * i3] = Xd12_out;
 1528              	 .loc 1 767 0 discriminator 1
 1529 03ea D7F8E030 	 ldr r3,[r7,#224]
 1530 03ee DB00     	 lsls r3,r3,#3
 1531 03f0 FA68     	 ldr r2,[r7,#12]
 1532 03f2 1344     	 add r3,r3,r2
 1533 03f4 7A6D     	 ldr r2,[r7,#84]
 1534 03f6 1A60     	 str r2,[r3]
 768:../Dave/Generated/CMSIS_DSP/TransformFunctions/arm_cfft_radix4_f32.c **** 
 769:../Dave/Generated/CMSIS_DSP/TransformFunctions/arm_cfft_radix4_f32.c ****       /* yd' = (ya+xb-yc-xd)co3 + (xa-yb-xc+yd)(si3) */
 770:../Dave/Generated/CMSIS_DSP/TransformFunctions/arm_cfft_radix4_f32.c ****       pSrc[(2u * i3) + 1u] = Yd12_out;
 1535              	 .loc 1 770 0 discriminator 1
 1536 03f8 D7F8E030 	 ldr r3,[r7,#224]
 1537 03fc DB00     	 lsls r3,r3,#3
 1538 03fe 0433     	 adds r3,r3,#4
 1539 0400 FA68     	 ldr r2,[r7,#12]
 1540 0402 1344     	 add r3,r3,r2
 1541 0404 3A6D     	 ldr r2,[r7,#80]
 1542 0406 1A60     	 str r2,[r3]
 771:../Dave/Generated/CMSIS_DSP/TransformFunctions/arm_cfft_radix4_f32.c **** 
 772:../Dave/Generated/CMSIS_DSP/TransformFunctions/arm_cfft_radix4_f32.c ****       /*  Twiddle coefficients index modifier */
 773:../Dave/Generated/CMSIS_DSP/TransformFunctions/arm_cfft_radix4_f32.c ****       ia1 = ia1 + twidCoefModifier;
 1543              	 .loc 1 773 0 discriminator 1
 1544 0408 07F10803 	 add r3,r7,#8
 1545 040c 1B88     	 ldrh r3,[r3]
 1546 040e D7F80421 	 ldr r2,[r7,#260]
 1547 0412 1344     	 add r3,r3,r2
 1548 0414 C7F80431 	 str r3,[r7,#260]
 774:../Dave/Generated/CMSIS_DSP/TransformFunctions/arm_cfft_radix4_f32.c **** 
 775:../Dave/Generated/CMSIS_DSP/TransformFunctions/arm_cfft_radix4_f32.c ****       /*  Updating input index */
 776:../Dave/Generated/CMSIS_DSP/TransformFunctions/arm_cfft_radix4_f32.c ****       i0 = i0 + 1u;
 1549              	 .loc 1 776 0 discriminator 1
 1550 0418 D7F80031 	 ldr r3,[r7,#256]
 1551 041c 0133     	 adds r3,r3,#1
 1552 041e C7F80031 	 str r3,[r7,#256]
 777:../Dave/Generated/CMSIS_DSP/TransformFunctions/arm_cfft_radix4_f32.c **** 
 778:../Dave/Generated/CMSIS_DSP/TransformFunctions/arm_cfft_radix4_f32.c ****    } while (--j);
 1553              	 .loc 1 778 0 discriminator 1
 1554 0422 D7F8F830 	 ldr r3,[r7,#248]
 1555 0426 013B     	 subs r3,r3,#1
 1556 0428 C7F8F830 	 str r3,[r7,#248]
 1557 042c D7F8F830 	 ldr r3,[r7,#248]
 1558 0430 002B     	 cmp r3,#0
 1559 0432 7FF408AE 	 bne .L13
 779:../Dave/Generated/CMSIS_DSP/TransformFunctions/arm_cfft_radix4_f32.c **** 
 780:../Dave/Generated/CMSIS_DSP/TransformFunctions/arm_cfft_radix4_f32.c ****    twidCoefModifier <<= 2u;
 1560              	 .loc 1 780 0
 1561 0436 07F10803 	 add r3,r7,#8
 1562 043a 07F10802 	 add r2,r7,#8
 1563 043e 1288     	 ldrh r2,[r2]
 1564 0440 9200     	 lsls r2,r2,#2
 1565 0442 1A80     	 strh r2,[r3]
 781:../Dave/Generated/CMSIS_DSP/TransformFunctions/arm_cfft_radix4_f32.c **** 
 782:../Dave/Generated/CMSIS_DSP/TransformFunctions/arm_cfft_radix4_f32.c ****    /*  Calculation of second stage to excluding last stage */
 783:../Dave/Generated/CMSIS_DSP/TransformFunctions/arm_cfft_radix4_f32.c ****    for (k = fftLen >> 2u; k > 4u; k >>= 2u)
 1566              	 .loc 1 783 0
 1567 0444 7B89     	 ldrh r3,[r7,#10]
 1568 0446 9B08     	 lsrs r3,r3,#2
 1569 0448 9BB2     	 uxth r3,r3
 1570 044a C7F8F430 	 str r3,[r7,#244]
 1571 044e 21E2     	 b .L14
 1572              	.L17:
 784:../Dave/Generated/CMSIS_DSP/TransformFunctions/arm_cfft_radix4_f32.c ****    {
 785:../Dave/Generated/CMSIS_DSP/TransformFunctions/arm_cfft_radix4_f32.c ****       /*  Initializations for the first stage */
 786:../Dave/Generated/CMSIS_DSP/TransformFunctions/arm_cfft_radix4_f32.c ****       n1 = n2;
 1573              	 .loc 1 786 0
 1574 0450 D7F8FC30 	 ldr r3,[r7,#252]
 1575 0454 C7F8EC30 	 str r3,[r7,#236]
 787:../Dave/Generated/CMSIS_DSP/TransformFunctions/arm_cfft_radix4_f32.c ****       n2 >>= 2u;
 1576              	 .loc 1 787 0
 1577 0458 D7F8FC30 	 ldr r3,[r7,#252]
 1578 045c 9B08     	 lsrs r3,r3,#2
 1579 045e C7F8FC30 	 str r3,[r7,#252]
 788:../Dave/Generated/CMSIS_DSP/TransformFunctions/arm_cfft_radix4_f32.c ****       ia1 = 0u;
 1580              	 .loc 1 788 0
 1581 0462 0023     	 movs r3,#0
 1582 0464 C7F80431 	 str r3,[r7,#260]
 789:../Dave/Generated/CMSIS_DSP/TransformFunctions/arm_cfft_radix4_f32.c **** 
 790:../Dave/Generated/CMSIS_DSP/TransformFunctions/arm_cfft_radix4_f32.c ****       /*  Calculation of first stage */
 791:../Dave/Generated/CMSIS_DSP/TransformFunctions/arm_cfft_radix4_f32.c ****       j = 0;
 1583              	 .loc 1 791 0
 1584 0468 0023     	 movs r3,#0
 1585 046a C7F8F830 	 str r3,[r7,#248]
 1586              	.L16:
 792:../Dave/Generated/CMSIS_DSP/TransformFunctions/arm_cfft_radix4_f32.c ****       do
 793:../Dave/Generated/CMSIS_DSP/TransformFunctions/arm_cfft_radix4_f32.c ****       {
 794:../Dave/Generated/CMSIS_DSP/TransformFunctions/arm_cfft_radix4_f32.c ****          /*  index calculation for the coefficients */
 795:../Dave/Generated/CMSIS_DSP/TransformFunctions/arm_cfft_radix4_f32.c ****          ia2 = ia1 + ia1;
 1587              	 .loc 1 795 0
 1588 046e D7F80421 	 ldr r2,[r7,#260]
 1589 0472 D7F80431 	 ldr r3,[r7,#260]
 1590 0476 1344     	 add r3,r3,r2
 1591 0478 C7F8AC30 	 str r3,[r7,#172]
 796:../Dave/Generated/CMSIS_DSP/TransformFunctions/arm_cfft_radix4_f32.c ****          ia3 = ia2 + ia1;
 1592              	 .loc 1 796 0
 1593 047c D7F8AC20 	 ldr r2,[r7,#172]
 1594 0480 D7F80431 	 ldr r3,[r7,#260]
 1595 0484 1344     	 add r3,r3,r2
 1596 0486 3B67     	 str r3,[r7,#112]
 797:../Dave/Generated/CMSIS_DSP/TransformFunctions/arm_cfft_radix4_f32.c ****          co1 = pCoef[ia1 * 2u];
 1597              	 .loc 1 797 0
 1598 0488 D7F80431 	 ldr r3,[r7,#260]
 1599 048c DB00     	 lsls r3,r3,#3
 1600 048e 3A1D     	 adds r2,r7,#4
 1601 0490 1268     	 ldr r2,[r2]
 1602 0492 1344     	 add r3,r3,r2
 1603 0494 1B68     	 ldr r3,[r3]
 1604 0496 BB67     	 str r3,[r7,#120]
 798:../Dave/Generated/CMSIS_DSP/TransformFunctions/arm_cfft_radix4_f32.c ****          si1 = pCoef[(ia1 * 2u) + 1u];
 1605              	 .loc 1 798 0
 1606 0498 D7F80431 	 ldr r3,[r7,#260]
 1607 049c DB00     	 lsls r3,r3,#3
 1608 049e 0433     	 adds r3,r3,#4
 1609 04a0 3A1D     	 adds r2,r7,#4
 1610 04a2 1268     	 ldr r2,[r2]
 1611 04a4 1344     	 add r3,r3,r2
 1612 04a6 1B68     	 ldr r3,[r3]
 1613 04a8 7B67     	 str r3,[r7,#116]
 799:../Dave/Generated/CMSIS_DSP/TransformFunctions/arm_cfft_radix4_f32.c ****          co2 = pCoef[ia2 * 2u];
 1614              	 .loc 1 799 0
 1615 04aa D7F8AC30 	 ldr r3,[r7,#172]
 1616 04ae DB00     	 lsls r3,r3,#3
 1617 04b0 3A1D     	 adds r2,r7,#4
 1618 04b2 1268     	 ldr r2,[r2]
 1619 04b4 1344     	 add r3,r3,r2
 1620 04b6 1B68     	 ldr r3,[r3]
 1621 04b8 C7F8A830 	 str r3,[r7,#168]
 800:../Dave/Generated/CMSIS_DSP/TransformFunctions/arm_cfft_radix4_f32.c ****          si2 = pCoef[(ia2 * 2u) + 1u];
 1622              	 .loc 1 800 0
 1623 04bc D7F8AC30 	 ldr r3,[r7,#172]
 1624 04c0 DB00     	 lsls r3,r3,#3
 1625 04c2 0433     	 adds r3,r3,#4
 1626 04c4 3A1D     	 adds r2,r7,#4
 1627 04c6 1268     	 ldr r2,[r2]
 1628 04c8 1344     	 add r3,r3,r2
 1629 04ca 1B68     	 ldr r3,[r3]
 1630 04cc C7F8A430 	 str r3,[r7,#164]
 801:../Dave/Generated/CMSIS_DSP/TransformFunctions/arm_cfft_radix4_f32.c ****          co3 = pCoef[ia3 * 2u];
 1631              	 .loc 1 801 0
 1632 04d0 3B6F     	 ldr r3,[r7,#112]
 1633 04d2 DB00     	 lsls r3,r3,#3
 1634 04d4 3A1D     	 adds r2,r7,#4
 1635 04d6 1268     	 ldr r2,[r2]
 1636 04d8 1344     	 add r3,r3,r2
 1637 04da 1B68     	 ldr r3,[r3]
 1638 04dc FB66     	 str r3,[r7,#108]
 802:../Dave/Generated/CMSIS_DSP/TransformFunctions/arm_cfft_radix4_f32.c ****          si3 = pCoef[(ia3 * 2u) + 1u];
 1639              	 .loc 1 802 0
 1640 04de 3B6F     	 ldr r3,[r7,#112]
 1641 04e0 DB00     	 lsls r3,r3,#3
 1642 04e2 0433     	 adds r3,r3,#4
 1643 04e4 3A1D     	 adds r2,r7,#4
 1644 04e6 1268     	 ldr r2,[r2]
 1645 04e8 1344     	 add r3,r3,r2
 1646 04ea 1B68     	 ldr r3,[r3]
 1647 04ec BB66     	 str r3,[r7,#104]
 803:../Dave/Generated/CMSIS_DSP/TransformFunctions/arm_cfft_radix4_f32.c **** 
 804:../Dave/Generated/CMSIS_DSP/TransformFunctions/arm_cfft_radix4_f32.c ****          /*  Twiddle coefficients index modifier */
 805:../Dave/Generated/CMSIS_DSP/TransformFunctions/arm_cfft_radix4_f32.c ****          ia1 = ia1 + twidCoefModifier;
 1648              	 .loc 1 805 0
 1649 04ee 07F10803 	 add r3,r7,#8
 1650 04f2 1B88     	 ldrh r3,[r3]
 1651 04f4 D7F80421 	 ldr r2,[r7,#260]
 1652 04f8 1344     	 add r3,r3,r2
 1653 04fa C7F80431 	 str r3,[r7,#260]
 806:../Dave/Generated/CMSIS_DSP/TransformFunctions/arm_cfft_radix4_f32.c **** 
 807:../Dave/Generated/CMSIS_DSP/TransformFunctions/arm_cfft_radix4_f32.c ****          i0 = j;
 1654              	 .loc 1 807 0
 1655 04fe D7F8F830 	 ldr r3,[r7,#248]
 1656 0502 C7F80031 	 str r3,[r7,#256]
 1657              	.L15:
 808:../Dave/Generated/CMSIS_DSP/TransformFunctions/arm_cfft_radix4_f32.c ****          do
 809:../Dave/Generated/CMSIS_DSP/TransformFunctions/arm_cfft_radix4_f32.c ****          {
 810:../Dave/Generated/CMSIS_DSP/TransformFunctions/arm_cfft_radix4_f32.c ****             /*  index calculation for the input as, */
 811:../Dave/Generated/CMSIS_DSP/TransformFunctions/arm_cfft_radix4_f32.c ****             /*  pSrc[i0 + 0], pSrc[i0 + fftLen/4], pSrc[i0 + fftLen/2], pSrc[i0 + 3fftLen/4] */
 812:../Dave/Generated/CMSIS_DSP/TransformFunctions/arm_cfft_radix4_f32.c ****             i1 = i0 + n2;
 1658              	 .loc 1 812 0 discriminator 1
 1659 0506 D7F80021 	 ldr r2,[r7,#256]
 1660 050a D7F8FC30 	 ldr r3,[r7,#252]
 1661 050e 1344     	 add r3,r3,r2
 1662 0510 C7F8E830 	 str r3,[r7,#232]
 813:../Dave/Generated/CMSIS_DSP/TransformFunctions/arm_cfft_radix4_f32.c ****             i2 = i1 + n2;
 1663              	 .loc 1 813 0 discriminator 1
 1664 0514 D7F8E820 	 ldr r2,[r7,#232]
 1665 0518 D7F8FC30 	 ldr r3,[r7,#252]
 1666 051c 1344     	 add r3,r3,r2
 1667 051e C7F8E430 	 str r3,[r7,#228]
 814:../Dave/Generated/CMSIS_DSP/TransformFunctions/arm_cfft_radix4_f32.c ****             i3 = i2 + n2;
 1668              	 .loc 1 814 0 discriminator 1
 1669 0522 D7F8E420 	 ldr r2,[r7,#228]
 1670 0526 D7F8FC30 	 ldr r3,[r7,#252]
 1671 052a 1344     	 add r3,r3,r2
 1672 052c C7F8E030 	 str r3,[r7,#224]
 815:../Dave/Generated/CMSIS_DSP/TransformFunctions/arm_cfft_radix4_f32.c **** 
 816:../Dave/Generated/CMSIS_DSP/TransformFunctions/arm_cfft_radix4_f32.c ****             xaIn = pSrc[(2u * i0)];
 1673              	 .loc 1 816 0 discriminator 1
 1674 0530 D7F80031 	 ldr r3,[r7,#256]
 1675 0534 DB00     	 lsls r3,r3,#3
 1676 0536 FA68     	 ldr r2,[r7,#12]
 1677 0538 1344     	 add r3,r3,r2
 1678 053a 1B68     	 ldr r3,[r3]
 1679 053c C7F8DC30 	 str r3,[r7,#220]
 817:../Dave/Generated/CMSIS_DSP/TransformFunctions/arm_cfft_radix4_f32.c ****             yaIn = pSrc[(2u * i0) + 1u];
 1680              	 .loc 1 817 0 discriminator 1
 1681 0540 D7F80031 	 ldr r3,[r7,#256]
 1682 0544 DB00     	 lsls r3,r3,#3
 1683 0546 0433     	 adds r3,r3,#4
 1684 0548 FA68     	 ldr r2,[r7,#12]
 1685 054a 1344     	 add r3,r3,r2
 1686 054c 1B68     	 ldr r3,[r3]
 1687 054e C7F8D830 	 str r3,[r7,#216]
 818:../Dave/Generated/CMSIS_DSP/TransformFunctions/arm_cfft_radix4_f32.c **** 
 819:../Dave/Generated/CMSIS_DSP/TransformFunctions/arm_cfft_radix4_f32.c ****             xbIn = pSrc[(2u * i1)];
 1688              	 .loc 1 819 0 discriminator 1
 1689 0552 D7F8E830 	 ldr r3,[r7,#232]
 1690 0556 DB00     	 lsls r3,r3,#3
 1691 0558 FA68     	 ldr r2,[r7,#12]
 1692 055a 1344     	 add r3,r3,r2
 1693 055c 1B68     	 ldr r3,[r3]
 1694 055e C7F8CC30 	 str r3,[r7,#204]
 820:../Dave/Generated/CMSIS_DSP/TransformFunctions/arm_cfft_radix4_f32.c ****             ybIn = pSrc[(2u * i1) + 1u];
 1695              	 .loc 1 820 0 discriminator 1
 1696 0562 D7F8E830 	 ldr r3,[r7,#232]
 1697 0566 DB00     	 lsls r3,r3,#3
 1698 0568 0433     	 adds r3,r3,#4
 1699 056a FA68     	 ldr r2,[r7,#12]
 1700 056c 1344     	 add r3,r3,r2
 1701 056e 1B68     	 ldr r3,[r3]
 1702 0570 C7F8C830 	 str r3,[r7,#200]
 821:../Dave/Generated/CMSIS_DSP/TransformFunctions/arm_cfft_radix4_f32.c **** 
 822:../Dave/Generated/CMSIS_DSP/TransformFunctions/arm_cfft_radix4_f32.c ****             xcIn = pSrc[(2u * i2)];
 1703              	 .loc 1 822 0 discriminator 1
 1704 0574 D7F8E430 	 ldr r3,[r7,#228]
 1705 0578 DB00     	 lsls r3,r3,#3
 1706 057a FA68     	 ldr r2,[r7,#12]
 1707 057c 1344     	 add r3,r3,r2
 1708 057e 1B68     	 ldr r3,[r3]
 1709 0580 C7F8D430 	 str r3,[r7,#212]
 823:../Dave/Generated/CMSIS_DSP/TransformFunctions/arm_cfft_radix4_f32.c ****             ycIn = pSrc[(2u * i2) + 1u];
 1710              	 .loc 1 823 0 discriminator 1
 1711 0584 D7F8E430 	 ldr r3,[r7,#228]
 1712 0588 DB00     	 lsls r3,r3,#3
 1713 058a 0433     	 adds r3,r3,#4
 1714 058c FA68     	 ldr r2,[r7,#12]
 1715 058e 1344     	 add r3,r3,r2
 1716 0590 1B68     	 ldr r3,[r3]
 1717 0592 C7F8D030 	 str r3,[r7,#208]
 824:../Dave/Generated/CMSIS_DSP/TransformFunctions/arm_cfft_radix4_f32.c **** 
 825:../Dave/Generated/CMSIS_DSP/TransformFunctions/arm_cfft_radix4_f32.c ****             xdIn = pSrc[(2u * i3)];
 1718              	 .loc 1 825 0 discriminator 1
 1719 0596 D7F8E030 	 ldr r3,[r7,#224]
 1720 059a DB00     	 lsls r3,r3,#3
 1721 059c FA68     	 ldr r2,[r7,#12]
 1722 059e 1344     	 add r3,r3,r2
 1723 05a0 1B68     	 ldr r3,[r3]
 1724 05a2 C7F8C430 	 str r3,[r7,#196]
 826:../Dave/Generated/CMSIS_DSP/TransformFunctions/arm_cfft_radix4_f32.c ****             ydIn = pSrc[(2u * i3) + 1u];
 1725              	 .loc 1 826 0 discriminator 1
 1726 05a6 D7F8E030 	 ldr r3,[r7,#224]
 1727 05aa DB00     	 lsls r3,r3,#3
 1728 05ac 0433     	 adds r3,r3,#4
 1729 05ae FA68     	 ldr r2,[r7,#12]
 1730 05b0 1344     	 add r3,r3,r2
 1731 05b2 1B68     	 ldr r3,[r3]
 1732 05b4 C7F8C030 	 str r3,[r7,#192]
 827:../Dave/Generated/CMSIS_DSP/TransformFunctions/arm_cfft_radix4_f32.c **** 
 828:../Dave/Generated/CMSIS_DSP/TransformFunctions/arm_cfft_radix4_f32.c ****             /* xa - xc */
 829:../Dave/Generated/CMSIS_DSP/TransformFunctions/arm_cfft_radix4_f32.c ****             Xaminusc = xaIn - xcIn;
 1733              	 .loc 1 829 0 discriminator 1
 1734 05b8 97ED377A 	 flds s14,[r7,#220]
 1735 05bc D7ED357A 	 flds s15,[r7,#212]
 1736 05c0 77EE677A 	 fsubs s15,s14,s15
 1737 05c4 C7ED287A 	 fsts s15,[r7,#160]
 830:../Dave/Generated/CMSIS_DSP/TransformFunctions/arm_cfft_radix4_f32.c ****             /* (xb - xd) */
 831:../Dave/Generated/CMSIS_DSP/TransformFunctions/arm_cfft_radix4_f32.c ****             Xbminusd = xbIn - xdIn;
 1738              	 .loc 1 831 0 discriminator 1
 1739 05c8 97ED337A 	 flds s14,[r7,#204]
 1740 05cc D7ED317A 	 flds s15,[r7,#196]
 1741 05d0 77EE677A 	 fsubs s15,s14,s15
 1742 05d4 C7ED277A 	 fsts s15,[r7,#156]
 832:../Dave/Generated/CMSIS_DSP/TransformFunctions/arm_cfft_radix4_f32.c ****             /* ya - yc */
 833:../Dave/Generated/CMSIS_DSP/TransformFunctions/arm_cfft_radix4_f32.c ****             Yaminusc = yaIn - ycIn;
 1743              	 .loc 1 833 0 discriminator 1
 1744 05d8 97ED367A 	 flds s14,[r7,#216]
 1745 05dc D7ED347A 	 flds s15,[r7,#208]
 1746 05e0 77EE677A 	 fsubs s15,s14,s15
 1747 05e4 C7ED267A 	 fsts s15,[r7,#152]
 834:../Dave/Generated/CMSIS_DSP/TransformFunctions/arm_cfft_radix4_f32.c ****             /* (yb - yd) */
 835:../Dave/Generated/CMSIS_DSP/TransformFunctions/arm_cfft_radix4_f32.c ****             Ybminusd = ybIn - ydIn;
 1748              	 .loc 1 835 0 discriminator 1
 1749 05e8 97ED327A 	 flds s14,[r7,#200]
 1750 05ec D7ED307A 	 flds s15,[r7,#192]
 1751 05f0 77EE677A 	 fsubs s15,s14,s15
 1752 05f4 C7ED257A 	 fsts s15,[r7,#148]
 836:../Dave/Generated/CMSIS_DSP/TransformFunctions/arm_cfft_radix4_f32.c **** 
 837:../Dave/Generated/CMSIS_DSP/TransformFunctions/arm_cfft_radix4_f32.c ****             /* xa + xc */
 838:../Dave/Generated/CMSIS_DSP/TransformFunctions/arm_cfft_radix4_f32.c ****             Xaplusc = xaIn + xcIn;
 1753              	 .loc 1 838 0 discriminator 1
 1754 05f8 97ED377A 	 flds s14,[r7,#220]
 1755 05fc D7ED357A 	 flds s15,[r7,#212]
 1756 0600 77EE277A 	 fadds s15,s14,s15
 1757 0604 C7ED2F7A 	 fsts s15,[r7,#188]
 839:../Dave/Generated/CMSIS_DSP/TransformFunctions/arm_cfft_radix4_f32.c ****             /* xb + xd */
 840:../Dave/Generated/CMSIS_DSP/TransformFunctions/arm_cfft_radix4_f32.c ****             Xbplusd = xbIn + xdIn;
 1758              	 .loc 1 840 0 discriminator 1
 1759 0608 97ED337A 	 flds s14,[r7,#204]
 1760 060c D7ED317A 	 flds s15,[r7,#196]
 1761 0610 77EE277A 	 fadds s15,s14,s15
 1762 0614 C7ED2E7A 	 fsts s15,[r7,#184]
 841:../Dave/Generated/CMSIS_DSP/TransformFunctions/arm_cfft_radix4_f32.c ****             /* ya + yc */
 842:../Dave/Generated/CMSIS_DSP/TransformFunctions/arm_cfft_radix4_f32.c ****             Yaplusc = yaIn + ycIn;
 1763              	 .loc 1 842 0 discriminator 1
 1764 0618 97ED367A 	 flds s14,[r7,#216]
 1765 061c D7ED347A 	 flds s15,[r7,#208]
 1766 0620 77EE277A 	 fadds s15,s14,s15
 1767 0624 C7ED2D7A 	 fsts s15,[r7,#180]
 843:../Dave/Generated/CMSIS_DSP/TransformFunctions/arm_cfft_radix4_f32.c ****             /* yb + yd */
 844:../Dave/Generated/CMSIS_DSP/TransformFunctions/arm_cfft_radix4_f32.c ****             Ybplusd = ybIn + ydIn;
 1768              	 .loc 1 844 0 discriminator 1
 1769 0628 97ED327A 	 flds s14,[r7,#200]
 1770 062c D7ED307A 	 flds s15,[r7,#192]
 1771 0630 77EE277A 	 fadds s15,s14,s15
 1772 0634 C7ED2C7A 	 fsts s15,[r7,#176]
 845:../Dave/Generated/CMSIS_DSP/TransformFunctions/arm_cfft_radix4_f32.c **** 
 846:../Dave/Generated/CMSIS_DSP/TransformFunctions/arm_cfft_radix4_f32.c ****             /* (xa - xc) - (yb - yd) */
 847:../Dave/Generated/CMSIS_DSP/TransformFunctions/arm_cfft_radix4_f32.c ****             Xb12C_out = (Xaminusc - Ybminusd);
 1773              	 .loc 1 847 0 discriminator 1
 1774 0638 97ED287A 	 flds s14,[r7,#160]
 1775 063c D7ED257A 	 flds s15,[r7,#148]
 1776 0640 77EE677A 	 fsubs s15,s14,s15
 1777 0644 C7ED247A 	 fsts s15,[r7,#144]
 848:../Dave/Generated/CMSIS_DSP/TransformFunctions/arm_cfft_radix4_f32.c ****             /* (ya - yc) +  (xb - xd) */
 849:../Dave/Generated/CMSIS_DSP/TransformFunctions/arm_cfft_radix4_f32.c ****             Yb12C_out = (Yaminusc + Xbminusd);
 1778              	 .loc 1 849 0 discriminator 1
 1779 0648 97ED267A 	 flds s14,[r7,#152]
 1780 064c D7ED277A 	 flds s15,[r7,#156]
 1781 0650 77EE277A 	 fadds s15,s14,s15
 1782 0654 C7ED237A 	 fsts s15,[r7,#140]
 850:../Dave/Generated/CMSIS_DSP/TransformFunctions/arm_cfft_radix4_f32.c ****             /* xa + xc -(xb + xd) */
 851:../Dave/Generated/CMSIS_DSP/TransformFunctions/arm_cfft_radix4_f32.c ****             Xc12C_out = (Xaplusc - Xbplusd);
 1783              	 .loc 1 851 0 discriminator 1
 1784 0658 97ED2F7A 	 flds s14,[r7,#188]
 1785 065c D7ED2E7A 	 flds s15,[r7,#184]
 1786 0660 77EE677A 	 fsubs s15,s14,s15
 1787 0664 C7ED227A 	 fsts s15,[r7,#136]
 852:../Dave/Generated/CMSIS_DSP/TransformFunctions/arm_cfft_radix4_f32.c ****             /* (ya + yc) - (yb + yd) */
 853:../Dave/Generated/CMSIS_DSP/TransformFunctions/arm_cfft_radix4_f32.c ****             Yc12C_out = (Yaplusc - Ybplusd);
 1788              	 .loc 1 853 0 discriminator 1
 1789 0668 97ED2D7A 	 flds s14,[r7,#180]
 1790 066c D7ED2C7A 	 flds s15,[r7,#176]
 1791 0670 77EE677A 	 fsubs s15,s14,s15
 1792 0674 C7ED217A 	 fsts s15,[r7,#132]
 854:../Dave/Generated/CMSIS_DSP/TransformFunctions/arm_cfft_radix4_f32.c ****             /* (xa - xc) + (yb - yd) */
 855:../Dave/Generated/CMSIS_DSP/TransformFunctions/arm_cfft_radix4_f32.c ****             Xd12C_out = (Xaminusc + Ybminusd);
 1793              	 .loc 1 855 0 discriminator 1
 1794 0678 97ED287A 	 flds s14,[r7,#160]
 1795 067c D7ED257A 	 flds s15,[r7,#148]
 1796 0680 77EE277A 	 fadds s15,s14,s15
 1797 0684 C7ED207A 	 fsts s15,[r7,#128]
 856:../Dave/Generated/CMSIS_DSP/TransformFunctions/arm_cfft_radix4_f32.c ****             /* (ya - yc) -  (xb - xd) */
 857:../Dave/Generated/CMSIS_DSP/TransformFunctions/arm_cfft_radix4_f32.c ****             Yd12C_out = (Yaminusc - Xbminusd);
 1798              	 .loc 1 857 0 discriminator 1
 1799 0688 97ED267A 	 flds s14,[r7,#152]
 1800 068c D7ED277A 	 flds s15,[r7,#156]
 1801 0690 77EE677A 	 fsubs s15,s14,s15
 1802 0694 C7ED1F7A 	 fsts s15,[r7,#124]
 858:../Dave/Generated/CMSIS_DSP/TransformFunctions/arm_cfft_radix4_f32.c **** 
 859:../Dave/Generated/CMSIS_DSP/TransformFunctions/arm_cfft_radix4_f32.c ****             pSrc[(2u * i0)] = Xaplusc + Xbplusd;
 1803              	 .loc 1 859 0 discriminator 1
 1804 0698 D7F80031 	 ldr r3,[r7,#256]
 1805 069c DB00     	 lsls r3,r3,#3
 1806 069e FA68     	 ldr r2,[r7,#12]
 1807 06a0 1344     	 add r3,r3,r2
 1808 06a2 97ED2F7A 	 flds s14,[r7,#188]
 1809 06a6 D7ED2E7A 	 flds s15,[r7,#184]
 1810 06aa 77EE277A 	 fadds s15,s14,s15
 1811 06ae C3ED007A 	 fsts s15,[r3]
 860:../Dave/Generated/CMSIS_DSP/TransformFunctions/arm_cfft_radix4_f32.c ****             pSrc[(2u * i0) + 1u] = Yaplusc + Ybplusd;
 1812              	 .loc 1 860 0 discriminator 1
 1813 06b2 D7F80031 	 ldr r3,[r7,#256]
 1814 06b6 DB00     	 lsls r3,r3,#3
 1815 06b8 0433     	 adds r3,r3,#4
 1816 06ba FA68     	 ldr r2,[r7,#12]
 1817 06bc 1344     	 add r3,r3,r2
 1818 06be 97ED2D7A 	 flds s14,[r7,#180]
 1819 06c2 D7ED2C7A 	 flds s15,[r7,#176]
 1820 06c6 77EE277A 	 fadds s15,s14,s15
 1821 06ca C3ED007A 	 fsts s15,[r3]
 861:../Dave/Generated/CMSIS_DSP/TransformFunctions/arm_cfft_radix4_f32.c **** 
 862:../Dave/Generated/CMSIS_DSP/TransformFunctions/arm_cfft_radix4_f32.c ****             Xb12_out = Xb12C_out * co1;
 1822              	 .loc 1 862 0 discriminator 1
 1823 06ce 97ED247A 	 flds s14,[r7,#144]
 1824 06d2 D7ED1E7A 	 flds s15,[r7,#120]
 1825 06d6 67EE277A 	 fmuls s15,s14,s15
 1826 06da C7ED197A 	 fsts s15,[r7,#100]
 863:../Dave/Generated/CMSIS_DSP/TransformFunctions/arm_cfft_radix4_f32.c ****             Yb12_out = Yb12C_out * co1;
 1827              	 .loc 1 863 0 discriminator 1
 1828 06de 97ED237A 	 flds s14,[r7,#140]
 1829 06e2 D7ED1E7A 	 flds s15,[r7,#120]
 1830 06e6 67EE277A 	 fmuls s15,s14,s15
 1831 06ea C7ED187A 	 fsts s15,[r7,#96]
 864:../Dave/Generated/CMSIS_DSP/TransformFunctions/arm_cfft_radix4_f32.c ****             Xc12_out = Xc12C_out * co2;
 1832              	 .loc 1 864 0 discriminator 1
 1833 06ee 97ED227A 	 flds s14,[r7,#136]
 1834 06f2 D7ED2A7A 	 flds s15,[r7,#168]
 1835 06f6 67EE277A 	 fmuls s15,s14,s15
 1836 06fa C7ED177A 	 fsts s15,[r7,#92]
 865:../Dave/Generated/CMSIS_DSP/TransformFunctions/arm_cfft_radix4_f32.c ****             Yc12_out = Yc12C_out * co2;
 1837              	 .loc 1 865 0 discriminator 1
 1838 06fe 97ED217A 	 flds s14,[r7,#132]
 1839 0702 D7ED2A7A 	 flds s15,[r7,#168]
 1840 0706 67EE277A 	 fmuls s15,s14,s15
 1841 070a C7ED167A 	 fsts s15,[r7,#88]
 866:../Dave/Generated/CMSIS_DSP/TransformFunctions/arm_cfft_radix4_f32.c ****             Xd12_out = Xd12C_out * co3;
 1842              	 .loc 1 866 0 discriminator 1
 1843 070e 97ED207A 	 flds s14,[r7,#128]
 1844 0712 D7ED1B7A 	 flds s15,[r7,#108]
 1845 0716 67EE277A 	 fmuls s15,s14,s15
 1846 071a C7ED157A 	 fsts s15,[r7,#84]
 867:../Dave/Generated/CMSIS_DSP/TransformFunctions/arm_cfft_radix4_f32.c ****             Yd12_out = Yd12C_out * co3;
 1847              	 .loc 1 867 0 discriminator 1
 1848 071e 97ED1F7A 	 flds s14,[r7,#124]
 1849 0722 D7ED1B7A 	 flds s15,[r7,#108]
 1850 0726 67EE277A 	 fmuls s15,s14,s15
 1851 072a C7ED147A 	 fsts s15,[r7,#80]
 868:../Dave/Generated/CMSIS_DSP/TransformFunctions/arm_cfft_radix4_f32.c **** 
 869:../Dave/Generated/CMSIS_DSP/TransformFunctions/arm_cfft_radix4_f32.c ****             /* xb' = (xa+yb-xc-yd)co1 - (ya-xb-yc+xd)(si1) */
 870:../Dave/Generated/CMSIS_DSP/TransformFunctions/arm_cfft_radix4_f32.c ****             //Xb12_out -= Yb12C_out * si1;
 871:../Dave/Generated/CMSIS_DSP/TransformFunctions/arm_cfft_radix4_f32.c ****             p0 = Yb12C_out * si1;
 1852              	 .loc 1 871 0 discriminator 1
 1853 072e 97ED237A 	 flds s14,[r7,#140]
 1854 0732 D7ED1D7A 	 flds s15,[r7,#116]
 1855 0736 67EE277A 	 fmuls s15,s14,s15
 1856 073a C7ED137A 	 fsts s15,[r7,#76]
 872:../Dave/Generated/CMSIS_DSP/TransformFunctions/arm_cfft_radix4_f32.c ****             /* yb' = (ya-xb-yc+xd)co1 + (xa+yb-xc-yd)(si1) */
 873:../Dave/Generated/CMSIS_DSP/TransformFunctions/arm_cfft_radix4_f32.c ****             //Yb12_out += Xb12C_out * si1;
 874:../Dave/Generated/CMSIS_DSP/TransformFunctions/arm_cfft_radix4_f32.c ****             p1 = Xb12C_out * si1;
 1857              	 .loc 1 874 0 discriminator 1
 1858 073e 97ED247A 	 flds s14,[r7,#144]
 1859 0742 D7ED1D7A 	 flds s15,[r7,#116]
 1860 0746 67EE277A 	 fmuls s15,s14,s15
 1861 074a C7ED127A 	 fsts s15,[r7,#72]
 875:../Dave/Generated/CMSIS_DSP/TransformFunctions/arm_cfft_radix4_f32.c ****             /* xc' = (xa-xb+xc-xd)co2 - (ya-yb+yc-yd)(si2) */
 876:../Dave/Generated/CMSIS_DSP/TransformFunctions/arm_cfft_radix4_f32.c ****             //Xc12_out -= Yc12C_out * si2;
 877:../Dave/Generated/CMSIS_DSP/TransformFunctions/arm_cfft_radix4_f32.c ****             p2 = Yc12C_out * si2;
 1862              	 .loc 1 877 0 discriminator 1
 1863 074e 97ED217A 	 flds s14,[r7,#132]
 1864 0752 D7ED297A 	 flds s15,[r7,#164]
 1865 0756 67EE277A 	 fmuls s15,s14,s15
 1866 075a C7ED117A 	 fsts s15,[r7,#68]
 878:../Dave/Generated/CMSIS_DSP/TransformFunctions/arm_cfft_radix4_f32.c ****             /* yc' = (ya-yb+yc-yd)co2 + (xa-xb+xc-xd)(si2) */
 879:../Dave/Generated/CMSIS_DSP/TransformFunctions/arm_cfft_radix4_f32.c ****             //Yc12_out += Xc12C_out * si2;
 880:../Dave/Generated/CMSIS_DSP/TransformFunctions/arm_cfft_radix4_f32.c ****             p3 = Xc12C_out * si2;
 1867              	 .loc 1 880 0 discriminator 1
 1868 075e 97ED227A 	 flds s14,[r7,#136]
 1869 0762 D7ED297A 	 flds s15,[r7,#164]
 1870 0766 67EE277A 	 fmuls s15,s14,s15
 1871 076a C7ED107A 	 fsts s15,[r7,#64]
 881:../Dave/Generated/CMSIS_DSP/TransformFunctions/arm_cfft_radix4_f32.c ****             /* xd' = (xa-yb-xc+yd)co3 - (ya+xb-yc-xd)(si3) */
 882:../Dave/Generated/CMSIS_DSP/TransformFunctions/arm_cfft_radix4_f32.c ****             //Xd12_out -= Yd12C_out * si3;
 883:../Dave/Generated/CMSIS_DSP/TransformFunctions/arm_cfft_radix4_f32.c ****             p4 = Yd12C_out * si3;
 1872              	 .loc 1 883 0 discriminator 1
 1873 076e 97ED1F7A 	 flds s14,[r7,#124]
 1874 0772 D7ED1A7A 	 flds s15,[r7,#104]
 1875 0776 67EE277A 	 fmuls s15,s14,s15
 1876 077a C7ED0F7A 	 fsts s15,[r7,#60]
 884:../Dave/Generated/CMSIS_DSP/TransformFunctions/arm_cfft_radix4_f32.c ****             /* yd' = (ya+xb-yc-xd)co3 + (xa-yb-xc+yd)(si3) */
 885:../Dave/Generated/CMSIS_DSP/TransformFunctions/arm_cfft_radix4_f32.c ****             //Yd12_out += Xd12C_out * si3;
 886:../Dave/Generated/CMSIS_DSP/TransformFunctions/arm_cfft_radix4_f32.c ****             p5 = Xd12C_out * si3;
 1877              	 .loc 1 886 0 discriminator 1
 1878 077e 97ED207A 	 flds s14,[r7,#128]
 1879 0782 D7ED1A7A 	 flds s15,[r7,#104]
 1880 0786 67EE277A 	 fmuls s15,s14,s15
 1881 078a C7ED0E7A 	 fsts s15,[r7,#56]
 887:../Dave/Generated/CMSIS_DSP/TransformFunctions/arm_cfft_radix4_f32.c **** 
 888:../Dave/Generated/CMSIS_DSP/TransformFunctions/arm_cfft_radix4_f32.c ****             Xb12_out -= p0;
 1882              	 .loc 1 888 0 discriminator 1
 1883 078e 97ED197A 	 flds s14,[r7,#100]
 1884 0792 D7ED137A 	 flds s15,[r7,#76]
 1885 0796 77EE677A 	 fsubs s15,s14,s15
 1886 079a C7ED197A 	 fsts s15,[r7,#100]
 889:../Dave/Generated/CMSIS_DSP/TransformFunctions/arm_cfft_radix4_f32.c ****             Yb12_out += p1;
 1887              	 .loc 1 889 0 discriminator 1
 1888 079e 97ED187A 	 flds s14,[r7,#96]
 1889 07a2 D7ED127A 	 flds s15,[r7,#72]
 1890 07a6 77EE277A 	 fadds s15,s14,s15
 1891 07aa C7ED187A 	 fsts s15,[r7,#96]
 890:../Dave/Generated/CMSIS_DSP/TransformFunctions/arm_cfft_radix4_f32.c ****             Xc12_out -= p2;
 1892              	 .loc 1 890 0 discriminator 1
 1893 07ae 97ED177A 	 flds s14,[r7,#92]
 1894 07b2 D7ED117A 	 flds s15,[r7,#68]
 1895 07b6 77EE677A 	 fsubs s15,s14,s15
 1896 07ba C7ED177A 	 fsts s15,[r7,#92]
 891:../Dave/Generated/CMSIS_DSP/TransformFunctions/arm_cfft_radix4_f32.c ****             Yc12_out += p3;
 1897              	 .loc 1 891 0 discriminator 1
 1898 07be 97ED167A 	 flds s14,[r7,#88]
 1899 07c2 D7ED107A 	 flds s15,[r7,#64]
 1900 07c6 77EE277A 	 fadds s15,s14,s15
 1901 07ca C7ED167A 	 fsts s15,[r7,#88]
 892:../Dave/Generated/CMSIS_DSP/TransformFunctions/arm_cfft_radix4_f32.c ****             Xd12_out -= p4;
 1902              	 .loc 1 892 0 discriminator 1
 1903 07ce 97ED157A 	 flds s14,[r7,#84]
 1904 07d2 D7ED0F7A 	 flds s15,[r7,#60]
 1905 07d6 77EE677A 	 fsubs s15,s14,s15
 1906 07da C7ED157A 	 fsts s15,[r7,#84]
 893:../Dave/Generated/CMSIS_DSP/TransformFunctions/arm_cfft_radix4_f32.c ****             Yd12_out += p5;
 1907              	 .loc 1 893 0 discriminator 1
 1908 07de 97ED147A 	 flds s14,[r7,#80]
 1909 07e2 D7ED0E7A 	 flds s15,[r7,#56]
 1910 07e6 77EE277A 	 fadds s15,s14,s15
 1911 07ea C7ED147A 	 fsts s15,[r7,#80]
 894:../Dave/Generated/CMSIS_DSP/TransformFunctions/arm_cfft_radix4_f32.c **** 
 895:../Dave/Generated/CMSIS_DSP/TransformFunctions/arm_cfft_radix4_f32.c ****             /* xc' = (xa-xb+xc-xd)co2 - (ya-yb+yc-yd)(si2) */
 896:../Dave/Generated/CMSIS_DSP/TransformFunctions/arm_cfft_radix4_f32.c ****             pSrc[2u * i1] = Xc12_out;
 1912              	 .loc 1 896 0 discriminator 1
 1913 07ee D7F8E830 	 ldr r3,[r7,#232]
 1914 07f2 DB00     	 lsls r3,r3,#3
 1915 07f4 FA68     	 ldr r2,[r7,#12]
 1916 07f6 1344     	 add r3,r3,r2
 1917 07f8 FA6D     	 ldr r2,[r7,#92]
 1918 07fa 1A60     	 str r2,[r3]
 897:../Dave/Generated/CMSIS_DSP/TransformFunctions/arm_cfft_radix4_f32.c **** 
 898:../Dave/Generated/CMSIS_DSP/TransformFunctions/arm_cfft_radix4_f32.c ****             /* yc' = (ya-yb+yc-yd)co2 + (xa-xb+xc-xd)(si2) */
 899:../Dave/Generated/CMSIS_DSP/TransformFunctions/arm_cfft_radix4_f32.c ****             pSrc[(2u * i1) + 1u] = Yc12_out;
 1919              	 .loc 1 899 0 discriminator 1
 1920 07fc D7F8E830 	 ldr r3,[r7,#232]
 1921 0800 DB00     	 lsls r3,r3,#3
 1922 0802 0433     	 adds r3,r3,#4
 1923 0804 FA68     	 ldr r2,[r7,#12]
 1924 0806 1344     	 add r3,r3,r2
 1925 0808 BA6D     	 ldr r2,[r7,#88]
 1926 080a 1A60     	 str r2,[r3]
 900:../Dave/Generated/CMSIS_DSP/TransformFunctions/arm_cfft_radix4_f32.c **** 
 901:../Dave/Generated/CMSIS_DSP/TransformFunctions/arm_cfft_radix4_f32.c ****             /* xb' = (xa+yb-xc-yd)co1 - (ya-xb-yc+xd)(si1) */
 902:../Dave/Generated/CMSIS_DSP/TransformFunctions/arm_cfft_radix4_f32.c ****             pSrc[2u * i2] = Xb12_out;
 1927              	 .loc 1 902 0 discriminator 1
 1928 080c D7F8E430 	 ldr r3,[r7,#228]
 1929 0810 DB00     	 lsls r3,r3,#3
 1930 0812 FA68     	 ldr r2,[r7,#12]
 1931 0814 1344     	 add r3,r3,r2
 1932 0816 7A6E     	 ldr r2,[r7,#100]
 1933 0818 1A60     	 str r2,[r3]
 903:../Dave/Generated/CMSIS_DSP/TransformFunctions/arm_cfft_radix4_f32.c **** 
 904:../Dave/Generated/CMSIS_DSP/TransformFunctions/arm_cfft_radix4_f32.c ****             /* yb' = (ya-xb-yc+xd)co1 + (xa+yb-xc-yd)(si1) */
 905:../Dave/Generated/CMSIS_DSP/TransformFunctions/arm_cfft_radix4_f32.c ****             pSrc[(2u * i2) + 1u] = Yb12_out;
 1934              	 .loc 1 905 0 discriminator 1
 1935 081a D7F8E430 	 ldr r3,[r7,#228]
 1936 081e DB00     	 lsls r3,r3,#3
 1937 0820 0433     	 adds r3,r3,#4
 1938 0822 FA68     	 ldr r2,[r7,#12]
 1939 0824 1344     	 add r3,r3,r2
 1940 0826 3A6E     	 ldr r2,[r7,#96]
 1941 0828 1A60     	 str r2,[r3]
 906:../Dave/Generated/CMSIS_DSP/TransformFunctions/arm_cfft_radix4_f32.c **** 
 907:../Dave/Generated/CMSIS_DSP/TransformFunctions/arm_cfft_radix4_f32.c ****             /* xd' = (xa-yb-xc+yd)co3 - (ya+xb-yc-xd)(si3) */
 908:../Dave/Generated/CMSIS_DSP/TransformFunctions/arm_cfft_radix4_f32.c ****             pSrc[2u * i3] = Xd12_out;
 1942              	 .loc 1 908 0 discriminator 1
 1943 082a D7F8E030 	 ldr r3,[r7,#224]
 1944 082e DB00     	 lsls r3,r3,#3
 1945 0830 FA68     	 ldr r2,[r7,#12]
 1946 0832 1344     	 add r3,r3,r2
 1947 0834 7A6D     	 ldr r2,[r7,#84]
 1948 0836 1A60     	 str r2,[r3]
 909:../Dave/Generated/CMSIS_DSP/TransformFunctions/arm_cfft_radix4_f32.c **** 
 910:../Dave/Generated/CMSIS_DSP/TransformFunctions/arm_cfft_radix4_f32.c ****             /* yd' = (ya+xb-yc-xd)co3 + (xa-yb-xc+yd)(si3) */
 911:../Dave/Generated/CMSIS_DSP/TransformFunctions/arm_cfft_radix4_f32.c ****             pSrc[(2u * i3) + 1u] = Yd12_out;
 1949              	 .loc 1 911 0 discriminator 1
 1950 0838 D7F8E030 	 ldr r3,[r7,#224]
 1951 083c DB00     	 lsls r3,r3,#3
 1952 083e 0433     	 adds r3,r3,#4
 1953 0840 FA68     	 ldr r2,[r7,#12]
 1954 0842 1344     	 add r3,r3,r2
 1955 0844 3A6D     	 ldr r2,[r7,#80]
 1956 0846 1A60     	 str r2,[r3]
 912:../Dave/Generated/CMSIS_DSP/TransformFunctions/arm_cfft_radix4_f32.c **** 
 913:../Dave/Generated/CMSIS_DSP/TransformFunctions/arm_cfft_radix4_f32.c ****             i0 += n1;
 1957              	 .loc 1 913 0 discriminator 1
 1958 0848 D7F80021 	 ldr r2,[r7,#256]
 1959 084c D7F8EC30 	 ldr r3,[r7,#236]
 1960 0850 1344     	 add r3,r3,r2
 1961 0852 C7F80031 	 str r3,[r7,#256]
 914:../Dave/Generated/CMSIS_DSP/TransformFunctions/arm_cfft_radix4_f32.c ****          } while (i0 < fftLen);
 1962              	 .loc 1 914 0 discriminator 1
 1963 0856 7A89     	 ldrh r2,[r7,#10]
 1964 0858 D7F80031 	 ldr r3,[r7,#256]
 1965 085c 9A42     	 cmp r2,r3
 1966 085e 3FF652AE 	 bhi .L15
 915:../Dave/Generated/CMSIS_DSP/TransformFunctions/arm_cfft_radix4_f32.c ****          j++;
 1967              	 .loc 1 915 0
 1968 0862 D7F8F830 	 ldr r3,[r7,#248]
 1969 0866 0133     	 adds r3,r3,#1
 1970 0868 C7F8F830 	 str r3,[r7,#248]
 916:../Dave/Generated/CMSIS_DSP/TransformFunctions/arm_cfft_radix4_f32.c ****       } while (j <= (n2 - 1u));
 1971              	 .loc 1 916 0
 1972 086c D7F8FC30 	 ldr r3,[r7,#252]
 1973 0870 5A1E     	 subs r2,r3,#1
 1974 0872 D7F8F830 	 ldr r3,[r7,#248]
 1975 0876 9A42     	 cmp r2,r3
 1976 0878 BFF4F9AD 	 bcs .L16
 917:../Dave/Generated/CMSIS_DSP/TransformFunctions/arm_cfft_radix4_f32.c ****       twidCoefModifier <<= 2u;
 1977              	 .loc 1 917 0 discriminator 2
 1978 087c 07F10803 	 add r3,r7,#8
 1979 0880 07F10802 	 add r2,r7,#8
 1980 0884 1288     	 ldrh r2,[r2]
 1981 0886 9200     	 lsls r2,r2,#2
 1982 0888 1A80     	 strh r2,[r3]
 783:../Dave/Generated/CMSIS_DSP/TransformFunctions/arm_cfft_radix4_f32.c ****    {
 1983              	 .loc 1 783 0 discriminator 2
 1984 088a D7F8F430 	 ldr r3,[r7,#244]
 1985 088e 9B08     	 lsrs r3,r3,#2
 1986 0890 C7F8F430 	 str r3,[r7,#244]
 1987              	.L14:
 783:../Dave/Generated/CMSIS_DSP/TransformFunctions/arm_cfft_radix4_f32.c ****    {
 1988              	 .loc 1 783 0 is_stmt 0 discriminator 1
 1989 0894 D7F8F430 	 ldr r3,[r7,#244]
 1990 0898 042B     	 cmp r3,#4
 1991 089a 3FF6D9AD 	 bhi .L17
 918:../Dave/Generated/CMSIS_DSP/TransformFunctions/arm_cfft_radix4_f32.c ****    }
 919:../Dave/Generated/CMSIS_DSP/TransformFunctions/arm_cfft_radix4_f32.c ****    /*  Initializations of last stage */
 920:../Dave/Generated/CMSIS_DSP/TransformFunctions/arm_cfft_radix4_f32.c **** 
 921:../Dave/Generated/CMSIS_DSP/TransformFunctions/arm_cfft_radix4_f32.c ****    j = fftLen >> 2;
 1992              	 .loc 1 921 0 is_stmt 1
 1993 089e 7B89     	 ldrh r3,[r7,#10]
 1994 08a0 9B08     	 lsrs r3,r3,#2
 1995 08a2 9BB2     	 uxth r3,r3
 1996 08a4 C7F8F830 	 str r3,[r7,#248]
 922:../Dave/Generated/CMSIS_DSP/TransformFunctions/arm_cfft_radix4_f32.c ****    ptr1 = &pSrc[0];
 1997              	 .loc 1 922 0
 1998 08a8 FB68     	 ldr r3,[r7,#12]
 1999 08aa C7F8F030 	 str r3,[r7,#240]
 2000              	.L18:
 923:../Dave/Generated/CMSIS_DSP/TransformFunctions/arm_cfft_radix4_f32.c **** 
 924:../Dave/Generated/CMSIS_DSP/TransformFunctions/arm_cfft_radix4_f32.c ****    /*  Calculations of last stage */
 925:../Dave/Generated/CMSIS_DSP/TransformFunctions/arm_cfft_radix4_f32.c ****    do
 926:../Dave/Generated/CMSIS_DSP/TransformFunctions/arm_cfft_radix4_f32.c ****    {
 927:../Dave/Generated/CMSIS_DSP/TransformFunctions/arm_cfft_radix4_f32.c ****       xaIn = ptr1[0];
 2001              	 .loc 1 927 0 discriminator 1
 2002 08ae D7F8F030 	 ldr r3,[r7,#240]
 2003 08b2 1B68     	 ldr r3,[r3]
 2004 08b4 C7F8DC30 	 str r3,[r7,#220]
 928:../Dave/Generated/CMSIS_DSP/TransformFunctions/arm_cfft_radix4_f32.c ****       yaIn = ptr1[1];
 2005              	 .loc 1 928 0 discriminator 1
 2006 08b8 D7F8F030 	 ldr r3,[r7,#240]
 2007 08bc 5B68     	 ldr r3,[r3,#4]
 2008 08be C7F8D830 	 str r3,[r7,#216]
 929:../Dave/Generated/CMSIS_DSP/TransformFunctions/arm_cfft_radix4_f32.c ****       xbIn = ptr1[2];
 2009              	 .loc 1 929 0 discriminator 1
 2010 08c2 D7F8F030 	 ldr r3,[r7,#240]
 2011 08c6 9B68     	 ldr r3,[r3,#8]
 2012 08c8 C7F8CC30 	 str r3,[r7,#204]
 930:../Dave/Generated/CMSIS_DSP/TransformFunctions/arm_cfft_radix4_f32.c ****       ybIn = ptr1[3];
 2013              	 .loc 1 930 0 discriminator 1
 2014 08cc D7F8F030 	 ldr r3,[r7,#240]
 2015 08d0 DB68     	 ldr r3,[r3,#12]
 2016 08d2 C7F8C830 	 str r3,[r7,#200]
 931:../Dave/Generated/CMSIS_DSP/TransformFunctions/arm_cfft_radix4_f32.c ****       xcIn = ptr1[4];
 2017              	 .loc 1 931 0 discriminator 1
 2018 08d6 D7F8F030 	 ldr r3,[r7,#240]
 2019 08da 1B69     	 ldr r3,[r3,#16]
 2020 08dc C7F8D430 	 str r3,[r7,#212]
 932:../Dave/Generated/CMSIS_DSP/TransformFunctions/arm_cfft_radix4_f32.c ****       ycIn = ptr1[5];
 2021              	 .loc 1 932 0 discriminator 1
 2022 08e0 D7F8F030 	 ldr r3,[r7,#240]
 2023 08e4 5B69     	 ldr r3,[r3,#20]
 2024 08e6 C7F8D030 	 str r3,[r7,#208]
 933:../Dave/Generated/CMSIS_DSP/TransformFunctions/arm_cfft_radix4_f32.c ****       xdIn = ptr1[6];
 2025              	 .loc 1 933 0 discriminator 1
 2026 08ea D7F8F030 	 ldr r3,[r7,#240]
 2027 08ee 9B69     	 ldr r3,[r3,#24]
 2028 08f0 C7F8C430 	 str r3,[r7,#196]
 934:../Dave/Generated/CMSIS_DSP/TransformFunctions/arm_cfft_radix4_f32.c ****       ydIn = ptr1[7];
 2029              	 .loc 1 934 0 discriminator 1
 2030 08f4 D7F8F030 	 ldr r3,[r7,#240]
 2031 08f8 DB69     	 ldr r3,[r3,#28]
 2032 08fa C7F8C030 	 str r3,[r7,#192]
 935:../Dave/Generated/CMSIS_DSP/TransformFunctions/arm_cfft_radix4_f32.c **** 
 936:../Dave/Generated/CMSIS_DSP/TransformFunctions/arm_cfft_radix4_f32.c ****       /*  Butterfly implementation */
 937:../Dave/Generated/CMSIS_DSP/TransformFunctions/arm_cfft_radix4_f32.c ****       /* xa + xc */
 938:../Dave/Generated/CMSIS_DSP/TransformFunctions/arm_cfft_radix4_f32.c ****       Xaplusc = xaIn + xcIn;
 2033              	 .loc 1 938 0 discriminator 1
 2034 08fe 97ED377A 	 flds s14,[r7,#220]
 2035 0902 D7ED357A 	 flds s15,[r7,#212]
 2036 0906 77EE277A 	 fadds s15,s14,s15
 2037 090a C7ED2F7A 	 fsts s15,[r7,#188]
 939:../Dave/Generated/CMSIS_DSP/TransformFunctions/arm_cfft_radix4_f32.c **** 
 940:../Dave/Generated/CMSIS_DSP/TransformFunctions/arm_cfft_radix4_f32.c ****       /* xa - xc */
 941:../Dave/Generated/CMSIS_DSP/TransformFunctions/arm_cfft_radix4_f32.c ****       Xaminusc = xaIn - xcIn;
 2038              	 .loc 1 941 0 discriminator 1
 2039 090e 97ED377A 	 flds s14,[r7,#220]
 2040 0912 D7ED357A 	 flds s15,[r7,#212]
 2041 0916 77EE677A 	 fsubs s15,s14,s15
 2042 091a C7ED287A 	 fsts s15,[r7,#160]
 942:../Dave/Generated/CMSIS_DSP/TransformFunctions/arm_cfft_radix4_f32.c **** 
 943:../Dave/Generated/CMSIS_DSP/TransformFunctions/arm_cfft_radix4_f32.c ****       /* ya + yc */
 944:../Dave/Generated/CMSIS_DSP/TransformFunctions/arm_cfft_radix4_f32.c ****       Yaplusc = yaIn + ycIn;
 2043              	 .loc 1 944 0 discriminator 1
 2044 091e 97ED367A 	 flds s14,[r7,#216]
 2045 0922 D7ED347A 	 flds s15,[r7,#208]
 2046 0926 77EE277A 	 fadds s15,s14,s15
 2047 092a C7ED2D7A 	 fsts s15,[r7,#180]
 945:../Dave/Generated/CMSIS_DSP/TransformFunctions/arm_cfft_radix4_f32.c **** 
 946:../Dave/Generated/CMSIS_DSP/TransformFunctions/arm_cfft_radix4_f32.c ****       /* ya - yc */
 947:../Dave/Generated/CMSIS_DSP/TransformFunctions/arm_cfft_radix4_f32.c ****       Yaminusc = yaIn - ycIn;
 2048              	 .loc 1 947 0 discriminator 1
 2049 092e 97ED367A 	 flds s14,[r7,#216]
 2050 0932 D7ED347A 	 flds s15,[r7,#208]
 2051 0936 77EE677A 	 fsubs s15,s14,s15
 2052 093a C7ED267A 	 fsts s15,[r7,#152]
 948:../Dave/Generated/CMSIS_DSP/TransformFunctions/arm_cfft_radix4_f32.c **** 
 949:../Dave/Generated/CMSIS_DSP/TransformFunctions/arm_cfft_radix4_f32.c ****       /* xb + xd */
 950:../Dave/Generated/CMSIS_DSP/TransformFunctions/arm_cfft_radix4_f32.c ****       Xbplusd = xbIn + xdIn;
 2053              	 .loc 1 950 0 discriminator 1
 2054 093e 97ED337A 	 flds s14,[r7,#204]
 2055 0942 D7ED317A 	 flds s15,[r7,#196]
 2056 0946 77EE277A 	 fadds s15,s14,s15
 2057 094a C7ED2E7A 	 fsts s15,[r7,#184]
 951:../Dave/Generated/CMSIS_DSP/TransformFunctions/arm_cfft_radix4_f32.c **** 
 952:../Dave/Generated/CMSIS_DSP/TransformFunctions/arm_cfft_radix4_f32.c ****       /* yb + yd */
 953:../Dave/Generated/CMSIS_DSP/TransformFunctions/arm_cfft_radix4_f32.c ****       Ybplusd = ybIn + ydIn;
 2058              	 .loc 1 953 0 discriminator 1
 2059 094e 97ED327A 	 flds s14,[r7,#200]
 2060 0952 D7ED307A 	 flds s15,[r7,#192]
 2061 0956 77EE277A 	 fadds s15,s14,s15
 2062 095a C7ED2C7A 	 fsts s15,[r7,#176]
 954:../Dave/Generated/CMSIS_DSP/TransformFunctions/arm_cfft_radix4_f32.c **** 
 955:../Dave/Generated/CMSIS_DSP/TransformFunctions/arm_cfft_radix4_f32.c ****       /* (xb-xd) */
 956:../Dave/Generated/CMSIS_DSP/TransformFunctions/arm_cfft_radix4_f32.c ****       Xbminusd = xbIn - xdIn;
 2063              	 .loc 1 956 0 discriminator 1
 2064 095e 97ED337A 	 flds s14,[r7,#204]
 2065 0962 D7ED317A 	 flds s15,[r7,#196]
 2066 0966 77EE677A 	 fsubs s15,s14,s15
 2067 096a C7ED277A 	 fsts s15,[r7,#156]
 957:../Dave/Generated/CMSIS_DSP/TransformFunctions/arm_cfft_radix4_f32.c **** 
 958:../Dave/Generated/CMSIS_DSP/TransformFunctions/arm_cfft_radix4_f32.c ****       /* (yb-yd) */
 959:../Dave/Generated/CMSIS_DSP/TransformFunctions/arm_cfft_radix4_f32.c ****       Ybminusd = ybIn - ydIn;
 2068              	 .loc 1 959 0 discriminator 1
 2069 096e 97ED327A 	 flds s14,[r7,#200]
 2070 0972 D7ED307A 	 flds s15,[r7,#192]
 2071 0976 77EE677A 	 fsubs s15,s14,s15
 2072 097a C7ED257A 	 fsts s15,[r7,#148]
 960:../Dave/Generated/CMSIS_DSP/TransformFunctions/arm_cfft_radix4_f32.c **** 
 961:../Dave/Generated/CMSIS_DSP/TransformFunctions/arm_cfft_radix4_f32.c ****       /* xa' = (xa+xb+xc+xd) * onebyfftLen */
 962:../Dave/Generated/CMSIS_DSP/TransformFunctions/arm_cfft_radix4_f32.c ****       a0 = (Xaplusc + Xbplusd);
 2073              	 .loc 1 962 0 discriminator 1
 2074 097e 97ED2F7A 	 flds s14,[r7,#188]
 2075 0982 D7ED2E7A 	 flds s15,[r7,#184]
 2076 0986 77EE277A 	 fadds s15,s14,s15
 2077 098a C7ED0D7A 	 fsts s15,[r7,#52]
 963:../Dave/Generated/CMSIS_DSP/TransformFunctions/arm_cfft_radix4_f32.c ****       /* ya' = (ya+yb+yc+yd) * onebyfftLen */
 964:../Dave/Generated/CMSIS_DSP/TransformFunctions/arm_cfft_radix4_f32.c ****       a1 = (Yaplusc + Ybplusd);
 2078              	 .loc 1 964 0 discriminator 1
 2079 098e 97ED2D7A 	 flds s14,[r7,#180]
 2080 0992 D7ED2C7A 	 flds s15,[r7,#176]
 2081 0996 77EE277A 	 fadds s15,s14,s15
 2082 099a C7ED0C7A 	 fsts s15,[r7,#48]
 965:../Dave/Generated/CMSIS_DSP/TransformFunctions/arm_cfft_radix4_f32.c ****       /* xc' = (xa-xb+xc-xd) * onebyfftLen */
 966:../Dave/Generated/CMSIS_DSP/TransformFunctions/arm_cfft_radix4_f32.c ****       a2 = (Xaplusc - Xbplusd);
 2083              	 .loc 1 966 0 discriminator 1
 2084 099e 97ED2F7A 	 flds s14,[r7,#188]
 2085 09a2 D7ED2E7A 	 flds s15,[r7,#184]
 2086 09a6 77EE677A 	 fsubs s15,s14,s15
 2087 09aa C7ED0B7A 	 fsts s15,[r7,#44]
 967:../Dave/Generated/CMSIS_DSP/TransformFunctions/arm_cfft_radix4_f32.c ****       /* yc' = (ya-yb+yc-yd) * onebyfftLen  */
 968:../Dave/Generated/CMSIS_DSP/TransformFunctions/arm_cfft_radix4_f32.c ****       a3 = (Yaplusc - Ybplusd);
 2088              	 .loc 1 968 0 discriminator 1
 2089 09ae 97ED2D7A 	 flds s14,[r7,#180]
 2090 09b2 D7ED2C7A 	 flds s15,[r7,#176]
 2091 09b6 77EE677A 	 fsubs s15,s14,s15
 2092 09ba C7ED0A7A 	 fsts s15,[r7,#40]
 969:../Dave/Generated/CMSIS_DSP/TransformFunctions/arm_cfft_radix4_f32.c ****       /* xb' = (xa-yb-xc+yd) * onebyfftLen */
 970:../Dave/Generated/CMSIS_DSP/TransformFunctions/arm_cfft_radix4_f32.c ****       a4 = (Xaminusc - Ybminusd);
 2093              	 .loc 1 970 0 discriminator 1
 2094 09be 97ED287A 	 flds s14,[r7,#160]
 2095 09c2 D7ED257A 	 flds s15,[r7,#148]
 2096 09c6 77EE677A 	 fsubs s15,s14,s15
 2097 09ca C7ED097A 	 fsts s15,[r7,#36]
 971:../Dave/Generated/CMSIS_DSP/TransformFunctions/arm_cfft_radix4_f32.c ****       /* yb' = (ya+xb-yc-xd) * onebyfftLen */
 972:../Dave/Generated/CMSIS_DSP/TransformFunctions/arm_cfft_radix4_f32.c ****       a5 = (Yaminusc + Xbminusd);
 2098              	 .loc 1 972 0 discriminator 1
 2099 09ce 97ED267A 	 flds s14,[r7,#152]
 2100 09d2 D7ED277A 	 flds s15,[r7,#156]
 2101 09d6 77EE277A 	 fadds s15,s14,s15
 2102 09da C7ED087A 	 fsts s15,[r7,#32]
 973:../Dave/Generated/CMSIS_DSP/TransformFunctions/arm_cfft_radix4_f32.c ****       /* xd' = (xa-yb-xc+yd) * onebyfftLen */
 974:../Dave/Generated/CMSIS_DSP/TransformFunctions/arm_cfft_radix4_f32.c ****       a6 = (Xaminusc + Ybminusd);
 2103              	 .loc 1 974 0 discriminator 1
 2104 09de 97ED287A 	 flds s14,[r7,#160]
 2105 09e2 D7ED257A 	 flds s15,[r7,#148]
 2106 09e6 77EE277A 	 fadds s15,s14,s15
 2107 09ea C7ED077A 	 fsts s15,[r7,#28]
 975:../Dave/Generated/CMSIS_DSP/TransformFunctions/arm_cfft_radix4_f32.c ****       /* yd' = (ya-xb-yc+xd) * onebyfftLen */
 976:../Dave/Generated/CMSIS_DSP/TransformFunctions/arm_cfft_radix4_f32.c ****       a7 = (Yaminusc - Xbminusd);
 2108              	 .loc 1 976 0 discriminator 1
 2109 09ee 97ED267A 	 flds s14,[r7,#152]
 2110 09f2 D7ED277A 	 flds s15,[r7,#156]
 2111 09f6 77EE677A 	 fsubs s15,s14,s15
 2112 09fa C7ED067A 	 fsts s15,[r7,#24]
 977:../Dave/Generated/CMSIS_DSP/TransformFunctions/arm_cfft_radix4_f32.c **** 
 978:../Dave/Generated/CMSIS_DSP/TransformFunctions/arm_cfft_radix4_f32.c ****       p0 = a0 * onebyfftLen;
 2113              	 .loc 1 978 0 discriminator 1
 2114 09fe 97ED0D7A 	 flds s14,[r7,#52]
 2115 0a02 D7ED447A 	 flds s15,[r7,#272]
 2116 0a06 67EE277A 	 fmuls s15,s14,s15
 2117 0a0a C7ED137A 	 fsts s15,[r7,#76]
 979:../Dave/Generated/CMSIS_DSP/TransformFunctions/arm_cfft_radix4_f32.c ****       p1 = a1 * onebyfftLen;
 2118              	 .loc 1 979 0 discriminator 1
 2119 0a0e 97ED0C7A 	 flds s14,[r7,#48]
 2120 0a12 D7ED447A 	 flds s15,[r7,#272]
 2121 0a16 67EE277A 	 fmuls s15,s14,s15
 2122 0a1a C7ED127A 	 fsts s15,[r7,#72]
 980:../Dave/Generated/CMSIS_DSP/TransformFunctions/arm_cfft_radix4_f32.c ****       p2 = a2 * onebyfftLen;
 2123              	 .loc 1 980 0 discriminator 1
 2124 0a1e 97ED0B7A 	 flds s14,[r7,#44]
 2125 0a22 D7ED447A 	 flds s15,[r7,#272]
 2126 0a26 67EE277A 	 fmuls s15,s14,s15
 2127 0a2a C7ED117A 	 fsts s15,[r7,#68]
 981:../Dave/Generated/CMSIS_DSP/TransformFunctions/arm_cfft_radix4_f32.c ****       p3 = a3 * onebyfftLen;
 2128              	 .loc 1 981 0 discriminator 1
 2129 0a2e 97ED0A7A 	 flds s14,[r7,#40]
 2130 0a32 D7ED447A 	 flds s15,[r7,#272]
 2131 0a36 67EE277A 	 fmuls s15,s14,s15
 2132 0a3a C7ED107A 	 fsts s15,[r7,#64]
 982:../Dave/Generated/CMSIS_DSP/TransformFunctions/arm_cfft_radix4_f32.c ****       p4 = a4 * onebyfftLen;
 2133              	 .loc 1 982 0 discriminator 1
 2134 0a3e 97ED097A 	 flds s14,[r7,#36]
 2135 0a42 D7ED447A 	 flds s15,[r7,#272]
 2136 0a46 67EE277A 	 fmuls s15,s14,s15
 2137 0a4a C7ED0F7A 	 fsts s15,[r7,#60]
 983:../Dave/Generated/CMSIS_DSP/TransformFunctions/arm_cfft_radix4_f32.c ****       p5 = a5 * onebyfftLen;
 2138              	 .loc 1 983 0 discriminator 1
 2139 0a4e 97ED087A 	 flds s14,[r7,#32]
 2140 0a52 D7ED447A 	 flds s15,[r7,#272]
 2141 0a56 67EE277A 	 fmuls s15,s14,s15
 2142 0a5a C7ED0E7A 	 fsts s15,[r7,#56]
 984:../Dave/Generated/CMSIS_DSP/TransformFunctions/arm_cfft_radix4_f32.c ****       p6 = a6 * onebyfftLen;
 2143              	 .loc 1 984 0 discriminator 1
 2144 0a5e 97ED077A 	 flds s14,[r7,#28]
 2145 0a62 D7ED447A 	 flds s15,[r7,#272]
 2146 0a66 67EE277A 	 fmuls s15,s14,s15
 2147 0a6a C7ED057A 	 fsts s15,[r7,#20]
 985:../Dave/Generated/CMSIS_DSP/TransformFunctions/arm_cfft_radix4_f32.c ****       p7 = a7 * onebyfftLen;
 2148              	 .loc 1 985 0 discriminator 1
 2149 0a6e 97ED067A 	 flds s14,[r7,#24]
 2150 0a72 D7ED447A 	 flds s15,[r7,#272]
 2151 0a76 67EE277A 	 fmuls s15,s14,s15
 2152 0a7a C7ED047A 	 fsts s15,[r7,#16]
 986:../Dave/Generated/CMSIS_DSP/TransformFunctions/arm_cfft_radix4_f32.c **** 
 987:../Dave/Generated/CMSIS_DSP/TransformFunctions/arm_cfft_radix4_f32.c ****       /* xa' = (xa+xb+xc+xd) * onebyfftLen */
 988:../Dave/Generated/CMSIS_DSP/TransformFunctions/arm_cfft_radix4_f32.c ****       ptr1[0] = p0;
 2153              	 .loc 1 988 0 discriminator 1
 2154 0a7e D7F8F030 	 ldr r3,[r7,#240]
 2155 0a82 FA6C     	 ldr r2,[r7,#76]
 2156 0a84 1A60     	 str r2,[r3]
 989:../Dave/Generated/CMSIS_DSP/TransformFunctions/arm_cfft_radix4_f32.c ****       /* ya' = (ya+yb+yc+yd) * onebyfftLen */
 990:../Dave/Generated/CMSIS_DSP/TransformFunctions/arm_cfft_radix4_f32.c ****       ptr1[1] = p1;
 2157              	 .loc 1 990 0 discriminator 1
 2158 0a86 D7F8F030 	 ldr r3,[r7,#240]
 2159 0a8a 0433     	 adds r3,r3,#4
 2160 0a8c BA6C     	 ldr r2,[r7,#72]
 2161 0a8e 1A60     	 str r2,[r3]
 991:../Dave/Generated/CMSIS_DSP/TransformFunctions/arm_cfft_radix4_f32.c ****       /* xc' = (xa-xb+xc-xd) * onebyfftLen */
 992:../Dave/Generated/CMSIS_DSP/TransformFunctions/arm_cfft_radix4_f32.c ****       ptr1[2] = p2;
 2162              	 .loc 1 992 0 discriminator 1
 2163 0a90 D7F8F030 	 ldr r3,[r7,#240]
 2164 0a94 0833     	 adds r3,r3,#8
 2165 0a96 7A6C     	 ldr r2,[r7,#68]
 2166 0a98 1A60     	 str r2,[r3]
 993:../Dave/Generated/CMSIS_DSP/TransformFunctions/arm_cfft_radix4_f32.c ****       /* yc' = (ya-yb+yc-yd) * onebyfftLen  */
 994:../Dave/Generated/CMSIS_DSP/TransformFunctions/arm_cfft_radix4_f32.c ****       ptr1[3] = p3;
 2167              	 .loc 1 994 0 discriminator 1
 2168 0a9a D7F8F030 	 ldr r3,[r7,#240]
 2169 0a9e 0C33     	 adds r3,r3,#12
 2170 0aa0 3A6C     	 ldr r2,[r7,#64]
 2171 0aa2 1A60     	 str r2,[r3]
 995:../Dave/Generated/CMSIS_DSP/TransformFunctions/arm_cfft_radix4_f32.c ****       /* xb' = (xa-yb-xc+yd) * onebyfftLen */
 996:../Dave/Generated/CMSIS_DSP/TransformFunctions/arm_cfft_radix4_f32.c ****       ptr1[4] = p4;
 2172              	 .loc 1 996 0 discriminator 1
 2173 0aa4 D7F8F030 	 ldr r3,[r7,#240]
 2174 0aa8 1033     	 adds r3,r3,#16
 2175 0aaa FA6B     	 ldr r2,[r7,#60]
 2176 0aac 1A60     	 str r2,[r3]
 997:../Dave/Generated/CMSIS_DSP/TransformFunctions/arm_cfft_radix4_f32.c ****       /* yb' = (ya+xb-yc-xd) * onebyfftLen */
 998:../Dave/Generated/CMSIS_DSP/TransformFunctions/arm_cfft_radix4_f32.c ****       ptr1[5] = p5;
 2177              	 .loc 1 998 0 discriminator 1
 2178 0aae D7F8F030 	 ldr r3,[r7,#240]
 2179 0ab2 1433     	 adds r3,r3,#20
 2180 0ab4 BA6B     	 ldr r2,[r7,#56]
 2181 0ab6 1A60     	 str r2,[r3]
 999:../Dave/Generated/CMSIS_DSP/TransformFunctions/arm_cfft_radix4_f32.c ****       /* xd' = (xa-yb-xc+yd) * onebyfftLen */
1000:../Dave/Generated/CMSIS_DSP/TransformFunctions/arm_cfft_radix4_f32.c ****       ptr1[6] = p6;
 2182              	 .loc 1 1000 0 discriminator 1
 2183 0ab8 D7F8F030 	 ldr r3,[r7,#240]
 2184 0abc 1833     	 adds r3,r3,#24
 2185 0abe 7A69     	 ldr r2,[r7,#20]
 2186 0ac0 1A60     	 str r2,[r3]
1001:../Dave/Generated/CMSIS_DSP/TransformFunctions/arm_cfft_radix4_f32.c ****       /* yd' = (ya-xb-yc+xd) * onebyfftLen */
1002:../Dave/Generated/CMSIS_DSP/TransformFunctions/arm_cfft_radix4_f32.c ****       ptr1[7] = p7;
 2187              	 .loc 1 1002 0 discriminator 1
 2188 0ac2 D7F8F030 	 ldr r3,[r7,#240]
 2189 0ac6 1C33     	 adds r3,r3,#28
 2190 0ac8 3A69     	 ldr r2,[r7,#16]
 2191 0aca 1A60     	 str r2,[r3]
1003:../Dave/Generated/CMSIS_DSP/TransformFunctions/arm_cfft_radix4_f32.c **** 
1004:../Dave/Generated/CMSIS_DSP/TransformFunctions/arm_cfft_radix4_f32.c ****       /* increment source pointer by 8 for next calculations */
1005:../Dave/Generated/CMSIS_DSP/TransformFunctions/arm_cfft_radix4_f32.c ****       ptr1 = ptr1 + 8u;
 2192              	 .loc 1 1005 0 discriminator 1
 2193 0acc D7F8F030 	 ldr r3,[r7,#240]
 2194 0ad0 2033     	 adds r3,r3,#32
 2195 0ad2 C7F8F030 	 str r3,[r7,#240]
1006:../Dave/Generated/CMSIS_DSP/TransformFunctions/arm_cfft_radix4_f32.c **** 
1007:../Dave/Generated/CMSIS_DSP/TransformFunctions/arm_cfft_radix4_f32.c ****    } while (--j);
 2196              	 .loc 1 1007 0 discriminator 1
 2197 0ad6 D7F8F830 	 ldr r3,[r7,#248]
 2198 0ada 013B     	 subs r3,r3,#1
 2199 0adc C7F8F830 	 str r3,[r7,#248]
 2200 0ae0 D7F8F830 	 ldr r3,[r7,#248]
 2201 0ae4 002B     	 cmp r3,#0
 2202 0ae6 7FF4E2AE 	 bne .L18
1008:../Dave/Generated/CMSIS_DSP/TransformFunctions/arm_cfft_radix4_f32.c **** 
1009:../Dave/Generated/CMSIS_DSP/TransformFunctions/arm_cfft_radix4_f32.c **** #else
1010:../Dave/Generated/CMSIS_DSP/TransformFunctions/arm_cfft_radix4_f32.c **** 
1011:../Dave/Generated/CMSIS_DSP/TransformFunctions/arm_cfft_radix4_f32.c ****    float32_t t1, t2, r1, r2, s1, s2;
1012:../Dave/Generated/CMSIS_DSP/TransformFunctions/arm_cfft_radix4_f32.c **** 
1013:../Dave/Generated/CMSIS_DSP/TransformFunctions/arm_cfft_radix4_f32.c ****    /* Run the below code for Cortex-M0 */
1014:../Dave/Generated/CMSIS_DSP/TransformFunctions/arm_cfft_radix4_f32.c **** 
1015:../Dave/Generated/CMSIS_DSP/TransformFunctions/arm_cfft_radix4_f32.c ****    /*  Initializations for the first stage */
1016:../Dave/Generated/CMSIS_DSP/TransformFunctions/arm_cfft_radix4_f32.c ****    n2 = fftLen;
1017:../Dave/Generated/CMSIS_DSP/TransformFunctions/arm_cfft_radix4_f32.c ****    n1 = n2;
1018:../Dave/Generated/CMSIS_DSP/TransformFunctions/arm_cfft_radix4_f32.c **** 
1019:../Dave/Generated/CMSIS_DSP/TransformFunctions/arm_cfft_radix4_f32.c ****    /*  Calculation of first stage */
1020:../Dave/Generated/CMSIS_DSP/TransformFunctions/arm_cfft_radix4_f32.c ****    for (k = fftLen; k > 4u; k >>= 2u)
1021:../Dave/Generated/CMSIS_DSP/TransformFunctions/arm_cfft_radix4_f32.c ****    {
1022:../Dave/Generated/CMSIS_DSP/TransformFunctions/arm_cfft_radix4_f32.c ****       /*  Initializations for the first stage */
1023:../Dave/Generated/CMSIS_DSP/TransformFunctions/arm_cfft_radix4_f32.c ****       n1 = n2;
1024:../Dave/Generated/CMSIS_DSP/TransformFunctions/arm_cfft_radix4_f32.c ****       n2 >>= 2u;
1025:../Dave/Generated/CMSIS_DSP/TransformFunctions/arm_cfft_radix4_f32.c ****       ia1 = 0u;
1026:../Dave/Generated/CMSIS_DSP/TransformFunctions/arm_cfft_radix4_f32.c **** 
1027:../Dave/Generated/CMSIS_DSP/TransformFunctions/arm_cfft_radix4_f32.c ****       /*  Calculation of first stage */
1028:../Dave/Generated/CMSIS_DSP/TransformFunctions/arm_cfft_radix4_f32.c ****       j = 0;
1029:../Dave/Generated/CMSIS_DSP/TransformFunctions/arm_cfft_radix4_f32.c ****       do
1030:../Dave/Generated/CMSIS_DSP/TransformFunctions/arm_cfft_radix4_f32.c ****       {
1031:../Dave/Generated/CMSIS_DSP/TransformFunctions/arm_cfft_radix4_f32.c ****          /*  index calculation for the coefficients */
1032:../Dave/Generated/CMSIS_DSP/TransformFunctions/arm_cfft_radix4_f32.c ****          ia2 = ia1 + ia1;
1033:../Dave/Generated/CMSIS_DSP/TransformFunctions/arm_cfft_radix4_f32.c ****          ia3 = ia2 + ia1;
1034:../Dave/Generated/CMSIS_DSP/TransformFunctions/arm_cfft_radix4_f32.c ****          co1 = pCoef[ia1 * 2u];
1035:../Dave/Generated/CMSIS_DSP/TransformFunctions/arm_cfft_radix4_f32.c ****          si1 = pCoef[(ia1 * 2u) + 1u];
1036:../Dave/Generated/CMSIS_DSP/TransformFunctions/arm_cfft_radix4_f32.c ****          co2 = pCoef[ia2 * 2u];
1037:../Dave/Generated/CMSIS_DSP/TransformFunctions/arm_cfft_radix4_f32.c ****          si2 = pCoef[(ia2 * 2u) + 1u];
1038:../Dave/Generated/CMSIS_DSP/TransformFunctions/arm_cfft_radix4_f32.c ****          co3 = pCoef[ia3 * 2u];
1039:../Dave/Generated/CMSIS_DSP/TransformFunctions/arm_cfft_radix4_f32.c ****          si3 = pCoef[(ia3 * 2u) + 1u];
1040:../Dave/Generated/CMSIS_DSP/TransformFunctions/arm_cfft_radix4_f32.c **** 
1041:../Dave/Generated/CMSIS_DSP/TransformFunctions/arm_cfft_radix4_f32.c ****          /*  Twiddle coefficients index modifier */
1042:../Dave/Generated/CMSIS_DSP/TransformFunctions/arm_cfft_radix4_f32.c ****          ia1 = ia1 + twidCoefModifier;
1043:../Dave/Generated/CMSIS_DSP/TransformFunctions/arm_cfft_radix4_f32.c **** 
1044:../Dave/Generated/CMSIS_DSP/TransformFunctions/arm_cfft_radix4_f32.c ****          i0 = j;
1045:../Dave/Generated/CMSIS_DSP/TransformFunctions/arm_cfft_radix4_f32.c ****          do
1046:../Dave/Generated/CMSIS_DSP/TransformFunctions/arm_cfft_radix4_f32.c ****          {
1047:../Dave/Generated/CMSIS_DSP/TransformFunctions/arm_cfft_radix4_f32.c ****             /*  index calculation for the input as, */
1048:../Dave/Generated/CMSIS_DSP/TransformFunctions/arm_cfft_radix4_f32.c ****             /*  pSrc[i0 + 0], pSrc[i0 + fftLen/4], pSrc[i0 + fftLen/2], pSrc[i0 + 3fftLen/4] */
1049:../Dave/Generated/CMSIS_DSP/TransformFunctions/arm_cfft_radix4_f32.c ****             i1 = i0 + n2;
1050:../Dave/Generated/CMSIS_DSP/TransformFunctions/arm_cfft_radix4_f32.c ****             i2 = i1 + n2;
1051:../Dave/Generated/CMSIS_DSP/TransformFunctions/arm_cfft_radix4_f32.c ****             i3 = i2 + n2;
1052:../Dave/Generated/CMSIS_DSP/TransformFunctions/arm_cfft_radix4_f32.c **** 
1053:../Dave/Generated/CMSIS_DSP/TransformFunctions/arm_cfft_radix4_f32.c ****             /* xa + xc */
1054:../Dave/Generated/CMSIS_DSP/TransformFunctions/arm_cfft_radix4_f32.c ****             r1 = pSrc[(2u * i0)] + pSrc[(2u * i2)];
1055:../Dave/Generated/CMSIS_DSP/TransformFunctions/arm_cfft_radix4_f32.c **** 
1056:../Dave/Generated/CMSIS_DSP/TransformFunctions/arm_cfft_radix4_f32.c ****             /* xa - xc */
1057:../Dave/Generated/CMSIS_DSP/TransformFunctions/arm_cfft_radix4_f32.c ****             r2 = pSrc[(2u * i0)] - pSrc[(2u * i2)];
1058:../Dave/Generated/CMSIS_DSP/TransformFunctions/arm_cfft_radix4_f32.c **** 
1059:../Dave/Generated/CMSIS_DSP/TransformFunctions/arm_cfft_radix4_f32.c ****             /* ya + yc */
1060:../Dave/Generated/CMSIS_DSP/TransformFunctions/arm_cfft_radix4_f32.c ****             s1 = pSrc[(2u * i0) + 1u] + pSrc[(2u * i2) + 1u];
1061:../Dave/Generated/CMSIS_DSP/TransformFunctions/arm_cfft_radix4_f32.c **** 
1062:../Dave/Generated/CMSIS_DSP/TransformFunctions/arm_cfft_radix4_f32.c ****             /* ya - yc */
1063:../Dave/Generated/CMSIS_DSP/TransformFunctions/arm_cfft_radix4_f32.c ****             s2 = pSrc[(2u * i0) + 1u] - pSrc[(2u * i2) + 1u];
1064:../Dave/Generated/CMSIS_DSP/TransformFunctions/arm_cfft_radix4_f32.c **** 
1065:../Dave/Generated/CMSIS_DSP/TransformFunctions/arm_cfft_radix4_f32.c ****             /* xb + xd */
1066:../Dave/Generated/CMSIS_DSP/TransformFunctions/arm_cfft_radix4_f32.c ****             t1 = pSrc[2u * i1] + pSrc[2u * i3];
1067:../Dave/Generated/CMSIS_DSP/TransformFunctions/arm_cfft_radix4_f32.c **** 
1068:../Dave/Generated/CMSIS_DSP/TransformFunctions/arm_cfft_radix4_f32.c ****             /* xa' = xa + xb + xc + xd */
1069:../Dave/Generated/CMSIS_DSP/TransformFunctions/arm_cfft_radix4_f32.c ****             pSrc[2u * i0] = r1 + t1;
1070:../Dave/Generated/CMSIS_DSP/TransformFunctions/arm_cfft_radix4_f32.c **** 
1071:../Dave/Generated/CMSIS_DSP/TransformFunctions/arm_cfft_radix4_f32.c ****             /* xa + xc -(xb + xd) */
1072:../Dave/Generated/CMSIS_DSP/TransformFunctions/arm_cfft_radix4_f32.c ****             r1 = r1 - t1;
1073:../Dave/Generated/CMSIS_DSP/TransformFunctions/arm_cfft_radix4_f32.c **** 
1074:../Dave/Generated/CMSIS_DSP/TransformFunctions/arm_cfft_radix4_f32.c ****             /* yb + yd */
1075:../Dave/Generated/CMSIS_DSP/TransformFunctions/arm_cfft_radix4_f32.c ****             t2 = pSrc[(2u * i1) + 1u] + pSrc[(2u * i3) + 1u];
1076:../Dave/Generated/CMSIS_DSP/TransformFunctions/arm_cfft_radix4_f32.c **** 
1077:../Dave/Generated/CMSIS_DSP/TransformFunctions/arm_cfft_radix4_f32.c ****             /* ya' = ya + yb + yc + yd */
1078:../Dave/Generated/CMSIS_DSP/TransformFunctions/arm_cfft_radix4_f32.c ****             pSrc[(2u * i0) + 1u] = s1 + t2;
1079:../Dave/Generated/CMSIS_DSP/TransformFunctions/arm_cfft_radix4_f32.c **** 
1080:../Dave/Generated/CMSIS_DSP/TransformFunctions/arm_cfft_radix4_f32.c ****             /* (ya + yc) - (yb + yd) */
1081:../Dave/Generated/CMSIS_DSP/TransformFunctions/arm_cfft_radix4_f32.c ****             s1 = s1 - t2;
1082:../Dave/Generated/CMSIS_DSP/TransformFunctions/arm_cfft_radix4_f32.c **** 
1083:../Dave/Generated/CMSIS_DSP/TransformFunctions/arm_cfft_radix4_f32.c ****             /* (yb - yd) */
1084:../Dave/Generated/CMSIS_DSP/TransformFunctions/arm_cfft_radix4_f32.c ****             t1 = pSrc[(2u * i1) + 1u] - pSrc[(2u * i3) + 1u];
1085:../Dave/Generated/CMSIS_DSP/TransformFunctions/arm_cfft_radix4_f32.c **** 
1086:../Dave/Generated/CMSIS_DSP/TransformFunctions/arm_cfft_radix4_f32.c ****             /* (xb - xd) */
1087:../Dave/Generated/CMSIS_DSP/TransformFunctions/arm_cfft_radix4_f32.c ****             t2 = pSrc[2u * i1] - pSrc[2u * i3];
1088:../Dave/Generated/CMSIS_DSP/TransformFunctions/arm_cfft_radix4_f32.c **** 
1089:../Dave/Generated/CMSIS_DSP/TransformFunctions/arm_cfft_radix4_f32.c ****             /* xc' = (xa-xb+xc-xd)co2 - (ya-yb+yc-yd)(si2) */
1090:../Dave/Generated/CMSIS_DSP/TransformFunctions/arm_cfft_radix4_f32.c ****             pSrc[2u * i1] = (r1 * co2) - (s1 * si2);
1091:../Dave/Generated/CMSIS_DSP/TransformFunctions/arm_cfft_radix4_f32.c **** 
1092:../Dave/Generated/CMSIS_DSP/TransformFunctions/arm_cfft_radix4_f32.c ****             /* yc' = (ya-yb+yc-yd)co2 + (xa-xb+xc-xd)(si2) */
1093:../Dave/Generated/CMSIS_DSP/TransformFunctions/arm_cfft_radix4_f32.c ****             pSrc[(2u * i1) + 1u] = (s1 * co2) + (r1 * si2);
1094:../Dave/Generated/CMSIS_DSP/TransformFunctions/arm_cfft_radix4_f32.c **** 
1095:../Dave/Generated/CMSIS_DSP/TransformFunctions/arm_cfft_radix4_f32.c ****             /* (xa - xc) - (yb - yd) */
1096:../Dave/Generated/CMSIS_DSP/TransformFunctions/arm_cfft_radix4_f32.c ****             r1 = r2 - t1;
1097:../Dave/Generated/CMSIS_DSP/TransformFunctions/arm_cfft_radix4_f32.c **** 
1098:../Dave/Generated/CMSIS_DSP/TransformFunctions/arm_cfft_radix4_f32.c ****             /* (xa - xc) + (yb - yd) */
1099:../Dave/Generated/CMSIS_DSP/TransformFunctions/arm_cfft_radix4_f32.c ****             r2 = r2 + t1;
1100:../Dave/Generated/CMSIS_DSP/TransformFunctions/arm_cfft_radix4_f32.c **** 
1101:../Dave/Generated/CMSIS_DSP/TransformFunctions/arm_cfft_radix4_f32.c ****             /* (ya - yc) +  (xb - xd) */
1102:../Dave/Generated/CMSIS_DSP/TransformFunctions/arm_cfft_radix4_f32.c ****             s1 = s2 + t2;
1103:../Dave/Generated/CMSIS_DSP/TransformFunctions/arm_cfft_radix4_f32.c **** 
1104:../Dave/Generated/CMSIS_DSP/TransformFunctions/arm_cfft_radix4_f32.c ****             /* (ya - yc) -  (xb - xd) */
1105:../Dave/Generated/CMSIS_DSP/TransformFunctions/arm_cfft_radix4_f32.c ****             s2 = s2 - t2;
1106:../Dave/Generated/CMSIS_DSP/TransformFunctions/arm_cfft_radix4_f32.c **** 
1107:../Dave/Generated/CMSIS_DSP/TransformFunctions/arm_cfft_radix4_f32.c ****             /* xb' = (xa+yb-xc-yd)co1 - (ya-xb-yc+xd)(si1) */
1108:../Dave/Generated/CMSIS_DSP/TransformFunctions/arm_cfft_radix4_f32.c ****             pSrc[2u * i2] = (r1 * co1) - (s1 * si1);
1109:../Dave/Generated/CMSIS_DSP/TransformFunctions/arm_cfft_radix4_f32.c **** 
1110:../Dave/Generated/CMSIS_DSP/TransformFunctions/arm_cfft_radix4_f32.c ****             /* yb' = (ya-xb-yc+xd)co1 + (xa+yb-xc-yd)(si1) */
1111:../Dave/Generated/CMSIS_DSP/TransformFunctions/arm_cfft_radix4_f32.c ****             pSrc[(2u * i2) + 1u] = (s1 * co1) + (r1 * si1);
1112:../Dave/Generated/CMSIS_DSP/TransformFunctions/arm_cfft_radix4_f32.c **** 
1113:../Dave/Generated/CMSIS_DSP/TransformFunctions/arm_cfft_radix4_f32.c ****             /* xd' = (xa-yb-xc+yd)co3 - (ya+xb-yc-xd)(si3) */
1114:../Dave/Generated/CMSIS_DSP/TransformFunctions/arm_cfft_radix4_f32.c ****             pSrc[2u * i3] = (r2 * co3) - (s2 * si3);
1115:../Dave/Generated/CMSIS_DSP/TransformFunctions/arm_cfft_radix4_f32.c **** 
1116:../Dave/Generated/CMSIS_DSP/TransformFunctions/arm_cfft_radix4_f32.c ****             /* yd' = (ya+xb-yc-xd)co3 + (xa-yb-xc+yd)(si3) */
1117:../Dave/Generated/CMSIS_DSP/TransformFunctions/arm_cfft_radix4_f32.c ****             pSrc[(2u * i3) + 1u] = (s2 * co3) + (r2 * si3);
1118:../Dave/Generated/CMSIS_DSP/TransformFunctions/arm_cfft_radix4_f32.c **** 
1119:../Dave/Generated/CMSIS_DSP/TransformFunctions/arm_cfft_radix4_f32.c ****             i0 += n1;
1120:../Dave/Generated/CMSIS_DSP/TransformFunctions/arm_cfft_radix4_f32.c ****          } while ( i0 < fftLen);
1121:../Dave/Generated/CMSIS_DSP/TransformFunctions/arm_cfft_radix4_f32.c ****          j++;
1122:../Dave/Generated/CMSIS_DSP/TransformFunctions/arm_cfft_radix4_f32.c ****       } while (j <= (n2 - 1u));
1123:../Dave/Generated/CMSIS_DSP/TransformFunctions/arm_cfft_radix4_f32.c ****       twidCoefModifier <<= 2u;
1124:../Dave/Generated/CMSIS_DSP/TransformFunctions/arm_cfft_radix4_f32.c ****    }
1125:../Dave/Generated/CMSIS_DSP/TransformFunctions/arm_cfft_radix4_f32.c ****    /*  Initializations of last stage */
1126:../Dave/Generated/CMSIS_DSP/TransformFunctions/arm_cfft_radix4_f32.c ****    n1 = n2;
1127:../Dave/Generated/CMSIS_DSP/TransformFunctions/arm_cfft_radix4_f32.c ****    n2 >>= 2u;
1128:../Dave/Generated/CMSIS_DSP/TransformFunctions/arm_cfft_radix4_f32.c **** 
1129:../Dave/Generated/CMSIS_DSP/TransformFunctions/arm_cfft_radix4_f32.c ****    /*  Calculations of last stage */
1130:../Dave/Generated/CMSIS_DSP/TransformFunctions/arm_cfft_radix4_f32.c ****    for (i0 = 0u; i0 <= (fftLen - n1); i0 += n1)
1131:../Dave/Generated/CMSIS_DSP/TransformFunctions/arm_cfft_radix4_f32.c ****    {
1132:../Dave/Generated/CMSIS_DSP/TransformFunctions/arm_cfft_radix4_f32.c ****       /*  index calculation for the input as, */
1133:../Dave/Generated/CMSIS_DSP/TransformFunctions/arm_cfft_radix4_f32.c ****       /*  pSrc[i0 + 0], pSrc[i0 + fftLen/4], pSrc[i0 + fftLen/2], pSrc[i0 + 3fftLen/4] */
1134:../Dave/Generated/CMSIS_DSP/TransformFunctions/arm_cfft_radix4_f32.c ****       i1 = i0 + n2;
1135:../Dave/Generated/CMSIS_DSP/TransformFunctions/arm_cfft_radix4_f32.c ****       i2 = i1 + n2;
1136:../Dave/Generated/CMSIS_DSP/TransformFunctions/arm_cfft_radix4_f32.c ****       i3 = i2 + n2;
1137:../Dave/Generated/CMSIS_DSP/TransformFunctions/arm_cfft_radix4_f32.c **** 
1138:../Dave/Generated/CMSIS_DSP/TransformFunctions/arm_cfft_radix4_f32.c ****       /*  Butterfly implementation */
1139:../Dave/Generated/CMSIS_DSP/TransformFunctions/arm_cfft_radix4_f32.c ****       /* xa + xc */
1140:../Dave/Generated/CMSIS_DSP/TransformFunctions/arm_cfft_radix4_f32.c ****       r1 = pSrc[2u * i0] + pSrc[2u * i2];
1141:../Dave/Generated/CMSIS_DSP/TransformFunctions/arm_cfft_radix4_f32.c **** 
1142:../Dave/Generated/CMSIS_DSP/TransformFunctions/arm_cfft_radix4_f32.c ****       /* xa - xc */
1143:../Dave/Generated/CMSIS_DSP/TransformFunctions/arm_cfft_radix4_f32.c ****       r2 = pSrc[2u * i0] - pSrc[2u * i2];
1144:../Dave/Generated/CMSIS_DSP/TransformFunctions/arm_cfft_radix4_f32.c **** 
1145:../Dave/Generated/CMSIS_DSP/TransformFunctions/arm_cfft_radix4_f32.c ****       /* ya + yc */
1146:../Dave/Generated/CMSIS_DSP/TransformFunctions/arm_cfft_radix4_f32.c ****       s1 = pSrc[(2u * i0) + 1u] + pSrc[(2u * i2) + 1u];
1147:../Dave/Generated/CMSIS_DSP/TransformFunctions/arm_cfft_radix4_f32.c **** 
1148:../Dave/Generated/CMSIS_DSP/TransformFunctions/arm_cfft_radix4_f32.c ****       /* ya - yc */
1149:../Dave/Generated/CMSIS_DSP/TransformFunctions/arm_cfft_radix4_f32.c ****       s2 = pSrc[(2u * i0) + 1u] - pSrc[(2u * i2) + 1u];
1150:../Dave/Generated/CMSIS_DSP/TransformFunctions/arm_cfft_radix4_f32.c **** 
1151:../Dave/Generated/CMSIS_DSP/TransformFunctions/arm_cfft_radix4_f32.c ****       /* xc + xd */
1152:../Dave/Generated/CMSIS_DSP/TransformFunctions/arm_cfft_radix4_f32.c ****       t1 = pSrc[2u * i1] + pSrc[2u * i3];
1153:../Dave/Generated/CMSIS_DSP/TransformFunctions/arm_cfft_radix4_f32.c **** 
1154:../Dave/Generated/CMSIS_DSP/TransformFunctions/arm_cfft_radix4_f32.c ****       /* xa' = xa + xb + xc + xd */
1155:../Dave/Generated/CMSIS_DSP/TransformFunctions/arm_cfft_radix4_f32.c ****       pSrc[2u * i0] = (r1 + t1) * onebyfftLen;
1156:../Dave/Generated/CMSIS_DSP/TransformFunctions/arm_cfft_radix4_f32.c **** 
1157:../Dave/Generated/CMSIS_DSP/TransformFunctions/arm_cfft_radix4_f32.c ****       /* (xa + xb) - (xc + xd) */
1158:../Dave/Generated/CMSIS_DSP/TransformFunctions/arm_cfft_radix4_f32.c ****       r1 = r1 - t1;
1159:../Dave/Generated/CMSIS_DSP/TransformFunctions/arm_cfft_radix4_f32.c **** 
1160:../Dave/Generated/CMSIS_DSP/TransformFunctions/arm_cfft_radix4_f32.c ****       /* yb + yd */
1161:../Dave/Generated/CMSIS_DSP/TransformFunctions/arm_cfft_radix4_f32.c ****       t2 = pSrc[(2u * i1) + 1u] + pSrc[(2u * i3) + 1u];
1162:../Dave/Generated/CMSIS_DSP/TransformFunctions/arm_cfft_radix4_f32.c **** 
1163:../Dave/Generated/CMSIS_DSP/TransformFunctions/arm_cfft_radix4_f32.c ****       /* ya' = ya + yb + yc + yd */
1164:../Dave/Generated/CMSIS_DSP/TransformFunctions/arm_cfft_radix4_f32.c ****       pSrc[(2u * i0) + 1u] = (s1 + t2) * onebyfftLen;
1165:../Dave/Generated/CMSIS_DSP/TransformFunctions/arm_cfft_radix4_f32.c **** 
1166:../Dave/Generated/CMSIS_DSP/TransformFunctions/arm_cfft_radix4_f32.c ****       /* (ya + yc) - (yb + yd) */
1167:../Dave/Generated/CMSIS_DSP/TransformFunctions/arm_cfft_radix4_f32.c ****       s1 = s1 - t2;
1168:../Dave/Generated/CMSIS_DSP/TransformFunctions/arm_cfft_radix4_f32.c **** 
1169:../Dave/Generated/CMSIS_DSP/TransformFunctions/arm_cfft_radix4_f32.c ****       /* (yb-yd) */
1170:../Dave/Generated/CMSIS_DSP/TransformFunctions/arm_cfft_radix4_f32.c ****       t1 = pSrc[(2u * i1) + 1u] - pSrc[(2u * i3) + 1u];
1171:../Dave/Generated/CMSIS_DSP/TransformFunctions/arm_cfft_radix4_f32.c **** 
1172:../Dave/Generated/CMSIS_DSP/TransformFunctions/arm_cfft_radix4_f32.c ****       /* (xb-xd) */
1173:../Dave/Generated/CMSIS_DSP/TransformFunctions/arm_cfft_radix4_f32.c ****       t2 = pSrc[2u * i1] - pSrc[2u * i3];
1174:../Dave/Generated/CMSIS_DSP/TransformFunctions/arm_cfft_radix4_f32.c **** 
1175:../Dave/Generated/CMSIS_DSP/TransformFunctions/arm_cfft_radix4_f32.c ****       /* xc' = (xa-xb+xc-xd)co2 - (ya-yb+yc-yd)(si2) */
1176:../Dave/Generated/CMSIS_DSP/TransformFunctions/arm_cfft_radix4_f32.c ****       pSrc[2u * i1] = r1 * onebyfftLen;
1177:../Dave/Generated/CMSIS_DSP/TransformFunctions/arm_cfft_radix4_f32.c **** 
1178:../Dave/Generated/CMSIS_DSP/TransformFunctions/arm_cfft_radix4_f32.c ****       /* yc' = (ya-yb+yc-yd)co2 + (xa-xb+xc-xd)(si2) */
1179:../Dave/Generated/CMSIS_DSP/TransformFunctions/arm_cfft_radix4_f32.c ****       pSrc[(2u * i1) + 1u] = s1 * onebyfftLen;
1180:../Dave/Generated/CMSIS_DSP/TransformFunctions/arm_cfft_radix4_f32.c **** 
1181:../Dave/Generated/CMSIS_DSP/TransformFunctions/arm_cfft_radix4_f32.c ****       /* (xa - xc) - (yb-yd) */
1182:../Dave/Generated/CMSIS_DSP/TransformFunctions/arm_cfft_radix4_f32.c ****       r1 = r2 - t1;
1183:../Dave/Generated/CMSIS_DSP/TransformFunctions/arm_cfft_radix4_f32.c **** 
1184:../Dave/Generated/CMSIS_DSP/TransformFunctions/arm_cfft_radix4_f32.c ****       /* (xa - xc) + (yb-yd) */
1185:../Dave/Generated/CMSIS_DSP/TransformFunctions/arm_cfft_radix4_f32.c ****       r2 = r2 + t1;
1186:../Dave/Generated/CMSIS_DSP/TransformFunctions/arm_cfft_radix4_f32.c **** 
1187:../Dave/Generated/CMSIS_DSP/TransformFunctions/arm_cfft_radix4_f32.c ****       /* (ya - yc) + (xb-xd) */
1188:../Dave/Generated/CMSIS_DSP/TransformFunctions/arm_cfft_radix4_f32.c ****       s1 = s2 + t2;
1189:../Dave/Generated/CMSIS_DSP/TransformFunctions/arm_cfft_radix4_f32.c **** 
1190:../Dave/Generated/CMSIS_DSP/TransformFunctions/arm_cfft_radix4_f32.c ****       /* (ya - yc) - (xb-xd) */
1191:../Dave/Generated/CMSIS_DSP/TransformFunctions/arm_cfft_radix4_f32.c ****       s2 = s2 - t2;
1192:../Dave/Generated/CMSIS_DSP/TransformFunctions/arm_cfft_radix4_f32.c **** 
1193:../Dave/Generated/CMSIS_DSP/TransformFunctions/arm_cfft_radix4_f32.c ****       /* xb' = (xa+yb-xc-yd)co1 - (ya-xb-yc+xd)(si1) */
1194:../Dave/Generated/CMSIS_DSP/TransformFunctions/arm_cfft_radix4_f32.c ****       pSrc[2u * i2] = r1 * onebyfftLen;
1195:../Dave/Generated/CMSIS_DSP/TransformFunctions/arm_cfft_radix4_f32.c **** 
1196:../Dave/Generated/CMSIS_DSP/TransformFunctions/arm_cfft_radix4_f32.c ****       /* yb' = (ya-xb-yc+xd)co1 + (xa+yb-xc-yd)(si1) */
1197:../Dave/Generated/CMSIS_DSP/TransformFunctions/arm_cfft_radix4_f32.c ****       pSrc[(2u * i2) + 1u] = s1 * onebyfftLen;
1198:../Dave/Generated/CMSIS_DSP/TransformFunctions/arm_cfft_radix4_f32.c **** 
1199:../Dave/Generated/CMSIS_DSP/TransformFunctions/arm_cfft_radix4_f32.c ****       /* xd' = (xa-yb-xc+yd)co3 - (ya+xb-yc-xd)(si3) */
1200:../Dave/Generated/CMSIS_DSP/TransformFunctions/arm_cfft_radix4_f32.c ****       pSrc[2u * i3] = r2 * onebyfftLen;
1201:../Dave/Generated/CMSIS_DSP/TransformFunctions/arm_cfft_radix4_f32.c **** 
1202:../Dave/Generated/CMSIS_DSP/TransformFunctions/arm_cfft_radix4_f32.c ****       /* yd' = (ya+xb-yc-xd)co3 + (xa-yb-xc+yd)(si3) */
1203:../Dave/Generated/CMSIS_DSP/TransformFunctions/arm_cfft_radix4_f32.c ****       pSrc[(2u * i3) + 1u] = s2 * onebyfftLen;
1204:../Dave/Generated/CMSIS_DSP/TransformFunctions/arm_cfft_radix4_f32.c ****    }
1205:../Dave/Generated/CMSIS_DSP/TransformFunctions/arm_cfft_radix4_f32.c **** 
1206:../Dave/Generated/CMSIS_DSP/TransformFunctions/arm_cfft_radix4_f32.c **** #endif /* #if defined (ARM_MATH_DSP) */
1207:../Dave/Generated/CMSIS_DSP/TransformFunctions/arm_cfft_radix4_f32.c **** }
 2203              	 .loc 1 1207 0
 2204 0aea 07F58677 	 add r7,r7,#268
 2205              	.LCFI14:
 2206              	 .cfi_def_cfa_offset 4
 2207 0aee BD46     	 mov sp,r7
 2208              	.LCFI15:
 2209              	 .cfi_def_cfa_register 13
 2210              	 
 2211 0af0 5DF8047B 	 ldr r7,[sp],#4
 2212              	.LCFI16:
 2213              	 .cfi_restore 7
 2214              	 .cfi_def_cfa_offset 0
 2215 0af4 7047     	 bx lr
 2216              	 .cfi_endproc
 2217              	.LFE137:
 2219 0af6 00BF     	 .text
 2220              	.Letext0:
 2221              	 .file 2 "c:\\program files (x86)\\dave\\eclipse\\arm-gcc-49\\arm-none-eabi\\include\\machine\\_default_types.h"
 2222              	 .file 3 "c:\\program files (x86)\\dave\\eclipse\\arm-gcc-49\\arm-none-eabi\\include\\stdint.h"
 2223              	 .file 4 "C:/Users/VMORAIS/Documents/DAVE_WS/1p_inverter_200V/Dave/Generated/CMSIS_DSP/arm_math.h"