   1              	 .syntax unified
   2              	 .cpu cortex-m4
   3              	 .eabi_attribute 27,3
   4              	 .fpu fpv4-sp-d16
   5              	 .eabi_attribute 20,1
   6              	 .eabi_attribute 21,1
   7              	 .eabi_attribute 23,3
   8              	 .eabi_attribute 24,1
   9              	 .eabi_attribute 25,1
  10              	 .eabi_attribute 26,1
  11              	 .eabi_attribute 30,4
  12              	 .eabi_attribute 34,1
  13              	 .eabi_attribute 18,4
  14              	 .thumb
  15              	 .file "probe_scope.c"
  16              	 .section .text.ProbeScope_SamplePosNext,"ax",%progbits
  17              	 .align 1
  18              	 .thumb
  19              	 .thumb_func
  21              	ProbeScope_SamplePosNext:
  22              	 
  23              	 
  24              	 
  25 0000 054A     	 ldr r2,.L5
  26 0002 0649     	 ldr r1,.L5+4
  27 0004 1368     	 ldr r3,[r2]
  28 0006 0B60     	 str r3,[r1]
  29 0008 0133     	 adds r3,r3,#1
  30 000a B3F57A7F 	 cmp r3,#1000
  31 000e 28BF     	 it cs
  32 0010 0023     	 movcs r3,#0
  33 0012 1360     	 str r3,[r2]
  34 0014 7047     	 bx lr
  35              	.L6:
  36 0016 00BF     	 .align 2
  37              	.L5:
  38 0018 00000000 	 .word .LANCHOR0
  39 001c 00000000 	 .word .LANCHOR1
  41              	 .section .text.ProbeScope_SampleCh,"ax",%progbits
  42              	 .align 1
  43              	 .thumb
  44              	 .thumb_func
  46              	ProbeScope_SampleCh:
  47              	 
  48              	 
  49 0000 0368     	 ldr r3,[r0]
  50 0002 012B     	 cmp r3,#1
  51 0004 10B5     	 push {r4,lr}
  52 0006 5AD1     	 bne .L7
  53 0008 2D4B     	 ldr r3,.L37
  54 000a 0279     	 ldrb r2,[r0,#4]
  55 000c 1B68     	 ldr r3,[r3]
  56 000e 062A     	 cmp r2,#6
  57 0010 55D8     	 bhi .L7
  58 0012 DFE802F0 	 tbb [pc,r2]
  59              	.L10:
  60 0016 04       	 .byte (.L9-.L10)/2
  61 0017 10       	 .byte (.L11-.L10)/2
  62 0018 21       	 .byte (.L12-.L10)/2
  63 0019 2D       	 .byte (.L13-.L10)/2
  64 001a 3F       	 .byte (.L15-.L10)/2
  65 001b 3F       	 .byte (.L15-.L10)/2
  66 001c 4F       	 .byte (.L16-.L10)/2
  67 001d 00       	 .p2align 1
  68              	.L9:
  69 001e 8268     	 ldr r2,[r0,#8]
  70 0020 0169     	 ldr r1,[r0,#16]
  71 0022 0633     	 adds r3,r3,#6
  72 0024 5AB1     	 cbz r2,.L33
  73 0026 047B     	 ldrb r4,[r0,#12]
  74 0028 0978     	 ldrb r1,[r1]
  75 002a 0122     	 movs r2,#1
  76 002c A240     	 lsls r2,r2,r4
  77 002e 0A40     	 ands r2,r2,r1
  78 0030 18BF     	 it ne
  79 0032 0122     	 movne r2,#1
  80 0034 0DE0     	 b .L32
  81              	.L11:
  82 0036 8268     	 ldr r2,[r0,#8]
  83 0038 0169     	 ldr r1,[r0,#16]
  84 003a 0633     	 adds r3,r3,#6
  85 003c 0AB9     	 cbnz r2,.L19
  86              	.L33:
  87 003e 0A78     	 ldrb r2,[r1]
  88 0040 07E0     	 b .L32
  89              	.L19:
  90 0042 047B     	 ldrb r4,[r0,#12]
  91 0044 0978     	 ldrb r1,[r1]
  92 0046 0122     	 movs r2,#1
  93 0048 A240     	 lsls r2,r2,r4
  94 004a 0A40     	 ands r2,r2,r1
  95 004c 0032     	 adds r2,r2,#0
  96 004e 18BF     	 it ne
  97 0050 0122     	 movne r2,#1
  98              	.L32:
  99 0052 00F82320 	 strb r2,[r0,r3,lsl#2]
 100 0056 10BD     	 pop {r4,pc}
 101              	.L12:
 102 0058 8268     	 ldr r2,[r0,#8]
 103 005a 0169     	 ldr r1,[r0,#16]
 104 005c 0633     	 adds r3,r3,#6
 105 005e 5AB1     	 cbz r2,.L30
 106 0060 047B     	 ldrb r4,[r0,#12]
 107 0062 0988     	 ldrh r1,[r1]
 108 0064 0122     	 movs r2,#1
 109 0066 A240     	 lsls r2,r2,r4
 110 0068 0A40     	 ands r2,r2,r1
 111 006a 18BF     	 it ne
 112 006c 0122     	 movne r2,#1
 113 006e 0EE0     	 b .L31
 114              	.L13:
 115 0070 8268     	 ldr r2,[r0,#8]
 116 0072 0169     	 ldr r1,[r0,#16]
 117 0074 0633     	 adds r3,r3,#6
 118 0076 0AB9     	 cbnz r2,.L23
 119              	.L30:
 120 0078 0A88     	 ldrh r2,[r1]
 121 007a 08E0     	 b .L31
 122              	.L23:
 123 007c 047B     	 ldrb r4,[r0,#12]
 124 007e 0988     	 ldrh r1,[r1]
 125 0080 0122     	 movs r2,#1
 126 0082 A240     	 lsls r2,r2,r4
 127 0084 0A40     	 ands r2,r2,r1
 128 0086 12B2     	 sxth r2,r2
 129 0088 002A     	 cmp r2,#0
 130 008a 18BF     	 it ne
 131 008c 0122     	 movne r2,#1
 132              	.L31:
 133 008e 20F82320 	 strh r2,[r0,r3,lsl#2]
 134 0092 10BD     	 pop {r4,pc}
 135              	.L15:
 136 0094 8268     	 ldr r2,[r0,#8]
 137 0096 0169     	 ldr r1,[r0,#16]
 138 0098 0633     	 adds r3,r3,#6
 139 009a 0AB9     	 cbnz r2,.L27
 140 009c 0A68     	 ldr r2,[r1]
 141 009e 06E0     	 b .L29
 142              	.L27:
 143 00a0 047B     	 ldrb r4,[r0,#12]
 144 00a2 0968     	 ldr r1,[r1]
 145 00a4 0122     	 movs r2,#1
 146 00a6 A240     	 lsls r2,r2,r4
 147 00a8 0A40     	 ands r2,r2,r1
 148 00aa 18BF     	 it ne
 149 00ac 0122     	 movne r2,#1
 150              	.L29:
 151 00ae 40F82320 	 str r2,[r0,r3,lsl#2]
 152 00b2 10BD     	 pop {r4,pc}
 153              	.L16:
 154 00b4 0269     	 ldr r2,[r0,#16]
 155 00b6 00EB8300 	 add r0,r0,r3,lsl#2
 156 00ba 1268     	 ldr r2,[r2]
 157 00bc 8261     	 str r2,[r0,#24]
 158              	.L7:
 159 00be 10BD     	 pop {r4,pc}
 160              	.L38:
 161              	 .align 2
 162              	.L37:
 163 00c0 00000000 	 .word .LANCHOR0
 165              	 .section .text.ProbeScope_SampleChAll,"ax",%progbits
 166              	 .align 1
 167              	 .thumb
 168              	 .thumb_func
 170              	ProbeScope_SampleChAll:
 171              	 
 172              	 
 173 0000 08B5     	 push {r3,lr}
 174 0002 0D48     	 ldr r0,.L40
 175 0004 FFF7FEFF 	 bl ProbeScope_SampleCh
 176 0008 0C48     	 ldr r0,.L40+4
 177 000a FFF7FEFF 	 bl ProbeScope_SampleCh
 178 000e 0C48     	 ldr r0,.L40+8
 179 0010 FFF7FEFF 	 bl ProbeScope_SampleCh
 180 0014 0B48     	 ldr r0,.L40+12
 181 0016 FFF7FEFF 	 bl ProbeScope_SampleCh
 182 001a 0B48     	 ldr r0,.L40+16
 183 001c FFF7FEFF 	 bl ProbeScope_SampleCh
 184 0020 0A48     	 ldr r0,.L40+20
 185 0022 FFF7FEFF 	 bl ProbeScope_SampleCh
 186 0026 0A48     	 ldr r0,.L40+24
 187 0028 FFF7FEFF 	 bl ProbeScope_SampleCh
 188 002c 0948     	 ldr r0,.L40+28
 189 002e BDE80840 	 pop {r3,lr}
 190 0032 FFF7FEBF 	 b ProbeScope_SampleCh
 191              	.L41:
 192 0036 00BF     	 .align 2
 193              	.L40:
 194 0038 00000000 	 .word .LANCHOR2
 195 003c 00000000 	 .word .LANCHOR3
 196 0040 00000000 	 .word .LANCHOR4
 197 0044 00000000 	 .word .LANCHOR5
 198 0048 00000000 	 .word .LANCHOR6
 199 004c 00000000 	 .word .LANCHOR7
 200 0050 00000000 	 .word .LANCHOR8
 201 0054 00000000 	 .word .LANCHOR9
 203              	 .section .text.ProbeScope_ModeTrig,"ax",%progbits
 204              	 .align 1
 205              	 .thumb
 206              	 .thumb_func
 208              	ProbeScope_ModeTrig:
 209              	 
 210              	 
 211 0000 A24A     	 ldr r2,.L193
 212 0002 1388     	 ldrh r3,[r2]
 213 0004 012B     	 cmp r3,#1
 214 0006 70B5     	 push {r4,r5,r6,lr}
 215 0008 1146     	 mov r1,r2
 216 000a 02D9     	 bls .L43
 217 000c 013B     	 subs r3,r3,#1
 218 000e 1380     	 strh r3,[r2]
 219 0010 70BD     	 pop {r4,r5,r6,pc}
 220              	.L43:
 221 0012 9F4B     	 ldr r3,.L193+4
 222 0014 1A88     	 ldrh r2,[r3]
 223 0016 0AB9     	 cbnz r2,.L45
 224 0018 0122     	 movs r2,#1
 225 001a 1A80     	 strh r2,[r3]
 226              	.L45:
 227 001c 9D4D     	 ldr r5,.L193+8
 228 001e 1B88     	 ldrh r3,[r3]
 229 0020 0B80     	 strh r3,[r1]
 230 0022 2B78     	 ldrb r3,[r5]
 231 0024 032B     	 cmp r3,#3
 232 0026 00F20D82 	 bhi .L46
 233 002a DFE813F0 	 tbh [pc,r3,lsl#1]
 234              	.L48:
 235 002e 0400     	 .2byte (.L47-.L48)/2
 236 0030 1B00     	 .2byte (.L49-.L48)/2
 237 0032 DD01     	 .2byte (.L50-.L48)/2
 238 0034 F401     	 .2byte (.L51-.L48)/2
 239              	 .p2align 1
 240              	.L47:
 241 0036 984A     	 ldr r2,.L193+12
 242 0038 0023     	 movs r3,#0
 243 003a 1360     	 str r3,[r2]
 244 003c 974A     	 ldr r2,.L193+16
 245 003e 1360     	 str r3,[r2]
 246 0040 974A     	 ldr r2,.L193+20
 247 0042 1360     	 str r3,[r2]
 248 0044 974A     	 ldr r2,.L193+24
 249 0046 1360     	 str r3,[r2]
 250 0048 974A     	 ldr r2,.L193+28
 251 004a 1360     	 str r3,[r2]
 252 004c 974A     	 ldr r2,.L193+32
 253 004e 1360     	 str r3,[r2]
 254 0050 974B     	 ldr r3,.L193+36
 255 0052 1A68     	 ldr r2,[r3]
 256 0054 974B     	 ldr r3,.L193+40
 257 0056 1A60     	 str r2,[r3]
 258 0058 FFF7FEFF 	 bl ProbeScope_SampleChAll
 259 005c FFF7FEFF 	 bl ProbeScope_SamplePosNext
 260 0060 0123     	 movs r3,#1
 261 0062 F0E1     	 b .L150
 262              	.L49:
 263 0064 FFF7FEFF 	 bl ProbeScope_SampleChAll
 264 0068 924A     	 ldr r2,.L193+40
 265 006a 8C4C     	 ldr r4,.L193+16
 266 006c 1368     	 ldr r3,[r2]
 267 006e 13B1     	 cbz r3,.L52
 268 0070 013B     	 subs r3,r3,#1
 269 0072 1360     	 str r3,[r2]
 270 0074 AAE1     	 b .L53
 271              	.L52:
 272 0076 904B     	 ldr r3,.L193+44
 273 0078 1A78     	 ldrb r2,[r3]
 274 007a 013A     	 subs r2,r2,#1
 275 007c 072A     	 cmp r2,#7
 276 007e 13D8     	 bhi .L54
 277 0080 DFE802F0 	 tbb [pc,r2]
 278              	.L56:
 279 0084 14       	 .byte (.L105-.L56)/2
 280 0085 04       	 .byte (.L57-.L56)/2
 281 0086 06       	 .byte (.L58-.L56)/2
 282 0087 08       	 .byte (.L59-.L56)/2
 283 0088 0A       	 .byte (.L60-.L56)/2
 284 0089 0C       	 .byte (.L61-.L56)/2
 285 008a 0E       	 .byte (.L62-.L56)/2
 286 008b 10       	 .byte (.L63-.L56)/2
 287              	 .p2align 1
 288              	.L57:
 289 008c 8B4B     	 ldr r3,.L193+48
 290 008e 0EE0     	 b .L55
 291              	.L58:
 292 0090 8B4B     	 ldr r3,.L193+52
 293 0092 0CE0     	 b .L55
 294              	.L59:
 295 0094 8B4B     	 ldr r3,.L193+56
 296 0096 0AE0     	 b .L55
 297              	.L60:
 298 0098 8B4B     	 ldr r3,.L193+60
 299 009a 08E0     	 b .L55
 300              	.L61:
 301 009c 8B4B     	 ldr r3,.L193+64
 302 009e 06E0     	 b .L55
 303              	.L62:
 304 00a0 8B4B     	 ldr r3,.L193+68
 305 00a2 04E0     	 b .L55
 306              	.L63:
 307 00a4 8B4B     	 ldr r3,.L193+72
 308 00a6 02E0     	 b .L55
 309              	.L54:
 310 00a8 0122     	 movs r2,#1
 311 00aa 1A70     	 strb r2,[r3]
 312              	.L105:
 313 00ac 8A4B     	 ldr r3,.L193+76
 314              	.L55:
 315 00ae 0022     	 movs r2,#0
 316 00b0 2260     	 str r2,[r4]
 317 00b2 1A68     	 ldr r2,[r3]
 318 00b4 012A     	 cmp r2,#1
 319 00b6 40F08981 	 bne .L53
 320 00ba 8848     	 ldr r0,.L193+80
 321 00bc 784A     	 ldr r2,.L193+20
 322 00be 0068     	 ldr r0,[r0]
 323 00c0 7849     	 ldr r1,.L193+24
 324 00c2 1268     	 ldr r2,[r2]
 325 00c4 0968     	 ldr r1,[r1]
 326 00c6 0128     	 cmp r0,#1
 327 00c8 1879     	 ldrb r0,[r3,#4]
 328 00ca 40F0B280 	 bne .L64
 329 00ce 0628     	 cmp r0,#6
 330 00d0 00F27C81 	 bhi .L53
 331 00d4 DFE800F0 	 tbb [pc,r0]
 332              	.L66:
 333 00d8 04       	 .byte (.L65-.L66)/2
 334 00d9 1A       	 .byte (.L67-.L66)/2
 335 00da 31       	 .byte (.L68-.L66)/2
 336 00db 47       	 .byte (.L69-.L66)/2
 337 00dc 5E       	 .byte (.L70-.L66)/2
 338 00dd 71       	 .byte (.L71-.L66)/2
 339 00de 90       	 .byte (.L72-.L66)/2
 340 00df 00       	 .p2align 1
 341              	.L65:
 342 00e0 9868     	 ldr r0,[r3,#8]
 343 00e2 0632     	 adds r2,r2,#6
 344 00e4 48B9     	 cbnz r0,.L73
 345 00e6 13F82200 	 ldrb r0,[r3,r2,lsl#2]
 346 00ea 8A1D     	 adds r2,r1,#6
 347 00ec 13F82220 	 ldrb r2,[r3,r2,lsl#2]
 348 00f0 9042     	 cmp r0,r2
 349 00f2 80F06B81 	 bcs .L53
 350 00f6 1B7D     	 ldrb r3,[r3,#20]
 351 00f8 58E0     	 b .L180
 352              	.L73:
 353 00fa 13F82220 	 ldrb r2,[r3,r2,lsl#2]
 354 00fe 002A     	 cmp r2,#0
 355 0100 40F06481 	 bne .L53
 356 0104 8A1D     	 adds r2,r1,#6
 357 0106 13F82230 	 ldrb r3,[r3,r2,lsl#2]
 358 010a 71E0     	 b .L155
 359              	.L67:
 360 010c 9E68     	 ldr r6,[r3,#8]
 361 010e 901D     	 adds r0,r2,#6
 362 0110 56B9     	 cbnz r6,.L74
 363 0112 8A1D     	 adds r2,r1,#6
 364 0114 13F92000 	 ldrsb r0,[r3,r0,lsl#2]
 365 0118 13F92220 	 ldrsb r2,[r3,r2,lsl#2]
 366 011c 9042     	 cmp r0,r2
 367 011e 80F25581 	 bge .L53
 368 0122 93F91430 	 ldrsb r3,[r3,#20]
 369 0126 54E0     	 b .L183
 370              	.L74:
 371 0128 13F92020 	 ldrsb r2,[r3,r0,lsl#2]
 372 012c 002A     	 cmp r2,#0
 373 012e 40F04D81 	 bne .L53
 374 0132 8A1D     	 adds r2,r1,#6
 375 0134 13F92230 	 ldrsb r3,[r3,r2,lsl#2]
 376 0138 5AE0     	 b .L155
 377              	.L68:
 378 013a 9868     	 ldr r0,[r3,#8]
 379 013c 0632     	 adds r2,r2,#6
 380 013e 48B9     	 cbnz r0,.L75
 381 0140 33F82200 	 ldrh r0,[r3,r2,lsl#2]
 382 0144 8A1D     	 adds r2,r1,#6
 383 0146 33F82220 	 ldrh r2,[r3,r2,lsl#2]
 384 014a 9042     	 cmp r0,r2
 385 014c 80F03E81 	 bcs .L53
 386 0150 9B8A     	 ldrh r3,[r3,#20]
 387 0152 2BE0     	 b .L180
 388              	.L75:
 389 0154 33F82220 	 ldrh r2,[r3,r2,lsl#2]
 390 0158 002A     	 cmp r2,#0
 391 015a 40F03781 	 bne .L53
 392 015e 8A1D     	 adds r2,r1,#6
 393 0160 33F82230 	 ldrh r3,[r3,r2,lsl#2]
 394 0164 44E0     	 b .L155
 395              	.L69:
 396 0166 9E68     	 ldr r6,[r3,#8]
 397 0168 901D     	 adds r0,r2,#6
 398 016a 56B9     	 cbnz r6,.L76
 399 016c 8A1D     	 adds r2,r1,#6
 400 016e 33F92000 	 ldrsh r0,[r3,r0,lsl#2]
 401 0172 33F92220 	 ldrsh r2,[r3,r2,lsl#2]
 402 0176 9042     	 cmp r0,r2
 403 0178 80F22881 	 bge .L53
 404 017c B3F91430 	 ldrsh r3,[r3,#20]
 405 0180 27E0     	 b .L183
 406              	.L76:
 407 0182 33F92020 	 ldrsh r2,[r3,r0,lsl#2]
 408 0186 002A     	 cmp r2,#0
 409 0188 40F02081 	 bne .L53
 410 018c 8A1D     	 adds r2,r1,#6
 411 018e 33F92230 	 ldrsh r3,[r3,r2,lsl#2]
 412 0192 2DE0     	 b .L155
 413              	.L70:
 414 0194 9868     	 ldr r0,[r3,#8]
 415 0196 0632     	 adds r2,r2,#6
 416 0198 10BB     	 cbnz r0,.L78
 417 019a 53F82200 	 ldr r0,[r3,r2,lsl#2]
 418 019e 8A1D     	 adds r2,r1,#6
 419 01a0 53F82220 	 ldr r2,[r3,r2,lsl#2]
 420 01a4 9042     	 cmp r0,r2
 421 01a6 80F01181 	 bcs .L53
 422 01aa 5B69     	 ldr r3,[r3,#20]
 423              	.L180:
 424 01ac 9842     	 cmp r0,r3
 425 01ae 00F20D81 	 bhi .L53
 426 01b2 9A42     	 cmp r2,r3
 427 01b4 C0F00A81 	 bcc .L53
 428 01b8 04E1     	 b .L148
 429              	.L71:
 430 01ba 9868     	 ldr r0,[r3,#8]
 431 01bc 0632     	 adds r2,r2,#6
 432 01be 78B9     	 cbnz r0,.L78
 433 01c0 53F82200 	 ldr r0,[r3,r2,lsl#2]
 434 01c4 8A1D     	 adds r2,r1,#6
 435 01c6 53F82220 	 ldr r2,[r3,r2,lsl#2]
 436 01ca 9042     	 cmp r0,r2
 437 01cc 80F2FE80 	 bge .L53
 438 01d0 5B69     	 ldr r3,[r3,#20]
 439              	.L183:
 440 01d2 9842     	 cmp r0,r3
 441 01d4 00F3FA80 	 bgt .L53
 442 01d8 9A42     	 cmp r2,r3
 443 01da C0F2F780 	 blt .L53
 444 01de F1E0     	 b .L148
 445              	.L78:
 446 01e0 53F82220 	 ldr r2,[r3,r2,lsl#2]
 447 01e4 002A     	 cmp r2,#0
 448 01e6 40F0F180 	 bne .L53
 449 01ea 8A1D     	 adds r2,r1,#6
 450 01ec 53F82230 	 ldr r3,[r3,r2,lsl#2]
 451              	.L155:
 452 01f0 002B     	 cmp r3,#0
 453 01f2 00F0EB80 	 beq .L53
 454 01f6 E5E0     	 b .L148
 455              	.L72:
 456 01f8 03EB8202 	 add r2,r3,r2,lsl#2
 457 01fc D2ED066A 	 flds s13,[r2,#24]
 458 0200 03EB8102 	 add r2,r3,r1,lsl#2
 459 0204 92ED067A 	 flds s14,[r2,#24]
 460 0208 F4EEC76A 	 fcmpes s13,s14
 461 020c F1EE10FA 	 fmstat
 462 0210 40F1DC80 	 bpl .L53
 463 0214 D3ED057A 	 flds s15,[r3,#20]
 464 0218 F4EEE76A 	 fcmpes s13,s15
 465 021c F1EE10FA 	 fmstat
 466 0220 00F2D480 	 bhi .L53
 467 0224 B4EEE77A 	 fcmpes s14,s15
 468 0228 F1EE10FA 	 fmstat
 469 022c C0F2CE80 	 blt .L53
 470 0230 C8E0     	 b .L148
 471              	.L64:
 472 0232 0628     	 cmp r0,#6
 473 0234 00F2CA80 	 bhi .L53
 474 0238 DFE800F0 	 tbb [pc,r0]
 475              	.L83:
 476 023c 04       	 .byte (.L82-.L83)/2
 477 023d 1A       	 .byte (.L84-.L83)/2
 478 023e 5A       	 .byte (.L85-.L83)/2
 479 023f 6E       	 .byte (.L86-.L83)/2
 480 0240 83       	 .byte (.L87-.L83)/2
 481 0241 93       	 .byte (.L88-.L83)/2
 482 0242 AB       	 .byte (.L89-.L83)/2
 483 0243 00       	 .p2align 1
 484              	.L82:
 485 0244 9868     	 ldr r0,[r3,#8]
 486 0246 0632     	 adds r2,r2,#6
 487 0248 48B9     	 cbnz r0,.L90
 488 024a 13F82200 	 ldrb r0,[r3,r2,lsl#2]
 489 024e 8A1D     	 adds r2,r1,#6
 490 0250 13F82220 	 ldrb r2,[r3,r2,lsl#2]
 491 0254 9042     	 cmp r0,r2
 492 0256 40F2B980 	 bls .L53
 493 025a 1B7D     	 ldrb r3,[r3,#20]
 494 025c 7CE0     	 b .L187
 495              	.L90:
 496 025e 13F82220 	 ldrb r2,[r3,r2,lsl#2]
 497 0262 002A     	 cmp r2,#0
 498 0264 00F0B280 	 beq .L53
 499 0268 8A1D     	 adds r2,r1,#6
 500 026a 13F82230 	 ldrb r3,[r3,r2,lsl#2]
 501 026e 8EE0     	 b .L153
 502              	.L84:
 503 0270 9E68     	 ldr r6,[r3,#8]
 504 0272 901D     	 adds r0,r2,#6
 505 0274 A6BB     	 cbnz r6,.L91
 506 0276 8A1D     	 adds r2,r1,#6
 507 0278 13F92000 	 ldrsb r0,[r3,r0,lsl#2]
 508 027c 13F92220 	 ldrsb r2,[r3,r2,lsl#2]
 509 0280 9042     	 cmp r0,r2
 510 0282 40F3A380 	 ble .L53
 511 0286 93F91430 	 ldrsb r3,[r3,#20]
 512 028a 75E0     	 b .L190
 513              	.L194:
 514              	 .align 2
 515              	.L193:
 516 028c 00000000 	 .word .LANCHOR10
 517 0290 00000000 	 .word .LANCHOR11
 518 0294 00000000 	 .word .LANCHOR12
 519 0298 00000000 	 .word ProbeScope_DataRdyFlag
 520 029c 00000000 	 .word ProbeScope_TrigFlag
 521 02a0 00000000 	 .word .LANCHOR1
 522 02a4 00000000 	 .word .LANCHOR0
 523 02a8 00000000 	 .word .LANCHOR13
 524 02ac 00000000 	 .word .LANCHOR14
 525 02b0 00000000 	 .word ProbeScope_TrigDispPos
 526 02b4 00000000 	 .word .LANCHOR15
 527 02b8 00000000 	 .word .LANCHOR16
 528 02bc 00000000 	 .word .LANCHOR3
 529 02c0 00000000 	 .word .LANCHOR4
 530 02c4 00000000 	 .word .LANCHOR5
 531 02c8 00000000 	 .word .LANCHOR6
 532 02cc 00000000 	 .word .LANCHOR7
 533 02d0 00000000 	 .word .LANCHOR8
 534 02d4 00000000 	 .word .LANCHOR9
 535 02d8 00000000 	 .word .LANCHOR2
 536 02dc 00000000 	 .word .LANCHOR17
 537              	.L91:
 538 02e0 13F92020 	 ldrsb r2,[r3,r0,lsl#2]
 539 02e4 002A     	 cmp r2,#0
 540 02e6 71D0     	 beq .L53
 541 02e8 8A1D     	 adds r2,r1,#6
 542 02ea 13F92230 	 ldrsb r3,[r3,r2,lsl#2]
 543 02ee 4EE0     	 b .L153
 544              	.L85:
 545 02f0 9868     	 ldr r0,[r3,#8]
 546 02f2 0632     	 adds r2,r2,#6
 547 02f4 40B9     	 cbnz r0,.L92
 548 02f6 33F82200 	 ldrh r0,[r3,r2,lsl#2]
 549 02fa 8A1D     	 adds r2,r1,#6
 550 02fc 33F82220 	 ldrh r2,[r3,r2,lsl#2]
 551 0300 9042     	 cmp r0,r2
 552 0302 63D9     	 bls .L53
 553 0304 9B8A     	 ldrh r3,[r3,#20]
 554 0306 27E0     	 b .L187
 555              	.L92:
 556 0308 33F82220 	 ldrh r2,[r3,r2,lsl#2]
 557 030c 002A     	 cmp r2,#0
 558 030e 5DD0     	 beq .L53
 559 0310 8A1D     	 adds r2,r1,#6
 560 0312 33F82230 	 ldrh r3,[r3,r2,lsl#2]
 561 0316 3AE0     	 b .L153
 562              	.L86:
 563 0318 9E68     	 ldr r6,[r3,#8]
 564 031a 901D     	 adds r0,r2,#6
 565 031c 4EB9     	 cbnz r6,.L93
 566 031e 8A1D     	 adds r2,r1,#6
 567 0320 33F92000 	 ldrsh r0,[r3,r0,lsl#2]
 568 0324 33F92220 	 ldrsh r2,[r3,r2,lsl#2]
 569 0328 9042     	 cmp r0,r2
 570 032a 4FDD     	 ble .L53
 571 032c B3F91430 	 ldrsh r3,[r3,#20]
 572 0330 22E0     	 b .L190
 573              	.L93:
 574 0332 33F92020 	 ldrsh r2,[r3,r0,lsl#2]
 575 0336 002A     	 cmp r2,#0
 576 0338 48D0     	 beq .L53
 577 033a 8A1D     	 adds r2,r1,#6
 578 033c 33F92230 	 ldrsh r3,[r3,r2,lsl#2]
 579 0340 25E0     	 b .L153
 580              	.L87:
 581 0342 9868     	 ldr r0,[r3,#8]
 582 0344 0632     	 adds r2,r2,#6
 583 0346 E0B9     	 cbnz r0,.L95
 584 0348 53F82200 	 ldr r0,[r3,r2,lsl#2]
 585 034c 8A1D     	 adds r2,r1,#6
 586 034e 53F82220 	 ldr r2,[r3,r2,lsl#2]
 587 0352 9042     	 cmp r0,r2
 588 0354 3AD9     	 bls .L53
 589 0356 5B69     	 ldr r3,[r3,#20]
 590              	.L187:
 591 0358 9842     	 cmp r0,r3
 592 035a 37D3     	 bcc .L53
 593 035c 9A42     	 cmp r2,r3
 594 035e 35D8     	 bhi .L53
 595 0360 30E0     	 b .L148
 596              	.L88:
 597 0362 9868     	 ldr r0,[r3,#8]
 598 0364 0632     	 adds r2,r2,#6
 599 0366 60B9     	 cbnz r0,.L95
 600 0368 53F82200 	 ldr r0,[r3,r2,lsl#2]
 601 036c 8A1D     	 adds r2,r1,#6
 602 036e 53F82220 	 ldr r2,[r3,r2,lsl#2]
 603 0372 9042     	 cmp r0,r2
 604 0374 2ADD     	 ble .L53
 605 0376 5B69     	 ldr r3,[r3,#20]
 606              	.L190:
 607 0378 9842     	 cmp r0,r3
 608 037a 27DB     	 blt .L53
 609 037c 9A42     	 cmp r2,r3
 610 037e 25DC     	 bgt .L53
 611 0380 20E0     	 b .L148
 612              	.L95:
 613 0382 53F82220 	 ldr r2,[r3,r2,lsl#2]
 614 0386 0AB3     	 cbz r2,.L53
 615 0388 8A1D     	 adds r2,r1,#6
 616 038a 53F82230 	 ldr r3,[r3,r2,lsl#2]
 617              	.L153:
 618 038e EBB9     	 cbnz r3,.L53
 619 0390 18E0     	 b .L148
 620              	.L89:
 621 0392 03EB8202 	 add r2,r3,r2,lsl#2
 622 0396 D2ED066A 	 flds s13,[r2,#24]
 623 039a 03EB8102 	 add r2,r3,r1,lsl#2
 624 039e 92ED067A 	 flds s14,[r2,#24]
 625 03a2 F4EEC76A 	 fcmpes s13,s14
 626 03a6 F1EE10FA 	 fmstat
 627 03aa 0FDD     	 ble .L53
 628 03ac D3ED057A 	 flds s15,[r3,#20]
 629 03b0 F4EEE76A 	 fcmpes s13,s15
 630 03b4 F1EE10FA 	 fmstat
 631 03b8 08DB     	 blt .L53
 632 03ba B4EEE77A 	 fcmpes s14,s15
 633 03be F1EE10FA 	 fmstat
 634 03c2 03D8     	 bhi .L53
 635              	.L148:
 636 03c4 0123     	 movs r3,#1
 637 03c6 2360     	 str r3,[r4]
 638 03c8 204B     	 ldr r3,.L195
 639 03ca 1960     	 str r1,[r3]
 640              	.L53:
 641 03cc FFF7FEFF 	 bl ProbeScope_SamplePosNext
 642 03d0 2368     	 ldr r3,[r4]
 643 03d2 012B     	 cmp r3,#1
 644 03d4 38D1     	 bne .L42
 645 03d6 1E4B     	 ldr r3,.L195+4
 646 03d8 1E4A     	 ldr r2,.L195+8
 647 03da 1B68     	 ldr r3,[r3]
 648 03dc C3F57973 	 rsb r3,r3,#996
 649 03e0 0233     	 adds r3,r3,#2
 650 03e2 1360     	 str r3,[r2]
 651 03e4 0223     	 movs r3,#2
 652 03e6 2EE0     	 b .L150
 653              	.L50:
 654 03e8 FFF7FEFF 	 bl ProbeScope_SampleChAll
 655 03ec FFF7FEFF 	 bl ProbeScope_SamplePosNext
 656 03f0 184A     	 ldr r2,.L195+8
 657 03f2 1368     	 ldr r3,[r2]
 658 03f4 93B9     	 cbnz r3,.L151
 659 03f6 184A     	 ldr r2,.L195+12
 660 03f8 1178     	 ldrb r1,[r2]
 661 03fa 0129     	 cmp r1,#1
 662 03fc 17BF     	 itett ne
 663 03fe 174B     	 ldrne r3,.L195+16
 664 0400 1370     	 strbeq r3,[r2]
 665 0402 1A68     	 ldrne r2,[r3]
 666 0404 164B     	 ldrne r3,.L195+20
 667 0406 1CBF     	 itt ne
 668 0408 1A60     	 strne r2,[r3]
 669 040a 0323     	 movne r3,#3
 670 040c 2B70     	 strb r3,[r5]
 671 040e 154B     	 ldr r3,.L195+24
 672 0410 0122     	 movs r2,#1
 673 0412 1A60     	 str r2,[r3]
 674 0414 70BD     	 pop {r4,r5,r6,pc}
 675              	.L51:
 676 0416 124A     	 ldr r2,.L195+20
 677 0418 1368     	 ldr r3,[r2]
 678 041a 13B1     	 cbz r3,.L103
 679              	.L151:
 680 041c 013B     	 subs r3,r3,#1
 681 041e 1360     	 str r3,[r2]
 682 0420 70BD     	 pop {r4,r5,r6,pc}
 683              	.L103:
 684 0422 104B     	 ldr r3,.L195+24
 685 0424 1B68     	 ldr r3,[r3]
 686 0426 7BB9     	 cbnz r3,.L42
 687 0428 0F4A     	 ldr r2,.L195+28
 688 042a 1360     	 str r3,[r2]
 689 042c 084B     	 ldr r3,.L195+4
 690 042e 1A68     	 ldr r2,[r3]
 691 0430 0E4B     	 ldr r3,.L195+32
 692 0432 1A60     	 str r2,[r3]
 693 0434 0123     	 movs r3,#1
 694 0436 2B70     	 strb r3,[r5]
 695 0438 FFF7FEFF 	 bl ProbeScope_SampleChAll
 696 043c BDE87040 	 pop {r4,r5,r6,lr}
 697 0440 FFF7FEBF 	 b ProbeScope_SamplePosNext
 698              	.L46:
 699 0444 0023     	 movs r3,#0
 700              	.L150:
 701 0446 2B70     	 strb r3,[r5]
 702              	.L42:
 703 0448 70BD     	 pop {r4,r5,r6,pc}
 704              	.L196:
 705 044a 00BF     	 .align 2
 706              	.L195:
 707 044c 00000000 	 .word ProbeScope_TrigIx
 708 0450 00000000 	 .word ProbeScope_TrigDispPos
 709 0454 00000000 	 .word .LANCHOR14
 710 0458 00000000 	 .word .LANCHOR18
 711 045c 00000000 	 .word ProbeScope_TrigHoldOff
 712 0460 00000000 	 .word .LANCHOR13
 713 0464 00000000 	 .word ProbeScope_DataRdyFlag
 714 0468 00000000 	 .word ProbeScope_TrigFlag
 715 046c 00000000 	 .word .LANCHOR15
 717              	 .section .text.ProbeScope_Init,"ax",%progbits
 718              	 .align 1
 719              	 .global ProbeScope_Init
 720              	 .thumb
 721              	 .thumb_func
 723              	ProbeScope_Init:
 724              	 
 725              	 
 726 0000 234A     	 ldr r2,.L198
 727 0002 2449     	 ldr r1,.L198+4
 728 0004 0023     	 movs r3,#0
 729 0006 70B5     	 push {r4,r5,r6,lr}
 730 0008 1360     	 str r3,[r2]
 731 000a 234A     	 ldr r2,.L198+8
 732 000c 234C     	 ldr r4,.L198+12
 733 000e 1360     	 str r3,[r2]
 734 0010 234A     	 ldr r2,.L198+16
 735 0012 244E     	 ldr r6,.L198+20
 736 0014 1360     	 str r3,[r2]
 737 0016 244A     	 ldr r2,.L198+24
 738 0018 1360     	 str r3,[r2]
 739 001a 244A     	 ldr r2,.L198+28
 740 001c 1360     	 str r3,[r2]
 741 001e 244A     	 ldr r2,.L198+32
 742 0020 1360     	 str r3,[r2]
 743 0022 244A     	 ldr r2,.L198+36
 744 0024 1360     	 str r3,[r2]
 745 0026 244A     	 ldr r2,.L198+40
 746 0028 1360     	 str r3,[r2]
 747 002a 244A     	 ldr r2,.L198+44
 748 002c 1370     	 strb r3,[r2]
 749 002e 244A     	 ldr r2,.L198+48
 750 0030 1370     	 strb r3,[r2]
 751 0032 0122     	 movs r2,#1
 752 0034 0A70     	 strb r2,[r1]
 753 0036 2349     	 ldr r1,.L198+52
 754 0038 0B60     	 str r3,[r1]
 755 003a 2349     	 ldr r1,.L198+56
 756 003c 0B60     	 str r3,[r1]
 757 003e 2349     	 ldr r1,.L198+60
 758 0040 0B60     	 str r3,[r1]
 759 0042 2349     	 ldr r1,.L198+64
 760 0044 0B60     	 str r3,[r1]
 761 0046 2360     	 str r3,[r4]
 762 0048 224C     	 ldr r4,.L198+68
 763 004a 2360     	 str r3,[r4]
 764 004c 224C     	 ldr r4,.L198+72
 765 004e 2360     	 str r3,[r4]
 766 0050 0C68     	 ldr r4,[r1]
 767 0052 2249     	 ldr r1,.L198+76
 768 0054 0C60     	 str r4,[r1]
 769 0056 2249     	 ldr r1,.L198+80
 770 0058 4FF47A74 	 mov r4,#1000
 771 005c 0C60     	 str r4,[r1]
 772 005e 2149     	 ldr r1,.L198+84
 773 0060 0A60     	 str r2,[r1]
 774 0062 2149     	 ldr r1,.L198+88
 775 0064 0D88     	 ldrh r5,[r1]
 776 0066 2149     	 ldr r1,.L198+92
 777 0068 0C78     	 ldrb r4,[r1]
 778 006a 2149     	 ldr r1,.L198+96
 779 006c 0968     	 ldr r1,[r1]
 780 006e 3668     	 ldr r6,[r6]
 781 0070 3144     	 add r1,r1,r6
 782 0072 11FA85F1 	 uxtah r1,r1,r5
 783 0076 2144     	 add r1,r1,r4
 784 0078 1E4C     	 ldr r4,.L198+100
 785 007a 2160     	 str r1,[r4]
 786 007c 1E49     	 ldr r1,.L198+104
 787 007e 0A80     	 strh r2,[r1]
 788 0080 1E49     	 ldr r1,.L198+108
 789 0082 0B80     	 strh r3,[r1]
 790 0084 1E4B     	 ldr r3,.L198+112
 791 0086 1860     	 str r0,[r3]
 792 0088 1E4B     	 ldr r3,.L198+116
 793 008a 1A60     	 str r2,[r3]
 794 008c 70BD     	 pop {r4,r5,r6,pc}
 795              	.L199:
 796 008e 00BF     	 .align 2
 797              	.L198:
 798 0090 00000000 	 .word .LANCHOR2
 799 0094 00000000 	 .word .LANCHOR16
 800 0098 00000000 	 .word .LANCHOR3
 801 009c 00000000 	 .word ProbeScope_TrigHoldOff
 802 00a0 00000000 	 .word .LANCHOR4
 803 00a4 00000000 	 .word .LANCHOR22
 804 00a8 00000000 	 .word .LANCHOR5
 805 00ac 00000000 	 .word .LANCHOR6
 806 00b0 00000000 	 .word .LANCHOR7
 807 00b4 00000000 	 .word .LANCHOR8
 808 00b8 00000000 	 .word .LANCHOR9
 809 00bc 00000000 	 .word .LANCHOR18
 810 00c0 00000000 	 .word .LANCHOR12
 811 00c4 00000000 	 .word .LANCHOR1
 812 00c8 00000000 	 .word .LANCHOR0
 813 00cc 00000000 	 .word ProbeScope_TrigFlag
 814 00d0 00000000 	 .word ProbeScope_TrigDispPos
 815 00d4 00000000 	 .word .LANCHOR13
 816 00d8 00000000 	 .word ProbeScope_DataRdyFlag
 817 00dc 00000000 	 .word .LANCHOR15
 818 00e0 00000000 	 .word .LANCHOR14
 819 00e4 00000000 	 .word .LANCHOR17
 820 00e8 00000000 	 .word .LANCHOR19
 821 00ec 00000000 	 .word .LANCHOR20
 822 00f0 00000000 	 .word .LANCHOR21
 823 00f4 00000000 	 .word .LANCHOR23
 824 00f8 00000000 	 .word .LANCHOR11
 825 00fc 00000000 	 .word .LANCHOR10
 826 0100 00000000 	 .word ProbeScope_SamplingClkHz
 827 0104 00000000 	 .word ProbeScope_InitFlag
 829              	 .section .text.ProbeScope_Sampling,"ax",%progbits
 830              	 .align 1
 831              	 .global ProbeScope_Sampling
 832              	 .thumb
 833              	 .thumb_func
 835              	ProbeScope_Sampling:
 836              	 
 837              	 
 838 0000 38B5     	 push {r3,r4,r5,lr}
 839 0002 1D4B     	 ldr r3,.L212
 840 0004 1B78     	 ldrb r3,[r3]
 841 0006 032B     	 cmp r3,#3
 842 0008 34D8     	 bhi .L200
 843 000a DFE803F0 	 tbb [pc,r3]
 844              	.L203:
 845 000e 02       	 .byte (.L202-.L203)/2
 846 000f 2F       	 .byte (.L206-.L203)/2
 847 0010 0B       	 .byte (.L205-.L203)/2
 848 0011 2F       	 .byte (.L206-.L203)/2
 849              	 .p2align 1
 850              	.L202:
 851 0012 1A4B     	 ldr r3,.L212+4
 852 0014 0022     	 movs r2,#0
 853 0016 1A70     	 strb r2,[r3]
 854 0018 194B     	 ldr r3,.L212+8
 855 001a 1A88     	 ldrh r2,[r3]
 856 001c 52BB     	 cbnz r2,.L200
 857 001e 0122     	 movs r2,#1
 858 0020 1A80     	 strh r2,[r3]
 859 0022 38BD     	 pop {r3,r4,r5,pc}
 860              	.L205:
 861 0024 174B     	 ldr r3,.L212+12
 862 0026 1A68     	 ldr r2,[r3]
 863 0028 1D46     	 mov r5,r3
 864 002a DAB9     	 cbnz r2,.L208
 865 002c 164B     	 ldr r3,.L212+16
 866 002e 1749     	 ldr r1,.L212+20
 867 0030 1A60     	 str r2,[r3]
 868 0032 0A88     	 ldrh r2,[r1]
 869 0034 012A     	 cmp r2,#1
 870 0036 1C46     	 mov r4,r3
 871 0038 0846     	 mov r0,r1
 872 003a 02D9     	 bls .L209
 873 003c 013A     	 subs r2,r2,#1
 874 003e 0A80     	 strh r2,[r1]
 875 0040 10E0     	 b .L208
 876              	.L209:
 877 0042 0F4B     	 ldr r3,.L212+8
 878 0044 1A88     	 ldrh r2,[r3]
 879 0046 0AB9     	 cbnz r2,.L210
 880 0048 0122     	 movs r2,#1
 881 004a 1A80     	 strh r2,[r3]
 882              	.L210:
 883 004c 1B88     	 ldrh r3,[r3]
 884 004e 0380     	 strh r3,[r0]
 885 0050 FFF7FEFF 	 bl ProbeScope_SampleChAll
 886 0054 FFF7FEFF 	 bl ProbeScope_SamplePosNext
 887 0058 0D4B     	 ldr r3,.L212+24
 888 005a 1B68     	 ldr r3,[r3]
 889 005c 13B9     	 cbnz r3,.L208
 890 005e 0123     	 movs r3,#1
 891 0060 2B60     	 str r3,[r5]
 892 0062 2360     	 str r3,[r4]
 893              	.L208:
 894 0064 054B     	 ldr r3,.L212+4
 895 0066 0022     	 movs r2,#0
 896 0068 1A70     	 strb r2,[r3]
 897 006a 38BD     	 pop {r3,r4,r5,pc}
 898              	.L206:
 899 006c BDE83840 	 pop {r3,r4,r5,lr}
 900 0070 FFF7FEBF 	 b ProbeScope_ModeTrig
 901              	.L200:
 902 0074 38BD     	 pop {r3,r4,r5,pc}
 903              	.L213:
 904 0076 00BF     	 .align 2
 905              	.L212:
 906 0078 00000000 	 .word .LANCHOR18
 907 007c 00000000 	 .word .LANCHOR12
 908 0080 00000000 	 .word .LANCHOR11
 909 0084 00000000 	 .word ProbeScope_DataRdyFlag
 910 0088 00000000 	 .word ProbeScope_TrigFlag
 911 008c 00000000 	 .word .LANCHOR10
 912 0090 00000000 	 .word .LANCHOR0
 914              	 .comm ProbeScope_SamplingClkHz,4,4
 915              	 .comm ProbeScope_TrigIx,4,4
 916              	 .comm ProbeScope_TrigHoldOff,4,4
 917              	 .comm ProbeScope_TrigFlag,4,4
 918              	 .comm ProbeScope_TrigDispPos,4,4
 919              	 .comm ProbeScope_InitFlag,4,4
 920              	 .comm ProbeScope_DataRdyFlag,4,4
 921              	 .section .bss.ProbeScope_SamplingClkDiv,"aw",%nobits
 922              	 .align 1
 923              	 .set .LANCHOR11,.+0
 926              	ProbeScope_SamplingClkDiv:
 927 0000 0000     	 .space 2
 928              	 .section .bss.ProbeScope_SamplesPreTrigCtr,"aw",%nobits
 929              	 .align 2
 930              	 .set .LANCHOR15,.+0
 933              	ProbeScope_SamplesPreTrigCtr:
 934 0000 00000000 	 .space 4
 935              	 .section .data.ProbeScopeDbg_MaxCh,"aw",%progbits
 936              	 .set .LANCHOR20,.+0
 939              	ProbeScopeDbg_MaxCh:
 940 0000 08       	 .byte 8
 941              	 .section .bss.ProbeScope_State,"aw",%nobits
 942              	 .set .LANCHOR12,.+0
 945              	ProbeScope_State:
 946 0000 00       	 .space 1
 947              	 .section .bss.ProbeScope_SamplingClkDivCtr,"aw",%nobits
 948              	 .align 1
 949              	 .set .LANCHOR10,.+0
 952              	ProbeScope_SamplingClkDivCtr:
 953 0000 0000     	 .space 2
 954              	 .section .bss.ProbeScope_Ch1,"aw",%nobits
 955              	 .align 2
 956              	 .set .LANCHOR2,.+0
 959              	ProbeScope_Ch1:
 960 0000 00000000 	 .space 4024
 960      00000000 
 960      00000000 
 960      00000000 
 960      00000000 
 961              	 .section .bss.ProbeScope_Ch2,"aw",%nobits
 962              	 .align 2
 963              	 .set .LANCHOR3,.+0
 966              	ProbeScope_Ch2:
 967 0000 00000000 	 .space 4024
 967      00000000 
 967      00000000 
 967      00000000 
 967      00000000 
 968              	 .section .bss.ProbeScope_SampleIxPrev,"aw",%nobits
 969              	 .align 2
 970              	 .set .LANCHOR1,.+0
 973              	ProbeScope_SampleIxPrev:
 974 0000 00000000 	 .space 4
 975              	 .section .bss.ProbeScope_Ch4,"aw",%nobits
 976              	 .align 2
 977              	 .set .LANCHOR5,.+0
 980              	ProbeScope_Ch4:
 981 0000 00000000 	 .space 4024
 981      00000000 
 981      00000000 
 981      00000000 
 981      00000000 
 982              	 .section .bss.ProbeScope_Ch5,"aw",%nobits
 983              	 .align 2
 984              	 .set .LANCHOR6,.+0
 987              	ProbeScope_Ch5:
 988 0000 00000000 	 .space 4024
 988      00000000 
 988      00000000 
 988      00000000 
 988      00000000 
 989              	 .section .bss.ProbeScope_Ch6,"aw",%nobits
 990              	 .align 2
 991              	 .set .LANCHOR7,.+0
 994              	ProbeScope_Ch6:
 995 0000 00000000 	 .space 4024
 995      00000000 
 995      00000000 
 995      00000000 
 995      00000000 
 996              	 .section .bss.ProbeScope_Ch7,"aw",%nobits
 997              	 .align 2
 998              	 .set .LANCHOR8,.+0
 1001              	ProbeScope_Ch7:
 1002 0000 00000000 	 .space 4024
 1002      00000000 
 1002      00000000 
 1002      00000000 
 1002      00000000 
 1003              	 .section .bss.ProbeScope_Ch8,"aw",%nobits
 1004              	 .align 2
 1005              	 .set .LANCHOR9,.+0
 1008              	ProbeScope_Ch8:
 1009 0000 00000000 	 .space 4024
 1009      00000000 
 1009      00000000 
 1009      00000000 
 1009      00000000 
 1010              	 .section .bss.temp.4203,"aw",%nobits
 1011              	 .align 2
 1012              	 .set .LANCHOR23,.+0
 1015              	temp.4203:
 1016 0000 00000000 	 .space 4
 1017              	 .section .bss.ProbeScope_TrigChSel,"aw",%nobits
 1018              	 .set .LANCHOR16,.+0
 1021              	ProbeScope_TrigChSel:
 1022 0000 00       	 .space 1
 1023              	 .section .bss.ProbeScope_Mode,"aw",%nobits
 1024              	 .set .LANCHOR18,.+0
 1027              	ProbeScope_Mode:
 1028 0000 00       	 .space 1
 1029              	 .section .bss.ProbeScope_TrigHoldOffCtr,"aw",%nobits
 1030              	 .align 2
 1031              	 .set .LANCHOR13,.+0
 1034              	ProbeScope_TrigHoldOffCtr:
 1035 0000 00000000 	 .space 4
 1036              	 .section .data.ProbeScopeDbg_32BitEn,"aw",%progbits
 1037              	 .align 2
 1038              	 .set .LANCHOR22,.+0
 1041              	ProbeScopeDbg_32BitEn:
 1042 0000 01000000 	 .word 1
 1043              	 .section .bss.ProbeScope_SamplesPostTrigCtr,"aw",%nobits
 1044              	 .align 2
 1045              	 .set .LANCHOR14,.+0
 1048              	ProbeScope_SamplesPostTrigCtr:
 1049 0000 00000000 	 .space 4
 1050              	 .section .data.ProbeScopeDbg_MaxSamples,"aw",%progbits
 1051              	 .align 1
 1052              	 .set .LANCHOR19,.+0
 1055              	ProbeScopeDbg_MaxSamples:
 1056 0000 E803     	 .short 1000
 1057              	 .section .data.ProbeScopeDbg_16BitEn,"aw",%progbits
 1058              	 .align 2
 1059              	 .set .LANCHOR21,.+0
 1062              	ProbeScopeDbg_16BitEn:
 1063 0000 01000000 	 .word 1
 1064              	 .section .bss.ProbeScope_TrigSlope,"aw",%nobits
 1065              	 .align 2
 1066              	 .set .LANCHOR17,.+0
 1069              	ProbeScope_TrigSlope:
 1070 0000 00000000 	 .space 4
 1071              	 .section .bss.ProbeScope_SampleIxCur,"aw",%nobits
 1072              	 .align 2
 1073              	 .set .LANCHOR0,.+0
 1076              	ProbeScope_SampleIxCur:
 1077 0000 00000000 	 .space 4
 1078              	 .section .bss.ProbeScope_Ch3,"aw",%nobits
 1079              	 .align 2
 1080              	 .set .LANCHOR4,.+0
 1083              	ProbeScope_Ch3:
 1084 0000 00000000 	 .space 4024
 1084      00000000 
 1084      00000000 
 1084      00000000 
 1084      00000000 
 1085              	 .ident "GCC: (GNU Tools for ARM Embedded Processors) 4.9.3 20141119 (release) [ARM/embedded-4_9-branch revision 218278]"
DEFINED SYMBOLS
                            *ABS*:00000000 probe_scope.c
    {standard input}:17     .text.ProbeScope_SamplePosNext:00000000 $t
    {standard input}:21     .text.ProbeScope_SamplePosNext:00000000 ProbeScope_SamplePosNext
    {standard input}:38     .text.ProbeScope_SamplePosNext:00000018 $d
    {standard input}:42     .text.ProbeScope_SampleCh:00000000 $t
    {standard input}:46     .text.ProbeScope_SampleCh:00000000 ProbeScope_SampleCh
    {standard input}:60     .text.ProbeScope_SampleCh:00000016 $d
    {standard input}:163    .text.ProbeScope_SampleCh:000000c0 $d
    {standard input}:166    .text.ProbeScope_SampleChAll:00000000 $t
    {standard input}:170    .text.ProbeScope_SampleChAll:00000000 ProbeScope_SampleChAll
    {standard input}:194    .text.ProbeScope_SampleChAll:00000038 $d
    {standard input}:204    .text.ProbeScope_ModeTrig:00000000 $t
    {standard input}:208    .text.ProbeScope_ModeTrig:00000000 ProbeScope_ModeTrig
    {standard input}:235    .text.ProbeScope_ModeTrig:0000002e $d
    {standard input}:239    .text.ProbeScope_ModeTrig:00000036 $t
    {standard input}:279    .text.ProbeScope_ModeTrig:00000084 $d
    {standard input}:287    .text.ProbeScope_ModeTrig:0000008c $t
    {standard input}:333    .text.ProbeScope_ModeTrig:000000d8 $d
    {standard input}:476    .text.ProbeScope_ModeTrig:0000023c $d
    {standard input}:516    .text.ProbeScope_ModeTrig:0000028c $d
                            *COM*:00000004 ProbeScope_DataRdyFlag
                            *COM*:00000004 ProbeScope_TrigFlag
                            *COM*:00000004 ProbeScope_TrigDispPos
    {standard input}:538    .text.ProbeScope_ModeTrig:000002e0 $t
    {standard input}:707    .text.ProbeScope_ModeTrig:0000044c $d
                            *COM*:00000004 ProbeScope_TrigIx
                            *COM*:00000004 ProbeScope_TrigHoldOff
    {standard input}:718    .text.ProbeScope_Init:00000000 $t
    {standard input}:723    .text.ProbeScope_Init:00000000 ProbeScope_Init
    {standard input}:798    .text.ProbeScope_Init:00000090 $d
                            *COM*:00000004 ProbeScope_SamplingClkHz
                            *COM*:00000004 ProbeScope_InitFlag
    {standard input}:830    .text.ProbeScope_Sampling:00000000 $t
    {standard input}:835    .text.ProbeScope_Sampling:00000000 ProbeScope_Sampling
    {standard input}:845    .text.ProbeScope_Sampling:0000000e $d
    {standard input}:849    .text.ProbeScope_Sampling:00000012 $t
    {standard input}:906    .text.ProbeScope_Sampling:00000078 $d
    {standard input}:922    .bss.ProbeScope_SamplingClkDiv:00000000 $d
    {standard input}:926    .bss.ProbeScope_SamplingClkDiv:00000000 ProbeScope_SamplingClkDiv
    {standard input}:929    .bss.ProbeScope_SamplesPreTrigCtr:00000000 $d
    {standard input}:933    .bss.ProbeScope_SamplesPreTrigCtr:00000000 ProbeScope_SamplesPreTrigCtr
    {standard input}:939    .data.ProbeScopeDbg_MaxCh:00000000 ProbeScopeDbg_MaxCh
    {standard input}:945    .bss.ProbeScope_State:00000000 ProbeScope_State
    {standard input}:946    .bss.ProbeScope_State:00000000 $d
    {standard input}:948    .bss.ProbeScope_SamplingClkDivCtr:00000000 $d
    {standard input}:952    .bss.ProbeScope_SamplingClkDivCtr:00000000 ProbeScope_SamplingClkDivCtr
    {standard input}:955    .bss.ProbeScope_Ch1:00000000 $d
    {standard input}:959    .bss.ProbeScope_Ch1:00000000 ProbeScope_Ch1
    {standard input}:962    .bss.ProbeScope_Ch2:00000000 $d
    {standard input}:966    .bss.ProbeScope_Ch2:00000000 ProbeScope_Ch2
    {standard input}:969    .bss.ProbeScope_SampleIxPrev:00000000 $d
    {standard input}:973    .bss.ProbeScope_SampleIxPrev:00000000 ProbeScope_SampleIxPrev
    {standard input}:976    .bss.ProbeScope_Ch4:00000000 $d
    {standard input}:980    .bss.ProbeScope_Ch4:00000000 ProbeScope_Ch4
    {standard input}:983    .bss.ProbeScope_Ch5:00000000 $d
    {standard input}:987    .bss.ProbeScope_Ch5:00000000 ProbeScope_Ch5
    {standard input}:990    .bss.ProbeScope_Ch6:00000000 $d
    {standard input}:994    .bss.ProbeScope_Ch6:00000000 ProbeScope_Ch6
    {standard input}:997    .bss.ProbeScope_Ch7:00000000 $d
    {standard input}:1001   .bss.ProbeScope_Ch7:00000000 ProbeScope_Ch7
    {standard input}:1004   .bss.ProbeScope_Ch8:00000000 $d
    {standard input}:1008   .bss.ProbeScope_Ch8:00000000 ProbeScope_Ch8
    {standard input}:1011   .bss.temp.4203:00000000 $d
    {standard input}:1015   .bss.temp.4203:00000000 temp.4203
    {standard input}:1021   .bss.ProbeScope_TrigChSel:00000000 ProbeScope_TrigChSel
    {standard input}:1022   .bss.ProbeScope_TrigChSel:00000000 $d
    {standard input}:1027   .bss.ProbeScope_Mode:00000000 ProbeScope_Mode
    {standard input}:1028   .bss.ProbeScope_Mode:00000000 $d
    {standard input}:1030   .bss.ProbeScope_TrigHoldOffCtr:00000000 $d
    {standard input}:1034   .bss.ProbeScope_TrigHoldOffCtr:00000000 ProbeScope_TrigHoldOffCtr
    {standard input}:1037   .data.ProbeScopeDbg_32BitEn:00000000 $d
    {standard input}:1041   .data.ProbeScopeDbg_32BitEn:00000000 ProbeScopeDbg_32BitEn
    {standard input}:1044   .bss.ProbeScope_SamplesPostTrigCtr:00000000 $d
    {standard input}:1048   .bss.ProbeScope_SamplesPostTrigCtr:00000000 ProbeScope_SamplesPostTrigCtr
    {standard input}:1051   .data.ProbeScopeDbg_MaxSamples:00000000 $d
    {standard input}:1055   .data.ProbeScopeDbg_MaxSamples:00000000 ProbeScopeDbg_MaxSamples
    {standard input}:1058   .data.ProbeScopeDbg_16BitEn:00000000 $d
    {standard input}:1062   .data.ProbeScopeDbg_16BitEn:00000000 ProbeScopeDbg_16BitEn
    {standard input}:1065   .bss.ProbeScope_TrigSlope:00000000 $d
    {standard input}:1069   .bss.ProbeScope_TrigSlope:00000000 ProbeScope_TrigSlope
    {standard input}:1072   .bss.ProbeScope_SampleIxCur:00000000 $d
    {standard input}:1076   .bss.ProbeScope_SampleIxCur:00000000 ProbeScope_SampleIxCur
    {standard input}:1079   .bss.ProbeScope_Ch3:00000000 $d
    {standard input}:1083   .bss.ProbeScope_Ch3:00000000 ProbeScope_Ch3
    {standard input}:67     .text.ProbeScope_SampleCh:0000001d $d
    {standard input}:67     .text.ProbeScope_SampleCh:0000001e $t
    {standard input}:340    .text.ProbeScope_ModeTrig:000000df $d
    {standard input}:340    .text.ProbeScope_ModeTrig:000000e0 $t
    {standard input}:483    .text.ProbeScope_ModeTrig:00000243 $d
    {standard input}:483    .text.ProbeScope_ModeTrig:00000244 $t

NO UNDEFINED SYMBOLS
