   1              	 .syntax unified
   2              	 .cpu cortex-m4
   3              	 .eabi_attribute 27,3
   4              	 .fpu fpv4-sp-d16
   5              	 .eabi_attribute 20,1
   6              	 .eabi_attribute 21,1
   7              	 .eabi_attribute 23,3
   8              	 .eabi_attribute 24,1
   9              	 .eabi_attribute 25,1
  10              	 .eabi_attribute 26,1
  11              	 .eabi_attribute 30,6
  12              	 .eabi_attribute 34,1
  13              	 .eabi_attribute 18,4
  14              	 .thumb
  15              	 .file "arm_conv_partial_q15.c"
  16              	 .text
  17              	.Ltext0:
  18              	 .cfi_sections .debug_frame
  19              	 .section .text.arm_conv_partial_q15,"ax",%progbits
  20              	 .align 2
  21              	 .global arm_conv_partial_q15
  22              	 .thumb
  23              	 .thumb_func
  25              	arm_conv_partial_q15:
  26              	.LFB135:
  27              	 .file 1 "../Dave/Generated/CMSIS_DSP/FilteringFunctions/arm_conv_partial_q15.c"
   1:../Dave/Generated/CMSIS_DSP/FilteringFunctions/arm_conv_partial_q15.c **** /* ----------------------------------------------------------------------
   2:../Dave/Generated/CMSIS_DSP/FilteringFunctions/arm_conv_partial_q15.c ****  * Project:      CMSIS DSP Library
   3:../Dave/Generated/CMSIS_DSP/FilteringFunctions/arm_conv_partial_q15.c ****  * Title:        arm_conv_partial_q15.c
   4:../Dave/Generated/CMSIS_DSP/FilteringFunctions/arm_conv_partial_q15.c ****  * Description:  Partial convolution of Q15 sequences
   5:../Dave/Generated/CMSIS_DSP/FilteringFunctions/arm_conv_partial_q15.c ****  *
   6:../Dave/Generated/CMSIS_DSP/FilteringFunctions/arm_conv_partial_q15.c ****  * $Date:        27. January 2017
   7:../Dave/Generated/CMSIS_DSP/FilteringFunctions/arm_conv_partial_q15.c ****  * $Revision:    V.1.5.1
   8:../Dave/Generated/CMSIS_DSP/FilteringFunctions/arm_conv_partial_q15.c ****  *
   9:../Dave/Generated/CMSIS_DSP/FilteringFunctions/arm_conv_partial_q15.c ****  * Target Processor: Cortex-M cores
  10:../Dave/Generated/CMSIS_DSP/FilteringFunctions/arm_conv_partial_q15.c ****  * -------------------------------------------------------------------- */
  11:../Dave/Generated/CMSIS_DSP/FilteringFunctions/arm_conv_partial_q15.c **** /*
  12:../Dave/Generated/CMSIS_DSP/FilteringFunctions/arm_conv_partial_q15.c ****  * Copyright (C) 2010-2017 ARM Limited or its affiliates. All rights reserved.
  13:../Dave/Generated/CMSIS_DSP/FilteringFunctions/arm_conv_partial_q15.c ****  *
  14:../Dave/Generated/CMSIS_DSP/FilteringFunctions/arm_conv_partial_q15.c ****  * SPDX-License-Identifier: Apache-2.0
  15:../Dave/Generated/CMSIS_DSP/FilteringFunctions/arm_conv_partial_q15.c ****  *
  16:../Dave/Generated/CMSIS_DSP/FilteringFunctions/arm_conv_partial_q15.c ****  * Licensed under the Apache License, Version 2.0 (the License); you may
  17:../Dave/Generated/CMSIS_DSP/FilteringFunctions/arm_conv_partial_q15.c ****  * not use this file except in compliance with the License.
  18:../Dave/Generated/CMSIS_DSP/FilteringFunctions/arm_conv_partial_q15.c ****  * You may obtain a copy of the License at
  19:../Dave/Generated/CMSIS_DSP/FilteringFunctions/arm_conv_partial_q15.c ****  *
  20:../Dave/Generated/CMSIS_DSP/FilteringFunctions/arm_conv_partial_q15.c ****  * www.apache.org/licenses/LICENSE-2.0
  21:../Dave/Generated/CMSIS_DSP/FilteringFunctions/arm_conv_partial_q15.c ****  *
  22:../Dave/Generated/CMSIS_DSP/FilteringFunctions/arm_conv_partial_q15.c ****  * Unless required by applicable law or agreed to in writing, software
  23:../Dave/Generated/CMSIS_DSP/FilteringFunctions/arm_conv_partial_q15.c ****  * distributed under the License is distributed on an AS IS BASIS, WITHOUT
  24:../Dave/Generated/CMSIS_DSP/FilteringFunctions/arm_conv_partial_q15.c ****  * WARRANTIES OR CONDITIONS OF ANY KIND, either express or implied.
  25:../Dave/Generated/CMSIS_DSP/FilteringFunctions/arm_conv_partial_q15.c ****  * See the License for the specific language governing permissions and
  26:../Dave/Generated/CMSIS_DSP/FilteringFunctions/arm_conv_partial_q15.c ****  * limitations under the License.
  27:../Dave/Generated/CMSIS_DSP/FilteringFunctions/arm_conv_partial_q15.c ****  */
  28:../Dave/Generated/CMSIS_DSP/FilteringFunctions/arm_conv_partial_q15.c **** 
  29:../Dave/Generated/CMSIS_DSP/FilteringFunctions/arm_conv_partial_q15.c **** #include "CMSIS_DSP/cmsis_dsp.h"
  30:../Dave/Generated/CMSIS_DSP/FilteringFunctions/arm_conv_partial_q15.c **** 
  31:../Dave/Generated/CMSIS_DSP/FilteringFunctions/arm_conv_partial_q15.c **** /**
  32:../Dave/Generated/CMSIS_DSP/FilteringFunctions/arm_conv_partial_q15.c ****  * @ingroup groupFilters
  33:../Dave/Generated/CMSIS_DSP/FilteringFunctions/arm_conv_partial_q15.c ****  */
  34:../Dave/Generated/CMSIS_DSP/FilteringFunctions/arm_conv_partial_q15.c **** 
  35:../Dave/Generated/CMSIS_DSP/FilteringFunctions/arm_conv_partial_q15.c **** /**
  36:../Dave/Generated/CMSIS_DSP/FilteringFunctions/arm_conv_partial_q15.c ****  * @addtogroup PartialConv
  37:../Dave/Generated/CMSIS_DSP/FilteringFunctions/arm_conv_partial_q15.c ****  * @{
  38:../Dave/Generated/CMSIS_DSP/FilteringFunctions/arm_conv_partial_q15.c ****  */
  39:../Dave/Generated/CMSIS_DSP/FilteringFunctions/arm_conv_partial_q15.c **** 
  40:../Dave/Generated/CMSIS_DSP/FilteringFunctions/arm_conv_partial_q15.c **** /**
  41:../Dave/Generated/CMSIS_DSP/FilteringFunctions/arm_conv_partial_q15.c ****  * @brief Partial convolution of Q15 sequences.
  42:../Dave/Generated/CMSIS_DSP/FilteringFunctions/arm_conv_partial_q15.c ****  * @param[in]       *pSrcA points to the first input sequence.
  43:../Dave/Generated/CMSIS_DSP/FilteringFunctions/arm_conv_partial_q15.c ****  * @param[in]       srcALen length of the first input sequence.
  44:../Dave/Generated/CMSIS_DSP/FilteringFunctions/arm_conv_partial_q15.c ****  * @param[in]       *pSrcB points to the second input sequence.
  45:../Dave/Generated/CMSIS_DSP/FilteringFunctions/arm_conv_partial_q15.c ****  * @param[in]       srcBLen length of the second input sequence.
  46:../Dave/Generated/CMSIS_DSP/FilteringFunctions/arm_conv_partial_q15.c ****  * @param[out]      *pDst points to the location where the output result is written.
  47:../Dave/Generated/CMSIS_DSP/FilteringFunctions/arm_conv_partial_q15.c ****  * @param[in]       firstIndex is the first output sample to start with.
  48:../Dave/Generated/CMSIS_DSP/FilteringFunctions/arm_conv_partial_q15.c ****  * @param[in]       numPoints is the number of output points to be computed.
  49:../Dave/Generated/CMSIS_DSP/FilteringFunctions/arm_conv_partial_q15.c ****  * @return  Returns either ARM_MATH_SUCCESS if the function completed correctly or ARM_MATH_ARGUMEN
  50:../Dave/Generated/CMSIS_DSP/FilteringFunctions/arm_conv_partial_q15.c ****  *
  51:../Dave/Generated/CMSIS_DSP/FilteringFunctions/arm_conv_partial_q15.c ****  * Refer to <code>arm_conv_partial_fast_q15()</code> for a faster but less precise version of this 
  52:../Dave/Generated/CMSIS_DSP/FilteringFunctions/arm_conv_partial_q15.c ****  *
  53:../Dave/Generated/CMSIS_DSP/FilteringFunctions/arm_conv_partial_q15.c ****  * \par
  54:../Dave/Generated/CMSIS_DSP/FilteringFunctions/arm_conv_partial_q15.c ****  * Refer the function <code>arm_conv_partial_opt_q15()</code> for a faster implementation of this f
  55:../Dave/Generated/CMSIS_DSP/FilteringFunctions/arm_conv_partial_q15.c ****  *
  56:../Dave/Generated/CMSIS_DSP/FilteringFunctions/arm_conv_partial_q15.c ****  */
  57:../Dave/Generated/CMSIS_DSP/FilteringFunctions/arm_conv_partial_q15.c **** 
  58:../Dave/Generated/CMSIS_DSP/FilteringFunctions/arm_conv_partial_q15.c **** arm_status arm_conv_partial_q15(
  59:../Dave/Generated/CMSIS_DSP/FilteringFunctions/arm_conv_partial_q15.c ****   q15_t * pSrcA,
  60:../Dave/Generated/CMSIS_DSP/FilteringFunctions/arm_conv_partial_q15.c ****   uint32_t srcALen,
  61:../Dave/Generated/CMSIS_DSP/FilteringFunctions/arm_conv_partial_q15.c ****   q15_t * pSrcB,
  62:../Dave/Generated/CMSIS_DSP/FilteringFunctions/arm_conv_partial_q15.c ****   uint32_t srcBLen,
  63:../Dave/Generated/CMSIS_DSP/FilteringFunctions/arm_conv_partial_q15.c ****   q15_t * pDst,
  64:../Dave/Generated/CMSIS_DSP/FilteringFunctions/arm_conv_partial_q15.c ****   uint32_t firstIndex,
  65:../Dave/Generated/CMSIS_DSP/FilteringFunctions/arm_conv_partial_q15.c ****   uint32_t numPoints)
  66:../Dave/Generated/CMSIS_DSP/FilteringFunctions/arm_conv_partial_q15.c **** {
  28              	 .loc 1 66 0
  29              	 .cfi_startproc
  30              	 
  31              	 
  32              	 
  33 0000 2DE9900F 	 push {r4,r7,r8,r9,r10,fp}
  34              	.LCFI0:
  35              	 .cfi_def_cfa_offset 24
  36              	 .cfi_offset 4,-24
  37              	 .cfi_offset 7,-20
  38              	 .cfi_offset 8,-16
  39              	 .cfi_offset 9,-12
  40              	 .cfi_offset 10,-8
  41              	 .cfi_offset 11,-4
  42 0004 ADF5846D 	 sub sp,sp,#1056
  43              	.LCFI1:
  44              	 .cfi_def_cfa_offset 1080
  45 0008 00AF     	 add r7,sp,#0
  46              	.LCFI2:
  47              	 .cfi_def_cfa_register 7
  48 000a 07F14C04 	 add r4,r7,#76
  49 000e 2060     	 str r0,[r4]
  50 0010 07F14800 	 add r0,r7,#72
  51 0014 0160     	 str r1,[r0]
  52 0016 07F14401 	 add r1,r7,#68
  53 001a 0A60     	 str r2,[r1]
  54 001c 07F14002 	 add r2,r7,#64
  55 0020 1360     	 str r3,[r2]
  67:../Dave/Generated/CMSIS_DSP/FilteringFunctions/arm_conv_partial_q15.c **** 
  68:../Dave/Generated/CMSIS_DSP/FilteringFunctions/arm_conv_partial_q15.c **** 
  69:../Dave/Generated/CMSIS_DSP/FilteringFunctions/arm_conv_partial_q15.c **** #if (defined(ARM_MATH_CM7) || defined(ARM_MATH_CM4) || defined(ARM_MATH_CM3)) && !defined(UNALIGNED
  70:../Dave/Generated/CMSIS_DSP/FilteringFunctions/arm_conv_partial_q15.c **** 
  71:../Dave/Generated/CMSIS_DSP/FilteringFunctions/arm_conv_partial_q15.c ****   /* Run the below code for Cortex-M4 and Cortex-M3 */
  72:../Dave/Generated/CMSIS_DSP/FilteringFunctions/arm_conv_partial_q15.c **** 
  73:../Dave/Generated/CMSIS_DSP/FilteringFunctions/arm_conv_partial_q15.c ****   q15_t *pIn1;                                   /* inputA pointer               */
  74:../Dave/Generated/CMSIS_DSP/FilteringFunctions/arm_conv_partial_q15.c ****   q15_t *pIn2;                                   /* inputB pointer               */
  75:../Dave/Generated/CMSIS_DSP/FilteringFunctions/arm_conv_partial_q15.c ****   q15_t *pOut = pDst;                            /* output pointer               */
  56              	 .loc 1 75 0
  57 0022 07F5AE72 	 add r2,r7,#348
  58 0026 D7F83834 	 ldr r3,[r7,#1080]
  59 002a 1360     	 str r3,[r2]
  76:../Dave/Generated/CMSIS_DSP/FilteringFunctions/arm_conv_partial_q15.c ****   q63_t sum, acc0, acc1, acc2, acc3;             /* Accumulator                  */
  77:../Dave/Generated/CMSIS_DSP/FilteringFunctions/arm_conv_partial_q15.c ****   q15_t *px;                                     /* Intermediate inputA pointer  */
  78:../Dave/Generated/CMSIS_DSP/FilteringFunctions/arm_conv_partial_q15.c ****   q15_t *py;                                     /* Intermediate inputB pointer  */
  79:../Dave/Generated/CMSIS_DSP/FilteringFunctions/arm_conv_partial_q15.c ****   q15_t *pSrc1, *pSrc2;                          /* Intermediate pointers        */
  80:../Dave/Generated/CMSIS_DSP/FilteringFunctions/arm_conv_partial_q15.c ****   q31_t x0, x1, x2, x3, c0;                      /* Temporary input variables */
  81:../Dave/Generated/CMSIS_DSP/FilteringFunctions/arm_conv_partial_q15.c ****   uint32_t j, k, count, check, blkCnt;
  82:../Dave/Generated/CMSIS_DSP/FilteringFunctions/arm_conv_partial_q15.c ****   int32_t blockSize1, blockSize2, blockSize3;    /* loop counter                 */
  83:../Dave/Generated/CMSIS_DSP/FilteringFunctions/arm_conv_partial_q15.c ****   arm_status status;                             /* status of Partial convolution */
  84:../Dave/Generated/CMSIS_DSP/FilteringFunctions/arm_conv_partial_q15.c **** 
  85:../Dave/Generated/CMSIS_DSP/FilteringFunctions/arm_conv_partial_q15.c ****   /* Check for range of output samples to be calculated */
  86:../Dave/Generated/CMSIS_DSP/FilteringFunctions/arm_conv_partial_q15.c ****   if ((firstIndex + numPoints) > ((srcALen + (srcBLen - 1u))))
  60              	 .loc 1 86 0
  61 002c D7F83C24 	 ldr r2,[r7,#1084]
  62 0030 D7F84034 	 ldr r3,[r7,#1088]
  63 0034 D118     	 adds r1,r2,r3
  64 0036 07F14002 	 add r2,r7,#64
  65 003a 07F14803 	 add r3,r7,#72
  66 003e 1268     	 ldr r2,[r2]
  67 0040 1B68     	 ldr r3,[r3]
  68 0042 1344     	 add r3,r3,r2
  69 0044 013B     	 subs r3,r3,#1
  70 0046 9942     	 cmp r1,r3
  71 0048 04D9     	 bls .L2
  87:../Dave/Generated/CMSIS_DSP/FilteringFunctions/arm_conv_partial_q15.c ****   {
  88:../Dave/Generated/CMSIS_DSP/FilteringFunctions/arm_conv_partial_q15.c ****     /* Set status as ARM_MATH_ARGUMENT_ERROR */
  89:../Dave/Generated/CMSIS_DSP/FilteringFunctions/arm_conv_partial_q15.c ****     status = ARM_MATH_ARGUMENT_ERROR;
  72              	 .loc 1 89 0
  73 004a FF23     	 movs r3,#255
  74 004c 87F8C733 	 strb r3,[r7,#967]
  75 0050 01F0E5BC 	 b .L3
  76              	.L2:
  90:../Dave/Generated/CMSIS_DSP/FilteringFunctions/arm_conv_partial_q15.c ****   }
  91:../Dave/Generated/CMSIS_DSP/FilteringFunctions/arm_conv_partial_q15.c ****   else
  92:../Dave/Generated/CMSIS_DSP/FilteringFunctions/arm_conv_partial_q15.c ****   {
  93:../Dave/Generated/CMSIS_DSP/FilteringFunctions/arm_conv_partial_q15.c **** 
  94:../Dave/Generated/CMSIS_DSP/FilteringFunctions/arm_conv_partial_q15.c ****     /* The algorithm implementation is based on the lengths of the inputs. */
  95:../Dave/Generated/CMSIS_DSP/FilteringFunctions/arm_conv_partial_q15.c ****     /* srcB is always made to slide across srcA. */
  96:../Dave/Generated/CMSIS_DSP/FilteringFunctions/arm_conv_partial_q15.c ****     /* So srcBLen is always considered as shorter or equal to srcALen */
  97:../Dave/Generated/CMSIS_DSP/FilteringFunctions/arm_conv_partial_q15.c ****     if (srcALen >= srcBLen)
  77              	 .loc 1 97 0
  78 0054 07F14802 	 add r2,r7,#72
  79 0058 07F14003 	 add r3,r7,#64
  80 005c 1268     	 ldr r2,[r2]
  81 005e 1B68     	 ldr r3,[r3]
  82 0060 9A42     	 cmp r2,r3
  83 0062 0AD3     	 bcc .L4
  98:../Dave/Generated/CMSIS_DSP/FilteringFunctions/arm_conv_partial_q15.c ****     {
  99:../Dave/Generated/CMSIS_DSP/FilteringFunctions/arm_conv_partial_q15.c ****       /* Initialization of inputA pointer */
 100:../Dave/Generated/CMSIS_DSP/FilteringFunctions/arm_conv_partial_q15.c ****       pIn1 = pSrcA;
  84              	 .loc 1 100 0
  85 0064 07F14C03 	 add r3,r7,#76
  86 0068 1B68     	 ldr r3,[r3]
  87 006a C7F81C34 	 str r3,[r7,#1052]
 101:../Dave/Generated/CMSIS_DSP/FilteringFunctions/arm_conv_partial_q15.c **** 
 102:../Dave/Generated/CMSIS_DSP/FilteringFunctions/arm_conv_partial_q15.c ****       /* Initialization of inputB pointer */
 103:../Dave/Generated/CMSIS_DSP/FilteringFunctions/arm_conv_partial_q15.c ****       pIn2 = pSrcB;
  88              	 .loc 1 103 0
  89 006e 07F14403 	 add r3,r7,#68
  90 0072 1B68     	 ldr r3,[r3]
  91 0074 C7F81834 	 str r3,[r7,#1048]
  92 0078 19E0     	 b .L5
  93              	.L4:
 104:../Dave/Generated/CMSIS_DSP/FilteringFunctions/arm_conv_partial_q15.c ****     }
 105:../Dave/Generated/CMSIS_DSP/FilteringFunctions/arm_conv_partial_q15.c ****     else
 106:../Dave/Generated/CMSIS_DSP/FilteringFunctions/arm_conv_partial_q15.c ****     {
 107:../Dave/Generated/CMSIS_DSP/FilteringFunctions/arm_conv_partial_q15.c ****       /* Initialization of inputA pointer */
 108:../Dave/Generated/CMSIS_DSP/FilteringFunctions/arm_conv_partial_q15.c ****       pIn1 = pSrcB;
  94              	 .loc 1 108 0
  95 007a 07F14403 	 add r3,r7,#68
  96 007e 1B68     	 ldr r3,[r3]
  97 0080 C7F81C34 	 str r3,[r7,#1052]
 109:../Dave/Generated/CMSIS_DSP/FilteringFunctions/arm_conv_partial_q15.c **** 
 110:../Dave/Generated/CMSIS_DSP/FilteringFunctions/arm_conv_partial_q15.c ****       /* Initialization of inputB pointer */
 111:../Dave/Generated/CMSIS_DSP/FilteringFunctions/arm_conv_partial_q15.c ****       pIn2 = pSrcA;
  98              	 .loc 1 111 0
  99 0084 07F14C03 	 add r3,r7,#76
 100 0088 1B68     	 ldr r3,[r3]
 101 008a C7F81834 	 str r3,[r7,#1048]
 112:../Dave/Generated/CMSIS_DSP/FilteringFunctions/arm_conv_partial_q15.c **** 
 113:../Dave/Generated/CMSIS_DSP/FilteringFunctions/arm_conv_partial_q15.c ****       /* srcBLen is always considered as shorter or equal to srcALen */
 114:../Dave/Generated/CMSIS_DSP/FilteringFunctions/arm_conv_partial_q15.c ****       j = srcBLen;
 102              	 .loc 1 114 0
 103 008e 07F14003 	 add r3,r7,#64
 104 0092 1B68     	 ldr r3,[r3]
 105 0094 C7F8DC33 	 str r3,[r7,#988]
 115:../Dave/Generated/CMSIS_DSP/FilteringFunctions/arm_conv_partial_q15.c ****       srcBLen = srcALen;
 106              	 .loc 1 115 0
 107 0098 07F14002 	 add r2,r7,#64
 108 009c 07F14803 	 add r3,r7,#72
 109 00a0 1B68     	 ldr r3,[r3]
 110 00a2 1360     	 str r3,[r2]
 116:../Dave/Generated/CMSIS_DSP/FilteringFunctions/arm_conv_partial_q15.c ****       srcALen = j;
 111              	 .loc 1 116 0
 112 00a4 07F14802 	 add r2,r7,#72
 113 00a8 D7F8DC33 	 ldr r3,[r7,#988]
 114 00ac 1360     	 str r3,[r2]
 115              	.L5:
 117:../Dave/Generated/CMSIS_DSP/FilteringFunctions/arm_conv_partial_q15.c ****     }
 118:../Dave/Generated/CMSIS_DSP/FilteringFunctions/arm_conv_partial_q15.c **** 
 119:../Dave/Generated/CMSIS_DSP/FilteringFunctions/arm_conv_partial_q15.c ****     /* Conditions to check which loopCounter holds
 120:../Dave/Generated/CMSIS_DSP/FilteringFunctions/arm_conv_partial_q15.c ****      * the first and last indices of the output samples to be calculated. */
 121:../Dave/Generated/CMSIS_DSP/FilteringFunctions/arm_conv_partial_q15.c ****     check = firstIndex + numPoints;
 116              	 .loc 1 121 0
 117 00ae D7F83C24 	 ldr r2,[r7,#1084]
 118 00b2 D7F84034 	 ldr r3,[r7,#1088]
 119 00b6 1344     	 add r3,r3,r2
 120 00b8 C7F8C033 	 str r3,[r7,#960]
 122:../Dave/Generated/CMSIS_DSP/FilteringFunctions/arm_conv_partial_q15.c ****     blockSize3 = ((int32_t)check > (int32_t)srcALen) ? (int32_t)check - (int32_t)srcALen : 0;
 121              	 .loc 1 122 0
 122 00bc D7F8C023 	 ldr r2,[r7,#960]
 123 00c0 07F14803 	 add r3,r7,#72
 124 00c4 1B68     	 ldr r3,[r3]
 125 00c6 9A42     	 cmp r2,r3
 126 00c8 06DD     	 ble .L6
 127              	 .loc 1 122 0 is_stmt 0 discriminator 1
 128 00ca D7F8C023 	 ldr r2,[r7,#960]
 129 00ce 07F14803 	 add r3,r7,#72
 130 00d2 1B68     	 ldr r3,[r3]
 131 00d4 D31A     	 subs r3,r2,r3
 132 00d6 00E0     	 b .L7
 133              	.L6:
 134              	 .loc 1 122 0 discriminator 2
 135 00d8 0023     	 movs r3,#0
 136              	.L7:
 137              	 .loc 1 122 0 discriminator 4
 138 00da C7F8C833 	 str r3,[r7,#968]
 123:../Dave/Generated/CMSIS_DSP/FilteringFunctions/arm_conv_partial_q15.c ****     blockSize3 = ((int32_t)firstIndex > (int32_t)srcALen - 1) ? blockSize3 - (int32_t)firstIndex + 
 139              	 .loc 1 123 0 is_stmt 1 discriminator 4
 140 00de D7F83C24 	 ldr r2,[r7,#1084]
 141 00e2 07F14803 	 add r3,r7,#72
 142 00e6 1B68     	 ldr r3,[r3]
 143 00e8 013B     	 subs r3,r3,#1
 144 00ea 9A42     	 cmp r2,r3
 145 00ec 09DD     	 ble .L8
 146              	 .loc 1 123 0 is_stmt 0 discriminator 1
 147 00ee D7F83C24 	 ldr r2,[r7,#1084]
 148 00f2 D7F8C833 	 ldr r3,[r7,#968]
 149 00f6 9A1A     	 subs r2,r3,r2
 150 00f8 07F14803 	 add r3,r7,#72
 151 00fc 1B68     	 ldr r3,[r3]
 152 00fe 1344     	 add r3,r3,r2
 153 0100 01E0     	 b .L9
 154              	.L8:
 155              	 .loc 1 123 0 discriminator 2
 156 0102 D7F8C833 	 ldr r3,[r7,#968]
 157              	.L9:
 158              	 .loc 1 123 0 discriminator 4
 159 0106 C7F8C833 	 str r3,[r7,#968]
 124:../Dave/Generated/CMSIS_DSP/FilteringFunctions/arm_conv_partial_q15.c ****     blockSize1 = (((int32_t) srcBLen - 1) - (int32_t) firstIndex);
 160              	 .loc 1 124 0 is_stmt 1 discriminator 4
 161 010a 07F14003 	 add r3,r7,#64
 162 010e 1A68     	 ldr r2,[r3]
 163 0110 D7F83C34 	 ldr r3,[r7,#1084]
 164 0114 D31A     	 subs r3,r2,r3
 165 0116 013B     	 subs r3,r3,#1
 166 0118 C7F8CC33 	 str r3,[r7,#972]
 125:../Dave/Generated/CMSIS_DSP/FilteringFunctions/arm_conv_partial_q15.c ****     blockSize1 = (blockSize1 > 0) ? ((check > (srcBLen - 1u)) ? blockSize1 :
 126:../Dave/Generated/CMSIS_DSP/FilteringFunctions/arm_conv_partial_q15.c ****                                      (int32_t) numPoints) : 0;
 167              	 .loc 1 126 0 discriminator 4
 168 011c D7F8CC33 	 ldr r3,[r7,#972]
 169 0120 002B     	 cmp r3,#0
 170 0122 0DDD     	 ble .L10
 125:../Dave/Generated/CMSIS_DSP/FilteringFunctions/arm_conv_partial_q15.c ****     blockSize1 = (blockSize1 > 0) ? ((check > (srcBLen - 1u)) ? blockSize1 :
 171              	 .loc 1 125 0
 172 0124 07F14003 	 add r3,r7,#64
 173 0128 1B68     	 ldr r3,[r3]
 174 012a 5A1E     	 subs r2,r3,#1
 175 012c D7F8C033 	 ldr r3,[r7,#960]
 176 0130 9A42     	 cmp r2,r3
 177 0132 02D3     	 bcc .L11
 125:../Dave/Generated/CMSIS_DSP/FilteringFunctions/arm_conv_partial_q15.c ****     blockSize1 = (blockSize1 > 0) ? ((check > (srcBLen - 1u)) ? blockSize1 :
 178              	 .loc 1 125 0 is_stmt 0 discriminator 1
 179 0134 D7F84034 	 ldr r3,[r7,#1088]
 180 0138 03E0     	 b .L13
 181              	.L11:
 125:../Dave/Generated/CMSIS_DSP/FilteringFunctions/arm_conv_partial_q15.c ****     blockSize1 = (blockSize1 > 0) ? ((check > (srcBLen - 1u)) ? blockSize1 :
 182              	 .loc 1 125 0 discriminator 2
 183 013a D7F8CC33 	 ldr r3,[r7,#972]
 184 013e 00E0     	 b .L13
 185              	.L10:
 186              	 .loc 1 126 0 is_stmt 1 discriminator 1
 187 0140 0023     	 movs r3,#0
 188              	.L13:
 125:../Dave/Generated/CMSIS_DSP/FilteringFunctions/arm_conv_partial_q15.c ****     blockSize1 = (blockSize1 > 0) ? ((check > (srcBLen - 1u)) ? blockSize1 :
 189              	 .loc 1 125 0
 190 0142 C7F8CC33 	 str r3,[r7,#972]
 127:../Dave/Generated/CMSIS_DSP/FilteringFunctions/arm_conv_partial_q15.c ****     blockSize2 = (int32_t) check - ((blockSize3 + blockSize1) +
 191              	 .loc 1 127 0
 192 0146 D7F8C013 	 ldr r1,[r7,#960]
 193 014a D7F8C823 	 ldr r2,[r7,#968]
 194 014e D7F8CC33 	 ldr r3,[r7,#972]
 195 0152 1A44     	 add r2,r2,r3
 128:../Dave/Generated/CMSIS_DSP/FilteringFunctions/arm_conv_partial_q15.c ****                                     (int32_t) firstIndex);
 196              	 .loc 1 128 0
 197 0154 D7F83C34 	 ldr r3,[r7,#1084]
 127:../Dave/Generated/CMSIS_DSP/FilteringFunctions/arm_conv_partial_q15.c ****     blockSize2 = (int32_t) check - ((blockSize3 + blockSize1) +
 198              	 .loc 1 127 0
 199 0158 1344     	 add r3,r3,r2
 200 015a CB1A     	 subs r3,r1,r3
 201 015c C7F8BC33 	 str r3,[r7,#956]
 129:../Dave/Generated/CMSIS_DSP/FilteringFunctions/arm_conv_partial_q15.c ****     blockSize2 = (blockSize2 > 0) ? blockSize2 : 0;
 202              	 .loc 1 129 0
 203 0160 D7F8BC33 	 ldr r3,[r7,#956]
 204 0164 23EAE373 	 bic r3,r3,r3,asr#31
 205 0168 C7F8BC33 	 str r3,[r7,#956]
 130:../Dave/Generated/CMSIS_DSP/FilteringFunctions/arm_conv_partial_q15.c **** 
 131:../Dave/Generated/CMSIS_DSP/FilteringFunctions/arm_conv_partial_q15.c ****     /* conv(x,y) at n = x[n] * y[0] + x[n-1] * y[1] + x[n-2] * y[2] + ...+ x[n-N+1] * y[N -1] */
 132:../Dave/Generated/CMSIS_DSP/FilteringFunctions/arm_conv_partial_q15.c ****     /* The function is internally
 133:../Dave/Generated/CMSIS_DSP/FilteringFunctions/arm_conv_partial_q15.c ****      * divided into three stages according to the number of multiplications that has to be
 134:../Dave/Generated/CMSIS_DSP/FilteringFunctions/arm_conv_partial_q15.c ****      * taken place between inputA samples and inputB samples. In the first stage of the
 135:../Dave/Generated/CMSIS_DSP/FilteringFunctions/arm_conv_partial_q15.c ****      * algorithm, the multiplications increase by one for every iteration.
 136:../Dave/Generated/CMSIS_DSP/FilteringFunctions/arm_conv_partial_q15.c ****      * In the second stage of the algorithm, srcBLen number of multiplications are done.
 137:../Dave/Generated/CMSIS_DSP/FilteringFunctions/arm_conv_partial_q15.c ****      * In the third stage of the algorithm, the multiplications decrease by one
 138:../Dave/Generated/CMSIS_DSP/FilteringFunctions/arm_conv_partial_q15.c ****      * for every iteration. */
 139:../Dave/Generated/CMSIS_DSP/FilteringFunctions/arm_conv_partial_q15.c **** 
 140:../Dave/Generated/CMSIS_DSP/FilteringFunctions/arm_conv_partial_q15.c ****     /* Set the output pointer to point to the firstIndex
 141:../Dave/Generated/CMSIS_DSP/FilteringFunctions/arm_conv_partial_q15.c ****      * of the output sample to be calculated. */
 142:../Dave/Generated/CMSIS_DSP/FilteringFunctions/arm_conv_partial_q15.c ****     pOut = pDst + firstIndex;
 206              	 .loc 1 142 0
 207 016c D7F83C34 	 ldr r3,[r7,#1084]
 208 0170 5A00     	 lsls r2,r3,#1
 209 0172 D7F83834 	 ldr r3,[r7,#1080]
 210 0176 1A44     	 add r2,r2,r3
 211 0178 07F5AE73 	 add r3,r7,#348
 212 017c 1A60     	 str r2,[r3]
 143:../Dave/Generated/CMSIS_DSP/FilteringFunctions/arm_conv_partial_q15.c **** 
 144:../Dave/Generated/CMSIS_DSP/FilteringFunctions/arm_conv_partial_q15.c ****     /* --------------------------
 145:../Dave/Generated/CMSIS_DSP/FilteringFunctions/arm_conv_partial_q15.c ****      * Initializations of stage1
 146:../Dave/Generated/CMSIS_DSP/FilteringFunctions/arm_conv_partial_q15.c ****      * -------------------------*/
 147:../Dave/Generated/CMSIS_DSP/FilteringFunctions/arm_conv_partial_q15.c **** 
 148:../Dave/Generated/CMSIS_DSP/FilteringFunctions/arm_conv_partial_q15.c ****     /* sum = x[0] * y[0]
 149:../Dave/Generated/CMSIS_DSP/FilteringFunctions/arm_conv_partial_q15.c ****      * sum = x[0] * y[1] + x[1] * y[0]
 150:../Dave/Generated/CMSIS_DSP/FilteringFunctions/arm_conv_partial_q15.c ****      * ....
 151:../Dave/Generated/CMSIS_DSP/FilteringFunctions/arm_conv_partial_q15.c ****      * sum = x[0] * y[srcBlen - 1] + x[1] * y[srcBlen - 2] +...+ x[srcBLen - 1] * y[0]
 152:../Dave/Generated/CMSIS_DSP/FilteringFunctions/arm_conv_partial_q15.c ****      */
 153:../Dave/Generated/CMSIS_DSP/FilteringFunctions/arm_conv_partial_q15.c **** 
 154:../Dave/Generated/CMSIS_DSP/FilteringFunctions/arm_conv_partial_q15.c ****     /* In this stage the MAC operations are increased by 1 for every iteration.
 155:../Dave/Generated/CMSIS_DSP/FilteringFunctions/arm_conv_partial_q15.c ****        The count variable holds the number of MAC operations performed.
 156:../Dave/Generated/CMSIS_DSP/FilteringFunctions/arm_conv_partial_q15.c ****        Since the partial convolution starts from firstIndex
 157:../Dave/Generated/CMSIS_DSP/FilteringFunctions/arm_conv_partial_q15.c ****        Number of Macs to be performed is firstIndex + 1 */
 158:../Dave/Generated/CMSIS_DSP/FilteringFunctions/arm_conv_partial_q15.c ****     count = 1u + firstIndex;
 213              	 .loc 1 158 0
 214 017e D7F83C34 	 ldr r3,[r7,#1084]
 215 0182 0133     	 adds r3,r3,#1
 216 0184 C7F8D433 	 str r3,[r7,#980]
 159:../Dave/Generated/CMSIS_DSP/FilteringFunctions/arm_conv_partial_q15.c **** 
 160:../Dave/Generated/CMSIS_DSP/FilteringFunctions/arm_conv_partial_q15.c ****     /* Working pointer of inputA */
 161:../Dave/Generated/CMSIS_DSP/FilteringFunctions/arm_conv_partial_q15.c ****     px = pIn1;
 217              	 .loc 1 161 0
 218 0188 07F5AC72 	 add r2,r7,#344
 219 018c D7F81C34 	 ldr r3,[r7,#1052]
 220 0190 1360     	 str r3,[r2]
 162:../Dave/Generated/CMSIS_DSP/FilteringFunctions/arm_conv_partial_q15.c **** 
 163:../Dave/Generated/CMSIS_DSP/FilteringFunctions/arm_conv_partial_q15.c ****     /* Working pointer of inputB */
 164:../Dave/Generated/CMSIS_DSP/FilteringFunctions/arm_conv_partial_q15.c ****     pSrc2 = pIn2 + firstIndex;
 221              	 .loc 1 164 0
 222 0192 D7F83C34 	 ldr r3,[r7,#1084]
 223 0196 5A00     	 lsls r2,r3,#1
 224 0198 D7F81834 	 ldr r3,[r7,#1048]
 225 019c 1344     	 add r3,r3,r2
 226 019e C7F8E833 	 str r3,[r7,#1000]
 165:../Dave/Generated/CMSIS_DSP/FilteringFunctions/arm_conv_partial_q15.c ****     py = pSrc2;
 227              	 .loc 1 165 0
 228 01a2 07F5AA72 	 add r2,r7,#340
 229 01a6 D7F8E833 	 ldr r3,[r7,#1000]
 230 01aa 1360     	 str r3,[r2]
 166:../Dave/Generated/CMSIS_DSP/FilteringFunctions/arm_conv_partial_q15.c **** 
 167:../Dave/Generated/CMSIS_DSP/FilteringFunctions/arm_conv_partial_q15.c ****     /* ------------------------
 168:../Dave/Generated/CMSIS_DSP/FilteringFunctions/arm_conv_partial_q15.c ****      * Stage1 process
 169:../Dave/Generated/CMSIS_DSP/FilteringFunctions/arm_conv_partial_q15.c ****      * ----------------------*/
 170:../Dave/Generated/CMSIS_DSP/FilteringFunctions/arm_conv_partial_q15.c **** 
 171:../Dave/Generated/CMSIS_DSP/FilteringFunctions/arm_conv_partial_q15.c ****     /* For loop unrolling by 4, this stage is divided into two. */
 172:../Dave/Generated/CMSIS_DSP/FilteringFunctions/arm_conv_partial_q15.c ****     /* First part of this stage computes the MAC operations less than 4 */
 173:../Dave/Generated/CMSIS_DSP/FilteringFunctions/arm_conv_partial_q15.c ****     /* Second part of this stage computes the MAC operations greater than or equal to 4 */
 174:../Dave/Generated/CMSIS_DSP/FilteringFunctions/arm_conv_partial_q15.c **** 
 175:../Dave/Generated/CMSIS_DSP/FilteringFunctions/arm_conv_partial_q15.c ****     /* The first part of the stage starts here */
 176:../Dave/Generated/CMSIS_DSP/FilteringFunctions/arm_conv_partial_q15.c ****     while ((count < 4u) && (blockSize1 > 0))
 231              	 .loc 1 176 0
 232 01ac 8CE0     	 b .L14
 233              	.L19:
 177:../Dave/Generated/CMSIS_DSP/FilteringFunctions/arm_conv_partial_q15.c ****     {
 178:../Dave/Generated/CMSIS_DSP/FilteringFunctions/arm_conv_partial_q15.c ****       /* Accumulator is made zero for every iteration */
 179:../Dave/Generated/CMSIS_DSP/FilteringFunctions/arm_conv_partial_q15.c ****       sum = 0;
 234              	 .loc 1 179 0
 235 01ae 4FF00002 	 mov r2,#0
 236 01b2 4FF00003 	 mov r3,#0
 237 01b6 07F58261 	 add r1,r7,#1040
 238 01ba C1E90023 	 strd r2,[r1]
 180:../Dave/Generated/CMSIS_DSP/FilteringFunctions/arm_conv_partial_q15.c **** 
 181:../Dave/Generated/CMSIS_DSP/FilteringFunctions/arm_conv_partial_q15.c ****       /* Loop over number of MAC operations between
 182:../Dave/Generated/CMSIS_DSP/FilteringFunctions/arm_conv_partial_q15.c ****        * inputA samples and inputB samples */
 183:../Dave/Generated/CMSIS_DSP/FilteringFunctions/arm_conv_partial_q15.c ****       k = count;
 239              	 .loc 1 183 0
 240 01be D7F8D433 	 ldr r3,[r7,#980]
 241 01c2 C7F8D833 	 str r3,[r7,#984]
 184:../Dave/Generated/CMSIS_DSP/FilteringFunctions/arm_conv_partial_q15.c **** 
 185:../Dave/Generated/CMSIS_DSP/FilteringFunctions/arm_conv_partial_q15.c ****       while (k > 0u)
 242              	 .loc 1 185 0
 243 01c6 44E0     	 b .L15
 244              	.L17:
 186:../Dave/Generated/CMSIS_DSP/FilteringFunctions/arm_conv_partial_q15.c ****       {
 187:../Dave/Generated/CMSIS_DSP/FilteringFunctions/arm_conv_partial_q15.c ****         /* Perform the multiply-accumulates */
 188:../Dave/Generated/CMSIS_DSP/FilteringFunctions/arm_conv_partial_q15.c ****         sum = __SMLALD(*px++, *py--, sum);
 245              	 .loc 1 188 0
 246 01c8 07F5AC73 	 add r3,r7,#344
 247 01cc 1968     	 ldr r1,[r3]
 248 01ce 8A1C     	 adds r2,r1,#2
 249 01d0 07F5AC73 	 add r3,r7,#344
 250 01d4 1A60     	 str r2,[r3]
 251 01d6 0B88     	 ldrh r3,[r1]
 252 01d8 18B2     	 sxth r0,r3
 253 01da 07F5AA73 	 add r3,r7,#340
 254 01de 1968     	 ldr r1,[r3]
 255 01e0 8A1E     	 subs r2,r1,#2
 256 01e2 07F5AA73 	 add r3,r7,#340
 257 01e6 1A60     	 str r2,[r3]
 258 01e8 0B88     	 ldrh r3,[r1]
 259 01ea 19B2     	 sxth r1,r3
 260 01ec 07F58263 	 add r3,r7,#1040
 261 01f0 D3E90023 	 ldrd r2,[r3]
 262 01f4 C7F85C03 	 str r0,[r7,#860]
 263 01f8 C7F85813 	 str r1,[r7,#856]
 264 01fc 07F55471 	 add r1,r7,#848
 265 0200 C1E90023 	 strd r2,[r1]
 266              	.LBB76:
 267              	.LBB77:
 268              	 .file 2 "C:/Users/VMORAIS/Documents/DAVE_WS/1p_inverter_200V/Libraries/CMSIS/Include/cmsis_gcc.h"
   1:C:/Users/VMORAIS/Documents/DAVE_WS/1p_inverter_200V/Libraries/CMSIS/Include\cmsis_gcc.h **** /**************************************************************************//**
   2:C:/Users/VMORAIS/Documents/DAVE_WS/1p_inverter_200V/Libraries/CMSIS/Include\cmsis_gcc.h ****  * @file     cmsis_gcc.h
   3:C:/Users/VMORAIS/Documents/DAVE_WS/1p_inverter_200V/Libraries/CMSIS/Include\cmsis_gcc.h ****  * @brief    CMSIS compiler GCC header file
   4:C:/Users/VMORAIS/Documents/DAVE_WS/1p_inverter_200V/Libraries/CMSIS/Include\cmsis_gcc.h ****  * @version  V5.0.1
   5:C:/Users/VMORAIS/Documents/DAVE_WS/1p_inverter_200V/Libraries/CMSIS/Include\cmsis_gcc.h ****  * @date     02. February 2017
   6:C:/Users/VMORAIS/Documents/DAVE_WS/1p_inverter_200V/Libraries/CMSIS/Include\cmsis_gcc.h ****  ******************************************************************************/
   7:C:/Users/VMORAIS/Documents/DAVE_WS/1p_inverter_200V/Libraries/CMSIS/Include\cmsis_gcc.h **** /*
   8:C:/Users/VMORAIS/Documents/DAVE_WS/1p_inverter_200V/Libraries/CMSIS/Include\cmsis_gcc.h ****  * Copyright (c) 2009-2017 ARM Limited. All rights reserved.
   9:C:/Users/VMORAIS/Documents/DAVE_WS/1p_inverter_200V/Libraries/CMSIS/Include\cmsis_gcc.h ****  *
  10:C:/Users/VMORAIS/Documents/DAVE_WS/1p_inverter_200V/Libraries/CMSIS/Include\cmsis_gcc.h ****  * SPDX-License-Identifier: Apache-2.0
  11:C:/Users/VMORAIS/Documents/DAVE_WS/1p_inverter_200V/Libraries/CMSIS/Include\cmsis_gcc.h ****  *
  12:C:/Users/VMORAIS/Documents/DAVE_WS/1p_inverter_200V/Libraries/CMSIS/Include\cmsis_gcc.h ****  * Licensed under the Apache License, Version 2.0 (the License); you may
  13:C:/Users/VMORAIS/Documents/DAVE_WS/1p_inverter_200V/Libraries/CMSIS/Include\cmsis_gcc.h ****  * not use this file except in compliance with the License.
  14:C:/Users/VMORAIS/Documents/DAVE_WS/1p_inverter_200V/Libraries/CMSIS/Include\cmsis_gcc.h ****  * You may obtain a copy of the License at
  15:C:/Users/VMORAIS/Documents/DAVE_WS/1p_inverter_200V/Libraries/CMSIS/Include\cmsis_gcc.h ****  *
  16:C:/Users/VMORAIS/Documents/DAVE_WS/1p_inverter_200V/Libraries/CMSIS/Include\cmsis_gcc.h ****  * www.apache.org/licenses/LICENSE-2.0
  17:C:/Users/VMORAIS/Documents/DAVE_WS/1p_inverter_200V/Libraries/CMSIS/Include\cmsis_gcc.h ****  *
  18:C:/Users/VMORAIS/Documents/DAVE_WS/1p_inverter_200V/Libraries/CMSIS/Include\cmsis_gcc.h ****  * Unless required by applicable law or agreed to in writing, software
  19:C:/Users/VMORAIS/Documents/DAVE_WS/1p_inverter_200V/Libraries/CMSIS/Include\cmsis_gcc.h ****  * distributed under the License is distributed on an AS IS BASIS, WITHOUT
  20:C:/Users/VMORAIS/Documents/DAVE_WS/1p_inverter_200V/Libraries/CMSIS/Include\cmsis_gcc.h ****  * WARRANTIES OR CONDITIONS OF ANY KIND, either express or implied.
  21:C:/Users/VMORAIS/Documents/DAVE_WS/1p_inverter_200V/Libraries/CMSIS/Include\cmsis_gcc.h ****  * See the License for the specific language governing permissions and
  22:C:/Users/VMORAIS/Documents/DAVE_WS/1p_inverter_200V/Libraries/CMSIS/Include\cmsis_gcc.h ****  * limitations under the License.
  23:C:/Users/VMORAIS/Documents/DAVE_WS/1p_inverter_200V/Libraries/CMSIS/Include\cmsis_gcc.h ****  */
  24:C:/Users/VMORAIS/Documents/DAVE_WS/1p_inverter_200V/Libraries/CMSIS/Include\cmsis_gcc.h **** 
  25:C:/Users/VMORAIS/Documents/DAVE_WS/1p_inverter_200V/Libraries/CMSIS/Include\cmsis_gcc.h **** #ifndef __CMSIS_GCC_H
  26:C:/Users/VMORAIS/Documents/DAVE_WS/1p_inverter_200V/Libraries/CMSIS/Include\cmsis_gcc.h **** #define __CMSIS_GCC_H
  27:C:/Users/VMORAIS/Documents/DAVE_WS/1p_inverter_200V/Libraries/CMSIS/Include\cmsis_gcc.h **** 
  28:C:/Users/VMORAIS/Documents/DAVE_WS/1p_inverter_200V/Libraries/CMSIS/Include\cmsis_gcc.h **** /* ignore some GCC warnings */
  29:C:/Users/VMORAIS/Documents/DAVE_WS/1p_inverter_200V/Libraries/CMSIS/Include\cmsis_gcc.h **** #pragma GCC diagnostic push
  30:C:/Users/VMORAIS/Documents/DAVE_WS/1p_inverter_200V/Libraries/CMSIS/Include\cmsis_gcc.h **** #pragma GCC diagnostic ignored "-Wsign-conversion"
  31:C:/Users/VMORAIS/Documents/DAVE_WS/1p_inverter_200V/Libraries/CMSIS/Include\cmsis_gcc.h **** #pragma GCC diagnostic ignored "-Wconversion"
  32:C:/Users/VMORAIS/Documents/DAVE_WS/1p_inverter_200V/Libraries/CMSIS/Include\cmsis_gcc.h **** #pragma GCC diagnostic ignored "-Wunused-parameter"
  33:C:/Users/VMORAIS/Documents/DAVE_WS/1p_inverter_200V/Libraries/CMSIS/Include\cmsis_gcc.h **** 
  34:C:/Users/VMORAIS/Documents/DAVE_WS/1p_inverter_200V/Libraries/CMSIS/Include\cmsis_gcc.h **** /* CMSIS compiler specific defines */
  35:C:/Users/VMORAIS/Documents/DAVE_WS/1p_inverter_200V/Libraries/CMSIS/Include\cmsis_gcc.h **** #ifndef   __ASM
  36:C:/Users/VMORAIS/Documents/DAVE_WS/1p_inverter_200V/Libraries/CMSIS/Include\cmsis_gcc.h ****   #define __ASM                     __asm
  37:C:/Users/VMORAIS/Documents/DAVE_WS/1p_inverter_200V/Libraries/CMSIS/Include\cmsis_gcc.h **** #endif
  38:C:/Users/VMORAIS/Documents/DAVE_WS/1p_inverter_200V/Libraries/CMSIS/Include\cmsis_gcc.h **** #ifndef   __INLINE
  39:C:/Users/VMORAIS/Documents/DAVE_WS/1p_inverter_200V/Libraries/CMSIS/Include\cmsis_gcc.h ****   #define __INLINE                  inline
  40:C:/Users/VMORAIS/Documents/DAVE_WS/1p_inverter_200V/Libraries/CMSIS/Include\cmsis_gcc.h **** #endif
  41:C:/Users/VMORAIS/Documents/DAVE_WS/1p_inverter_200V/Libraries/CMSIS/Include\cmsis_gcc.h **** #ifndef   __STATIC_INLINE
  42:C:/Users/VMORAIS/Documents/DAVE_WS/1p_inverter_200V/Libraries/CMSIS/Include\cmsis_gcc.h ****   #define __STATIC_INLINE           static inline
  43:C:/Users/VMORAIS/Documents/DAVE_WS/1p_inverter_200V/Libraries/CMSIS/Include\cmsis_gcc.h **** #endif
  44:C:/Users/VMORAIS/Documents/DAVE_WS/1p_inverter_200V/Libraries/CMSIS/Include\cmsis_gcc.h **** #ifndef   __NO_RETURN
  45:C:/Users/VMORAIS/Documents/DAVE_WS/1p_inverter_200V/Libraries/CMSIS/Include\cmsis_gcc.h ****   #define __NO_RETURN               __attribute__((noreturn))
  46:C:/Users/VMORAIS/Documents/DAVE_WS/1p_inverter_200V/Libraries/CMSIS/Include\cmsis_gcc.h **** #endif
  47:C:/Users/VMORAIS/Documents/DAVE_WS/1p_inverter_200V/Libraries/CMSIS/Include\cmsis_gcc.h **** #ifndef   __USED
  48:C:/Users/VMORAIS/Documents/DAVE_WS/1p_inverter_200V/Libraries/CMSIS/Include\cmsis_gcc.h ****   #define __USED                    __attribute__((used))
  49:C:/Users/VMORAIS/Documents/DAVE_WS/1p_inverter_200V/Libraries/CMSIS/Include\cmsis_gcc.h **** #endif
  50:C:/Users/VMORAIS/Documents/DAVE_WS/1p_inverter_200V/Libraries/CMSIS/Include\cmsis_gcc.h **** #ifndef   __WEAK
  51:C:/Users/VMORAIS/Documents/DAVE_WS/1p_inverter_200V/Libraries/CMSIS/Include\cmsis_gcc.h ****   #define __WEAK                    __attribute__((weak))
  52:C:/Users/VMORAIS/Documents/DAVE_WS/1p_inverter_200V/Libraries/CMSIS/Include\cmsis_gcc.h **** #endif
  53:C:/Users/VMORAIS/Documents/DAVE_WS/1p_inverter_200V/Libraries/CMSIS/Include\cmsis_gcc.h **** #ifndef   __UNALIGNED_UINT32
  54:C:/Users/VMORAIS/Documents/DAVE_WS/1p_inverter_200V/Libraries/CMSIS/Include\cmsis_gcc.h **** #pragma GCC diagnostic push
  55:C:/Users/VMORAIS/Documents/DAVE_WS/1p_inverter_200V/Libraries/CMSIS/Include\cmsis_gcc.h **** #pragma GCC diagnostic ignored "-Wpacked"
  56:C:/Users/VMORAIS/Documents/DAVE_WS/1p_inverter_200V/Libraries/CMSIS/Include\cmsis_gcc.h **** #pragma GCC diagnostic ignored "-Wattributes"
  57:C:/Users/VMORAIS/Documents/DAVE_WS/1p_inverter_200V/Libraries/CMSIS/Include\cmsis_gcc.h ****   struct __attribute__((packed)) T_UINT32 { uint32_t v; };
  58:C:/Users/VMORAIS/Documents/DAVE_WS/1p_inverter_200V/Libraries/CMSIS/Include\cmsis_gcc.h **** #pragma GCC diagnostic pop
  59:C:/Users/VMORAIS/Documents/DAVE_WS/1p_inverter_200V/Libraries/CMSIS/Include\cmsis_gcc.h ****   #define __UNALIGNED_UINT32(x)     (((struct T_UINT32 *)(x))->v)
  60:C:/Users/VMORAIS/Documents/DAVE_WS/1p_inverter_200V/Libraries/CMSIS/Include\cmsis_gcc.h **** #endif
  61:C:/Users/VMORAIS/Documents/DAVE_WS/1p_inverter_200V/Libraries/CMSIS/Include\cmsis_gcc.h **** #ifndef   __ALIGNED
  62:C:/Users/VMORAIS/Documents/DAVE_WS/1p_inverter_200V/Libraries/CMSIS/Include\cmsis_gcc.h ****   #define __ALIGNED(x)              __attribute__((aligned(x)))
  63:C:/Users/VMORAIS/Documents/DAVE_WS/1p_inverter_200V/Libraries/CMSIS/Include\cmsis_gcc.h **** #endif
  64:C:/Users/VMORAIS/Documents/DAVE_WS/1p_inverter_200V/Libraries/CMSIS/Include\cmsis_gcc.h **** #ifndef   __PACKED
  65:C:/Users/VMORAIS/Documents/DAVE_WS/1p_inverter_200V/Libraries/CMSIS/Include\cmsis_gcc.h ****   #define __PACKED                  __attribute__((packed, aligned(1)))
  66:C:/Users/VMORAIS/Documents/DAVE_WS/1p_inverter_200V/Libraries/CMSIS/Include\cmsis_gcc.h **** #endif
  67:C:/Users/VMORAIS/Documents/DAVE_WS/1p_inverter_200V/Libraries/CMSIS/Include\cmsis_gcc.h **** #ifndef   __PACKED_STRUCT
  68:C:/Users/VMORAIS/Documents/DAVE_WS/1p_inverter_200V/Libraries/CMSIS/Include\cmsis_gcc.h ****   #define __PACKED_STRUCT           struct __attribute__((packed, aligned(1)))
  69:C:/Users/VMORAIS/Documents/DAVE_WS/1p_inverter_200V/Libraries/CMSIS/Include\cmsis_gcc.h **** #endif
  70:C:/Users/VMORAIS/Documents/DAVE_WS/1p_inverter_200V/Libraries/CMSIS/Include\cmsis_gcc.h **** 
  71:C:/Users/VMORAIS/Documents/DAVE_WS/1p_inverter_200V/Libraries/CMSIS/Include\cmsis_gcc.h **** 
  72:C:/Users/VMORAIS/Documents/DAVE_WS/1p_inverter_200V/Libraries/CMSIS/Include\cmsis_gcc.h **** /* ###########################  Core Function Access  ########################### */
  73:C:/Users/VMORAIS/Documents/DAVE_WS/1p_inverter_200V/Libraries/CMSIS/Include\cmsis_gcc.h **** /** \ingroup  CMSIS_Core_FunctionInterface
  74:C:/Users/VMORAIS/Documents/DAVE_WS/1p_inverter_200V/Libraries/CMSIS/Include\cmsis_gcc.h ****     \defgroup CMSIS_Core_RegAccFunctions CMSIS Core Register Access Functions
  75:C:/Users/VMORAIS/Documents/DAVE_WS/1p_inverter_200V/Libraries/CMSIS/Include\cmsis_gcc.h ****   @{
  76:C:/Users/VMORAIS/Documents/DAVE_WS/1p_inverter_200V/Libraries/CMSIS/Include\cmsis_gcc.h ****  */
  77:C:/Users/VMORAIS/Documents/DAVE_WS/1p_inverter_200V/Libraries/CMSIS/Include\cmsis_gcc.h **** 
  78:C:/Users/VMORAIS/Documents/DAVE_WS/1p_inverter_200V/Libraries/CMSIS/Include\cmsis_gcc.h **** /**
  79:C:/Users/VMORAIS/Documents/DAVE_WS/1p_inverter_200V/Libraries/CMSIS/Include\cmsis_gcc.h ****   \brief   Enable IRQ Interrupts
  80:C:/Users/VMORAIS/Documents/DAVE_WS/1p_inverter_200V/Libraries/CMSIS/Include\cmsis_gcc.h ****   \details Enables IRQ interrupts by clearing the I-bit in the CPSR.
  81:C:/Users/VMORAIS/Documents/DAVE_WS/1p_inverter_200V/Libraries/CMSIS/Include\cmsis_gcc.h ****            Can only be executed in Privileged modes.
  82:C:/Users/VMORAIS/Documents/DAVE_WS/1p_inverter_200V/Libraries/CMSIS/Include\cmsis_gcc.h ****  */
  83:C:/Users/VMORAIS/Documents/DAVE_WS/1p_inverter_200V/Libraries/CMSIS/Include\cmsis_gcc.h **** __attribute__((always_inline)) __STATIC_INLINE void __enable_irq(void)
  84:C:/Users/VMORAIS/Documents/DAVE_WS/1p_inverter_200V/Libraries/CMSIS/Include\cmsis_gcc.h **** {
  85:C:/Users/VMORAIS/Documents/DAVE_WS/1p_inverter_200V/Libraries/CMSIS/Include\cmsis_gcc.h ****   __ASM volatile ("cpsie i" : : : "memory");
  86:C:/Users/VMORAIS/Documents/DAVE_WS/1p_inverter_200V/Libraries/CMSIS/Include\cmsis_gcc.h **** }
  87:C:/Users/VMORAIS/Documents/DAVE_WS/1p_inverter_200V/Libraries/CMSIS/Include\cmsis_gcc.h **** 
  88:C:/Users/VMORAIS/Documents/DAVE_WS/1p_inverter_200V/Libraries/CMSIS/Include\cmsis_gcc.h **** 
  89:C:/Users/VMORAIS/Documents/DAVE_WS/1p_inverter_200V/Libraries/CMSIS/Include\cmsis_gcc.h **** /**
  90:C:/Users/VMORAIS/Documents/DAVE_WS/1p_inverter_200V/Libraries/CMSIS/Include\cmsis_gcc.h ****   \brief   Disable IRQ Interrupts
  91:C:/Users/VMORAIS/Documents/DAVE_WS/1p_inverter_200V/Libraries/CMSIS/Include\cmsis_gcc.h ****   \details Disables IRQ interrupts by setting the I-bit in the CPSR.
  92:C:/Users/VMORAIS/Documents/DAVE_WS/1p_inverter_200V/Libraries/CMSIS/Include\cmsis_gcc.h ****            Can only be executed in Privileged modes.
  93:C:/Users/VMORAIS/Documents/DAVE_WS/1p_inverter_200V/Libraries/CMSIS/Include\cmsis_gcc.h ****  */
  94:C:/Users/VMORAIS/Documents/DAVE_WS/1p_inverter_200V/Libraries/CMSIS/Include\cmsis_gcc.h **** __attribute__((always_inline)) __STATIC_INLINE void __disable_irq(void)
  95:C:/Users/VMORAIS/Documents/DAVE_WS/1p_inverter_200V/Libraries/CMSIS/Include\cmsis_gcc.h **** {
  96:C:/Users/VMORAIS/Documents/DAVE_WS/1p_inverter_200V/Libraries/CMSIS/Include\cmsis_gcc.h ****   __ASM volatile ("cpsid i" : : : "memory");
  97:C:/Users/VMORAIS/Documents/DAVE_WS/1p_inverter_200V/Libraries/CMSIS/Include\cmsis_gcc.h **** }
  98:C:/Users/VMORAIS/Documents/DAVE_WS/1p_inverter_200V/Libraries/CMSIS/Include\cmsis_gcc.h **** 
  99:C:/Users/VMORAIS/Documents/DAVE_WS/1p_inverter_200V/Libraries/CMSIS/Include\cmsis_gcc.h **** 
 100:C:/Users/VMORAIS/Documents/DAVE_WS/1p_inverter_200V/Libraries/CMSIS/Include\cmsis_gcc.h **** /**
 101:C:/Users/VMORAIS/Documents/DAVE_WS/1p_inverter_200V/Libraries/CMSIS/Include\cmsis_gcc.h ****   \brief   Get Control Register
 102:C:/Users/VMORAIS/Documents/DAVE_WS/1p_inverter_200V/Libraries/CMSIS/Include\cmsis_gcc.h ****   \details Returns the content of the Control Register.
 103:C:/Users/VMORAIS/Documents/DAVE_WS/1p_inverter_200V/Libraries/CMSIS/Include\cmsis_gcc.h ****   \return               Control Register value
 104:C:/Users/VMORAIS/Documents/DAVE_WS/1p_inverter_200V/Libraries/CMSIS/Include\cmsis_gcc.h ****  */
 105:C:/Users/VMORAIS/Documents/DAVE_WS/1p_inverter_200V/Libraries/CMSIS/Include\cmsis_gcc.h **** __attribute__((always_inline)) __STATIC_INLINE uint32_t __get_CONTROL(void)
 106:C:/Users/VMORAIS/Documents/DAVE_WS/1p_inverter_200V/Libraries/CMSIS/Include\cmsis_gcc.h **** {
 107:C:/Users/VMORAIS/Documents/DAVE_WS/1p_inverter_200V/Libraries/CMSIS/Include\cmsis_gcc.h ****   uint32_t result;
 108:C:/Users/VMORAIS/Documents/DAVE_WS/1p_inverter_200V/Libraries/CMSIS/Include\cmsis_gcc.h **** 
 109:C:/Users/VMORAIS/Documents/DAVE_WS/1p_inverter_200V/Libraries/CMSIS/Include\cmsis_gcc.h ****   __ASM volatile ("MRS %0, control" : "=r" (result) );
 110:C:/Users/VMORAIS/Documents/DAVE_WS/1p_inverter_200V/Libraries/CMSIS/Include\cmsis_gcc.h ****   return(result);
 111:C:/Users/VMORAIS/Documents/DAVE_WS/1p_inverter_200V/Libraries/CMSIS/Include\cmsis_gcc.h **** }
 112:C:/Users/VMORAIS/Documents/DAVE_WS/1p_inverter_200V/Libraries/CMSIS/Include\cmsis_gcc.h **** 
 113:C:/Users/VMORAIS/Documents/DAVE_WS/1p_inverter_200V/Libraries/CMSIS/Include\cmsis_gcc.h **** 
 114:C:/Users/VMORAIS/Documents/DAVE_WS/1p_inverter_200V/Libraries/CMSIS/Include\cmsis_gcc.h **** #if (defined (__ARM_FEATURE_CMSE ) && (__ARM_FEATURE_CMSE == 3))
 115:C:/Users/VMORAIS/Documents/DAVE_WS/1p_inverter_200V/Libraries/CMSIS/Include\cmsis_gcc.h **** /**
 116:C:/Users/VMORAIS/Documents/DAVE_WS/1p_inverter_200V/Libraries/CMSIS/Include\cmsis_gcc.h ****   \brief   Get Control Register (non-secure)
 117:C:/Users/VMORAIS/Documents/DAVE_WS/1p_inverter_200V/Libraries/CMSIS/Include\cmsis_gcc.h ****   \details Returns the content of the non-secure Control Register when in secure mode.
 118:C:/Users/VMORAIS/Documents/DAVE_WS/1p_inverter_200V/Libraries/CMSIS/Include\cmsis_gcc.h ****   \return               non-secure Control Register value
 119:C:/Users/VMORAIS/Documents/DAVE_WS/1p_inverter_200V/Libraries/CMSIS/Include\cmsis_gcc.h ****  */
 120:C:/Users/VMORAIS/Documents/DAVE_WS/1p_inverter_200V/Libraries/CMSIS/Include\cmsis_gcc.h **** __attribute__((always_inline)) __STATIC_INLINE uint32_t __TZ_get_CONTROL_NS(void)
 121:C:/Users/VMORAIS/Documents/DAVE_WS/1p_inverter_200V/Libraries/CMSIS/Include\cmsis_gcc.h **** {
 122:C:/Users/VMORAIS/Documents/DAVE_WS/1p_inverter_200V/Libraries/CMSIS/Include\cmsis_gcc.h ****   uint32_t result;
 123:C:/Users/VMORAIS/Documents/DAVE_WS/1p_inverter_200V/Libraries/CMSIS/Include\cmsis_gcc.h **** 
 124:C:/Users/VMORAIS/Documents/DAVE_WS/1p_inverter_200V/Libraries/CMSIS/Include\cmsis_gcc.h ****   __ASM volatile ("MRS %0, control_ns" : "=r" (result) );
 125:C:/Users/VMORAIS/Documents/DAVE_WS/1p_inverter_200V/Libraries/CMSIS/Include\cmsis_gcc.h ****   return(result);
 126:C:/Users/VMORAIS/Documents/DAVE_WS/1p_inverter_200V/Libraries/CMSIS/Include\cmsis_gcc.h **** }
 127:C:/Users/VMORAIS/Documents/DAVE_WS/1p_inverter_200V/Libraries/CMSIS/Include\cmsis_gcc.h **** #endif
 128:C:/Users/VMORAIS/Documents/DAVE_WS/1p_inverter_200V/Libraries/CMSIS/Include\cmsis_gcc.h **** 
 129:C:/Users/VMORAIS/Documents/DAVE_WS/1p_inverter_200V/Libraries/CMSIS/Include\cmsis_gcc.h **** 
 130:C:/Users/VMORAIS/Documents/DAVE_WS/1p_inverter_200V/Libraries/CMSIS/Include\cmsis_gcc.h **** /**
 131:C:/Users/VMORAIS/Documents/DAVE_WS/1p_inverter_200V/Libraries/CMSIS/Include\cmsis_gcc.h ****   \brief   Set Control Register
 132:C:/Users/VMORAIS/Documents/DAVE_WS/1p_inverter_200V/Libraries/CMSIS/Include\cmsis_gcc.h ****   \details Writes the given value to the Control Register.
 133:C:/Users/VMORAIS/Documents/DAVE_WS/1p_inverter_200V/Libraries/CMSIS/Include\cmsis_gcc.h ****   \param [in]    control  Control Register value to set
 134:C:/Users/VMORAIS/Documents/DAVE_WS/1p_inverter_200V/Libraries/CMSIS/Include\cmsis_gcc.h ****  */
 135:C:/Users/VMORAIS/Documents/DAVE_WS/1p_inverter_200V/Libraries/CMSIS/Include\cmsis_gcc.h **** __attribute__((always_inline)) __STATIC_INLINE void __set_CONTROL(uint32_t control)
 136:C:/Users/VMORAIS/Documents/DAVE_WS/1p_inverter_200V/Libraries/CMSIS/Include\cmsis_gcc.h **** {
 137:C:/Users/VMORAIS/Documents/DAVE_WS/1p_inverter_200V/Libraries/CMSIS/Include\cmsis_gcc.h ****   __ASM volatile ("MSR control, %0" : : "r" (control) : "memory");
 138:C:/Users/VMORAIS/Documents/DAVE_WS/1p_inverter_200V/Libraries/CMSIS/Include\cmsis_gcc.h **** }
 139:C:/Users/VMORAIS/Documents/DAVE_WS/1p_inverter_200V/Libraries/CMSIS/Include\cmsis_gcc.h **** 
 140:C:/Users/VMORAIS/Documents/DAVE_WS/1p_inverter_200V/Libraries/CMSIS/Include\cmsis_gcc.h **** 
 141:C:/Users/VMORAIS/Documents/DAVE_WS/1p_inverter_200V/Libraries/CMSIS/Include\cmsis_gcc.h **** #if (defined (__ARM_FEATURE_CMSE ) && (__ARM_FEATURE_CMSE == 3))
 142:C:/Users/VMORAIS/Documents/DAVE_WS/1p_inverter_200V/Libraries/CMSIS/Include\cmsis_gcc.h **** /**
 143:C:/Users/VMORAIS/Documents/DAVE_WS/1p_inverter_200V/Libraries/CMSIS/Include\cmsis_gcc.h ****   \brief   Set Control Register (non-secure)
 144:C:/Users/VMORAIS/Documents/DAVE_WS/1p_inverter_200V/Libraries/CMSIS/Include\cmsis_gcc.h ****   \details Writes the given value to the non-secure Control Register when in secure state.
 145:C:/Users/VMORAIS/Documents/DAVE_WS/1p_inverter_200V/Libraries/CMSIS/Include\cmsis_gcc.h ****   \param [in]    control  Control Register value to set
 146:C:/Users/VMORAIS/Documents/DAVE_WS/1p_inverter_200V/Libraries/CMSIS/Include\cmsis_gcc.h ****  */
 147:C:/Users/VMORAIS/Documents/DAVE_WS/1p_inverter_200V/Libraries/CMSIS/Include\cmsis_gcc.h **** __attribute__((always_inline)) __STATIC_INLINE void __TZ_set_CONTROL_NS(uint32_t control)
 148:C:/Users/VMORAIS/Documents/DAVE_WS/1p_inverter_200V/Libraries/CMSIS/Include\cmsis_gcc.h **** {
 149:C:/Users/VMORAIS/Documents/DAVE_WS/1p_inverter_200V/Libraries/CMSIS/Include\cmsis_gcc.h ****   __ASM volatile ("MSR control_ns, %0" : : "r" (control) : "memory");
 150:C:/Users/VMORAIS/Documents/DAVE_WS/1p_inverter_200V/Libraries/CMSIS/Include\cmsis_gcc.h **** }
 151:C:/Users/VMORAIS/Documents/DAVE_WS/1p_inverter_200V/Libraries/CMSIS/Include\cmsis_gcc.h **** #endif
 152:C:/Users/VMORAIS/Documents/DAVE_WS/1p_inverter_200V/Libraries/CMSIS/Include\cmsis_gcc.h **** 
 153:C:/Users/VMORAIS/Documents/DAVE_WS/1p_inverter_200V/Libraries/CMSIS/Include\cmsis_gcc.h **** 
 154:C:/Users/VMORAIS/Documents/DAVE_WS/1p_inverter_200V/Libraries/CMSIS/Include\cmsis_gcc.h **** /**
 155:C:/Users/VMORAIS/Documents/DAVE_WS/1p_inverter_200V/Libraries/CMSIS/Include\cmsis_gcc.h ****   \brief   Get IPSR Register
 156:C:/Users/VMORAIS/Documents/DAVE_WS/1p_inverter_200V/Libraries/CMSIS/Include\cmsis_gcc.h ****   \details Returns the content of the IPSR Register.
 157:C:/Users/VMORAIS/Documents/DAVE_WS/1p_inverter_200V/Libraries/CMSIS/Include\cmsis_gcc.h ****   \return               IPSR Register value
 158:C:/Users/VMORAIS/Documents/DAVE_WS/1p_inverter_200V/Libraries/CMSIS/Include\cmsis_gcc.h ****  */
 159:C:/Users/VMORAIS/Documents/DAVE_WS/1p_inverter_200V/Libraries/CMSIS/Include\cmsis_gcc.h **** __attribute__((always_inline)) __STATIC_INLINE uint32_t __get_IPSR(void)
 160:C:/Users/VMORAIS/Documents/DAVE_WS/1p_inverter_200V/Libraries/CMSIS/Include\cmsis_gcc.h **** {
 161:C:/Users/VMORAIS/Documents/DAVE_WS/1p_inverter_200V/Libraries/CMSIS/Include\cmsis_gcc.h ****   uint32_t result;
 162:C:/Users/VMORAIS/Documents/DAVE_WS/1p_inverter_200V/Libraries/CMSIS/Include\cmsis_gcc.h **** 
 163:C:/Users/VMORAIS/Documents/DAVE_WS/1p_inverter_200V/Libraries/CMSIS/Include\cmsis_gcc.h ****   __ASM volatile ("MRS %0, ipsr" : "=r" (result) );
 164:C:/Users/VMORAIS/Documents/DAVE_WS/1p_inverter_200V/Libraries/CMSIS/Include\cmsis_gcc.h ****   return(result);
 165:C:/Users/VMORAIS/Documents/DAVE_WS/1p_inverter_200V/Libraries/CMSIS/Include\cmsis_gcc.h **** }
 166:C:/Users/VMORAIS/Documents/DAVE_WS/1p_inverter_200V/Libraries/CMSIS/Include\cmsis_gcc.h **** 
 167:C:/Users/VMORAIS/Documents/DAVE_WS/1p_inverter_200V/Libraries/CMSIS/Include\cmsis_gcc.h **** 
 168:C:/Users/VMORAIS/Documents/DAVE_WS/1p_inverter_200V/Libraries/CMSIS/Include\cmsis_gcc.h **** /**
 169:C:/Users/VMORAIS/Documents/DAVE_WS/1p_inverter_200V/Libraries/CMSIS/Include\cmsis_gcc.h ****   \brief   Get APSR Register
 170:C:/Users/VMORAIS/Documents/DAVE_WS/1p_inverter_200V/Libraries/CMSIS/Include\cmsis_gcc.h ****   \details Returns the content of the APSR Register.
 171:C:/Users/VMORAIS/Documents/DAVE_WS/1p_inverter_200V/Libraries/CMSIS/Include\cmsis_gcc.h ****   \return               APSR Register value
 172:C:/Users/VMORAIS/Documents/DAVE_WS/1p_inverter_200V/Libraries/CMSIS/Include\cmsis_gcc.h ****  */
 173:C:/Users/VMORAIS/Documents/DAVE_WS/1p_inverter_200V/Libraries/CMSIS/Include\cmsis_gcc.h **** __attribute__((always_inline)) __STATIC_INLINE uint32_t __get_APSR(void)
 174:C:/Users/VMORAIS/Documents/DAVE_WS/1p_inverter_200V/Libraries/CMSIS/Include\cmsis_gcc.h **** {
 175:C:/Users/VMORAIS/Documents/DAVE_WS/1p_inverter_200V/Libraries/CMSIS/Include\cmsis_gcc.h ****   uint32_t result;
 176:C:/Users/VMORAIS/Documents/DAVE_WS/1p_inverter_200V/Libraries/CMSIS/Include\cmsis_gcc.h **** 
 177:C:/Users/VMORAIS/Documents/DAVE_WS/1p_inverter_200V/Libraries/CMSIS/Include\cmsis_gcc.h ****   __ASM volatile ("MRS %0, apsr" : "=r" (result) );
 178:C:/Users/VMORAIS/Documents/DAVE_WS/1p_inverter_200V/Libraries/CMSIS/Include\cmsis_gcc.h ****   return(result);
 179:C:/Users/VMORAIS/Documents/DAVE_WS/1p_inverter_200V/Libraries/CMSIS/Include\cmsis_gcc.h **** }
 180:C:/Users/VMORAIS/Documents/DAVE_WS/1p_inverter_200V/Libraries/CMSIS/Include\cmsis_gcc.h **** 
 181:C:/Users/VMORAIS/Documents/DAVE_WS/1p_inverter_200V/Libraries/CMSIS/Include\cmsis_gcc.h **** 
 182:C:/Users/VMORAIS/Documents/DAVE_WS/1p_inverter_200V/Libraries/CMSIS/Include\cmsis_gcc.h **** /**
 183:C:/Users/VMORAIS/Documents/DAVE_WS/1p_inverter_200V/Libraries/CMSIS/Include\cmsis_gcc.h ****   \brief   Get xPSR Register
 184:C:/Users/VMORAIS/Documents/DAVE_WS/1p_inverter_200V/Libraries/CMSIS/Include\cmsis_gcc.h ****   \details Returns the content of the xPSR Register.
 185:C:/Users/VMORAIS/Documents/DAVE_WS/1p_inverter_200V/Libraries/CMSIS/Include\cmsis_gcc.h ****   \return               xPSR Register value
 186:C:/Users/VMORAIS/Documents/DAVE_WS/1p_inverter_200V/Libraries/CMSIS/Include\cmsis_gcc.h ****  */
 187:C:/Users/VMORAIS/Documents/DAVE_WS/1p_inverter_200V/Libraries/CMSIS/Include\cmsis_gcc.h **** __attribute__((always_inline)) __STATIC_INLINE uint32_t __get_xPSR(void)
 188:C:/Users/VMORAIS/Documents/DAVE_WS/1p_inverter_200V/Libraries/CMSIS/Include\cmsis_gcc.h **** {
 189:C:/Users/VMORAIS/Documents/DAVE_WS/1p_inverter_200V/Libraries/CMSIS/Include\cmsis_gcc.h ****   uint32_t result;
 190:C:/Users/VMORAIS/Documents/DAVE_WS/1p_inverter_200V/Libraries/CMSIS/Include\cmsis_gcc.h **** 
 191:C:/Users/VMORAIS/Documents/DAVE_WS/1p_inverter_200V/Libraries/CMSIS/Include\cmsis_gcc.h ****   __ASM volatile ("MRS %0, xpsr" : "=r" (result) );
 192:C:/Users/VMORAIS/Documents/DAVE_WS/1p_inverter_200V/Libraries/CMSIS/Include\cmsis_gcc.h ****   return(result);
 193:C:/Users/VMORAIS/Documents/DAVE_WS/1p_inverter_200V/Libraries/CMSIS/Include\cmsis_gcc.h **** }
 194:C:/Users/VMORAIS/Documents/DAVE_WS/1p_inverter_200V/Libraries/CMSIS/Include\cmsis_gcc.h **** 
 195:C:/Users/VMORAIS/Documents/DAVE_WS/1p_inverter_200V/Libraries/CMSIS/Include\cmsis_gcc.h **** 
 196:C:/Users/VMORAIS/Documents/DAVE_WS/1p_inverter_200V/Libraries/CMSIS/Include\cmsis_gcc.h **** /**
 197:C:/Users/VMORAIS/Documents/DAVE_WS/1p_inverter_200V/Libraries/CMSIS/Include\cmsis_gcc.h ****   \brief   Get Process Stack Pointer
 198:C:/Users/VMORAIS/Documents/DAVE_WS/1p_inverter_200V/Libraries/CMSIS/Include\cmsis_gcc.h ****   \details Returns the current value of the Process Stack Pointer (PSP).
 199:C:/Users/VMORAIS/Documents/DAVE_WS/1p_inverter_200V/Libraries/CMSIS/Include\cmsis_gcc.h ****   \return               PSP Register value
 200:C:/Users/VMORAIS/Documents/DAVE_WS/1p_inverter_200V/Libraries/CMSIS/Include\cmsis_gcc.h ****  */
 201:C:/Users/VMORAIS/Documents/DAVE_WS/1p_inverter_200V/Libraries/CMSIS/Include\cmsis_gcc.h **** __attribute__((always_inline)) __STATIC_INLINE uint32_t __get_PSP(void)
 202:C:/Users/VMORAIS/Documents/DAVE_WS/1p_inverter_200V/Libraries/CMSIS/Include\cmsis_gcc.h **** {
 203:C:/Users/VMORAIS/Documents/DAVE_WS/1p_inverter_200V/Libraries/CMSIS/Include\cmsis_gcc.h ****   register uint32_t result;
 204:C:/Users/VMORAIS/Documents/DAVE_WS/1p_inverter_200V/Libraries/CMSIS/Include\cmsis_gcc.h **** 
 205:C:/Users/VMORAIS/Documents/DAVE_WS/1p_inverter_200V/Libraries/CMSIS/Include\cmsis_gcc.h ****   __ASM volatile ("MRS %0, psp"  : "=r" (result) );
 206:C:/Users/VMORAIS/Documents/DAVE_WS/1p_inverter_200V/Libraries/CMSIS/Include\cmsis_gcc.h ****   return(result);
 207:C:/Users/VMORAIS/Documents/DAVE_WS/1p_inverter_200V/Libraries/CMSIS/Include\cmsis_gcc.h **** }
 208:C:/Users/VMORAIS/Documents/DAVE_WS/1p_inverter_200V/Libraries/CMSIS/Include\cmsis_gcc.h **** 
 209:C:/Users/VMORAIS/Documents/DAVE_WS/1p_inverter_200V/Libraries/CMSIS/Include\cmsis_gcc.h **** 
 210:C:/Users/VMORAIS/Documents/DAVE_WS/1p_inverter_200V/Libraries/CMSIS/Include\cmsis_gcc.h **** #if (defined (__ARM_FEATURE_CMSE ) && (__ARM_FEATURE_CMSE == 3))
 211:C:/Users/VMORAIS/Documents/DAVE_WS/1p_inverter_200V/Libraries/CMSIS/Include\cmsis_gcc.h **** /**
 212:C:/Users/VMORAIS/Documents/DAVE_WS/1p_inverter_200V/Libraries/CMSIS/Include\cmsis_gcc.h ****   \brief   Get Process Stack Pointer (non-secure)
 213:C:/Users/VMORAIS/Documents/DAVE_WS/1p_inverter_200V/Libraries/CMSIS/Include\cmsis_gcc.h ****   \details Returns the current value of the non-secure Process Stack Pointer (PSP) when in secure s
 214:C:/Users/VMORAIS/Documents/DAVE_WS/1p_inverter_200V/Libraries/CMSIS/Include\cmsis_gcc.h ****   \return               PSP Register value
 215:C:/Users/VMORAIS/Documents/DAVE_WS/1p_inverter_200V/Libraries/CMSIS/Include\cmsis_gcc.h ****  */
 216:C:/Users/VMORAIS/Documents/DAVE_WS/1p_inverter_200V/Libraries/CMSIS/Include\cmsis_gcc.h **** __attribute__((always_inline)) __STATIC_INLINE uint32_t __TZ_get_PSP_NS(void)
 217:C:/Users/VMORAIS/Documents/DAVE_WS/1p_inverter_200V/Libraries/CMSIS/Include\cmsis_gcc.h **** {
 218:C:/Users/VMORAIS/Documents/DAVE_WS/1p_inverter_200V/Libraries/CMSIS/Include\cmsis_gcc.h ****   register uint32_t result;
 219:C:/Users/VMORAIS/Documents/DAVE_WS/1p_inverter_200V/Libraries/CMSIS/Include\cmsis_gcc.h **** 
 220:C:/Users/VMORAIS/Documents/DAVE_WS/1p_inverter_200V/Libraries/CMSIS/Include\cmsis_gcc.h ****   __ASM volatile ("MRS %0, psp_ns"  : "=r" (result) );
 221:C:/Users/VMORAIS/Documents/DAVE_WS/1p_inverter_200V/Libraries/CMSIS/Include\cmsis_gcc.h ****   return(result);
 222:C:/Users/VMORAIS/Documents/DAVE_WS/1p_inverter_200V/Libraries/CMSIS/Include\cmsis_gcc.h **** }
 223:C:/Users/VMORAIS/Documents/DAVE_WS/1p_inverter_200V/Libraries/CMSIS/Include\cmsis_gcc.h **** #endif
 224:C:/Users/VMORAIS/Documents/DAVE_WS/1p_inverter_200V/Libraries/CMSIS/Include\cmsis_gcc.h **** 
 225:C:/Users/VMORAIS/Documents/DAVE_WS/1p_inverter_200V/Libraries/CMSIS/Include\cmsis_gcc.h **** 
 226:C:/Users/VMORAIS/Documents/DAVE_WS/1p_inverter_200V/Libraries/CMSIS/Include\cmsis_gcc.h **** /**
 227:C:/Users/VMORAIS/Documents/DAVE_WS/1p_inverter_200V/Libraries/CMSIS/Include\cmsis_gcc.h ****   \brief   Set Process Stack Pointer
 228:C:/Users/VMORAIS/Documents/DAVE_WS/1p_inverter_200V/Libraries/CMSIS/Include\cmsis_gcc.h ****   \details Assigns the given value to the Process Stack Pointer (PSP).
 229:C:/Users/VMORAIS/Documents/DAVE_WS/1p_inverter_200V/Libraries/CMSIS/Include\cmsis_gcc.h ****   \param [in]    topOfProcStack  Process Stack Pointer value to set
 230:C:/Users/VMORAIS/Documents/DAVE_WS/1p_inverter_200V/Libraries/CMSIS/Include\cmsis_gcc.h ****  */
 231:C:/Users/VMORAIS/Documents/DAVE_WS/1p_inverter_200V/Libraries/CMSIS/Include\cmsis_gcc.h **** __attribute__((always_inline)) __STATIC_INLINE void __set_PSP(uint32_t topOfProcStack)
 232:C:/Users/VMORAIS/Documents/DAVE_WS/1p_inverter_200V/Libraries/CMSIS/Include\cmsis_gcc.h **** {
 233:C:/Users/VMORAIS/Documents/DAVE_WS/1p_inverter_200V/Libraries/CMSIS/Include\cmsis_gcc.h ****   __ASM volatile ("MSR psp, %0" : : "r" (topOfProcStack) : );
 234:C:/Users/VMORAIS/Documents/DAVE_WS/1p_inverter_200V/Libraries/CMSIS/Include\cmsis_gcc.h **** }
 235:C:/Users/VMORAIS/Documents/DAVE_WS/1p_inverter_200V/Libraries/CMSIS/Include\cmsis_gcc.h **** 
 236:C:/Users/VMORAIS/Documents/DAVE_WS/1p_inverter_200V/Libraries/CMSIS/Include\cmsis_gcc.h **** 
 237:C:/Users/VMORAIS/Documents/DAVE_WS/1p_inverter_200V/Libraries/CMSIS/Include\cmsis_gcc.h **** #if (defined (__ARM_FEATURE_CMSE ) && (__ARM_FEATURE_CMSE == 3))
 238:C:/Users/VMORAIS/Documents/DAVE_WS/1p_inverter_200V/Libraries/CMSIS/Include\cmsis_gcc.h **** /**
 239:C:/Users/VMORAIS/Documents/DAVE_WS/1p_inverter_200V/Libraries/CMSIS/Include\cmsis_gcc.h ****   \brief   Set Process Stack Pointer (non-secure)
 240:C:/Users/VMORAIS/Documents/DAVE_WS/1p_inverter_200V/Libraries/CMSIS/Include\cmsis_gcc.h ****   \details Assigns the given value to the non-secure Process Stack Pointer (PSP) when in secure sta
 241:C:/Users/VMORAIS/Documents/DAVE_WS/1p_inverter_200V/Libraries/CMSIS/Include\cmsis_gcc.h ****   \param [in]    topOfProcStack  Process Stack Pointer value to set
 242:C:/Users/VMORAIS/Documents/DAVE_WS/1p_inverter_200V/Libraries/CMSIS/Include\cmsis_gcc.h ****  */
 243:C:/Users/VMORAIS/Documents/DAVE_WS/1p_inverter_200V/Libraries/CMSIS/Include\cmsis_gcc.h **** __attribute__((always_inline)) __STATIC_INLINE void __TZ_set_PSP_NS(uint32_t topOfProcStack)
 244:C:/Users/VMORAIS/Documents/DAVE_WS/1p_inverter_200V/Libraries/CMSIS/Include\cmsis_gcc.h **** {
 245:C:/Users/VMORAIS/Documents/DAVE_WS/1p_inverter_200V/Libraries/CMSIS/Include\cmsis_gcc.h ****   __ASM volatile ("MSR psp_ns, %0" : : "r" (topOfProcStack) : );
 246:C:/Users/VMORAIS/Documents/DAVE_WS/1p_inverter_200V/Libraries/CMSIS/Include\cmsis_gcc.h **** }
 247:C:/Users/VMORAIS/Documents/DAVE_WS/1p_inverter_200V/Libraries/CMSIS/Include\cmsis_gcc.h **** #endif
 248:C:/Users/VMORAIS/Documents/DAVE_WS/1p_inverter_200V/Libraries/CMSIS/Include\cmsis_gcc.h **** 
 249:C:/Users/VMORAIS/Documents/DAVE_WS/1p_inverter_200V/Libraries/CMSIS/Include\cmsis_gcc.h **** 
 250:C:/Users/VMORAIS/Documents/DAVE_WS/1p_inverter_200V/Libraries/CMSIS/Include\cmsis_gcc.h **** /**
 251:C:/Users/VMORAIS/Documents/DAVE_WS/1p_inverter_200V/Libraries/CMSIS/Include\cmsis_gcc.h ****   \brief   Get Main Stack Pointer
 252:C:/Users/VMORAIS/Documents/DAVE_WS/1p_inverter_200V/Libraries/CMSIS/Include\cmsis_gcc.h ****   \details Returns the current value of the Main Stack Pointer (MSP).
 253:C:/Users/VMORAIS/Documents/DAVE_WS/1p_inverter_200V/Libraries/CMSIS/Include\cmsis_gcc.h ****   \return               MSP Register value
 254:C:/Users/VMORAIS/Documents/DAVE_WS/1p_inverter_200V/Libraries/CMSIS/Include\cmsis_gcc.h ****  */
 255:C:/Users/VMORAIS/Documents/DAVE_WS/1p_inverter_200V/Libraries/CMSIS/Include\cmsis_gcc.h **** __attribute__((always_inline)) __STATIC_INLINE uint32_t __get_MSP(void)
 256:C:/Users/VMORAIS/Documents/DAVE_WS/1p_inverter_200V/Libraries/CMSIS/Include\cmsis_gcc.h **** {
 257:C:/Users/VMORAIS/Documents/DAVE_WS/1p_inverter_200V/Libraries/CMSIS/Include\cmsis_gcc.h ****   register uint32_t result;
 258:C:/Users/VMORAIS/Documents/DAVE_WS/1p_inverter_200V/Libraries/CMSIS/Include\cmsis_gcc.h **** 
 259:C:/Users/VMORAIS/Documents/DAVE_WS/1p_inverter_200V/Libraries/CMSIS/Include\cmsis_gcc.h ****   __ASM volatile ("MRS %0, msp" : "=r" (result) );
 260:C:/Users/VMORAIS/Documents/DAVE_WS/1p_inverter_200V/Libraries/CMSIS/Include\cmsis_gcc.h ****   return(result);
 261:C:/Users/VMORAIS/Documents/DAVE_WS/1p_inverter_200V/Libraries/CMSIS/Include\cmsis_gcc.h **** }
 262:C:/Users/VMORAIS/Documents/DAVE_WS/1p_inverter_200V/Libraries/CMSIS/Include\cmsis_gcc.h **** 
 263:C:/Users/VMORAIS/Documents/DAVE_WS/1p_inverter_200V/Libraries/CMSIS/Include\cmsis_gcc.h **** 
 264:C:/Users/VMORAIS/Documents/DAVE_WS/1p_inverter_200V/Libraries/CMSIS/Include\cmsis_gcc.h **** #if (defined (__ARM_FEATURE_CMSE ) && (__ARM_FEATURE_CMSE == 3))
 265:C:/Users/VMORAIS/Documents/DAVE_WS/1p_inverter_200V/Libraries/CMSIS/Include\cmsis_gcc.h **** /**
 266:C:/Users/VMORAIS/Documents/DAVE_WS/1p_inverter_200V/Libraries/CMSIS/Include\cmsis_gcc.h ****   \brief   Get Main Stack Pointer (non-secure)
 267:C:/Users/VMORAIS/Documents/DAVE_WS/1p_inverter_200V/Libraries/CMSIS/Include\cmsis_gcc.h ****   \details Returns the current value of the non-secure Main Stack Pointer (MSP) when in secure stat
 268:C:/Users/VMORAIS/Documents/DAVE_WS/1p_inverter_200V/Libraries/CMSIS/Include\cmsis_gcc.h ****   \return               MSP Register value
 269:C:/Users/VMORAIS/Documents/DAVE_WS/1p_inverter_200V/Libraries/CMSIS/Include\cmsis_gcc.h ****  */
 270:C:/Users/VMORAIS/Documents/DAVE_WS/1p_inverter_200V/Libraries/CMSIS/Include\cmsis_gcc.h **** __attribute__((always_inline)) __STATIC_INLINE uint32_t __TZ_get_MSP_NS(void)
 271:C:/Users/VMORAIS/Documents/DAVE_WS/1p_inverter_200V/Libraries/CMSIS/Include\cmsis_gcc.h **** {
 272:C:/Users/VMORAIS/Documents/DAVE_WS/1p_inverter_200V/Libraries/CMSIS/Include\cmsis_gcc.h ****   register uint32_t result;
 273:C:/Users/VMORAIS/Documents/DAVE_WS/1p_inverter_200V/Libraries/CMSIS/Include\cmsis_gcc.h **** 
 274:C:/Users/VMORAIS/Documents/DAVE_WS/1p_inverter_200V/Libraries/CMSIS/Include\cmsis_gcc.h ****   __ASM volatile ("MRS %0, msp_ns" : "=r" (result) );
 275:C:/Users/VMORAIS/Documents/DAVE_WS/1p_inverter_200V/Libraries/CMSIS/Include\cmsis_gcc.h ****   return(result);
 276:C:/Users/VMORAIS/Documents/DAVE_WS/1p_inverter_200V/Libraries/CMSIS/Include\cmsis_gcc.h **** }
 277:C:/Users/VMORAIS/Documents/DAVE_WS/1p_inverter_200V/Libraries/CMSIS/Include\cmsis_gcc.h **** #endif
 278:C:/Users/VMORAIS/Documents/DAVE_WS/1p_inverter_200V/Libraries/CMSIS/Include\cmsis_gcc.h **** 
 279:C:/Users/VMORAIS/Documents/DAVE_WS/1p_inverter_200V/Libraries/CMSIS/Include\cmsis_gcc.h **** 
 280:C:/Users/VMORAIS/Documents/DAVE_WS/1p_inverter_200V/Libraries/CMSIS/Include\cmsis_gcc.h **** /**
 281:C:/Users/VMORAIS/Documents/DAVE_WS/1p_inverter_200V/Libraries/CMSIS/Include\cmsis_gcc.h ****   \brief   Set Main Stack Pointer
 282:C:/Users/VMORAIS/Documents/DAVE_WS/1p_inverter_200V/Libraries/CMSIS/Include\cmsis_gcc.h ****   \details Assigns the given value to the Main Stack Pointer (MSP).
 283:C:/Users/VMORAIS/Documents/DAVE_WS/1p_inverter_200V/Libraries/CMSIS/Include\cmsis_gcc.h ****   \param [in]    topOfMainStack  Main Stack Pointer value to set
 284:C:/Users/VMORAIS/Documents/DAVE_WS/1p_inverter_200V/Libraries/CMSIS/Include\cmsis_gcc.h ****  */
 285:C:/Users/VMORAIS/Documents/DAVE_WS/1p_inverter_200V/Libraries/CMSIS/Include\cmsis_gcc.h **** __attribute__((always_inline)) __STATIC_INLINE void __set_MSP(uint32_t topOfMainStack)
 286:C:/Users/VMORAIS/Documents/DAVE_WS/1p_inverter_200V/Libraries/CMSIS/Include\cmsis_gcc.h **** {
 287:C:/Users/VMORAIS/Documents/DAVE_WS/1p_inverter_200V/Libraries/CMSIS/Include\cmsis_gcc.h ****   __ASM volatile ("MSR msp, %0" : : "r" (topOfMainStack) : );
 288:C:/Users/VMORAIS/Documents/DAVE_WS/1p_inverter_200V/Libraries/CMSIS/Include\cmsis_gcc.h **** }
 289:C:/Users/VMORAIS/Documents/DAVE_WS/1p_inverter_200V/Libraries/CMSIS/Include\cmsis_gcc.h **** 
 290:C:/Users/VMORAIS/Documents/DAVE_WS/1p_inverter_200V/Libraries/CMSIS/Include\cmsis_gcc.h **** 
 291:C:/Users/VMORAIS/Documents/DAVE_WS/1p_inverter_200V/Libraries/CMSIS/Include\cmsis_gcc.h **** #if (defined (__ARM_FEATURE_CMSE ) && (__ARM_FEATURE_CMSE == 3))
 292:C:/Users/VMORAIS/Documents/DAVE_WS/1p_inverter_200V/Libraries/CMSIS/Include\cmsis_gcc.h **** /**
 293:C:/Users/VMORAIS/Documents/DAVE_WS/1p_inverter_200V/Libraries/CMSIS/Include\cmsis_gcc.h ****   \brief   Set Main Stack Pointer (non-secure)
 294:C:/Users/VMORAIS/Documents/DAVE_WS/1p_inverter_200V/Libraries/CMSIS/Include\cmsis_gcc.h ****   \details Assigns the given value to the non-secure Main Stack Pointer (MSP) when in secure state.
 295:C:/Users/VMORAIS/Documents/DAVE_WS/1p_inverter_200V/Libraries/CMSIS/Include\cmsis_gcc.h ****   \param [in]    topOfMainStack  Main Stack Pointer value to set
 296:C:/Users/VMORAIS/Documents/DAVE_WS/1p_inverter_200V/Libraries/CMSIS/Include\cmsis_gcc.h ****  */
 297:C:/Users/VMORAIS/Documents/DAVE_WS/1p_inverter_200V/Libraries/CMSIS/Include\cmsis_gcc.h **** __attribute__((always_inline)) __STATIC_INLINE void __TZ_set_MSP_NS(uint32_t topOfMainStack)
 298:C:/Users/VMORAIS/Documents/DAVE_WS/1p_inverter_200V/Libraries/CMSIS/Include\cmsis_gcc.h **** {
 299:C:/Users/VMORAIS/Documents/DAVE_WS/1p_inverter_200V/Libraries/CMSIS/Include\cmsis_gcc.h ****   __ASM volatile ("MSR msp_ns, %0" : : "r" (topOfMainStack) : );
 300:C:/Users/VMORAIS/Documents/DAVE_WS/1p_inverter_200V/Libraries/CMSIS/Include\cmsis_gcc.h **** }
 301:C:/Users/VMORAIS/Documents/DAVE_WS/1p_inverter_200V/Libraries/CMSIS/Include\cmsis_gcc.h **** #endif
 302:C:/Users/VMORAIS/Documents/DAVE_WS/1p_inverter_200V/Libraries/CMSIS/Include\cmsis_gcc.h **** 
 303:C:/Users/VMORAIS/Documents/DAVE_WS/1p_inverter_200V/Libraries/CMSIS/Include\cmsis_gcc.h **** 
 304:C:/Users/VMORAIS/Documents/DAVE_WS/1p_inverter_200V/Libraries/CMSIS/Include\cmsis_gcc.h **** /**
 305:C:/Users/VMORAIS/Documents/DAVE_WS/1p_inverter_200V/Libraries/CMSIS/Include\cmsis_gcc.h ****   \brief   Get Priority Mask
 306:C:/Users/VMORAIS/Documents/DAVE_WS/1p_inverter_200V/Libraries/CMSIS/Include\cmsis_gcc.h ****   \details Returns the current state of the priority mask bit from the Priority Mask Register.
 307:C:/Users/VMORAIS/Documents/DAVE_WS/1p_inverter_200V/Libraries/CMSIS/Include\cmsis_gcc.h ****   \return               Priority Mask value
 308:C:/Users/VMORAIS/Documents/DAVE_WS/1p_inverter_200V/Libraries/CMSIS/Include\cmsis_gcc.h ****  */
 309:C:/Users/VMORAIS/Documents/DAVE_WS/1p_inverter_200V/Libraries/CMSIS/Include\cmsis_gcc.h **** __attribute__((always_inline)) __STATIC_INLINE uint32_t __get_PRIMASK(void)
 310:C:/Users/VMORAIS/Documents/DAVE_WS/1p_inverter_200V/Libraries/CMSIS/Include\cmsis_gcc.h **** {
 311:C:/Users/VMORAIS/Documents/DAVE_WS/1p_inverter_200V/Libraries/CMSIS/Include\cmsis_gcc.h ****   uint32_t result;
 312:C:/Users/VMORAIS/Documents/DAVE_WS/1p_inverter_200V/Libraries/CMSIS/Include\cmsis_gcc.h **** 
 313:C:/Users/VMORAIS/Documents/DAVE_WS/1p_inverter_200V/Libraries/CMSIS/Include\cmsis_gcc.h ****   __ASM volatile ("MRS %0, primask" : "=r" (result) );
 314:C:/Users/VMORAIS/Documents/DAVE_WS/1p_inverter_200V/Libraries/CMSIS/Include\cmsis_gcc.h ****   return(result);
 315:C:/Users/VMORAIS/Documents/DAVE_WS/1p_inverter_200V/Libraries/CMSIS/Include\cmsis_gcc.h **** }
 316:C:/Users/VMORAIS/Documents/DAVE_WS/1p_inverter_200V/Libraries/CMSIS/Include\cmsis_gcc.h **** 
 317:C:/Users/VMORAIS/Documents/DAVE_WS/1p_inverter_200V/Libraries/CMSIS/Include\cmsis_gcc.h **** 
 318:C:/Users/VMORAIS/Documents/DAVE_WS/1p_inverter_200V/Libraries/CMSIS/Include\cmsis_gcc.h **** #if (defined (__ARM_FEATURE_CMSE ) && (__ARM_FEATURE_CMSE == 3))
 319:C:/Users/VMORAIS/Documents/DAVE_WS/1p_inverter_200V/Libraries/CMSIS/Include\cmsis_gcc.h **** /**
 320:C:/Users/VMORAIS/Documents/DAVE_WS/1p_inverter_200V/Libraries/CMSIS/Include\cmsis_gcc.h ****   \brief   Get Priority Mask (non-secure)
 321:C:/Users/VMORAIS/Documents/DAVE_WS/1p_inverter_200V/Libraries/CMSIS/Include\cmsis_gcc.h ****   \details Returns the current state of the non-secure priority mask bit from the Priority Mask Reg
 322:C:/Users/VMORAIS/Documents/DAVE_WS/1p_inverter_200V/Libraries/CMSIS/Include\cmsis_gcc.h ****   \return               Priority Mask value
 323:C:/Users/VMORAIS/Documents/DAVE_WS/1p_inverter_200V/Libraries/CMSIS/Include\cmsis_gcc.h ****  */
 324:C:/Users/VMORAIS/Documents/DAVE_WS/1p_inverter_200V/Libraries/CMSIS/Include\cmsis_gcc.h **** __attribute__((always_inline)) __STATIC_INLINE uint32_t __TZ_get_PRIMASK_NS(void)
 325:C:/Users/VMORAIS/Documents/DAVE_WS/1p_inverter_200V/Libraries/CMSIS/Include\cmsis_gcc.h **** {
 326:C:/Users/VMORAIS/Documents/DAVE_WS/1p_inverter_200V/Libraries/CMSIS/Include\cmsis_gcc.h ****   uint32_t result;
 327:C:/Users/VMORAIS/Documents/DAVE_WS/1p_inverter_200V/Libraries/CMSIS/Include\cmsis_gcc.h **** 
 328:C:/Users/VMORAIS/Documents/DAVE_WS/1p_inverter_200V/Libraries/CMSIS/Include\cmsis_gcc.h ****   __ASM volatile ("MRS %0, primask_ns" : "=r" (result) );
 329:C:/Users/VMORAIS/Documents/DAVE_WS/1p_inverter_200V/Libraries/CMSIS/Include\cmsis_gcc.h ****   return(result);
 330:C:/Users/VMORAIS/Documents/DAVE_WS/1p_inverter_200V/Libraries/CMSIS/Include\cmsis_gcc.h **** }
 331:C:/Users/VMORAIS/Documents/DAVE_WS/1p_inverter_200V/Libraries/CMSIS/Include\cmsis_gcc.h **** #endif
 332:C:/Users/VMORAIS/Documents/DAVE_WS/1p_inverter_200V/Libraries/CMSIS/Include\cmsis_gcc.h **** 
 333:C:/Users/VMORAIS/Documents/DAVE_WS/1p_inverter_200V/Libraries/CMSIS/Include\cmsis_gcc.h **** 
 334:C:/Users/VMORAIS/Documents/DAVE_WS/1p_inverter_200V/Libraries/CMSIS/Include\cmsis_gcc.h **** /**
 335:C:/Users/VMORAIS/Documents/DAVE_WS/1p_inverter_200V/Libraries/CMSIS/Include\cmsis_gcc.h ****   \brief   Set Priority Mask
 336:C:/Users/VMORAIS/Documents/DAVE_WS/1p_inverter_200V/Libraries/CMSIS/Include\cmsis_gcc.h ****   \details Assigns the given value to the Priority Mask Register.
 337:C:/Users/VMORAIS/Documents/DAVE_WS/1p_inverter_200V/Libraries/CMSIS/Include\cmsis_gcc.h ****   \param [in]    priMask  Priority Mask
 338:C:/Users/VMORAIS/Documents/DAVE_WS/1p_inverter_200V/Libraries/CMSIS/Include\cmsis_gcc.h ****  */
 339:C:/Users/VMORAIS/Documents/DAVE_WS/1p_inverter_200V/Libraries/CMSIS/Include\cmsis_gcc.h **** __attribute__((always_inline)) __STATIC_INLINE void __set_PRIMASK(uint32_t priMask)
 340:C:/Users/VMORAIS/Documents/DAVE_WS/1p_inverter_200V/Libraries/CMSIS/Include\cmsis_gcc.h **** {
 341:C:/Users/VMORAIS/Documents/DAVE_WS/1p_inverter_200V/Libraries/CMSIS/Include\cmsis_gcc.h ****   __ASM volatile ("MSR primask, %0" : : "r" (priMask) : "memory");
 342:C:/Users/VMORAIS/Documents/DAVE_WS/1p_inverter_200V/Libraries/CMSIS/Include\cmsis_gcc.h **** }
 343:C:/Users/VMORAIS/Documents/DAVE_WS/1p_inverter_200V/Libraries/CMSIS/Include\cmsis_gcc.h **** 
 344:C:/Users/VMORAIS/Documents/DAVE_WS/1p_inverter_200V/Libraries/CMSIS/Include\cmsis_gcc.h **** 
 345:C:/Users/VMORAIS/Documents/DAVE_WS/1p_inverter_200V/Libraries/CMSIS/Include\cmsis_gcc.h **** #if (defined (__ARM_FEATURE_CMSE ) && (__ARM_FEATURE_CMSE == 3))
 346:C:/Users/VMORAIS/Documents/DAVE_WS/1p_inverter_200V/Libraries/CMSIS/Include\cmsis_gcc.h **** /**
 347:C:/Users/VMORAIS/Documents/DAVE_WS/1p_inverter_200V/Libraries/CMSIS/Include\cmsis_gcc.h ****   \brief   Set Priority Mask (non-secure)
 348:C:/Users/VMORAIS/Documents/DAVE_WS/1p_inverter_200V/Libraries/CMSIS/Include\cmsis_gcc.h ****   \details Assigns the given value to the non-secure Priority Mask Register when in secure state.
 349:C:/Users/VMORAIS/Documents/DAVE_WS/1p_inverter_200V/Libraries/CMSIS/Include\cmsis_gcc.h ****   \param [in]    priMask  Priority Mask
 350:C:/Users/VMORAIS/Documents/DAVE_WS/1p_inverter_200V/Libraries/CMSIS/Include\cmsis_gcc.h ****  */
 351:C:/Users/VMORAIS/Documents/DAVE_WS/1p_inverter_200V/Libraries/CMSIS/Include\cmsis_gcc.h **** __attribute__((always_inline)) __STATIC_INLINE void __TZ_set_PRIMASK_NS(uint32_t priMask)
 352:C:/Users/VMORAIS/Documents/DAVE_WS/1p_inverter_200V/Libraries/CMSIS/Include\cmsis_gcc.h **** {
 353:C:/Users/VMORAIS/Documents/DAVE_WS/1p_inverter_200V/Libraries/CMSIS/Include\cmsis_gcc.h ****   __ASM volatile ("MSR primask_ns, %0" : : "r" (priMask) : "memory");
 354:C:/Users/VMORAIS/Documents/DAVE_WS/1p_inverter_200V/Libraries/CMSIS/Include\cmsis_gcc.h **** }
 355:C:/Users/VMORAIS/Documents/DAVE_WS/1p_inverter_200V/Libraries/CMSIS/Include\cmsis_gcc.h **** #endif
 356:C:/Users/VMORAIS/Documents/DAVE_WS/1p_inverter_200V/Libraries/CMSIS/Include\cmsis_gcc.h **** 
 357:C:/Users/VMORAIS/Documents/DAVE_WS/1p_inverter_200V/Libraries/CMSIS/Include\cmsis_gcc.h **** 
 358:C:/Users/VMORAIS/Documents/DAVE_WS/1p_inverter_200V/Libraries/CMSIS/Include\cmsis_gcc.h **** #if ((defined (__ARM_ARCH_7M__      ) && (__ARM_ARCH_7M__      == 1)) || \
 359:C:/Users/VMORAIS/Documents/DAVE_WS/1p_inverter_200V/Libraries/CMSIS/Include\cmsis_gcc.h ****      (defined (__ARM_ARCH_7EM__     ) && (__ARM_ARCH_7EM__     == 1)) || \
 360:C:/Users/VMORAIS/Documents/DAVE_WS/1p_inverter_200V/Libraries/CMSIS/Include\cmsis_gcc.h ****      (defined (__ARM_ARCH_8M_MAIN__ ) && (__ARM_ARCH_8M_MAIN__ == 1))    )
 361:C:/Users/VMORAIS/Documents/DAVE_WS/1p_inverter_200V/Libraries/CMSIS/Include\cmsis_gcc.h **** /**
 362:C:/Users/VMORAIS/Documents/DAVE_WS/1p_inverter_200V/Libraries/CMSIS/Include\cmsis_gcc.h ****   \brief   Enable FIQ
 363:C:/Users/VMORAIS/Documents/DAVE_WS/1p_inverter_200V/Libraries/CMSIS/Include\cmsis_gcc.h ****   \details Enables FIQ interrupts by clearing the F-bit in the CPSR.
 364:C:/Users/VMORAIS/Documents/DAVE_WS/1p_inverter_200V/Libraries/CMSIS/Include\cmsis_gcc.h ****            Can only be executed in Privileged modes.
 365:C:/Users/VMORAIS/Documents/DAVE_WS/1p_inverter_200V/Libraries/CMSIS/Include\cmsis_gcc.h ****  */
 366:C:/Users/VMORAIS/Documents/DAVE_WS/1p_inverter_200V/Libraries/CMSIS/Include\cmsis_gcc.h **** __attribute__((always_inline)) __STATIC_INLINE void __enable_fault_irq(void)
 367:C:/Users/VMORAIS/Documents/DAVE_WS/1p_inverter_200V/Libraries/CMSIS/Include\cmsis_gcc.h **** {
 368:C:/Users/VMORAIS/Documents/DAVE_WS/1p_inverter_200V/Libraries/CMSIS/Include\cmsis_gcc.h ****   __ASM volatile ("cpsie f" : : : "memory");
 369:C:/Users/VMORAIS/Documents/DAVE_WS/1p_inverter_200V/Libraries/CMSIS/Include\cmsis_gcc.h **** }
 370:C:/Users/VMORAIS/Documents/DAVE_WS/1p_inverter_200V/Libraries/CMSIS/Include\cmsis_gcc.h **** 
 371:C:/Users/VMORAIS/Documents/DAVE_WS/1p_inverter_200V/Libraries/CMSIS/Include\cmsis_gcc.h **** 
 372:C:/Users/VMORAIS/Documents/DAVE_WS/1p_inverter_200V/Libraries/CMSIS/Include\cmsis_gcc.h **** /**
 373:C:/Users/VMORAIS/Documents/DAVE_WS/1p_inverter_200V/Libraries/CMSIS/Include\cmsis_gcc.h ****   \brief   Disable FIQ
 374:C:/Users/VMORAIS/Documents/DAVE_WS/1p_inverter_200V/Libraries/CMSIS/Include\cmsis_gcc.h ****   \details Disables FIQ interrupts by setting the F-bit in the CPSR.
 375:C:/Users/VMORAIS/Documents/DAVE_WS/1p_inverter_200V/Libraries/CMSIS/Include\cmsis_gcc.h ****            Can only be executed in Privileged modes.
 376:C:/Users/VMORAIS/Documents/DAVE_WS/1p_inverter_200V/Libraries/CMSIS/Include\cmsis_gcc.h ****  */
 377:C:/Users/VMORAIS/Documents/DAVE_WS/1p_inverter_200V/Libraries/CMSIS/Include\cmsis_gcc.h **** __attribute__((always_inline)) __STATIC_INLINE void __disable_fault_irq(void)
 378:C:/Users/VMORAIS/Documents/DAVE_WS/1p_inverter_200V/Libraries/CMSIS/Include\cmsis_gcc.h **** {
 379:C:/Users/VMORAIS/Documents/DAVE_WS/1p_inverter_200V/Libraries/CMSIS/Include\cmsis_gcc.h ****   __ASM volatile ("cpsid f" : : : "memory");
 380:C:/Users/VMORAIS/Documents/DAVE_WS/1p_inverter_200V/Libraries/CMSIS/Include\cmsis_gcc.h **** }
 381:C:/Users/VMORAIS/Documents/DAVE_WS/1p_inverter_200V/Libraries/CMSIS/Include\cmsis_gcc.h **** 
 382:C:/Users/VMORAIS/Documents/DAVE_WS/1p_inverter_200V/Libraries/CMSIS/Include\cmsis_gcc.h **** 
 383:C:/Users/VMORAIS/Documents/DAVE_WS/1p_inverter_200V/Libraries/CMSIS/Include\cmsis_gcc.h **** /**
 384:C:/Users/VMORAIS/Documents/DAVE_WS/1p_inverter_200V/Libraries/CMSIS/Include\cmsis_gcc.h ****   \brief   Get Base Priority
 385:C:/Users/VMORAIS/Documents/DAVE_WS/1p_inverter_200V/Libraries/CMSIS/Include\cmsis_gcc.h ****   \details Returns the current value of the Base Priority register.
 386:C:/Users/VMORAIS/Documents/DAVE_WS/1p_inverter_200V/Libraries/CMSIS/Include\cmsis_gcc.h ****   \return               Base Priority register value
 387:C:/Users/VMORAIS/Documents/DAVE_WS/1p_inverter_200V/Libraries/CMSIS/Include\cmsis_gcc.h ****  */
 388:C:/Users/VMORAIS/Documents/DAVE_WS/1p_inverter_200V/Libraries/CMSIS/Include\cmsis_gcc.h **** __attribute__((always_inline)) __STATIC_INLINE uint32_t __get_BASEPRI(void)
 389:C:/Users/VMORAIS/Documents/DAVE_WS/1p_inverter_200V/Libraries/CMSIS/Include\cmsis_gcc.h **** {
 390:C:/Users/VMORAIS/Documents/DAVE_WS/1p_inverter_200V/Libraries/CMSIS/Include\cmsis_gcc.h ****   uint32_t result;
 391:C:/Users/VMORAIS/Documents/DAVE_WS/1p_inverter_200V/Libraries/CMSIS/Include\cmsis_gcc.h **** 
 392:C:/Users/VMORAIS/Documents/DAVE_WS/1p_inverter_200V/Libraries/CMSIS/Include\cmsis_gcc.h ****   __ASM volatile ("MRS %0, basepri" : "=r" (result) );
 393:C:/Users/VMORAIS/Documents/DAVE_WS/1p_inverter_200V/Libraries/CMSIS/Include\cmsis_gcc.h ****   return(result);
 394:C:/Users/VMORAIS/Documents/DAVE_WS/1p_inverter_200V/Libraries/CMSIS/Include\cmsis_gcc.h **** }
 395:C:/Users/VMORAIS/Documents/DAVE_WS/1p_inverter_200V/Libraries/CMSIS/Include\cmsis_gcc.h **** 
 396:C:/Users/VMORAIS/Documents/DAVE_WS/1p_inverter_200V/Libraries/CMSIS/Include\cmsis_gcc.h **** 
 397:C:/Users/VMORAIS/Documents/DAVE_WS/1p_inverter_200V/Libraries/CMSIS/Include\cmsis_gcc.h **** #if (defined (__ARM_FEATURE_CMSE ) && (__ARM_FEATURE_CMSE == 3))
 398:C:/Users/VMORAIS/Documents/DAVE_WS/1p_inverter_200V/Libraries/CMSIS/Include\cmsis_gcc.h **** /**
 399:C:/Users/VMORAIS/Documents/DAVE_WS/1p_inverter_200V/Libraries/CMSIS/Include\cmsis_gcc.h ****   \brief   Get Base Priority (non-secure)
 400:C:/Users/VMORAIS/Documents/DAVE_WS/1p_inverter_200V/Libraries/CMSIS/Include\cmsis_gcc.h ****   \details Returns the current value of the non-secure Base Priority register when in secure state.
 401:C:/Users/VMORAIS/Documents/DAVE_WS/1p_inverter_200V/Libraries/CMSIS/Include\cmsis_gcc.h ****   \return               Base Priority register value
 402:C:/Users/VMORAIS/Documents/DAVE_WS/1p_inverter_200V/Libraries/CMSIS/Include\cmsis_gcc.h ****  */
 403:C:/Users/VMORAIS/Documents/DAVE_WS/1p_inverter_200V/Libraries/CMSIS/Include\cmsis_gcc.h **** __attribute__((always_inline)) __STATIC_INLINE uint32_t __TZ_get_BASEPRI_NS(void)
 404:C:/Users/VMORAIS/Documents/DAVE_WS/1p_inverter_200V/Libraries/CMSIS/Include\cmsis_gcc.h **** {
 405:C:/Users/VMORAIS/Documents/DAVE_WS/1p_inverter_200V/Libraries/CMSIS/Include\cmsis_gcc.h ****   uint32_t result;
 406:C:/Users/VMORAIS/Documents/DAVE_WS/1p_inverter_200V/Libraries/CMSIS/Include\cmsis_gcc.h **** 
 407:C:/Users/VMORAIS/Documents/DAVE_WS/1p_inverter_200V/Libraries/CMSIS/Include\cmsis_gcc.h ****   __ASM volatile ("MRS %0, basepri_ns" : "=r" (result) );
 408:C:/Users/VMORAIS/Documents/DAVE_WS/1p_inverter_200V/Libraries/CMSIS/Include\cmsis_gcc.h ****   return(result);
 409:C:/Users/VMORAIS/Documents/DAVE_WS/1p_inverter_200V/Libraries/CMSIS/Include\cmsis_gcc.h **** }
 410:C:/Users/VMORAIS/Documents/DAVE_WS/1p_inverter_200V/Libraries/CMSIS/Include\cmsis_gcc.h **** #endif
 411:C:/Users/VMORAIS/Documents/DAVE_WS/1p_inverter_200V/Libraries/CMSIS/Include\cmsis_gcc.h **** 
 412:C:/Users/VMORAIS/Documents/DAVE_WS/1p_inverter_200V/Libraries/CMSIS/Include\cmsis_gcc.h **** 
 413:C:/Users/VMORAIS/Documents/DAVE_WS/1p_inverter_200V/Libraries/CMSIS/Include\cmsis_gcc.h **** /**
 414:C:/Users/VMORAIS/Documents/DAVE_WS/1p_inverter_200V/Libraries/CMSIS/Include\cmsis_gcc.h ****   \brief   Set Base Priority
 415:C:/Users/VMORAIS/Documents/DAVE_WS/1p_inverter_200V/Libraries/CMSIS/Include\cmsis_gcc.h ****   \details Assigns the given value to the Base Priority register.
 416:C:/Users/VMORAIS/Documents/DAVE_WS/1p_inverter_200V/Libraries/CMSIS/Include\cmsis_gcc.h ****   \param [in]    basePri  Base Priority value to set
 417:C:/Users/VMORAIS/Documents/DAVE_WS/1p_inverter_200V/Libraries/CMSIS/Include\cmsis_gcc.h ****  */
 418:C:/Users/VMORAIS/Documents/DAVE_WS/1p_inverter_200V/Libraries/CMSIS/Include\cmsis_gcc.h **** __attribute__((always_inline)) __STATIC_INLINE void __set_BASEPRI(uint32_t basePri)
 419:C:/Users/VMORAIS/Documents/DAVE_WS/1p_inverter_200V/Libraries/CMSIS/Include\cmsis_gcc.h **** {
 420:C:/Users/VMORAIS/Documents/DAVE_WS/1p_inverter_200V/Libraries/CMSIS/Include\cmsis_gcc.h ****   __ASM volatile ("MSR basepri, %0" : : "r" (basePri) : "memory");
 421:C:/Users/VMORAIS/Documents/DAVE_WS/1p_inverter_200V/Libraries/CMSIS/Include\cmsis_gcc.h **** }
 422:C:/Users/VMORAIS/Documents/DAVE_WS/1p_inverter_200V/Libraries/CMSIS/Include\cmsis_gcc.h **** 
 423:C:/Users/VMORAIS/Documents/DAVE_WS/1p_inverter_200V/Libraries/CMSIS/Include\cmsis_gcc.h **** 
 424:C:/Users/VMORAIS/Documents/DAVE_WS/1p_inverter_200V/Libraries/CMSIS/Include\cmsis_gcc.h **** #if (defined (__ARM_FEATURE_CMSE ) && (__ARM_FEATURE_CMSE == 3))
 425:C:/Users/VMORAIS/Documents/DAVE_WS/1p_inverter_200V/Libraries/CMSIS/Include\cmsis_gcc.h **** /**
 426:C:/Users/VMORAIS/Documents/DAVE_WS/1p_inverter_200V/Libraries/CMSIS/Include\cmsis_gcc.h ****   \brief   Set Base Priority (non-secure)
 427:C:/Users/VMORAIS/Documents/DAVE_WS/1p_inverter_200V/Libraries/CMSIS/Include\cmsis_gcc.h ****   \details Assigns the given value to the non-secure Base Priority register when in secure state.
 428:C:/Users/VMORAIS/Documents/DAVE_WS/1p_inverter_200V/Libraries/CMSIS/Include\cmsis_gcc.h ****   \param [in]    basePri  Base Priority value to set
 429:C:/Users/VMORAIS/Documents/DAVE_WS/1p_inverter_200V/Libraries/CMSIS/Include\cmsis_gcc.h ****  */
 430:C:/Users/VMORAIS/Documents/DAVE_WS/1p_inverter_200V/Libraries/CMSIS/Include\cmsis_gcc.h **** __attribute__((always_inline)) __STATIC_INLINE void __TZ_set_BASEPRI_NS(uint32_t basePri)
 431:C:/Users/VMORAIS/Documents/DAVE_WS/1p_inverter_200V/Libraries/CMSIS/Include\cmsis_gcc.h **** {
 432:C:/Users/VMORAIS/Documents/DAVE_WS/1p_inverter_200V/Libraries/CMSIS/Include\cmsis_gcc.h ****   __ASM volatile ("MSR basepri_ns, %0" : : "r" (basePri) : "memory");
 433:C:/Users/VMORAIS/Documents/DAVE_WS/1p_inverter_200V/Libraries/CMSIS/Include\cmsis_gcc.h **** }
 434:C:/Users/VMORAIS/Documents/DAVE_WS/1p_inverter_200V/Libraries/CMSIS/Include\cmsis_gcc.h **** #endif
 435:C:/Users/VMORAIS/Documents/DAVE_WS/1p_inverter_200V/Libraries/CMSIS/Include\cmsis_gcc.h **** 
 436:C:/Users/VMORAIS/Documents/DAVE_WS/1p_inverter_200V/Libraries/CMSIS/Include\cmsis_gcc.h **** 
 437:C:/Users/VMORAIS/Documents/DAVE_WS/1p_inverter_200V/Libraries/CMSIS/Include\cmsis_gcc.h **** /**
 438:C:/Users/VMORAIS/Documents/DAVE_WS/1p_inverter_200V/Libraries/CMSIS/Include\cmsis_gcc.h ****   \brief   Set Base Priority with condition
 439:C:/Users/VMORAIS/Documents/DAVE_WS/1p_inverter_200V/Libraries/CMSIS/Include\cmsis_gcc.h ****   \details Assigns the given value to the Base Priority register only if BASEPRI masking is disable
 440:C:/Users/VMORAIS/Documents/DAVE_WS/1p_inverter_200V/Libraries/CMSIS/Include\cmsis_gcc.h ****            or the new value increases the BASEPRI priority level.
 441:C:/Users/VMORAIS/Documents/DAVE_WS/1p_inverter_200V/Libraries/CMSIS/Include\cmsis_gcc.h ****   \param [in]    basePri  Base Priority value to set
 442:C:/Users/VMORAIS/Documents/DAVE_WS/1p_inverter_200V/Libraries/CMSIS/Include\cmsis_gcc.h ****  */
 443:C:/Users/VMORAIS/Documents/DAVE_WS/1p_inverter_200V/Libraries/CMSIS/Include\cmsis_gcc.h **** __attribute__((always_inline)) __STATIC_INLINE void __set_BASEPRI_MAX(uint32_t basePri)
 444:C:/Users/VMORAIS/Documents/DAVE_WS/1p_inverter_200V/Libraries/CMSIS/Include\cmsis_gcc.h **** {
 445:C:/Users/VMORAIS/Documents/DAVE_WS/1p_inverter_200V/Libraries/CMSIS/Include\cmsis_gcc.h ****   __ASM volatile ("MSR basepri_max, %0" : : "r" (basePri) : "memory");
 446:C:/Users/VMORAIS/Documents/DAVE_WS/1p_inverter_200V/Libraries/CMSIS/Include\cmsis_gcc.h **** }
 447:C:/Users/VMORAIS/Documents/DAVE_WS/1p_inverter_200V/Libraries/CMSIS/Include\cmsis_gcc.h **** 
 448:C:/Users/VMORAIS/Documents/DAVE_WS/1p_inverter_200V/Libraries/CMSIS/Include\cmsis_gcc.h **** 
 449:C:/Users/VMORAIS/Documents/DAVE_WS/1p_inverter_200V/Libraries/CMSIS/Include\cmsis_gcc.h **** /**
 450:C:/Users/VMORAIS/Documents/DAVE_WS/1p_inverter_200V/Libraries/CMSIS/Include\cmsis_gcc.h ****   \brief   Get Fault Mask
 451:C:/Users/VMORAIS/Documents/DAVE_WS/1p_inverter_200V/Libraries/CMSIS/Include\cmsis_gcc.h ****   \details Returns the current value of the Fault Mask register.
 452:C:/Users/VMORAIS/Documents/DAVE_WS/1p_inverter_200V/Libraries/CMSIS/Include\cmsis_gcc.h ****   \return               Fault Mask register value
 453:C:/Users/VMORAIS/Documents/DAVE_WS/1p_inverter_200V/Libraries/CMSIS/Include\cmsis_gcc.h ****  */
 454:C:/Users/VMORAIS/Documents/DAVE_WS/1p_inverter_200V/Libraries/CMSIS/Include\cmsis_gcc.h **** __attribute__((always_inline)) __STATIC_INLINE uint32_t __get_FAULTMASK(void)
 455:C:/Users/VMORAIS/Documents/DAVE_WS/1p_inverter_200V/Libraries/CMSIS/Include\cmsis_gcc.h **** {
 456:C:/Users/VMORAIS/Documents/DAVE_WS/1p_inverter_200V/Libraries/CMSIS/Include\cmsis_gcc.h ****   uint32_t result;
 457:C:/Users/VMORAIS/Documents/DAVE_WS/1p_inverter_200V/Libraries/CMSIS/Include\cmsis_gcc.h **** 
 458:C:/Users/VMORAIS/Documents/DAVE_WS/1p_inverter_200V/Libraries/CMSIS/Include\cmsis_gcc.h ****   __ASM volatile ("MRS %0, faultmask" : "=r" (result) );
 459:C:/Users/VMORAIS/Documents/DAVE_WS/1p_inverter_200V/Libraries/CMSIS/Include\cmsis_gcc.h ****   return(result);
 460:C:/Users/VMORAIS/Documents/DAVE_WS/1p_inverter_200V/Libraries/CMSIS/Include\cmsis_gcc.h **** }
 461:C:/Users/VMORAIS/Documents/DAVE_WS/1p_inverter_200V/Libraries/CMSIS/Include\cmsis_gcc.h **** 
 462:C:/Users/VMORAIS/Documents/DAVE_WS/1p_inverter_200V/Libraries/CMSIS/Include\cmsis_gcc.h **** 
 463:C:/Users/VMORAIS/Documents/DAVE_WS/1p_inverter_200V/Libraries/CMSIS/Include\cmsis_gcc.h **** #if (defined (__ARM_FEATURE_CMSE ) && (__ARM_FEATURE_CMSE == 3))
 464:C:/Users/VMORAIS/Documents/DAVE_WS/1p_inverter_200V/Libraries/CMSIS/Include\cmsis_gcc.h **** /**
 465:C:/Users/VMORAIS/Documents/DAVE_WS/1p_inverter_200V/Libraries/CMSIS/Include\cmsis_gcc.h ****   \brief   Get Fault Mask (non-secure)
 466:C:/Users/VMORAIS/Documents/DAVE_WS/1p_inverter_200V/Libraries/CMSIS/Include\cmsis_gcc.h ****   \details Returns the current value of the non-secure Fault Mask register when in secure state.
 467:C:/Users/VMORAIS/Documents/DAVE_WS/1p_inverter_200V/Libraries/CMSIS/Include\cmsis_gcc.h ****   \return               Fault Mask register value
 468:C:/Users/VMORAIS/Documents/DAVE_WS/1p_inverter_200V/Libraries/CMSIS/Include\cmsis_gcc.h ****  */
 469:C:/Users/VMORAIS/Documents/DAVE_WS/1p_inverter_200V/Libraries/CMSIS/Include\cmsis_gcc.h **** __attribute__((always_inline)) __STATIC_INLINE uint32_t __TZ_get_FAULTMASK_NS(void)
 470:C:/Users/VMORAIS/Documents/DAVE_WS/1p_inverter_200V/Libraries/CMSIS/Include\cmsis_gcc.h **** {
 471:C:/Users/VMORAIS/Documents/DAVE_WS/1p_inverter_200V/Libraries/CMSIS/Include\cmsis_gcc.h ****   uint32_t result;
 472:C:/Users/VMORAIS/Documents/DAVE_WS/1p_inverter_200V/Libraries/CMSIS/Include\cmsis_gcc.h **** 
 473:C:/Users/VMORAIS/Documents/DAVE_WS/1p_inverter_200V/Libraries/CMSIS/Include\cmsis_gcc.h ****   __ASM volatile ("MRS %0, faultmask_ns" : "=r" (result) );
 474:C:/Users/VMORAIS/Documents/DAVE_WS/1p_inverter_200V/Libraries/CMSIS/Include\cmsis_gcc.h ****   return(result);
 475:C:/Users/VMORAIS/Documents/DAVE_WS/1p_inverter_200V/Libraries/CMSIS/Include\cmsis_gcc.h **** }
 476:C:/Users/VMORAIS/Documents/DAVE_WS/1p_inverter_200V/Libraries/CMSIS/Include\cmsis_gcc.h **** #endif
 477:C:/Users/VMORAIS/Documents/DAVE_WS/1p_inverter_200V/Libraries/CMSIS/Include\cmsis_gcc.h **** 
 478:C:/Users/VMORAIS/Documents/DAVE_WS/1p_inverter_200V/Libraries/CMSIS/Include\cmsis_gcc.h **** 
 479:C:/Users/VMORAIS/Documents/DAVE_WS/1p_inverter_200V/Libraries/CMSIS/Include\cmsis_gcc.h **** /**
 480:C:/Users/VMORAIS/Documents/DAVE_WS/1p_inverter_200V/Libraries/CMSIS/Include\cmsis_gcc.h ****   \brief   Set Fault Mask
 481:C:/Users/VMORAIS/Documents/DAVE_WS/1p_inverter_200V/Libraries/CMSIS/Include\cmsis_gcc.h ****   \details Assigns the given value to the Fault Mask register.
 482:C:/Users/VMORAIS/Documents/DAVE_WS/1p_inverter_200V/Libraries/CMSIS/Include\cmsis_gcc.h ****   \param [in]    faultMask  Fault Mask value to set
 483:C:/Users/VMORAIS/Documents/DAVE_WS/1p_inverter_200V/Libraries/CMSIS/Include\cmsis_gcc.h ****  */
 484:C:/Users/VMORAIS/Documents/DAVE_WS/1p_inverter_200V/Libraries/CMSIS/Include\cmsis_gcc.h **** __attribute__((always_inline)) __STATIC_INLINE void __set_FAULTMASK(uint32_t faultMask)
 485:C:/Users/VMORAIS/Documents/DAVE_WS/1p_inverter_200V/Libraries/CMSIS/Include\cmsis_gcc.h **** {
 486:C:/Users/VMORAIS/Documents/DAVE_WS/1p_inverter_200V/Libraries/CMSIS/Include\cmsis_gcc.h ****   __ASM volatile ("MSR faultmask, %0" : : "r" (faultMask) : "memory");
 487:C:/Users/VMORAIS/Documents/DAVE_WS/1p_inverter_200V/Libraries/CMSIS/Include\cmsis_gcc.h **** }
 488:C:/Users/VMORAIS/Documents/DAVE_WS/1p_inverter_200V/Libraries/CMSIS/Include\cmsis_gcc.h **** 
 489:C:/Users/VMORAIS/Documents/DAVE_WS/1p_inverter_200V/Libraries/CMSIS/Include\cmsis_gcc.h **** 
 490:C:/Users/VMORAIS/Documents/DAVE_WS/1p_inverter_200V/Libraries/CMSIS/Include\cmsis_gcc.h **** #if (defined (__ARM_FEATURE_CMSE ) && (__ARM_FEATURE_CMSE == 3))
 491:C:/Users/VMORAIS/Documents/DAVE_WS/1p_inverter_200V/Libraries/CMSIS/Include\cmsis_gcc.h **** /**
 492:C:/Users/VMORAIS/Documents/DAVE_WS/1p_inverter_200V/Libraries/CMSIS/Include\cmsis_gcc.h ****   \brief   Set Fault Mask (non-secure)
 493:C:/Users/VMORAIS/Documents/DAVE_WS/1p_inverter_200V/Libraries/CMSIS/Include\cmsis_gcc.h ****   \details Assigns the given value to the non-secure Fault Mask register when in secure state.
 494:C:/Users/VMORAIS/Documents/DAVE_WS/1p_inverter_200V/Libraries/CMSIS/Include\cmsis_gcc.h ****   \param [in]    faultMask  Fault Mask value to set
 495:C:/Users/VMORAIS/Documents/DAVE_WS/1p_inverter_200V/Libraries/CMSIS/Include\cmsis_gcc.h ****  */
 496:C:/Users/VMORAIS/Documents/DAVE_WS/1p_inverter_200V/Libraries/CMSIS/Include\cmsis_gcc.h **** __attribute__((always_inline)) __STATIC_INLINE void __TZ_set_FAULTMASK_NS(uint32_t faultMask)
 497:C:/Users/VMORAIS/Documents/DAVE_WS/1p_inverter_200V/Libraries/CMSIS/Include\cmsis_gcc.h **** {
 498:C:/Users/VMORAIS/Documents/DAVE_WS/1p_inverter_200V/Libraries/CMSIS/Include\cmsis_gcc.h ****   __ASM volatile ("MSR faultmask_ns, %0" : : "r" (faultMask) : "memory");
 499:C:/Users/VMORAIS/Documents/DAVE_WS/1p_inverter_200V/Libraries/CMSIS/Include\cmsis_gcc.h **** }
 500:C:/Users/VMORAIS/Documents/DAVE_WS/1p_inverter_200V/Libraries/CMSIS/Include\cmsis_gcc.h **** #endif
 501:C:/Users/VMORAIS/Documents/DAVE_WS/1p_inverter_200V/Libraries/CMSIS/Include\cmsis_gcc.h **** 
 502:C:/Users/VMORAIS/Documents/DAVE_WS/1p_inverter_200V/Libraries/CMSIS/Include\cmsis_gcc.h **** #endif /* ((defined (__ARM_ARCH_7M__      ) && (__ARM_ARCH_7M__      == 1)) || \
 503:C:/Users/VMORAIS/Documents/DAVE_WS/1p_inverter_200V/Libraries/CMSIS/Include\cmsis_gcc.h ****            (defined (__ARM_ARCH_7EM__     ) && (__ARM_ARCH_7EM__     == 1)) || \
 504:C:/Users/VMORAIS/Documents/DAVE_WS/1p_inverter_200V/Libraries/CMSIS/Include\cmsis_gcc.h ****            (defined (__ARM_ARCH_8M_MAIN__ ) && (__ARM_ARCH_8M_MAIN__ == 1))    ) */
 505:C:/Users/VMORAIS/Documents/DAVE_WS/1p_inverter_200V/Libraries/CMSIS/Include\cmsis_gcc.h **** 
 506:C:/Users/VMORAIS/Documents/DAVE_WS/1p_inverter_200V/Libraries/CMSIS/Include\cmsis_gcc.h **** 
 507:C:/Users/VMORAIS/Documents/DAVE_WS/1p_inverter_200V/Libraries/CMSIS/Include\cmsis_gcc.h **** #if ((defined (__ARM_ARCH_8M_MAIN__ ) && (__ARM_ARCH_8M_MAIN__ == 1)) || \
 508:C:/Users/VMORAIS/Documents/DAVE_WS/1p_inverter_200V/Libraries/CMSIS/Include\cmsis_gcc.h ****      (defined (__ARM_ARCH_8M_BASE__ ) && (__ARM_ARCH_8M_BASE__ == 1))    )
 509:C:/Users/VMORAIS/Documents/DAVE_WS/1p_inverter_200V/Libraries/CMSIS/Include\cmsis_gcc.h **** 
 510:C:/Users/VMORAIS/Documents/DAVE_WS/1p_inverter_200V/Libraries/CMSIS/Include\cmsis_gcc.h **** /**
 511:C:/Users/VMORAIS/Documents/DAVE_WS/1p_inverter_200V/Libraries/CMSIS/Include\cmsis_gcc.h ****   \brief   Get Process Stack Pointer Limit
 512:C:/Users/VMORAIS/Documents/DAVE_WS/1p_inverter_200V/Libraries/CMSIS/Include\cmsis_gcc.h ****   \details Returns the current value of the Process Stack Pointer Limit (PSPLIM).
 513:C:/Users/VMORAIS/Documents/DAVE_WS/1p_inverter_200V/Libraries/CMSIS/Include\cmsis_gcc.h ****   \return               PSPLIM Register value
 514:C:/Users/VMORAIS/Documents/DAVE_WS/1p_inverter_200V/Libraries/CMSIS/Include\cmsis_gcc.h ****  */
 515:C:/Users/VMORAIS/Documents/DAVE_WS/1p_inverter_200V/Libraries/CMSIS/Include\cmsis_gcc.h **** __attribute__((always_inline)) __STATIC_INLINE uint32_t __get_PSPLIM(void)
 516:C:/Users/VMORAIS/Documents/DAVE_WS/1p_inverter_200V/Libraries/CMSIS/Include\cmsis_gcc.h **** {
 517:C:/Users/VMORAIS/Documents/DAVE_WS/1p_inverter_200V/Libraries/CMSIS/Include\cmsis_gcc.h ****   register uint32_t result;
 518:C:/Users/VMORAIS/Documents/DAVE_WS/1p_inverter_200V/Libraries/CMSIS/Include\cmsis_gcc.h **** 
 519:C:/Users/VMORAIS/Documents/DAVE_WS/1p_inverter_200V/Libraries/CMSIS/Include\cmsis_gcc.h ****   __ASM volatile ("MRS %0, psplim"  : "=r" (result) );
 520:C:/Users/VMORAIS/Documents/DAVE_WS/1p_inverter_200V/Libraries/CMSIS/Include\cmsis_gcc.h ****   return(result);
 521:C:/Users/VMORAIS/Documents/DAVE_WS/1p_inverter_200V/Libraries/CMSIS/Include\cmsis_gcc.h **** }
 522:C:/Users/VMORAIS/Documents/DAVE_WS/1p_inverter_200V/Libraries/CMSIS/Include\cmsis_gcc.h **** 
 523:C:/Users/VMORAIS/Documents/DAVE_WS/1p_inverter_200V/Libraries/CMSIS/Include\cmsis_gcc.h **** 
 524:C:/Users/VMORAIS/Documents/DAVE_WS/1p_inverter_200V/Libraries/CMSIS/Include\cmsis_gcc.h **** #if ((defined (__ARM_FEATURE_CMSE  ) && (__ARM_FEATURE_CMSE   == 3)) && \
 525:C:/Users/VMORAIS/Documents/DAVE_WS/1p_inverter_200V/Libraries/CMSIS/Include\cmsis_gcc.h ****      (defined (__ARM_ARCH_8M_MAIN__) && (__ARM_ARCH_8M_MAIN__ == 1))    )
 526:C:/Users/VMORAIS/Documents/DAVE_WS/1p_inverter_200V/Libraries/CMSIS/Include\cmsis_gcc.h **** /**
 527:C:/Users/VMORAIS/Documents/DAVE_WS/1p_inverter_200V/Libraries/CMSIS/Include\cmsis_gcc.h ****   \brief   Get Process Stack Pointer Limit (non-secure)
 528:C:/Users/VMORAIS/Documents/DAVE_WS/1p_inverter_200V/Libraries/CMSIS/Include\cmsis_gcc.h ****   \details Returns the current value of the non-secure Process Stack Pointer Limit (PSPLIM) when in
 529:C:/Users/VMORAIS/Documents/DAVE_WS/1p_inverter_200V/Libraries/CMSIS/Include\cmsis_gcc.h ****   \return               PSPLIM Register value
 530:C:/Users/VMORAIS/Documents/DAVE_WS/1p_inverter_200V/Libraries/CMSIS/Include\cmsis_gcc.h ****  */
 531:C:/Users/VMORAIS/Documents/DAVE_WS/1p_inverter_200V/Libraries/CMSIS/Include\cmsis_gcc.h **** __attribute__((always_inline)) __STATIC_INLINE uint32_t __TZ_get_PSPLIM_NS(void)
 532:C:/Users/VMORAIS/Documents/DAVE_WS/1p_inverter_200V/Libraries/CMSIS/Include\cmsis_gcc.h **** {
 533:C:/Users/VMORAIS/Documents/DAVE_WS/1p_inverter_200V/Libraries/CMSIS/Include\cmsis_gcc.h ****   register uint32_t result;
 534:C:/Users/VMORAIS/Documents/DAVE_WS/1p_inverter_200V/Libraries/CMSIS/Include\cmsis_gcc.h **** 
 535:C:/Users/VMORAIS/Documents/DAVE_WS/1p_inverter_200V/Libraries/CMSIS/Include\cmsis_gcc.h ****   __ASM volatile ("MRS %0, psplim_ns"  : "=r" (result) );
 536:C:/Users/VMORAIS/Documents/DAVE_WS/1p_inverter_200V/Libraries/CMSIS/Include\cmsis_gcc.h ****   return(result);
 537:C:/Users/VMORAIS/Documents/DAVE_WS/1p_inverter_200V/Libraries/CMSIS/Include\cmsis_gcc.h **** }
 538:C:/Users/VMORAIS/Documents/DAVE_WS/1p_inverter_200V/Libraries/CMSIS/Include\cmsis_gcc.h **** #endif
 539:C:/Users/VMORAIS/Documents/DAVE_WS/1p_inverter_200V/Libraries/CMSIS/Include\cmsis_gcc.h **** 
 540:C:/Users/VMORAIS/Documents/DAVE_WS/1p_inverter_200V/Libraries/CMSIS/Include\cmsis_gcc.h **** 
 541:C:/Users/VMORAIS/Documents/DAVE_WS/1p_inverter_200V/Libraries/CMSIS/Include\cmsis_gcc.h **** /**
 542:C:/Users/VMORAIS/Documents/DAVE_WS/1p_inverter_200V/Libraries/CMSIS/Include\cmsis_gcc.h ****   \brief   Set Process Stack Pointer Limit
 543:C:/Users/VMORAIS/Documents/DAVE_WS/1p_inverter_200V/Libraries/CMSIS/Include\cmsis_gcc.h ****   \details Assigns the given value to the Process Stack Pointer Limit (PSPLIM).
 544:C:/Users/VMORAIS/Documents/DAVE_WS/1p_inverter_200V/Libraries/CMSIS/Include\cmsis_gcc.h ****   \param [in]    ProcStackPtrLimit  Process Stack Pointer Limit value to set
 545:C:/Users/VMORAIS/Documents/DAVE_WS/1p_inverter_200V/Libraries/CMSIS/Include\cmsis_gcc.h ****  */
 546:C:/Users/VMORAIS/Documents/DAVE_WS/1p_inverter_200V/Libraries/CMSIS/Include\cmsis_gcc.h **** __attribute__((always_inline)) __STATIC_INLINE void __set_PSPLIM(uint32_t ProcStackPtrLimit)
 547:C:/Users/VMORAIS/Documents/DAVE_WS/1p_inverter_200V/Libraries/CMSIS/Include\cmsis_gcc.h **** {
 548:C:/Users/VMORAIS/Documents/DAVE_WS/1p_inverter_200V/Libraries/CMSIS/Include\cmsis_gcc.h ****   __ASM volatile ("MSR psplim, %0" : : "r" (ProcStackPtrLimit));
 549:C:/Users/VMORAIS/Documents/DAVE_WS/1p_inverter_200V/Libraries/CMSIS/Include\cmsis_gcc.h **** }
 550:C:/Users/VMORAIS/Documents/DAVE_WS/1p_inverter_200V/Libraries/CMSIS/Include\cmsis_gcc.h **** 
 551:C:/Users/VMORAIS/Documents/DAVE_WS/1p_inverter_200V/Libraries/CMSIS/Include\cmsis_gcc.h **** 
 552:C:/Users/VMORAIS/Documents/DAVE_WS/1p_inverter_200V/Libraries/CMSIS/Include\cmsis_gcc.h **** #if ((defined (__ARM_FEATURE_CMSE  ) && (__ARM_FEATURE_CMSE   == 3)) && \
 553:C:/Users/VMORAIS/Documents/DAVE_WS/1p_inverter_200V/Libraries/CMSIS/Include\cmsis_gcc.h ****      (defined (__ARM_ARCH_8M_MAIN__) && (__ARM_ARCH_8M_MAIN__ == 1))    )
 554:C:/Users/VMORAIS/Documents/DAVE_WS/1p_inverter_200V/Libraries/CMSIS/Include\cmsis_gcc.h **** /**
 555:C:/Users/VMORAIS/Documents/DAVE_WS/1p_inverter_200V/Libraries/CMSIS/Include\cmsis_gcc.h ****   \brief   Set Process Stack Pointer (non-secure)
 556:C:/Users/VMORAIS/Documents/DAVE_WS/1p_inverter_200V/Libraries/CMSIS/Include\cmsis_gcc.h ****   \details Assigns the given value to the non-secure Process Stack Pointer Limit (PSPLIM) when in s
 557:C:/Users/VMORAIS/Documents/DAVE_WS/1p_inverter_200V/Libraries/CMSIS/Include\cmsis_gcc.h ****   \param [in]    ProcStackPtrLimit  Process Stack Pointer Limit value to set
 558:C:/Users/VMORAIS/Documents/DAVE_WS/1p_inverter_200V/Libraries/CMSIS/Include\cmsis_gcc.h ****  */
 559:C:/Users/VMORAIS/Documents/DAVE_WS/1p_inverter_200V/Libraries/CMSIS/Include\cmsis_gcc.h **** __attribute__((always_inline)) __STATIC_INLINE void __TZ_set_PSPLIM_NS(uint32_t ProcStackPtrLimit)
 560:C:/Users/VMORAIS/Documents/DAVE_WS/1p_inverter_200V/Libraries/CMSIS/Include\cmsis_gcc.h **** {
 561:C:/Users/VMORAIS/Documents/DAVE_WS/1p_inverter_200V/Libraries/CMSIS/Include\cmsis_gcc.h ****   __ASM volatile ("MSR psplim_ns, %0\n" : : "r" (ProcStackPtrLimit));
 562:C:/Users/VMORAIS/Documents/DAVE_WS/1p_inverter_200V/Libraries/CMSIS/Include\cmsis_gcc.h **** }
 563:C:/Users/VMORAIS/Documents/DAVE_WS/1p_inverter_200V/Libraries/CMSIS/Include\cmsis_gcc.h **** #endif
 564:C:/Users/VMORAIS/Documents/DAVE_WS/1p_inverter_200V/Libraries/CMSIS/Include\cmsis_gcc.h **** 
 565:C:/Users/VMORAIS/Documents/DAVE_WS/1p_inverter_200V/Libraries/CMSIS/Include\cmsis_gcc.h **** 
 566:C:/Users/VMORAIS/Documents/DAVE_WS/1p_inverter_200V/Libraries/CMSIS/Include\cmsis_gcc.h **** /**
 567:C:/Users/VMORAIS/Documents/DAVE_WS/1p_inverter_200V/Libraries/CMSIS/Include\cmsis_gcc.h ****   \brief   Get Main Stack Pointer Limit
 568:C:/Users/VMORAIS/Documents/DAVE_WS/1p_inverter_200V/Libraries/CMSIS/Include\cmsis_gcc.h ****   \details Returns the current value of the Main Stack Pointer Limit (MSPLIM).
 569:C:/Users/VMORAIS/Documents/DAVE_WS/1p_inverter_200V/Libraries/CMSIS/Include\cmsis_gcc.h ****   \return               MSPLIM Register value
 570:C:/Users/VMORAIS/Documents/DAVE_WS/1p_inverter_200V/Libraries/CMSIS/Include\cmsis_gcc.h ****  */
 571:C:/Users/VMORAIS/Documents/DAVE_WS/1p_inverter_200V/Libraries/CMSIS/Include\cmsis_gcc.h **** __attribute__((always_inline)) __STATIC_INLINE uint32_t __get_MSPLIM(void)
 572:C:/Users/VMORAIS/Documents/DAVE_WS/1p_inverter_200V/Libraries/CMSIS/Include\cmsis_gcc.h **** {
 573:C:/Users/VMORAIS/Documents/DAVE_WS/1p_inverter_200V/Libraries/CMSIS/Include\cmsis_gcc.h ****   register uint32_t result;
 574:C:/Users/VMORAIS/Documents/DAVE_WS/1p_inverter_200V/Libraries/CMSIS/Include\cmsis_gcc.h **** 
 575:C:/Users/VMORAIS/Documents/DAVE_WS/1p_inverter_200V/Libraries/CMSIS/Include\cmsis_gcc.h ****   __ASM volatile ("MRS %0, msplim" : "=r" (result) );
 576:C:/Users/VMORAIS/Documents/DAVE_WS/1p_inverter_200V/Libraries/CMSIS/Include\cmsis_gcc.h **** 
 577:C:/Users/VMORAIS/Documents/DAVE_WS/1p_inverter_200V/Libraries/CMSIS/Include\cmsis_gcc.h ****   return(result);
 578:C:/Users/VMORAIS/Documents/DAVE_WS/1p_inverter_200V/Libraries/CMSIS/Include\cmsis_gcc.h **** }
 579:C:/Users/VMORAIS/Documents/DAVE_WS/1p_inverter_200V/Libraries/CMSIS/Include\cmsis_gcc.h **** 
 580:C:/Users/VMORAIS/Documents/DAVE_WS/1p_inverter_200V/Libraries/CMSIS/Include\cmsis_gcc.h **** 
 581:C:/Users/VMORAIS/Documents/DAVE_WS/1p_inverter_200V/Libraries/CMSIS/Include\cmsis_gcc.h **** #if ((defined (__ARM_FEATURE_CMSE  ) && (__ARM_FEATURE_CMSE   == 3)) && \
 582:C:/Users/VMORAIS/Documents/DAVE_WS/1p_inverter_200V/Libraries/CMSIS/Include\cmsis_gcc.h ****      (defined (__ARM_ARCH_8M_MAIN__) && (__ARM_ARCH_8M_MAIN__ == 1))    )
 583:C:/Users/VMORAIS/Documents/DAVE_WS/1p_inverter_200V/Libraries/CMSIS/Include\cmsis_gcc.h **** /**
 584:C:/Users/VMORAIS/Documents/DAVE_WS/1p_inverter_200V/Libraries/CMSIS/Include\cmsis_gcc.h ****   \brief   Get Main Stack Pointer Limit (non-secure)
 585:C:/Users/VMORAIS/Documents/DAVE_WS/1p_inverter_200V/Libraries/CMSIS/Include\cmsis_gcc.h ****   \details Returns the current value of the non-secure Main Stack Pointer Limit(MSPLIM) when in sec
 586:C:/Users/VMORAIS/Documents/DAVE_WS/1p_inverter_200V/Libraries/CMSIS/Include\cmsis_gcc.h ****   \return               MSPLIM Register value
 587:C:/Users/VMORAIS/Documents/DAVE_WS/1p_inverter_200V/Libraries/CMSIS/Include\cmsis_gcc.h ****  */
 588:C:/Users/VMORAIS/Documents/DAVE_WS/1p_inverter_200V/Libraries/CMSIS/Include\cmsis_gcc.h **** __attribute__((always_inline)) __STATIC_INLINE uint32_t __TZ_get_MSPLIM_NS(void)
 589:C:/Users/VMORAIS/Documents/DAVE_WS/1p_inverter_200V/Libraries/CMSIS/Include\cmsis_gcc.h **** {
 590:C:/Users/VMORAIS/Documents/DAVE_WS/1p_inverter_200V/Libraries/CMSIS/Include\cmsis_gcc.h ****   register uint32_t result;
 591:C:/Users/VMORAIS/Documents/DAVE_WS/1p_inverter_200V/Libraries/CMSIS/Include\cmsis_gcc.h **** 
 592:C:/Users/VMORAIS/Documents/DAVE_WS/1p_inverter_200V/Libraries/CMSIS/Include\cmsis_gcc.h ****   __ASM volatile ("MRS %0, msplim_ns" : "=r" (result) );
 593:C:/Users/VMORAIS/Documents/DAVE_WS/1p_inverter_200V/Libraries/CMSIS/Include\cmsis_gcc.h ****   return(result);
 594:C:/Users/VMORAIS/Documents/DAVE_WS/1p_inverter_200V/Libraries/CMSIS/Include\cmsis_gcc.h **** }
 595:C:/Users/VMORAIS/Documents/DAVE_WS/1p_inverter_200V/Libraries/CMSIS/Include\cmsis_gcc.h **** #endif
 596:C:/Users/VMORAIS/Documents/DAVE_WS/1p_inverter_200V/Libraries/CMSIS/Include\cmsis_gcc.h **** 
 597:C:/Users/VMORAIS/Documents/DAVE_WS/1p_inverter_200V/Libraries/CMSIS/Include\cmsis_gcc.h **** 
 598:C:/Users/VMORAIS/Documents/DAVE_WS/1p_inverter_200V/Libraries/CMSIS/Include\cmsis_gcc.h **** /**
 599:C:/Users/VMORAIS/Documents/DAVE_WS/1p_inverter_200V/Libraries/CMSIS/Include\cmsis_gcc.h ****   \brief   Set Main Stack Pointer Limit
 600:C:/Users/VMORAIS/Documents/DAVE_WS/1p_inverter_200V/Libraries/CMSIS/Include\cmsis_gcc.h ****   \details Assigns the given value to the Main Stack Pointer Limit (MSPLIM).
 601:C:/Users/VMORAIS/Documents/DAVE_WS/1p_inverter_200V/Libraries/CMSIS/Include\cmsis_gcc.h ****   \param [in]    MainStackPtrLimit  Main Stack Pointer Limit value to set
 602:C:/Users/VMORAIS/Documents/DAVE_WS/1p_inverter_200V/Libraries/CMSIS/Include\cmsis_gcc.h ****  */
 603:C:/Users/VMORAIS/Documents/DAVE_WS/1p_inverter_200V/Libraries/CMSIS/Include\cmsis_gcc.h **** __attribute__((always_inline)) __STATIC_INLINE void __set_MSPLIM(uint32_t MainStackPtrLimit)
 604:C:/Users/VMORAIS/Documents/DAVE_WS/1p_inverter_200V/Libraries/CMSIS/Include\cmsis_gcc.h **** {
 605:C:/Users/VMORAIS/Documents/DAVE_WS/1p_inverter_200V/Libraries/CMSIS/Include\cmsis_gcc.h ****   __ASM volatile ("MSR msplim, %0" : : "r" (MainStackPtrLimit));
 606:C:/Users/VMORAIS/Documents/DAVE_WS/1p_inverter_200V/Libraries/CMSIS/Include\cmsis_gcc.h **** }
 607:C:/Users/VMORAIS/Documents/DAVE_WS/1p_inverter_200V/Libraries/CMSIS/Include\cmsis_gcc.h **** 
 608:C:/Users/VMORAIS/Documents/DAVE_WS/1p_inverter_200V/Libraries/CMSIS/Include\cmsis_gcc.h **** 
 609:C:/Users/VMORAIS/Documents/DAVE_WS/1p_inverter_200V/Libraries/CMSIS/Include\cmsis_gcc.h **** #if ((defined (__ARM_FEATURE_CMSE  ) && (__ARM_FEATURE_CMSE   == 3)) && \
 610:C:/Users/VMORAIS/Documents/DAVE_WS/1p_inverter_200V/Libraries/CMSIS/Include\cmsis_gcc.h ****      (defined (__ARM_ARCH_8M_MAIN__) && (__ARM_ARCH_8M_MAIN__ == 1))    )
 611:C:/Users/VMORAIS/Documents/DAVE_WS/1p_inverter_200V/Libraries/CMSIS/Include\cmsis_gcc.h **** /**
 612:C:/Users/VMORAIS/Documents/DAVE_WS/1p_inverter_200V/Libraries/CMSIS/Include\cmsis_gcc.h ****   \brief   Set Main Stack Pointer Limit (non-secure)
 613:C:/Users/VMORAIS/Documents/DAVE_WS/1p_inverter_200V/Libraries/CMSIS/Include\cmsis_gcc.h ****   \details Assigns the given value to the non-secure Main Stack Pointer Limit (MSPLIM) when in secu
 614:C:/Users/VMORAIS/Documents/DAVE_WS/1p_inverter_200V/Libraries/CMSIS/Include\cmsis_gcc.h ****   \param [in]    MainStackPtrLimit  Main Stack Pointer value to set
 615:C:/Users/VMORAIS/Documents/DAVE_WS/1p_inverter_200V/Libraries/CMSIS/Include\cmsis_gcc.h ****  */
 616:C:/Users/VMORAIS/Documents/DAVE_WS/1p_inverter_200V/Libraries/CMSIS/Include\cmsis_gcc.h **** __attribute__((always_inline)) __STATIC_INLINE void __TZ_set_MSPLIM_NS(uint32_t MainStackPtrLimit)
 617:C:/Users/VMORAIS/Documents/DAVE_WS/1p_inverter_200V/Libraries/CMSIS/Include\cmsis_gcc.h **** {
 618:C:/Users/VMORAIS/Documents/DAVE_WS/1p_inverter_200V/Libraries/CMSIS/Include\cmsis_gcc.h ****   __ASM volatile ("MSR msplim_ns, %0" : : "r" (MainStackPtrLimit));
 619:C:/Users/VMORAIS/Documents/DAVE_WS/1p_inverter_200V/Libraries/CMSIS/Include\cmsis_gcc.h **** }
 620:C:/Users/VMORAIS/Documents/DAVE_WS/1p_inverter_200V/Libraries/CMSIS/Include\cmsis_gcc.h **** #endif
 621:C:/Users/VMORAIS/Documents/DAVE_WS/1p_inverter_200V/Libraries/CMSIS/Include\cmsis_gcc.h **** 
 622:C:/Users/VMORAIS/Documents/DAVE_WS/1p_inverter_200V/Libraries/CMSIS/Include\cmsis_gcc.h **** #endif /* ((defined (__ARM_ARCH_8M_MAIN__ ) && (__ARM_ARCH_8M_MAIN__ == 1)) || \
 623:C:/Users/VMORAIS/Documents/DAVE_WS/1p_inverter_200V/Libraries/CMSIS/Include\cmsis_gcc.h ****            (defined (__ARM_ARCH_8M_BASE__ ) && (__ARM_ARCH_8M_BASE__ == 1))    ) */
 624:C:/Users/VMORAIS/Documents/DAVE_WS/1p_inverter_200V/Libraries/CMSIS/Include\cmsis_gcc.h **** 
 625:C:/Users/VMORAIS/Documents/DAVE_WS/1p_inverter_200V/Libraries/CMSIS/Include\cmsis_gcc.h **** 
 626:C:/Users/VMORAIS/Documents/DAVE_WS/1p_inverter_200V/Libraries/CMSIS/Include\cmsis_gcc.h **** #if ((defined (__ARM_ARCH_7EM__     ) && (__ARM_ARCH_7EM__     == 1)) || \
 627:C:/Users/VMORAIS/Documents/DAVE_WS/1p_inverter_200V/Libraries/CMSIS/Include\cmsis_gcc.h ****      (defined (__ARM_ARCH_8M_MAIN__ ) && (__ARM_ARCH_8M_MAIN__ == 1))    )
 628:C:/Users/VMORAIS/Documents/DAVE_WS/1p_inverter_200V/Libraries/CMSIS/Include\cmsis_gcc.h **** 
 629:C:/Users/VMORAIS/Documents/DAVE_WS/1p_inverter_200V/Libraries/CMSIS/Include\cmsis_gcc.h **** /**
 630:C:/Users/VMORAIS/Documents/DAVE_WS/1p_inverter_200V/Libraries/CMSIS/Include\cmsis_gcc.h ****   \brief   Get FPSCR
 631:C:/Users/VMORAIS/Documents/DAVE_WS/1p_inverter_200V/Libraries/CMSIS/Include\cmsis_gcc.h ****   \details Returns the current value of the Floating Point Status/Control register.
 632:C:/Users/VMORAIS/Documents/DAVE_WS/1p_inverter_200V/Libraries/CMSIS/Include\cmsis_gcc.h ****   \return               Floating Point Status/Control register value
 633:C:/Users/VMORAIS/Documents/DAVE_WS/1p_inverter_200V/Libraries/CMSIS/Include\cmsis_gcc.h ****  */
 634:C:/Users/VMORAIS/Documents/DAVE_WS/1p_inverter_200V/Libraries/CMSIS/Include\cmsis_gcc.h **** __attribute__((always_inline)) __STATIC_INLINE uint32_t __get_FPSCR(void)
 635:C:/Users/VMORAIS/Documents/DAVE_WS/1p_inverter_200V/Libraries/CMSIS/Include\cmsis_gcc.h **** {
 636:C:/Users/VMORAIS/Documents/DAVE_WS/1p_inverter_200V/Libraries/CMSIS/Include\cmsis_gcc.h **** #if ((defined (__FPU_PRESENT) && (__FPU_PRESENT == 1U)) && \
 637:C:/Users/VMORAIS/Documents/DAVE_WS/1p_inverter_200V/Libraries/CMSIS/Include\cmsis_gcc.h ****      (defined (__FPU_USED   ) && (__FPU_USED    == 1U))     )
 638:C:/Users/VMORAIS/Documents/DAVE_WS/1p_inverter_200V/Libraries/CMSIS/Include\cmsis_gcc.h ****   uint32_t result;
 639:C:/Users/VMORAIS/Documents/DAVE_WS/1p_inverter_200V/Libraries/CMSIS/Include\cmsis_gcc.h **** 
 640:C:/Users/VMORAIS/Documents/DAVE_WS/1p_inverter_200V/Libraries/CMSIS/Include\cmsis_gcc.h ****   __ASM volatile ("VMRS %0, fpscr" : "=r" (result) );
 641:C:/Users/VMORAIS/Documents/DAVE_WS/1p_inverter_200V/Libraries/CMSIS/Include\cmsis_gcc.h ****   return(result);
 642:C:/Users/VMORAIS/Documents/DAVE_WS/1p_inverter_200V/Libraries/CMSIS/Include\cmsis_gcc.h **** #else
 643:C:/Users/VMORAIS/Documents/DAVE_WS/1p_inverter_200V/Libraries/CMSIS/Include\cmsis_gcc.h ****    return(0U);
 644:C:/Users/VMORAIS/Documents/DAVE_WS/1p_inverter_200V/Libraries/CMSIS/Include\cmsis_gcc.h **** #endif
 645:C:/Users/VMORAIS/Documents/DAVE_WS/1p_inverter_200V/Libraries/CMSIS/Include\cmsis_gcc.h **** }
 646:C:/Users/VMORAIS/Documents/DAVE_WS/1p_inverter_200V/Libraries/CMSIS/Include\cmsis_gcc.h **** 
 647:C:/Users/VMORAIS/Documents/DAVE_WS/1p_inverter_200V/Libraries/CMSIS/Include\cmsis_gcc.h **** 
 648:C:/Users/VMORAIS/Documents/DAVE_WS/1p_inverter_200V/Libraries/CMSIS/Include\cmsis_gcc.h **** /**
 649:C:/Users/VMORAIS/Documents/DAVE_WS/1p_inverter_200V/Libraries/CMSIS/Include\cmsis_gcc.h ****   \brief   Set FPSCR
 650:C:/Users/VMORAIS/Documents/DAVE_WS/1p_inverter_200V/Libraries/CMSIS/Include\cmsis_gcc.h ****   \details Assigns the given value to the Floating Point Status/Control register.
 651:C:/Users/VMORAIS/Documents/DAVE_WS/1p_inverter_200V/Libraries/CMSIS/Include\cmsis_gcc.h ****   \param [in]    fpscr  Floating Point Status/Control value to set
 652:C:/Users/VMORAIS/Documents/DAVE_WS/1p_inverter_200V/Libraries/CMSIS/Include\cmsis_gcc.h ****  */
 653:C:/Users/VMORAIS/Documents/DAVE_WS/1p_inverter_200V/Libraries/CMSIS/Include\cmsis_gcc.h **** __attribute__((always_inline)) __STATIC_INLINE void __set_FPSCR(uint32_t fpscr)
 654:C:/Users/VMORAIS/Documents/DAVE_WS/1p_inverter_200V/Libraries/CMSIS/Include\cmsis_gcc.h **** {
 655:C:/Users/VMORAIS/Documents/DAVE_WS/1p_inverter_200V/Libraries/CMSIS/Include\cmsis_gcc.h **** #if ((defined (__FPU_PRESENT) && (__FPU_PRESENT == 1U)) && \
 656:C:/Users/VMORAIS/Documents/DAVE_WS/1p_inverter_200V/Libraries/CMSIS/Include\cmsis_gcc.h ****      (defined (__FPU_USED   ) && (__FPU_USED    == 1U))     )
 657:C:/Users/VMORAIS/Documents/DAVE_WS/1p_inverter_200V/Libraries/CMSIS/Include\cmsis_gcc.h ****   __ASM volatile ("VMSR fpscr, %0" : : "r" (fpscr) : "vfpcc", "memory");
 658:C:/Users/VMORAIS/Documents/DAVE_WS/1p_inverter_200V/Libraries/CMSIS/Include\cmsis_gcc.h **** #else
 659:C:/Users/VMORAIS/Documents/DAVE_WS/1p_inverter_200V/Libraries/CMSIS/Include\cmsis_gcc.h ****   (void)fpscr;
 660:C:/Users/VMORAIS/Documents/DAVE_WS/1p_inverter_200V/Libraries/CMSIS/Include\cmsis_gcc.h **** #endif
 661:C:/Users/VMORAIS/Documents/DAVE_WS/1p_inverter_200V/Libraries/CMSIS/Include\cmsis_gcc.h **** }
 662:C:/Users/VMORAIS/Documents/DAVE_WS/1p_inverter_200V/Libraries/CMSIS/Include\cmsis_gcc.h **** 
 663:C:/Users/VMORAIS/Documents/DAVE_WS/1p_inverter_200V/Libraries/CMSIS/Include\cmsis_gcc.h **** #endif /* ((defined (__ARM_ARCH_7EM__     ) && (__ARM_ARCH_7EM__     == 1)) || \
 664:C:/Users/VMORAIS/Documents/DAVE_WS/1p_inverter_200V/Libraries/CMSIS/Include\cmsis_gcc.h ****            (defined (__ARM_ARCH_8M_MAIN__ ) && (__ARM_ARCH_8M_MAIN__ == 1))    ) */
 665:C:/Users/VMORAIS/Documents/DAVE_WS/1p_inverter_200V/Libraries/CMSIS/Include\cmsis_gcc.h **** 
 666:C:/Users/VMORAIS/Documents/DAVE_WS/1p_inverter_200V/Libraries/CMSIS/Include\cmsis_gcc.h **** 
 667:C:/Users/VMORAIS/Documents/DAVE_WS/1p_inverter_200V/Libraries/CMSIS/Include\cmsis_gcc.h **** 
 668:C:/Users/VMORAIS/Documents/DAVE_WS/1p_inverter_200V/Libraries/CMSIS/Include\cmsis_gcc.h **** /*@} end of CMSIS_Core_RegAccFunctions */
 669:C:/Users/VMORAIS/Documents/DAVE_WS/1p_inverter_200V/Libraries/CMSIS/Include\cmsis_gcc.h **** 
 670:C:/Users/VMORAIS/Documents/DAVE_WS/1p_inverter_200V/Libraries/CMSIS/Include\cmsis_gcc.h **** 
 671:C:/Users/VMORAIS/Documents/DAVE_WS/1p_inverter_200V/Libraries/CMSIS/Include\cmsis_gcc.h **** /* ##########################  Core Instruction Access  ######################### */
 672:C:/Users/VMORAIS/Documents/DAVE_WS/1p_inverter_200V/Libraries/CMSIS/Include\cmsis_gcc.h **** /** \defgroup CMSIS_Core_InstructionInterface CMSIS Core Instruction Interface
 673:C:/Users/VMORAIS/Documents/DAVE_WS/1p_inverter_200V/Libraries/CMSIS/Include\cmsis_gcc.h ****   Access to dedicated instructions
 674:C:/Users/VMORAIS/Documents/DAVE_WS/1p_inverter_200V/Libraries/CMSIS/Include\cmsis_gcc.h ****   @{
 675:C:/Users/VMORAIS/Documents/DAVE_WS/1p_inverter_200V/Libraries/CMSIS/Include\cmsis_gcc.h **** */
 676:C:/Users/VMORAIS/Documents/DAVE_WS/1p_inverter_200V/Libraries/CMSIS/Include\cmsis_gcc.h **** 
 677:C:/Users/VMORAIS/Documents/DAVE_WS/1p_inverter_200V/Libraries/CMSIS/Include\cmsis_gcc.h **** /* Define macros for porting to both thumb1 and thumb2.
 678:C:/Users/VMORAIS/Documents/DAVE_WS/1p_inverter_200V/Libraries/CMSIS/Include\cmsis_gcc.h ****  * For thumb1, use low register (r0-r7), specified by constraint "l"
 679:C:/Users/VMORAIS/Documents/DAVE_WS/1p_inverter_200V/Libraries/CMSIS/Include\cmsis_gcc.h ****  * Otherwise, use general registers, specified by constraint "r" */
 680:C:/Users/VMORAIS/Documents/DAVE_WS/1p_inverter_200V/Libraries/CMSIS/Include\cmsis_gcc.h **** #if defined (__thumb__) && !defined (__thumb2__)
 681:C:/Users/VMORAIS/Documents/DAVE_WS/1p_inverter_200V/Libraries/CMSIS/Include\cmsis_gcc.h **** #define __CMSIS_GCC_OUT_REG(r) "=l" (r)
 682:C:/Users/VMORAIS/Documents/DAVE_WS/1p_inverter_200V/Libraries/CMSIS/Include\cmsis_gcc.h **** #define __CMSIS_GCC_RW_REG(r) "+l" (r)
 683:C:/Users/VMORAIS/Documents/DAVE_WS/1p_inverter_200V/Libraries/CMSIS/Include\cmsis_gcc.h **** #define __CMSIS_GCC_USE_REG(r) "l" (r)
 684:C:/Users/VMORAIS/Documents/DAVE_WS/1p_inverter_200V/Libraries/CMSIS/Include\cmsis_gcc.h **** #else
 685:C:/Users/VMORAIS/Documents/DAVE_WS/1p_inverter_200V/Libraries/CMSIS/Include\cmsis_gcc.h **** #define __CMSIS_GCC_OUT_REG(r) "=r" (r)
 686:C:/Users/VMORAIS/Documents/DAVE_WS/1p_inverter_200V/Libraries/CMSIS/Include\cmsis_gcc.h **** #define __CMSIS_GCC_RW_REG(r) "+r" (r)
 687:C:/Users/VMORAIS/Documents/DAVE_WS/1p_inverter_200V/Libraries/CMSIS/Include\cmsis_gcc.h **** #define __CMSIS_GCC_USE_REG(r) "r" (r)
 688:C:/Users/VMORAIS/Documents/DAVE_WS/1p_inverter_200V/Libraries/CMSIS/Include\cmsis_gcc.h **** #endif
 689:C:/Users/VMORAIS/Documents/DAVE_WS/1p_inverter_200V/Libraries/CMSIS/Include\cmsis_gcc.h **** 
 690:C:/Users/VMORAIS/Documents/DAVE_WS/1p_inverter_200V/Libraries/CMSIS/Include\cmsis_gcc.h **** /**
 691:C:/Users/VMORAIS/Documents/DAVE_WS/1p_inverter_200V/Libraries/CMSIS/Include\cmsis_gcc.h ****   \brief   No Operation
 692:C:/Users/VMORAIS/Documents/DAVE_WS/1p_inverter_200V/Libraries/CMSIS/Include\cmsis_gcc.h ****   \details No Operation does nothing. This instruction can be used for code alignment purposes.
 693:C:/Users/VMORAIS/Documents/DAVE_WS/1p_inverter_200V/Libraries/CMSIS/Include\cmsis_gcc.h ****  */
 694:C:/Users/VMORAIS/Documents/DAVE_WS/1p_inverter_200V/Libraries/CMSIS/Include\cmsis_gcc.h **** //__attribute__((always_inline)) __STATIC_INLINE void __NOP(void)
 695:C:/Users/VMORAIS/Documents/DAVE_WS/1p_inverter_200V/Libraries/CMSIS/Include\cmsis_gcc.h **** //{
 696:C:/Users/VMORAIS/Documents/DAVE_WS/1p_inverter_200V/Libraries/CMSIS/Include\cmsis_gcc.h **** //  __ASM volatile ("nop");
 697:C:/Users/VMORAIS/Documents/DAVE_WS/1p_inverter_200V/Libraries/CMSIS/Include\cmsis_gcc.h **** //}
 698:C:/Users/VMORAIS/Documents/DAVE_WS/1p_inverter_200V/Libraries/CMSIS/Include\cmsis_gcc.h **** #define __NOP()                             __ASM volatile ("nop")       /* This implementation gen
 699:C:/Users/VMORAIS/Documents/DAVE_WS/1p_inverter_200V/Libraries/CMSIS/Include\cmsis_gcc.h **** 
 700:C:/Users/VMORAIS/Documents/DAVE_WS/1p_inverter_200V/Libraries/CMSIS/Include\cmsis_gcc.h **** /**
 701:C:/Users/VMORAIS/Documents/DAVE_WS/1p_inverter_200V/Libraries/CMSIS/Include\cmsis_gcc.h ****   \brief   Wait For Interrupt
 702:C:/Users/VMORAIS/Documents/DAVE_WS/1p_inverter_200V/Libraries/CMSIS/Include\cmsis_gcc.h ****   \details Wait For Interrupt is a hint instruction that suspends execution until one of a number o
 703:C:/Users/VMORAIS/Documents/DAVE_WS/1p_inverter_200V/Libraries/CMSIS/Include\cmsis_gcc.h ****  */
 704:C:/Users/VMORAIS/Documents/DAVE_WS/1p_inverter_200V/Libraries/CMSIS/Include\cmsis_gcc.h **** //__attribute__((always_inline)) __STATIC_INLINE void __WFI(void)
 705:C:/Users/VMORAIS/Documents/DAVE_WS/1p_inverter_200V/Libraries/CMSIS/Include\cmsis_gcc.h **** //{
 706:C:/Users/VMORAIS/Documents/DAVE_WS/1p_inverter_200V/Libraries/CMSIS/Include\cmsis_gcc.h **** //  __ASM volatile ("wfi");
 707:C:/Users/VMORAIS/Documents/DAVE_WS/1p_inverter_200V/Libraries/CMSIS/Include\cmsis_gcc.h **** //}
 708:C:/Users/VMORAIS/Documents/DAVE_WS/1p_inverter_200V/Libraries/CMSIS/Include\cmsis_gcc.h **** #define __WFI()                             __ASM volatile ("wfi")       /* This implementation gen
 709:C:/Users/VMORAIS/Documents/DAVE_WS/1p_inverter_200V/Libraries/CMSIS/Include\cmsis_gcc.h **** 
 710:C:/Users/VMORAIS/Documents/DAVE_WS/1p_inverter_200V/Libraries/CMSIS/Include\cmsis_gcc.h **** 
 711:C:/Users/VMORAIS/Documents/DAVE_WS/1p_inverter_200V/Libraries/CMSIS/Include\cmsis_gcc.h **** /**
 712:C:/Users/VMORAIS/Documents/DAVE_WS/1p_inverter_200V/Libraries/CMSIS/Include\cmsis_gcc.h ****   \brief   Wait For Event
 713:C:/Users/VMORAIS/Documents/DAVE_WS/1p_inverter_200V/Libraries/CMSIS/Include\cmsis_gcc.h ****   \details Wait For Event is a hint instruction that permits the processor to enter
 714:C:/Users/VMORAIS/Documents/DAVE_WS/1p_inverter_200V/Libraries/CMSIS/Include\cmsis_gcc.h ****            a low-power state until one of a number of events occurs.
 715:C:/Users/VMORAIS/Documents/DAVE_WS/1p_inverter_200V/Libraries/CMSIS/Include\cmsis_gcc.h ****  */
 716:C:/Users/VMORAIS/Documents/DAVE_WS/1p_inverter_200V/Libraries/CMSIS/Include\cmsis_gcc.h **** //__attribute__((always_inline)) __STATIC_INLINE void __WFE(void)
 717:C:/Users/VMORAIS/Documents/DAVE_WS/1p_inverter_200V/Libraries/CMSIS/Include\cmsis_gcc.h **** //{
 718:C:/Users/VMORAIS/Documents/DAVE_WS/1p_inverter_200V/Libraries/CMSIS/Include\cmsis_gcc.h **** //  __ASM volatile ("wfe");
 719:C:/Users/VMORAIS/Documents/DAVE_WS/1p_inverter_200V/Libraries/CMSIS/Include\cmsis_gcc.h **** //}
 720:C:/Users/VMORAIS/Documents/DAVE_WS/1p_inverter_200V/Libraries/CMSIS/Include\cmsis_gcc.h **** #define __WFE()                             __ASM volatile ("wfe")       /* This implementation gen
 721:C:/Users/VMORAIS/Documents/DAVE_WS/1p_inverter_200V/Libraries/CMSIS/Include\cmsis_gcc.h **** 
 722:C:/Users/VMORAIS/Documents/DAVE_WS/1p_inverter_200V/Libraries/CMSIS/Include\cmsis_gcc.h **** 
 723:C:/Users/VMORAIS/Documents/DAVE_WS/1p_inverter_200V/Libraries/CMSIS/Include\cmsis_gcc.h **** /**
 724:C:/Users/VMORAIS/Documents/DAVE_WS/1p_inverter_200V/Libraries/CMSIS/Include\cmsis_gcc.h ****   \brief   Send Event
 725:C:/Users/VMORAIS/Documents/DAVE_WS/1p_inverter_200V/Libraries/CMSIS/Include\cmsis_gcc.h ****   \details Send Event is a hint instruction. It causes an event to be signaled to the CPU.
 726:C:/Users/VMORAIS/Documents/DAVE_WS/1p_inverter_200V/Libraries/CMSIS/Include\cmsis_gcc.h ****  */
 727:C:/Users/VMORAIS/Documents/DAVE_WS/1p_inverter_200V/Libraries/CMSIS/Include\cmsis_gcc.h **** //__attribute__((always_inline)) __STATIC_INLINE void __SEV(void)
 728:C:/Users/VMORAIS/Documents/DAVE_WS/1p_inverter_200V/Libraries/CMSIS/Include\cmsis_gcc.h **** //{
 729:C:/Users/VMORAIS/Documents/DAVE_WS/1p_inverter_200V/Libraries/CMSIS/Include\cmsis_gcc.h **** //  __ASM volatile ("sev");
 730:C:/Users/VMORAIS/Documents/DAVE_WS/1p_inverter_200V/Libraries/CMSIS/Include\cmsis_gcc.h **** //}
 731:C:/Users/VMORAIS/Documents/DAVE_WS/1p_inverter_200V/Libraries/CMSIS/Include\cmsis_gcc.h **** #define __SEV()                             __ASM volatile ("sev")       /* This implementation gen
 732:C:/Users/VMORAIS/Documents/DAVE_WS/1p_inverter_200V/Libraries/CMSIS/Include\cmsis_gcc.h **** 
 733:C:/Users/VMORAIS/Documents/DAVE_WS/1p_inverter_200V/Libraries/CMSIS/Include\cmsis_gcc.h **** 
 734:C:/Users/VMORAIS/Documents/DAVE_WS/1p_inverter_200V/Libraries/CMSIS/Include\cmsis_gcc.h **** /**
 735:C:/Users/VMORAIS/Documents/DAVE_WS/1p_inverter_200V/Libraries/CMSIS/Include\cmsis_gcc.h ****   \brief   Instruction Synchronization Barrier
 736:C:/Users/VMORAIS/Documents/DAVE_WS/1p_inverter_200V/Libraries/CMSIS/Include\cmsis_gcc.h ****   \details Instruction Synchronization Barrier flushes the pipeline in the processor,
 737:C:/Users/VMORAIS/Documents/DAVE_WS/1p_inverter_200V/Libraries/CMSIS/Include\cmsis_gcc.h ****            so that all instructions following the ISB are fetched from cache or memory,
 738:C:/Users/VMORAIS/Documents/DAVE_WS/1p_inverter_200V/Libraries/CMSIS/Include\cmsis_gcc.h ****            after the instruction has been completed.
 739:C:/Users/VMORAIS/Documents/DAVE_WS/1p_inverter_200V/Libraries/CMSIS/Include\cmsis_gcc.h ****  */
 740:C:/Users/VMORAIS/Documents/DAVE_WS/1p_inverter_200V/Libraries/CMSIS/Include\cmsis_gcc.h **** __attribute__((always_inline)) __STATIC_INLINE void __ISB(void)
 741:C:/Users/VMORAIS/Documents/DAVE_WS/1p_inverter_200V/Libraries/CMSIS/Include\cmsis_gcc.h **** {
 742:C:/Users/VMORAIS/Documents/DAVE_WS/1p_inverter_200V/Libraries/CMSIS/Include\cmsis_gcc.h ****   __ASM volatile ("isb 0xF":::"memory");
 743:C:/Users/VMORAIS/Documents/DAVE_WS/1p_inverter_200V/Libraries/CMSIS/Include\cmsis_gcc.h **** }
 744:C:/Users/VMORAIS/Documents/DAVE_WS/1p_inverter_200V/Libraries/CMSIS/Include\cmsis_gcc.h **** 
 745:C:/Users/VMORAIS/Documents/DAVE_WS/1p_inverter_200V/Libraries/CMSIS/Include\cmsis_gcc.h **** 
 746:C:/Users/VMORAIS/Documents/DAVE_WS/1p_inverter_200V/Libraries/CMSIS/Include\cmsis_gcc.h **** /**
 747:C:/Users/VMORAIS/Documents/DAVE_WS/1p_inverter_200V/Libraries/CMSIS/Include\cmsis_gcc.h ****   \brief   Data Synchronization Barrier
 748:C:/Users/VMORAIS/Documents/DAVE_WS/1p_inverter_200V/Libraries/CMSIS/Include\cmsis_gcc.h ****   \details Acts as a special kind of Data Memory Barrier.
 749:C:/Users/VMORAIS/Documents/DAVE_WS/1p_inverter_200V/Libraries/CMSIS/Include\cmsis_gcc.h ****            It completes when all explicit memory accesses before this instruction complete.
 750:C:/Users/VMORAIS/Documents/DAVE_WS/1p_inverter_200V/Libraries/CMSIS/Include\cmsis_gcc.h ****  */
 751:C:/Users/VMORAIS/Documents/DAVE_WS/1p_inverter_200V/Libraries/CMSIS/Include\cmsis_gcc.h **** __attribute__((always_inline)) __STATIC_INLINE void __DSB(void)
 752:C:/Users/VMORAIS/Documents/DAVE_WS/1p_inverter_200V/Libraries/CMSIS/Include\cmsis_gcc.h **** {
 753:C:/Users/VMORAIS/Documents/DAVE_WS/1p_inverter_200V/Libraries/CMSIS/Include\cmsis_gcc.h ****   __ASM volatile ("dsb 0xF":::"memory");
 754:C:/Users/VMORAIS/Documents/DAVE_WS/1p_inverter_200V/Libraries/CMSIS/Include\cmsis_gcc.h **** }
 755:C:/Users/VMORAIS/Documents/DAVE_WS/1p_inverter_200V/Libraries/CMSIS/Include\cmsis_gcc.h **** 
 756:C:/Users/VMORAIS/Documents/DAVE_WS/1p_inverter_200V/Libraries/CMSIS/Include\cmsis_gcc.h **** 
 757:C:/Users/VMORAIS/Documents/DAVE_WS/1p_inverter_200V/Libraries/CMSIS/Include\cmsis_gcc.h **** /**
 758:C:/Users/VMORAIS/Documents/DAVE_WS/1p_inverter_200V/Libraries/CMSIS/Include\cmsis_gcc.h ****   \brief   Data Memory Barrier
 759:C:/Users/VMORAIS/Documents/DAVE_WS/1p_inverter_200V/Libraries/CMSIS/Include\cmsis_gcc.h ****   \details Ensures the apparent order of the explicit memory operations before
 760:C:/Users/VMORAIS/Documents/DAVE_WS/1p_inverter_200V/Libraries/CMSIS/Include\cmsis_gcc.h ****            and after the instruction, without ensuring their completion.
 761:C:/Users/VMORAIS/Documents/DAVE_WS/1p_inverter_200V/Libraries/CMSIS/Include\cmsis_gcc.h ****  */
 762:C:/Users/VMORAIS/Documents/DAVE_WS/1p_inverter_200V/Libraries/CMSIS/Include\cmsis_gcc.h **** __attribute__((always_inline)) __STATIC_INLINE void __DMB(void)
 763:C:/Users/VMORAIS/Documents/DAVE_WS/1p_inverter_200V/Libraries/CMSIS/Include\cmsis_gcc.h **** {
 764:C:/Users/VMORAIS/Documents/DAVE_WS/1p_inverter_200V/Libraries/CMSIS/Include\cmsis_gcc.h ****   __ASM volatile ("dmb 0xF":::"memory");
 765:C:/Users/VMORAIS/Documents/DAVE_WS/1p_inverter_200V/Libraries/CMSIS/Include\cmsis_gcc.h **** }
 766:C:/Users/VMORAIS/Documents/DAVE_WS/1p_inverter_200V/Libraries/CMSIS/Include\cmsis_gcc.h **** 
 767:C:/Users/VMORAIS/Documents/DAVE_WS/1p_inverter_200V/Libraries/CMSIS/Include\cmsis_gcc.h **** 
 768:C:/Users/VMORAIS/Documents/DAVE_WS/1p_inverter_200V/Libraries/CMSIS/Include\cmsis_gcc.h **** /**
 769:C:/Users/VMORAIS/Documents/DAVE_WS/1p_inverter_200V/Libraries/CMSIS/Include\cmsis_gcc.h ****   \brief   Reverse byte order (32 bit)
 770:C:/Users/VMORAIS/Documents/DAVE_WS/1p_inverter_200V/Libraries/CMSIS/Include\cmsis_gcc.h ****   \details Reverses the byte order in integer value.
 771:C:/Users/VMORAIS/Documents/DAVE_WS/1p_inverter_200V/Libraries/CMSIS/Include\cmsis_gcc.h ****   \param [in]    value  Value to reverse
 772:C:/Users/VMORAIS/Documents/DAVE_WS/1p_inverter_200V/Libraries/CMSIS/Include\cmsis_gcc.h ****   \return               Reversed value
 773:C:/Users/VMORAIS/Documents/DAVE_WS/1p_inverter_200V/Libraries/CMSIS/Include\cmsis_gcc.h ****  */
 774:C:/Users/VMORAIS/Documents/DAVE_WS/1p_inverter_200V/Libraries/CMSIS/Include\cmsis_gcc.h **** __attribute__((always_inline)) __STATIC_INLINE uint32_t __REV(uint32_t value)
 775:C:/Users/VMORAIS/Documents/DAVE_WS/1p_inverter_200V/Libraries/CMSIS/Include\cmsis_gcc.h **** {
 776:C:/Users/VMORAIS/Documents/DAVE_WS/1p_inverter_200V/Libraries/CMSIS/Include\cmsis_gcc.h **** #if (__GNUC__ > 4) || (__GNUC__ == 4 && __GNUC_MINOR__ >= 5)
 777:C:/Users/VMORAIS/Documents/DAVE_WS/1p_inverter_200V/Libraries/CMSIS/Include\cmsis_gcc.h ****   return __builtin_bswap32(value);
 778:C:/Users/VMORAIS/Documents/DAVE_WS/1p_inverter_200V/Libraries/CMSIS/Include\cmsis_gcc.h **** #else
 779:C:/Users/VMORAIS/Documents/DAVE_WS/1p_inverter_200V/Libraries/CMSIS/Include\cmsis_gcc.h ****   uint32_t result;
 780:C:/Users/VMORAIS/Documents/DAVE_WS/1p_inverter_200V/Libraries/CMSIS/Include\cmsis_gcc.h **** 
 781:C:/Users/VMORAIS/Documents/DAVE_WS/1p_inverter_200V/Libraries/CMSIS/Include\cmsis_gcc.h ****   __ASM volatile ("rev %0, %1" : __CMSIS_GCC_OUT_REG (result) : __CMSIS_GCC_USE_REG (value) );
 782:C:/Users/VMORAIS/Documents/DAVE_WS/1p_inverter_200V/Libraries/CMSIS/Include\cmsis_gcc.h ****   return(result);
 783:C:/Users/VMORAIS/Documents/DAVE_WS/1p_inverter_200V/Libraries/CMSIS/Include\cmsis_gcc.h **** #endif
 784:C:/Users/VMORAIS/Documents/DAVE_WS/1p_inverter_200V/Libraries/CMSIS/Include\cmsis_gcc.h **** }
 785:C:/Users/VMORAIS/Documents/DAVE_WS/1p_inverter_200V/Libraries/CMSIS/Include\cmsis_gcc.h **** 
 786:C:/Users/VMORAIS/Documents/DAVE_WS/1p_inverter_200V/Libraries/CMSIS/Include\cmsis_gcc.h **** 
 787:C:/Users/VMORAIS/Documents/DAVE_WS/1p_inverter_200V/Libraries/CMSIS/Include\cmsis_gcc.h **** /**
 788:C:/Users/VMORAIS/Documents/DAVE_WS/1p_inverter_200V/Libraries/CMSIS/Include\cmsis_gcc.h ****   \brief   Reverse byte order (16 bit)
 789:C:/Users/VMORAIS/Documents/DAVE_WS/1p_inverter_200V/Libraries/CMSIS/Include\cmsis_gcc.h ****   \details Reverses the byte order in two unsigned short values.
 790:C:/Users/VMORAIS/Documents/DAVE_WS/1p_inverter_200V/Libraries/CMSIS/Include\cmsis_gcc.h ****   \param [in]    value  Value to reverse
 791:C:/Users/VMORAIS/Documents/DAVE_WS/1p_inverter_200V/Libraries/CMSIS/Include\cmsis_gcc.h ****   \return               Reversed value
 792:C:/Users/VMORAIS/Documents/DAVE_WS/1p_inverter_200V/Libraries/CMSIS/Include\cmsis_gcc.h ****  */
 793:C:/Users/VMORAIS/Documents/DAVE_WS/1p_inverter_200V/Libraries/CMSIS/Include\cmsis_gcc.h **** __attribute__((always_inline)) __STATIC_INLINE uint32_t __REV16(uint32_t value)
 794:C:/Users/VMORAIS/Documents/DAVE_WS/1p_inverter_200V/Libraries/CMSIS/Include\cmsis_gcc.h **** {
 795:C:/Users/VMORAIS/Documents/DAVE_WS/1p_inverter_200V/Libraries/CMSIS/Include\cmsis_gcc.h ****   uint32_t result;
 796:C:/Users/VMORAIS/Documents/DAVE_WS/1p_inverter_200V/Libraries/CMSIS/Include\cmsis_gcc.h **** 
 797:C:/Users/VMORAIS/Documents/DAVE_WS/1p_inverter_200V/Libraries/CMSIS/Include\cmsis_gcc.h ****   __ASM volatile ("rev16 %0, %1" : __CMSIS_GCC_OUT_REG (result) : __CMSIS_GCC_USE_REG (value) );
 798:C:/Users/VMORAIS/Documents/DAVE_WS/1p_inverter_200V/Libraries/CMSIS/Include\cmsis_gcc.h ****   return(result);
 799:C:/Users/VMORAIS/Documents/DAVE_WS/1p_inverter_200V/Libraries/CMSIS/Include\cmsis_gcc.h **** }
 800:C:/Users/VMORAIS/Documents/DAVE_WS/1p_inverter_200V/Libraries/CMSIS/Include\cmsis_gcc.h **** 
 801:C:/Users/VMORAIS/Documents/DAVE_WS/1p_inverter_200V/Libraries/CMSIS/Include\cmsis_gcc.h **** 
 802:C:/Users/VMORAIS/Documents/DAVE_WS/1p_inverter_200V/Libraries/CMSIS/Include\cmsis_gcc.h **** /**
 803:C:/Users/VMORAIS/Documents/DAVE_WS/1p_inverter_200V/Libraries/CMSIS/Include\cmsis_gcc.h ****   \brief   Reverse byte order in signed short value
 804:C:/Users/VMORAIS/Documents/DAVE_WS/1p_inverter_200V/Libraries/CMSIS/Include\cmsis_gcc.h ****   \details Reverses the byte order in a signed short value with sign extension to integer.
 805:C:/Users/VMORAIS/Documents/DAVE_WS/1p_inverter_200V/Libraries/CMSIS/Include\cmsis_gcc.h ****   \param [in]    value  Value to reverse
 806:C:/Users/VMORAIS/Documents/DAVE_WS/1p_inverter_200V/Libraries/CMSIS/Include\cmsis_gcc.h ****   \return               Reversed value
 807:C:/Users/VMORAIS/Documents/DAVE_WS/1p_inverter_200V/Libraries/CMSIS/Include\cmsis_gcc.h ****  */
 808:C:/Users/VMORAIS/Documents/DAVE_WS/1p_inverter_200V/Libraries/CMSIS/Include\cmsis_gcc.h **** __attribute__((always_inline)) __STATIC_INLINE int32_t __REVSH(int32_t value)
 809:C:/Users/VMORAIS/Documents/DAVE_WS/1p_inverter_200V/Libraries/CMSIS/Include\cmsis_gcc.h **** {
 810:C:/Users/VMORAIS/Documents/DAVE_WS/1p_inverter_200V/Libraries/CMSIS/Include\cmsis_gcc.h **** #if (__GNUC__ > 4) || (__GNUC__ == 4 && __GNUC_MINOR__ >= 8)
 811:C:/Users/VMORAIS/Documents/DAVE_WS/1p_inverter_200V/Libraries/CMSIS/Include\cmsis_gcc.h ****   return (short)__builtin_bswap16(value);
 812:C:/Users/VMORAIS/Documents/DAVE_WS/1p_inverter_200V/Libraries/CMSIS/Include\cmsis_gcc.h **** #else
 813:C:/Users/VMORAIS/Documents/DAVE_WS/1p_inverter_200V/Libraries/CMSIS/Include\cmsis_gcc.h ****   int32_t result;
 814:C:/Users/VMORAIS/Documents/DAVE_WS/1p_inverter_200V/Libraries/CMSIS/Include\cmsis_gcc.h **** 
 815:C:/Users/VMORAIS/Documents/DAVE_WS/1p_inverter_200V/Libraries/CMSIS/Include\cmsis_gcc.h ****   __ASM volatile ("revsh %0, %1" : __CMSIS_GCC_OUT_REG (result) : __CMSIS_GCC_USE_REG (value) );
 816:C:/Users/VMORAIS/Documents/DAVE_WS/1p_inverter_200V/Libraries/CMSIS/Include\cmsis_gcc.h ****   return(result);
 817:C:/Users/VMORAIS/Documents/DAVE_WS/1p_inverter_200V/Libraries/CMSIS/Include\cmsis_gcc.h **** #endif
 818:C:/Users/VMORAIS/Documents/DAVE_WS/1p_inverter_200V/Libraries/CMSIS/Include\cmsis_gcc.h **** }
 819:C:/Users/VMORAIS/Documents/DAVE_WS/1p_inverter_200V/Libraries/CMSIS/Include\cmsis_gcc.h **** 
 820:C:/Users/VMORAIS/Documents/DAVE_WS/1p_inverter_200V/Libraries/CMSIS/Include\cmsis_gcc.h **** 
 821:C:/Users/VMORAIS/Documents/DAVE_WS/1p_inverter_200V/Libraries/CMSIS/Include\cmsis_gcc.h **** /**
 822:C:/Users/VMORAIS/Documents/DAVE_WS/1p_inverter_200V/Libraries/CMSIS/Include\cmsis_gcc.h ****   \brief   Rotate Right in unsigned value (32 bit)
 823:C:/Users/VMORAIS/Documents/DAVE_WS/1p_inverter_200V/Libraries/CMSIS/Include\cmsis_gcc.h ****   \details Rotate Right (immediate) provides the value of the contents of a register rotated by a v
 824:C:/Users/VMORAIS/Documents/DAVE_WS/1p_inverter_200V/Libraries/CMSIS/Include\cmsis_gcc.h ****   \param [in]    op1  Value to rotate
 825:C:/Users/VMORAIS/Documents/DAVE_WS/1p_inverter_200V/Libraries/CMSIS/Include\cmsis_gcc.h ****   \param [in]    op2  Number of Bits to rotate
 826:C:/Users/VMORAIS/Documents/DAVE_WS/1p_inverter_200V/Libraries/CMSIS/Include\cmsis_gcc.h ****   \return               Rotated value
 827:C:/Users/VMORAIS/Documents/DAVE_WS/1p_inverter_200V/Libraries/CMSIS/Include\cmsis_gcc.h ****  */
 828:C:/Users/VMORAIS/Documents/DAVE_WS/1p_inverter_200V/Libraries/CMSIS/Include\cmsis_gcc.h **** __attribute__((always_inline)) __STATIC_INLINE uint32_t __ROR(uint32_t op1, uint32_t op2)
 829:C:/Users/VMORAIS/Documents/DAVE_WS/1p_inverter_200V/Libraries/CMSIS/Include\cmsis_gcc.h **** {
 830:C:/Users/VMORAIS/Documents/DAVE_WS/1p_inverter_200V/Libraries/CMSIS/Include\cmsis_gcc.h ****   return (op1 >> op2) | (op1 << (32U - op2));
 831:C:/Users/VMORAIS/Documents/DAVE_WS/1p_inverter_200V/Libraries/CMSIS/Include\cmsis_gcc.h **** }
 832:C:/Users/VMORAIS/Documents/DAVE_WS/1p_inverter_200V/Libraries/CMSIS/Include\cmsis_gcc.h **** 
 833:C:/Users/VMORAIS/Documents/DAVE_WS/1p_inverter_200V/Libraries/CMSIS/Include\cmsis_gcc.h **** 
 834:C:/Users/VMORAIS/Documents/DAVE_WS/1p_inverter_200V/Libraries/CMSIS/Include\cmsis_gcc.h **** /**
 835:C:/Users/VMORAIS/Documents/DAVE_WS/1p_inverter_200V/Libraries/CMSIS/Include\cmsis_gcc.h ****   \brief   Breakpoint
 836:C:/Users/VMORAIS/Documents/DAVE_WS/1p_inverter_200V/Libraries/CMSIS/Include\cmsis_gcc.h ****   \details Causes the processor to enter Debug state.
 837:C:/Users/VMORAIS/Documents/DAVE_WS/1p_inverter_200V/Libraries/CMSIS/Include\cmsis_gcc.h ****            Debug tools can use this to investigate system state when the instruction at a particula
 838:C:/Users/VMORAIS/Documents/DAVE_WS/1p_inverter_200V/Libraries/CMSIS/Include\cmsis_gcc.h ****   \param [in]    value  is ignored by the processor.
 839:C:/Users/VMORAIS/Documents/DAVE_WS/1p_inverter_200V/Libraries/CMSIS/Include\cmsis_gcc.h ****                  If required, a debugger can use it to store additional information about the break
 840:C:/Users/VMORAIS/Documents/DAVE_WS/1p_inverter_200V/Libraries/CMSIS/Include\cmsis_gcc.h ****  */
 841:C:/Users/VMORAIS/Documents/DAVE_WS/1p_inverter_200V/Libraries/CMSIS/Include\cmsis_gcc.h **** #define __BKPT(value)                       __ASM volatile ("bkpt "#value)
 842:C:/Users/VMORAIS/Documents/DAVE_WS/1p_inverter_200V/Libraries/CMSIS/Include\cmsis_gcc.h **** 
 843:C:/Users/VMORAIS/Documents/DAVE_WS/1p_inverter_200V/Libraries/CMSIS/Include\cmsis_gcc.h **** 
 844:C:/Users/VMORAIS/Documents/DAVE_WS/1p_inverter_200V/Libraries/CMSIS/Include\cmsis_gcc.h **** /**
 845:C:/Users/VMORAIS/Documents/DAVE_WS/1p_inverter_200V/Libraries/CMSIS/Include\cmsis_gcc.h ****   \brief   Reverse bit order of value
 846:C:/Users/VMORAIS/Documents/DAVE_WS/1p_inverter_200V/Libraries/CMSIS/Include\cmsis_gcc.h ****   \details Reverses the bit order of the given value.
 847:C:/Users/VMORAIS/Documents/DAVE_WS/1p_inverter_200V/Libraries/CMSIS/Include\cmsis_gcc.h ****   \param [in]    value  Value to reverse
 848:C:/Users/VMORAIS/Documents/DAVE_WS/1p_inverter_200V/Libraries/CMSIS/Include\cmsis_gcc.h ****   \return               Reversed value
 849:C:/Users/VMORAIS/Documents/DAVE_WS/1p_inverter_200V/Libraries/CMSIS/Include\cmsis_gcc.h ****  */
 850:C:/Users/VMORAIS/Documents/DAVE_WS/1p_inverter_200V/Libraries/CMSIS/Include\cmsis_gcc.h **** __attribute__((always_inline)) __STATIC_INLINE uint32_t __RBIT(uint32_t value)
 851:C:/Users/VMORAIS/Documents/DAVE_WS/1p_inverter_200V/Libraries/CMSIS/Include\cmsis_gcc.h **** {
 852:C:/Users/VMORAIS/Documents/DAVE_WS/1p_inverter_200V/Libraries/CMSIS/Include\cmsis_gcc.h ****   uint32_t result;
 853:C:/Users/VMORAIS/Documents/DAVE_WS/1p_inverter_200V/Libraries/CMSIS/Include\cmsis_gcc.h **** 
 854:C:/Users/VMORAIS/Documents/DAVE_WS/1p_inverter_200V/Libraries/CMSIS/Include\cmsis_gcc.h **** #if ((defined (__ARM_ARCH_7M__      ) && (__ARM_ARCH_7M__      == 1)) || \
 855:C:/Users/VMORAIS/Documents/DAVE_WS/1p_inverter_200V/Libraries/CMSIS/Include\cmsis_gcc.h ****      (defined (__ARM_ARCH_7EM__     ) && (__ARM_ARCH_7EM__     == 1)) || \
 856:C:/Users/VMORAIS/Documents/DAVE_WS/1p_inverter_200V/Libraries/CMSIS/Include\cmsis_gcc.h ****      (defined (__ARM_ARCH_8M_MAIN__ ) && (__ARM_ARCH_8M_MAIN__ == 1))    )
 857:C:/Users/VMORAIS/Documents/DAVE_WS/1p_inverter_200V/Libraries/CMSIS/Include\cmsis_gcc.h ****    __ASM volatile ("rbit %0, %1" : "=r" (result) : "r" (value) );
 858:C:/Users/VMORAIS/Documents/DAVE_WS/1p_inverter_200V/Libraries/CMSIS/Include\cmsis_gcc.h **** #else
 859:C:/Users/VMORAIS/Documents/DAVE_WS/1p_inverter_200V/Libraries/CMSIS/Include\cmsis_gcc.h ****   int32_t s = (4 /*sizeof(v)*/ * 8) - 1; /* extra shift needed at end */
 860:C:/Users/VMORAIS/Documents/DAVE_WS/1p_inverter_200V/Libraries/CMSIS/Include\cmsis_gcc.h **** 
 861:C:/Users/VMORAIS/Documents/DAVE_WS/1p_inverter_200V/Libraries/CMSIS/Include\cmsis_gcc.h ****   result = value;                      /* r will be reversed bits of v; first get LSB of v */
 862:C:/Users/VMORAIS/Documents/DAVE_WS/1p_inverter_200V/Libraries/CMSIS/Include\cmsis_gcc.h ****   for (value >>= 1U; value; value >>= 1U)
 863:C:/Users/VMORAIS/Documents/DAVE_WS/1p_inverter_200V/Libraries/CMSIS/Include\cmsis_gcc.h ****   {
 864:C:/Users/VMORAIS/Documents/DAVE_WS/1p_inverter_200V/Libraries/CMSIS/Include\cmsis_gcc.h ****     result <<= 1U;
 865:C:/Users/VMORAIS/Documents/DAVE_WS/1p_inverter_200V/Libraries/CMSIS/Include\cmsis_gcc.h ****     result |= value & 1U;
 866:C:/Users/VMORAIS/Documents/DAVE_WS/1p_inverter_200V/Libraries/CMSIS/Include\cmsis_gcc.h ****     s--;
 867:C:/Users/VMORAIS/Documents/DAVE_WS/1p_inverter_200V/Libraries/CMSIS/Include\cmsis_gcc.h ****   }
 868:C:/Users/VMORAIS/Documents/DAVE_WS/1p_inverter_200V/Libraries/CMSIS/Include\cmsis_gcc.h ****   result <<= s;                        /* shift when v's highest bits are zero */
 869:C:/Users/VMORAIS/Documents/DAVE_WS/1p_inverter_200V/Libraries/CMSIS/Include\cmsis_gcc.h **** #endif
 870:C:/Users/VMORAIS/Documents/DAVE_WS/1p_inverter_200V/Libraries/CMSIS/Include\cmsis_gcc.h ****   return(result);
 871:C:/Users/VMORAIS/Documents/DAVE_WS/1p_inverter_200V/Libraries/CMSIS/Include\cmsis_gcc.h **** }
 872:C:/Users/VMORAIS/Documents/DAVE_WS/1p_inverter_200V/Libraries/CMSIS/Include\cmsis_gcc.h **** 
 873:C:/Users/VMORAIS/Documents/DAVE_WS/1p_inverter_200V/Libraries/CMSIS/Include\cmsis_gcc.h **** 
 874:C:/Users/VMORAIS/Documents/DAVE_WS/1p_inverter_200V/Libraries/CMSIS/Include\cmsis_gcc.h **** /**
 875:C:/Users/VMORAIS/Documents/DAVE_WS/1p_inverter_200V/Libraries/CMSIS/Include\cmsis_gcc.h ****   \brief   Count leading zeros
 876:C:/Users/VMORAIS/Documents/DAVE_WS/1p_inverter_200V/Libraries/CMSIS/Include\cmsis_gcc.h ****   \details Counts the number of leading zeros of a data value.
 877:C:/Users/VMORAIS/Documents/DAVE_WS/1p_inverter_200V/Libraries/CMSIS/Include\cmsis_gcc.h ****   \param [in]  value  Value to count the leading zeros
 878:C:/Users/VMORAIS/Documents/DAVE_WS/1p_inverter_200V/Libraries/CMSIS/Include\cmsis_gcc.h ****   \return             number of leading zeros in value
 879:C:/Users/VMORAIS/Documents/DAVE_WS/1p_inverter_200V/Libraries/CMSIS/Include\cmsis_gcc.h ****  */
 880:C:/Users/VMORAIS/Documents/DAVE_WS/1p_inverter_200V/Libraries/CMSIS/Include\cmsis_gcc.h **** #define __CLZ             __builtin_clz
 881:C:/Users/VMORAIS/Documents/DAVE_WS/1p_inverter_200V/Libraries/CMSIS/Include\cmsis_gcc.h **** 
 882:C:/Users/VMORAIS/Documents/DAVE_WS/1p_inverter_200V/Libraries/CMSIS/Include\cmsis_gcc.h **** 
 883:C:/Users/VMORAIS/Documents/DAVE_WS/1p_inverter_200V/Libraries/CMSIS/Include\cmsis_gcc.h **** #if ((defined (__ARM_ARCH_7M__      ) && (__ARM_ARCH_7M__      == 1)) || \
 884:C:/Users/VMORAIS/Documents/DAVE_WS/1p_inverter_200V/Libraries/CMSIS/Include\cmsis_gcc.h ****      (defined (__ARM_ARCH_7EM__     ) && (__ARM_ARCH_7EM__     == 1)) || \
 885:C:/Users/VMORAIS/Documents/DAVE_WS/1p_inverter_200V/Libraries/CMSIS/Include\cmsis_gcc.h ****      (defined (__ARM_ARCH_8M_MAIN__ ) && (__ARM_ARCH_8M_MAIN__ == 1)) || \
 886:C:/Users/VMORAIS/Documents/DAVE_WS/1p_inverter_200V/Libraries/CMSIS/Include\cmsis_gcc.h ****      (defined (__ARM_ARCH_8M_BASE__ ) && (__ARM_ARCH_8M_BASE__ == 1))    )
 887:C:/Users/VMORAIS/Documents/DAVE_WS/1p_inverter_200V/Libraries/CMSIS/Include\cmsis_gcc.h **** /**
 888:C:/Users/VMORAIS/Documents/DAVE_WS/1p_inverter_200V/Libraries/CMSIS/Include\cmsis_gcc.h ****   \brief   LDR Exclusive (8 bit)
 889:C:/Users/VMORAIS/Documents/DAVE_WS/1p_inverter_200V/Libraries/CMSIS/Include\cmsis_gcc.h ****   \details Executes a exclusive LDR instruction for 8 bit value.
 890:C:/Users/VMORAIS/Documents/DAVE_WS/1p_inverter_200V/Libraries/CMSIS/Include\cmsis_gcc.h ****   \param [in]    ptr  Pointer to data
 891:C:/Users/VMORAIS/Documents/DAVE_WS/1p_inverter_200V/Libraries/CMSIS/Include\cmsis_gcc.h ****   \return             value of type uint8_t at (*ptr)
 892:C:/Users/VMORAIS/Documents/DAVE_WS/1p_inverter_200V/Libraries/CMSIS/Include\cmsis_gcc.h ****  */
 893:C:/Users/VMORAIS/Documents/DAVE_WS/1p_inverter_200V/Libraries/CMSIS/Include\cmsis_gcc.h **** __attribute__((always_inline)) __STATIC_INLINE uint8_t __LDREXB(volatile uint8_t *addr)
 894:C:/Users/VMORAIS/Documents/DAVE_WS/1p_inverter_200V/Libraries/CMSIS/Include\cmsis_gcc.h **** {
 895:C:/Users/VMORAIS/Documents/DAVE_WS/1p_inverter_200V/Libraries/CMSIS/Include\cmsis_gcc.h ****     uint32_t result;
 896:C:/Users/VMORAIS/Documents/DAVE_WS/1p_inverter_200V/Libraries/CMSIS/Include\cmsis_gcc.h **** 
 897:C:/Users/VMORAIS/Documents/DAVE_WS/1p_inverter_200V/Libraries/CMSIS/Include\cmsis_gcc.h **** #if (__GNUC__ > 4) || (__GNUC__ == 4 && __GNUC_MINOR__ >= 8)
 898:C:/Users/VMORAIS/Documents/DAVE_WS/1p_inverter_200V/Libraries/CMSIS/Include\cmsis_gcc.h ****    __ASM volatile ("ldrexb %0, %1" : "=r" (result) : "Q" (*addr) );
 899:C:/Users/VMORAIS/Documents/DAVE_WS/1p_inverter_200V/Libraries/CMSIS/Include\cmsis_gcc.h **** #else
 900:C:/Users/VMORAIS/Documents/DAVE_WS/1p_inverter_200V/Libraries/CMSIS/Include\cmsis_gcc.h ****     /* Prior to GCC 4.8, "Q" will be expanded to [rx, #0] which is not
 901:C:/Users/VMORAIS/Documents/DAVE_WS/1p_inverter_200V/Libraries/CMSIS/Include\cmsis_gcc.h ****        accepted by assembler. So has to use following less efficient pattern.
 902:C:/Users/VMORAIS/Documents/DAVE_WS/1p_inverter_200V/Libraries/CMSIS/Include\cmsis_gcc.h ****     */
 903:C:/Users/VMORAIS/Documents/DAVE_WS/1p_inverter_200V/Libraries/CMSIS/Include\cmsis_gcc.h ****    __ASM volatile ("ldrexb %0, [%1]" : "=r" (result) : "r" (addr) : "memory" );
 904:C:/Users/VMORAIS/Documents/DAVE_WS/1p_inverter_200V/Libraries/CMSIS/Include\cmsis_gcc.h **** #endif
 905:C:/Users/VMORAIS/Documents/DAVE_WS/1p_inverter_200V/Libraries/CMSIS/Include\cmsis_gcc.h ****    return ((uint8_t) result);    /* Add explicit type cast here */
 906:C:/Users/VMORAIS/Documents/DAVE_WS/1p_inverter_200V/Libraries/CMSIS/Include\cmsis_gcc.h **** }
 907:C:/Users/VMORAIS/Documents/DAVE_WS/1p_inverter_200V/Libraries/CMSIS/Include\cmsis_gcc.h **** 
 908:C:/Users/VMORAIS/Documents/DAVE_WS/1p_inverter_200V/Libraries/CMSIS/Include\cmsis_gcc.h **** 
 909:C:/Users/VMORAIS/Documents/DAVE_WS/1p_inverter_200V/Libraries/CMSIS/Include\cmsis_gcc.h **** /**
 910:C:/Users/VMORAIS/Documents/DAVE_WS/1p_inverter_200V/Libraries/CMSIS/Include\cmsis_gcc.h ****   \brief   LDR Exclusive (16 bit)
 911:C:/Users/VMORAIS/Documents/DAVE_WS/1p_inverter_200V/Libraries/CMSIS/Include\cmsis_gcc.h ****   \details Executes a exclusive LDR instruction for 16 bit values.
 912:C:/Users/VMORAIS/Documents/DAVE_WS/1p_inverter_200V/Libraries/CMSIS/Include\cmsis_gcc.h ****   \param [in]    ptr  Pointer to data
 913:C:/Users/VMORAIS/Documents/DAVE_WS/1p_inverter_200V/Libraries/CMSIS/Include\cmsis_gcc.h ****   \return        value of type uint16_t at (*ptr)
 914:C:/Users/VMORAIS/Documents/DAVE_WS/1p_inverter_200V/Libraries/CMSIS/Include\cmsis_gcc.h ****  */
 915:C:/Users/VMORAIS/Documents/DAVE_WS/1p_inverter_200V/Libraries/CMSIS/Include\cmsis_gcc.h **** __attribute__((always_inline)) __STATIC_INLINE uint16_t __LDREXH(volatile uint16_t *addr)
 916:C:/Users/VMORAIS/Documents/DAVE_WS/1p_inverter_200V/Libraries/CMSIS/Include\cmsis_gcc.h **** {
 917:C:/Users/VMORAIS/Documents/DAVE_WS/1p_inverter_200V/Libraries/CMSIS/Include\cmsis_gcc.h ****     uint32_t result;
 918:C:/Users/VMORAIS/Documents/DAVE_WS/1p_inverter_200V/Libraries/CMSIS/Include\cmsis_gcc.h **** 
 919:C:/Users/VMORAIS/Documents/DAVE_WS/1p_inverter_200V/Libraries/CMSIS/Include\cmsis_gcc.h **** #if (__GNUC__ > 4) || (__GNUC__ == 4 && __GNUC_MINOR__ >= 8)
 920:C:/Users/VMORAIS/Documents/DAVE_WS/1p_inverter_200V/Libraries/CMSIS/Include\cmsis_gcc.h ****    __ASM volatile ("ldrexh %0, %1" : "=r" (result) : "Q" (*addr) );
 921:C:/Users/VMORAIS/Documents/DAVE_WS/1p_inverter_200V/Libraries/CMSIS/Include\cmsis_gcc.h **** #else
 922:C:/Users/VMORAIS/Documents/DAVE_WS/1p_inverter_200V/Libraries/CMSIS/Include\cmsis_gcc.h ****     /* Prior to GCC 4.8, "Q" will be expanded to [rx, #0] which is not
 923:C:/Users/VMORAIS/Documents/DAVE_WS/1p_inverter_200V/Libraries/CMSIS/Include\cmsis_gcc.h ****        accepted by assembler. So has to use following less efficient pattern.
 924:C:/Users/VMORAIS/Documents/DAVE_WS/1p_inverter_200V/Libraries/CMSIS/Include\cmsis_gcc.h ****     */
 925:C:/Users/VMORAIS/Documents/DAVE_WS/1p_inverter_200V/Libraries/CMSIS/Include\cmsis_gcc.h ****    __ASM volatile ("ldrexh %0, [%1]" : "=r" (result) : "r" (addr) : "memory" );
 926:C:/Users/VMORAIS/Documents/DAVE_WS/1p_inverter_200V/Libraries/CMSIS/Include\cmsis_gcc.h **** #endif
 927:C:/Users/VMORAIS/Documents/DAVE_WS/1p_inverter_200V/Libraries/CMSIS/Include\cmsis_gcc.h ****    return ((uint16_t) result);    /* Add explicit type cast here */
 928:C:/Users/VMORAIS/Documents/DAVE_WS/1p_inverter_200V/Libraries/CMSIS/Include\cmsis_gcc.h **** }
 929:C:/Users/VMORAIS/Documents/DAVE_WS/1p_inverter_200V/Libraries/CMSIS/Include\cmsis_gcc.h **** 
 930:C:/Users/VMORAIS/Documents/DAVE_WS/1p_inverter_200V/Libraries/CMSIS/Include\cmsis_gcc.h **** 
 931:C:/Users/VMORAIS/Documents/DAVE_WS/1p_inverter_200V/Libraries/CMSIS/Include\cmsis_gcc.h **** /**
 932:C:/Users/VMORAIS/Documents/DAVE_WS/1p_inverter_200V/Libraries/CMSIS/Include\cmsis_gcc.h ****   \brief   LDR Exclusive (32 bit)
 933:C:/Users/VMORAIS/Documents/DAVE_WS/1p_inverter_200V/Libraries/CMSIS/Include\cmsis_gcc.h ****   \details Executes a exclusive LDR instruction for 32 bit values.
 934:C:/Users/VMORAIS/Documents/DAVE_WS/1p_inverter_200V/Libraries/CMSIS/Include\cmsis_gcc.h ****   \param [in]    ptr  Pointer to data
 935:C:/Users/VMORAIS/Documents/DAVE_WS/1p_inverter_200V/Libraries/CMSIS/Include\cmsis_gcc.h ****   \return        value of type uint32_t at (*ptr)
 936:C:/Users/VMORAIS/Documents/DAVE_WS/1p_inverter_200V/Libraries/CMSIS/Include\cmsis_gcc.h ****  */
 937:C:/Users/VMORAIS/Documents/DAVE_WS/1p_inverter_200V/Libraries/CMSIS/Include\cmsis_gcc.h **** __attribute__((always_inline)) __STATIC_INLINE uint32_t __LDREXW(volatile uint32_t *addr)
 938:C:/Users/VMORAIS/Documents/DAVE_WS/1p_inverter_200V/Libraries/CMSIS/Include\cmsis_gcc.h **** {
 939:C:/Users/VMORAIS/Documents/DAVE_WS/1p_inverter_200V/Libraries/CMSIS/Include\cmsis_gcc.h ****     uint32_t result;
 940:C:/Users/VMORAIS/Documents/DAVE_WS/1p_inverter_200V/Libraries/CMSIS/Include\cmsis_gcc.h **** 
 941:C:/Users/VMORAIS/Documents/DAVE_WS/1p_inverter_200V/Libraries/CMSIS/Include\cmsis_gcc.h ****    __ASM volatile ("ldrex %0, %1" : "=r" (result) : "Q" (*addr) );
 942:C:/Users/VMORAIS/Documents/DAVE_WS/1p_inverter_200V/Libraries/CMSIS/Include\cmsis_gcc.h ****    return(result);
 943:C:/Users/VMORAIS/Documents/DAVE_WS/1p_inverter_200V/Libraries/CMSIS/Include\cmsis_gcc.h **** }
 944:C:/Users/VMORAIS/Documents/DAVE_WS/1p_inverter_200V/Libraries/CMSIS/Include\cmsis_gcc.h **** 
 945:C:/Users/VMORAIS/Documents/DAVE_WS/1p_inverter_200V/Libraries/CMSIS/Include\cmsis_gcc.h **** 
 946:C:/Users/VMORAIS/Documents/DAVE_WS/1p_inverter_200V/Libraries/CMSIS/Include\cmsis_gcc.h **** /**
 947:C:/Users/VMORAIS/Documents/DAVE_WS/1p_inverter_200V/Libraries/CMSIS/Include\cmsis_gcc.h ****   \brief   STR Exclusive (8 bit)
 948:C:/Users/VMORAIS/Documents/DAVE_WS/1p_inverter_200V/Libraries/CMSIS/Include\cmsis_gcc.h ****   \details Executes a exclusive STR instruction for 8 bit values.
 949:C:/Users/VMORAIS/Documents/DAVE_WS/1p_inverter_200V/Libraries/CMSIS/Include\cmsis_gcc.h ****   \param [in]  value  Value to store
 950:C:/Users/VMORAIS/Documents/DAVE_WS/1p_inverter_200V/Libraries/CMSIS/Include\cmsis_gcc.h ****   \param [in]    ptr  Pointer to location
 951:C:/Users/VMORAIS/Documents/DAVE_WS/1p_inverter_200V/Libraries/CMSIS/Include\cmsis_gcc.h ****   \return          0  Function succeeded
 952:C:/Users/VMORAIS/Documents/DAVE_WS/1p_inverter_200V/Libraries/CMSIS/Include\cmsis_gcc.h ****   \return          1  Function failed
 953:C:/Users/VMORAIS/Documents/DAVE_WS/1p_inverter_200V/Libraries/CMSIS/Include\cmsis_gcc.h ****  */
 954:C:/Users/VMORAIS/Documents/DAVE_WS/1p_inverter_200V/Libraries/CMSIS/Include\cmsis_gcc.h **** __attribute__((always_inline)) __STATIC_INLINE uint32_t __STREXB(uint8_t value, volatile uint8_t *a
 955:C:/Users/VMORAIS/Documents/DAVE_WS/1p_inverter_200V/Libraries/CMSIS/Include\cmsis_gcc.h **** {
 956:C:/Users/VMORAIS/Documents/DAVE_WS/1p_inverter_200V/Libraries/CMSIS/Include\cmsis_gcc.h ****    uint32_t result;
 957:C:/Users/VMORAIS/Documents/DAVE_WS/1p_inverter_200V/Libraries/CMSIS/Include\cmsis_gcc.h **** 
 958:C:/Users/VMORAIS/Documents/DAVE_WS/1p_inverter_200V/Libraries/CMSIS/Include\cmsis_gcc.h ****    __ASM volatile ("strexb %0, %2, %1" : "=&r" (result), "=Q" (*addr) : "r" ((uint32_t)value) );
 959:C:/Users/VMORAIS/Documents/DAVE_WS/1p_inverter_200V/Libraries/CMSIS/Include\cmsis_gcc.h ****    return(result);
 960:C:/Users/VMORAIS/Documents/DAVE_WS/1p_inverter_200V/Libraries/CMSIS/Include\cmsis_gcc.h **** }
 961:C:/Users/VMORAIS/Documents/DAVE_WS/1p_inverter_200V/Libraries/CMSIS/Include\cmsis_gcc.h **** 
 962:C:/Users/VMORAIS/Documents/DAVE_WS/1p_inverter_200V/Libraries/CMSIS/Include\cmsis_gcc.h **** 
 963:C:/Users/VMORAIS/Documents/DAVE_WS/1p_inverter_200V/Libraries/CMSIS/Include\cmsis_gcc.h **** /**
 964:C:/Users/VMORAIS/Documents/DAVE_WS/1p_inverter_200V/Libraries/CMSIS/Include\cmsis_gcc.h ****   \brief   STR Exclusive (16 bit)
 965:C:/Users/VMORAIS/Documents/DAVE_WS/1p_inverter_200V/Libraries/CMSIS/Include\cmsis_gcc.h ****   \details Executes a exclusive STR instruction for 16 bit values.
 966:C:/Users/VMORAIS/Documents/DAVE_WS/1p_inverter_200V/Libraries/CMSIS/Include\cmsis_gcc.h ****   \param [in]  value  Value to store
 967:C:/Users/VMORAIS/Documents/DAVE_WS/1p_inverter_200V/Libraries/CMSIS/Include\cmsis_gcc.h ****   \param [in]    ptr  Pointer to location
 968:C:/Users/VMORAIS/Documents/DAVE_WS/1p_inverter_200V/Libraries/CMSIS/Include\cmsis_gcc.h ****   \return          0  Function succeeded
 969:C:/Users/VMORAIS/Documents/DAVE_WS/1p_inverter_200V/Libraries/CMSIS/Include\cmsis_gcc.h ****   \return          1  Function failed
 970:C:/Users/VMORAIS/Documents/DAVE_WS/1p_inverter_200V/Libraries/CMSIS/Include\cmsis_gcc.h ****  */
 971:C:/Users/VMORAIS/Documents/DAVE_WS/1p_inverter_200V/Libraries/CMSIS/Include\cmsis_gcc.h **** __attribute__((always_inline)) __STATIC_INLINE uint32_t __STREXH(uint16_t value, volatile uint16_t 
 972:C:/Users/VMORAIS/Documents/DAVE_WS/1p_inverter_200V/Libraries/CMSIS/Include\cmsis_gcc.h **** {
 973:C:/Users/VMORAIS/Documents/DAVE_WS/1p_inverter_200V/Libraries/CMSIS/Include\cmsis_gcc.h ****    uint32_t result;
 974:C:/Users/VMORAIS/Documents/DAVE_WS/1p_inverter_200V/Libraries/CMSIS/Include\cmsis_gcc.h **** 
 975:C:/Users/VMORAIS/Documents/DAVE_WS/1p_inverter_200V/Libraries/CMSIS/Include\cmsis_gcc.h ****    __ASM volatile ("strexh %0, %2, %1" : "=&r" (result), "=Q" (*addr) : "r" ((uint32_t)value) );
 976:C:/Users/VMORAIS/Documents/DAVE_WS/1p_inverter_200V/Libraries/CMSIS/Include\cmsis_gcc.h ****    return(result);
 977:C:/Users/VMORAIS/Documents/DAVE_WS/1p_inverter_200V/Libraries/CMSIS/Include\cmsis_gcc.h **** }
 978:C:/Users/VMORAIS/Documents/DAVE_WS/1p_inverter_200V/Libraries/CMSIS/Include\cmsis_gcc.h **** 
 979:C:/Users/VMORAIS/Documents/DAVE_WS/1p_inverter_200V/Libraries/CMSIS/Include\cmsis_gcc.h **** 
 980:C:/Users/VMORAIS/Documents/DAVE_WS/1p_inverter_200V/Libraries/CMSIS/Include\cmsis_gcc.h **** /**
 981:C:/Users/VMORAIS/Documents/DAVE_WS/1p_inverter_200V/Libraries/CMSIS/Include\cmsis_gcc.h ****   \brief   STR Exclusive (32 bit)
 982:C:/Users/VMORAIS/Documents/DAVE_WS/1p_inverter_200V/Libraries/CMSIS/Include\cmsis_gcc.h ****   \details Executes a exclusive STR instruction for 32 bit values.
 983:C:/Users/VMORAIS/Documents/DAVE_WS/1p_inverter_200V/Libraries/CMSIS/Include\cmsis_gcc.h ****   \param [in]  value  Value to store
 984:C:/Users/VMORAIS/Documents/DAVE_WS/1p_inverter_200V/Libraries/CMSIS/Include\cmsis_gcc.h ****   \param [in]    ptr  Pointer to location
 985:C:/Users/VMORAIS/Documents/DAVE_WS/1p_inverter_200V/Libraries/CMSIS/Include\cmsis_gcc.h ****   \return          0  Function succeeded
 986:C:/Users/VMORAIS/Documents/DAVE_WS/1p_inverter_200V/Libraries/CMSIS/Include\cmsis_gcc.h ****   \return          1  Function failed
 987:C:/Users/VMORAIS/Documents/DAVE_WS/1p_inverter_200V/Libraries/CMSIS/Include\cmsis_gcc.h ****  */
 988:C:/Users/VMORAIS/Documents/DAVE_WS/1p_inverter_200V/Libraries/CMSIS/Include\cmsis_gcc.h **** __attribute__((always_inline)) __STATIC_INLINE uint32_t __STREXW(uint32_t value, volatile uint32_t 
 989:C:/Users/VMORAIS/Documents/DAVE_WS/1p_inverter_200V/Libraries/CMSIS/Include\cmsis_gcc.h **** {
 990:C:/Users/VMORAIS/Documents/DAVE_WS/1p_inverter_200V/Libraries/CMSIS/Include\cmsis_gcc.h ****    uint32_t result;
 991:C:/Users/VMORAIS/Documents/DAVE_WS/1p_inverter_200V/Libraries/CMSIS/Include\cmsis_gcc.h **** 
 992:C:/Users/VMORAIS/Documents/DAVE_WS/1p_inverter_200V/Libraries/CMSIS/Include\cmsis_gcc.h ****    __ASM volatile ("strex %0, %2, %1" : "=&r" (result), "=Q" (*addr) : "r" (value) );
 993:C:/Users/VMORAIS/Documents/DAVE_WS/1p_inverter_200V/Libraries/CMSIS/Include\cmsis_gcc.h ****    return(result);
 994:C:/Users/VMORAIS/Documents/DAVE_WS/1p_inverter_200V/Libraries/CMSIS/Include\cmsis_gcc.h **** }
 995:C:/Users/VMORAIS/Documents/DAVE_WS/1p_inverter_200V/Libraries/CMSIS/Include\cmsis_gcc.h **** 
 996:C:/Users/VMORAIS/Documents/DAVE_WS/1p_inverter_200V/Libraries/CMSIS/Include\cmsis_gcc.h **** 
 997:C:/Users/VMORAIS/Documents/DAVE_WS/1p_inverter_200V/Libraries/CMSIS/Include\cmsis_gcc.h **** /**
 998:C:/Users/VMORAIS/Documents/DAVE_WS/1p_inverter_200V/Libraries/CMSIS/Include\cmsis_gcc.h ****   \brief   Remove the exclusive lock
 999:C:/Users/VMORAIS/Documents/DAVE_WS/1p_inverter_200V/Libraries/CMSIS/Include\cmsis_gcc.h ****   \details Removes the exclusive lock which is created by LDREX.
1000:C:/Users/VMORAIS/Documents/DAVE_WS/1p_inverter_200V/Libraries/CMSIS/Include\cmsis_gcc.h ****  */
1001:C:/Users/VMORAIS/Documents/DAVE_WS/1p_inverter_200V/Libraries/CMSIS/Include\cmsis_gcc.h **** __attribute__((always_inline)) __STATIC_INLINE void __CLREX(void)
1002:C:/Users/VMORAIS/Documents/DAVE_WS/1p_inverter_200V/Libraries/CMSIS/Include\cmsis_gcc.h **** {
1003:C:/Users/VMORAIS/Documents/DAVE_WS/1p_inverter_200V/Libraries/CMSIS/Include\cmsis_gcc.h ****   __ASM volatile ("clrex" ::: "memory");
1004:C:/Users/VMORAIS/Documents/DAVE_WS/1p_inverter_200V/Libraries/CMSIS/Include\cmsis_gcc.h **** }
1005:C:/Users/VMORAIS/Documents/DAVE_WS/1p_inverter_200V/Libraries/CMSIS/Include\cmsis_gcc.h **** 
1006:C:/Users/VMORAIS/Documents/DAVE_WS/1p_inverter_200V/Libraries/CMSIS/Include\cmsis_gcc.h **** #endif /* ((defined (__ARM_ARCH_7M__      ) && (__ARM_ARCH_7M__      == 1)) || \
1007:C:/Users/VMORAIS/Documents/DAVE_WS/1p_inverter_200V/Libraries/CMSIS/Include\cmsis_gcc.h ****            (defined (__ARM_ARCH_7EM__     ) && (__ARM_ARCH_7EM__     == 1)) || \
1008:C:/Users/VMORAIS/Documents/DAVE_WS/1p_inverter_200V/Libraries/CMSIS/Include\cmsis_gcc.h ****            (defined (__ARM_ARCH_8M_MAIN__ ) && (__ARM_ARCH_8M_MAIN__ == 1)) || \
1009:C:/Users/VMORAIS/Documents/DAVE_WS/1p_inverter_200V/Libraries/CMSIS/Include\cmsis_gcc.h ****            (defined (__ARM_ARCH_8M_BASE__ ) && (__ARM_ARCH_8M_BASE__ == 1))    ) */
1010:C:/Users/VMORAIS/Documents/DAVE_WS/1p_inverter_200V/Libraries/CMSIS/Include\cmsis_gcc.h **** 
1011:C:/Users/VMORAIS/Documents/DAVE_WS/1p_inverter_200V/Libraries/CMSIS/Include\cmsis_gcc.h **** 
1012:C:/Users/VMORAIS/Documents/DAVE_WS/1p_inverter_200V/Libraries/CMSIS/Include\cmsis_gcc.h **** #if ((defined (__ARM_ARCH_7M__      ) && (__ARM_ARCH_7M__      == 1)) || \
1013:C:/Users/VMORAIS/Documents/DAVE_WS/1p_inverter_200V/Libraries/CMSIS/Include\cmsis_gcc.h ****      (defined (__ARM_ARCH_7EM__     ) && (__ARM_ARCH_7EM__     == 1)) || \
1014:C:/Users/VMORAIS/Documents/DAVE_WS/1p_inverter_200V/Libraries/CMSIS/Include\cmsis_gcc.h ****      (defined (__ARM_ARCH_8M_MAIN__ ) && (__ARM_ARCH_8M_MAIN__ == 1))    )
1015:C:/Users/VMORAIS/Documents/DAVE_WS/1p_inverter_200V/Libraries/CMSIS/Include\cmsis_gcc.h **** /**
1016:C:/Users/VMORAIS/Documents/DAVE_WS/1p_inverter_200V/Libraries/CMSIS/Include\cmsis_gcc.h ****   \brief   Signed Saturate
1017:C:/Users/VMORAIS/Documents/DAVE_WS/1p_inverter_200V/Libraries/CMSIS/Include\cmsis_gcc.h ****   \details Saturates a signed value.
1018:C:/Users/VMORAIS/Documents/DAVE_WS/1p_inverter_200V/Libraries/CMSIS/Include\cmsis_gcc.h ****   \param [in]  value  Value to be saturated
1019:C:/Users/VMORAIS/Documents/DAVE_WS/1p_inverter_200V/Libraries/CMSIS/Include\cmsis_gcc.h ****   \param [in]    sat  Bit position to saturate to (1..32)
1020:C:/Users/VMORAIS/Documents/DAVE_WS/1p_inverter_200V/Libraries/CMSIS/Include\cmsis_gcc.h ****   \return             Saturated value
1021:C:/Users/VMORAIS/Documents/DAVE_WS/1p_inverter_200V/Libraries/CMSIS/Include\cmsis_gcc.h ****  */
1022:C:/Users/VMORAIS/Documents/DAVE_WS/1p_inverter_200V/Libraries/CMSIS/Include\cmsis_gcc.h **** #define __SSAT(ARG1,ARG2) \
1023:C:/Users/VMORAIS/Documents/DAVE_WS/1p_inverter_200V/Libraries/CMSIS/Include\cmsis_gcc.h **** ({                          \
1024:C:/Users/VMORAIS/Documents/DAVE_WS/1p_inverter_200V/Libraries/CMSIS/Include\cmsis_gcc.h ****   int32_t __RES, __ARG1 = (ARG1); \
1025:C:/Users/VMORAIS/Documents/DAVE_WS/1p_inverter_200V/Libraries/CMSIS/Include\cmsis_gcc.h ****   __ASM ("ssat %0, %1, %2" : "=r" (__RES) :  "I" (ARG2), "r" (__ARG1) ); \
1026:C:/Users/VMORAIS/Documents/DAVE_WS/1p_inverter_200V/Libraries/CMSIS/Include\cmsis_gcc.h ****   __RES; \
1027:C:/Users/VMORAIS/Documents/DAVE_WS/1p_inverter_200V/Libraries/CMSIS/Include\cmsis_gcc.h ****  })
1028:C:/Users/VMORAIS/Documents/DAVE_WS/1p_inverter_200V/Libraries/CMSIS/Include\cmsis_gcc.h **** 
1029:C:/Users/VMORAIS/Documents/DAVE_WS/1p_inverter_200V/Libraries/CMSIS/Include\cmsis_gcc.h **** 
1030:C:/Users/VMORAIS/Documents/DAVE_WS/1p_inverter_200V/Libraries/CMSIS/Include\cmsis_gcc.h **** /**
1031:C:/Users/VMORAIS/Documents/DAVE_WS/1p_inverter_200V/Libraries/CMSIS/Include\cmsis_gcc.h ****   \brief   Unsigned Saturate
1032:C:/Users/VMORAIS/Documents/DAVE_WS/1p_inverter_200V/Libraries/CMSIS/Include\cmsis_gcc.h ****   \details Saturates an unsigned value.
1033:C:/Users/VMORAIS/Documents/DAVE_WS/1p_inverter_200V/Libraries/CMSIS/Include\cmsis_gcc.h ****   \param [in]  value  Value to be saturated
1034:C:/Users/VMORAIS/Documents/DAVE_WS/1p_inverter_200V/Libraries/CMSIS/Include\cmsis_gcc.h ****   \param [in]    sat  Bit position to saturate to (0..31)
1035:C:/Users/VMORAIS/Documents/DAVE_WS/1p_inverter_200V/Libraries/CMSIS/Include\cmsis_gcc.h ****   \return             Saturated value
1036:C:/Users/VMORAIS/Documents/DAVE_WS/1p_inverter_200V/Libraries/CMSIS/Include\cmsis_gcc.h ****  */
1037:C:/Users/VMORAIS/Documents/DAVE_WS/1p_inverter_200V/Libraries/CMSIS/Include\cmsis_gcc.h **** #define __USAT(ARG1,ARG2) \
1038:C:/Users/VMORAIS/Documents/DAVE_WS/1p_inverter_200V/Libraries/CMSIS/Include\cmsis_gcc.h **** ({                          \
1039:C:/Users/VMORAIS/Documents/DAVE_WS/1p_inverter_200V/Libraries/CMSIS/Include\cmsis_gcc.h ****   uint32_t __RES, __ARG1 = (ARG1); \
1040:C:/Users/VMORAIS/Documents/DAVE_WS/1p_inverter_200V/Libraries/CMSIS/Include\cmsis_gcc.h ****   __ASM ("usat %0, %1, %2" : "=r" (__RES) :  "I" (ARG2), "r" (__ARG1) ); \
1041:C:/Users/VMORAIS/Documents/DAVE_WS/1p_inverter_200V/Libraries/CMSIS/Include\cmsis_gcc.h ****   __RES; \
1042:C:/Users/VMORAIS/Documents/DAVE_WS/1p_inverter_200V/Libraries/CMSIS/Include\cmsis_gcc.h ****  })
1043:C:/Users/VMORAIS/Documents/DAVE_WS/1p_inverter_200V/Libraries/CMSIS/Include\cmsis_gcc.h **** 
1044:C:/Users/VMORAIS/Documents/DAVE_WS/1p_inverter_200V/Libraries/CMSIS/Include\cmsis_gcc.h **** 
1045:C:/Users/VMORAIS/Documents/DAVE_WS/1p_inverter_200V/Libraries/CMSIS/Include\cmsis_gcc.h **** /**
1046:C:/Users/VMORAIS/Documents/DAVE_WS/1p_inverter_200V/Libraries/CMSIS/Include\cmsis_gcc.h ****   \brief   Rotate Right with Extend (32 bit)
1047:C:/Users/VMORAIS/Documents/DAVE_WS/1p_inverter_200V/Libraries/CMSIS/Include\cmsis_gcc.h ****   \details Moves each bit of a bitstring right by one bit.
1048:C:/Users/VMORAIS/Documents/DAVE_WS/1p_inverter_200V/Libraries/CMSIS/Include\cmsis_gcc.h ****            The carry input is shifted in at the left end of the bitstring.
1049:C:/Users/VMORAIS/Documents/DAVE_WS/1p_inverter_200V/Libraries/CMSIS/Include\cmsis_gcc.h ****   \param [in]    value  Value to rotate
1050:C:/Users/VMORAIS/Documents/DAVE_WS/1p_inverter_200V/Libraries/CMSIS/Include\cmsis_gcc.h ****   \return               Rotated value
1051:C:/Users/VMORAIS/Documents/DAVE_WS/1p_inverter_200V/Libraries/CMSIS/Include\cmsis_gcc.h ****  */
1052:C:/Users/VMORAIS/Documents/DAVE_WS/1p_inverter_200V/Libraries/CMSIS/Include\cmsis_gcc.h **** __attribute__((always_inline)) __STATIC_INLINE uint32_t __RRX(uint32_t value)
1053:C:/Users/VMORAIS/Documents/DAVE_WS/1p_inverter_200V/Libraries/CMSIS/Include\cmsis_gcc.h **** {
1054:C:/Users/VMORAIS/Documents/DAVE_WS/1p_inverter_200V/Libraries/CMSIS/Include\cmsis_gcc.h ****   uint32_t result;
1055:C:/Users/VMORAIS/Documents/DAVE_WS/1p_inverter_200V/Libraries/CMSIS/Include\cmsis_gcc.h **** 
1056:C:/Users/VMORAIS/Documents/DAVE_WS/1p_inverter_200V/Libraries/CMSIS/Include\cmsis_gcc.h ****   __ASM volatile ("rrx %0, %1" : __CMSIS_GCC_OUT_REG (result) : __CMSIS_GCC_USE_REG (value) );
1057:C:/Users/VMORAIS/Documents/DAVE_WS/1p_inverter_200V/Libraries/CMSIS/Include\cmsis_gcc.h ****   return(result);
1058:C:/Users/VMORAIS/Documents/DAVE_WS/1p_inverter_200V/Libraries/CMSIS/Include\cmsis_gcc.h **** }
1059:C:/Users/VMORAIS/Documents/DAVE_WS/1p_inverter_200V/Libraries/CMSIS/Include\cmsis_gcc.h **** 
1060:C:/Users/VMORAIS/Documents/DAVE_WS/1p_inverter_200V/Libraries/CMSIS/Include\cmsis_gcc.h **** 
1061:C:/Users/VMORAIS/Documents/DAVE_WS/1p_inverter_200V/Libraries/CMSIS/Include\cmsis_gcc.h **** /**
1062:C:/Users/VMORAIS/Documents/DAVE_WS/1p_inverter_200V/Libraries/CMSIS/Include\cmsis_gcc.h ****   \brief   LDRT Unprivileged (8 bit)
1063:C:/Users/VMORAIS/Documents/DAVE_WS/1p_inverter_200V/Libraries/CMSIS/Include\cmsis_gcc.h ****   \details Executes a Unprivileged LDRT instruction for 8 bit value.
1064:C:/Users/VMORAIS/Documents/DAVE_WS/1p_inverter_200V/Libraries/CMSIS/Include\cmsis_gcc.h ****   \param [in]    ptr  Pointer to data
1065:C:/Users/VMORAIS/Documents/DAVE_WS/1p_inverter_200V/Libraries/CMSIS/Include\cmsis_gcc.h ****   \return             value of type uint8_t at (*ptr)
1066:C:/Users/VMORAIS/Documents/DAVE_WS/1p_inverter_200V/Libraries/CMSIS/Include\cmsis_gcc.h ****  */
1067:C:/Users/VMORAIS/Documents/DAVE_WS/1p_inverter_200V/Libraries/CMSIS/Include\cmsis_gcc.h **** __attribute__((always_inline)) __STATIC_INLINE uint8_t __LDRBT(volatile uint8_t *ptr)
1068:C:/Users/VMORAIS/Documents/DAVE_WS/1p_inverter_200V/Libraries/CMSIS/Include\cmsis_gcc.h **** {
1069:C:/Users/VMORAIS/Documents/DAVE_WS/1p_inverter_200V/Libraries/CMSIS/Include\cmsis_gcc.h ****     uint32_t result;
1070:C:/Users/VMORAIS/Documents/DAVE_WS/1p_inverter_200V/Libraries/CMSIS/Include\cmsis_gcc.h **** 
1071:C:/Users/VMORAIS/Documents/DAVE_WS/1p_inverter_200V/Libraries/CMSIS/Include\cmsis_gcc.h **** #if (__GNUC__ > 4) || (__GNUC__ == 4 && __GNUC_MINOR__ >= 8)
1072:C:/Users/VMORAIS/Documents/DAVE_WS/1p_inverter_200V/Libraries/CMSIS/Include\cmsis_gcc.h ****    __ASM volatile ("ldrbt %0, %1" : "=r" (result) : "Q" (*ptr) );
1073:C:/Users/VMORAIS/Documents/DAVE_WS/1p_inverter_200V/Libraries/CMSIS/Include\cmsis_gcc.h **** #else
1074:C:/Users/VMORAIS/Documents/DAVE_WS/1p_inverter_200V/Libraries/CMSIS/Include\cmsis_gcc.h ****     /* Prior to GCC 4.8, "Q" will be expanded to [rx, #0] which is not
1075:C:/Users/VMORAIS/Documents/DAVE_WS/1p_inverter_200V/Libraries/CMSIS/Include\cmsis_gcc.h ****        accepted by assembler. So has to use following less efficient pattern.
1076:C:/Users/VMORAIS/Documents/DAVE_WS/1p_inverter_200V/Libraries/CMSIS/Include\cmsis_gcc.h ****     */
1077:C:/Users/VMORAIS/Documents/DAVE_WS/1p_inverter_200V/Libraries/CMSIS/Include\cmsis_gcc.h ****    __ASM volatile ("ldrbt %0, [%1]" : "=r" (result) : "r" (ptr) : "memory" );
1078:C:/Users/VMORAIS/Documents/DAVE_WS/1p_inverter_200V/Libraries/CMSIS/Include\cmsis_gcc.h **** #endif
1079:C:/Users/VMORAIS/Documents/DAVE_WS/1p_inverter_200V/Libraries/CMSIS/Include\cmsis_gcc.h ****    return ((uint8_t) result);    /* Add explicit type cast here */
1080:C:/Users/VMORAIS/Documents/DAVE_WS/1p_inverter_200V/Libraries/CMSIS/Include\cmsis_gcc.h **** }
1081:C:/Users/VMORAIS/Documents/DAVE_WS/1p_inverter_200V/Libraries/CMSIS/Include\cmsis_gcc.h **** 
1082:C:/Users/VMORAIS/Documents/DAVE_WS/1p_inverter_200V/Libraries/CMSIS/Include\cmsis_gcc.h **** 
1083:C:/Users/VMORAIS/Documents/DAVE_WS/1p_inverter_200V/Libraries/CMSIS/Include\cmsis_gcc.h **** /**
1084:C:/Users/VMORAIS/Documents/DAVE_WS/1p_inverter_200V/Libraries/CMSIS/Include\cmsis_gcc.h ****   \brief   LDRT Unprivileged (16 bit)
1085:C:/Users/VMORAIS/Documents/DAVE_WS/1p_inverter_200V/Libraries/CMSIS/Include\cmsis_gcc.h ****   \details Executes a Unprivileged LDRT instruction for 16 bit values.
1086:C:/Users/VMORAIS/Documents/DAVE_WS/1p_inverter_200V/Libraries/CMSIS/Include\cmsis_gcc.h ****   \param [in]    ptr  Pointer to data
1087:C:/Users/VMORAIS/Documents/DAVE_WS/1p_inverter_200V/Libraries/CMSIS/Include\cmsis_gcc.h ****   \return        value of type uint16_t at (*ptr)
1088:C:/Users/VMORAIS/Documents/DAVE_WS/1p_inverter_200V/Libraries/CMSIS/Include\cmsis_gcc.h ****  */
1089:C:/Users/VMORAIS/Documents/DAVE_WS/1p_inverter_200V/Libraries/CMSIS/Include\cmsis_gcc.h **** __attribute__((always_inline)) __STATIC_INLINE uint16_t __LDRHT(volatile uint16_t *ptr)
1090:C:/Users/VMORAIS/Documents/DAVE_WS/1p_inverter_200V/Libraries/CMSIS/Include\cmsis_gcc.h **** {
1091:C:/Users/VMORAIS/Documents/DAVE_WS/1p_inverter_200V/Libraries/CMSIS/Include\cmsis_gcc.h ****     uint32_t result;
1092:C:/Users/VMORAIS/Documents/DAVE_WS/1p_inverter_200V/Libraries/CMSIS/Include\cmsis_gcc.h **** 
1093:C:/Users/VMORAIS/Documents/DAVE_WS/1p_inverter_200V/Libraries/CMSIS/Include\cmsis_gcc.h **** #if (__GNUC__ > 4) || (__GNUC__ == 4 && __GNUC_MINOR__ >= 8)
1094:C:/Users/VMORAIS/Documents/DAVE_WS/1p_inverter_200V/Libraries/CMSIS/Include\cmsis_gcc.h ****    __ASM volatile ("ldrht %0, %1" : "=r" (result) : "Q" (*ptr) );
1095:C:/Users/VMORAIS/Documents/DAVE_WS/1p_inverter_200V/Libraries/CMSIS/Include\cmsis_gcc.h **** #else
1096:C:/Users/VMORAIS/Documents/DAVE_WS/1p_inverter_200V/Libraries/CMSIS/Include\cmsis_gcc.h ****     /* Prior to GCC 4.8, "Q" will be expanded to [rx, #0] which is not
1097:C:/Users/VMORAIS/Documents/DAVE_WS/1p_inverter_200V/Libraries/CMSIS/Include\cmsis_gcc.h ****        accepted by assembler. So has to use following less efficient pattern.
1098:C:/Users/VMORAIS/Documents/DAVE_WS/1p_inverter_200V/Libraries/CMSIS/Include\cmsis_gcc.h ****     */
1099:C:/Users/VMORAIS/Documents/DAVE_WS/1p_inverter_200V/Libraries/CMSIS/Include\cmsis_gcc.h ****    __ASM volatile ("ldrht %0, [%1]" : "=r" (result) : "r" (ptr) : "memory" );
1100:C:/Users/VMORAIS/Documents/DAVE_WS/1p_inverter_200V/Libraries/CMSIS/Include\cmsis_gcc.h **** #endif
1101:C:/Users/VMORAIS/Documents/DAVE_WS/1p_inverter_200V/Libraries/CMSIS/Include\cmsis_gcc.h ****    return ((uint16_t) result);    /* Add explicit type cast here */
1102:C:/Users/VMORAIS/Documents/DAVE_WS/1p_inverter_200V/Libraries/CMSIS/Include\cmsis_gcc.h **** }
1103:C:/Users/VMORAIS/Documents/DAVE_WS/1p_inverter_200V/Libraries/CMSIS/Include\cmsis_gcc.h **** 
1104:C:/Users/VMORAIS/Documents/DAVE_WS/1p_inverter_200V/Libraries/CMSIS/Include\cmsis_gcc.h **** 
1105:C:/Users/VMORAIS/Documents/DAVE_WS/1p_inverter_200V/Libraries/CMSIS/Include\cmsis_gcc.h **** /**
1106:C:/Users/VMORAIS/Documents/DAVE_WS/1p_inverter_200V/Libraries/CMSIS/Include\cmsis_gcc.h ****   \brief   LDRT Unprivileged (32 bit)
1107:C:/Users/VMORAIS/Documents/DAVE_WS/1p_inverter_200V/Libraries/CMSIS/Include\cmsis_gcc.h ****   \details Executes a Unprivileged LDRT instruction for 32 bit values.
1108:C:/Users/VMORAIS/Documents/DAVE_WS/1p_inverter_200V/Libraries/CMSIS/Include\cmsis_gcc.h ****   \param [in]    ptr  Pointer to data
1109:C:/Users/VMORAIS/Documents/DAVE_WS/1p_inverter_200V/Libraries/CMSIS/Include\cmsis_gcc.h ****   \return        value of type uint32_t at (*ptr)
1110:C:/Users/VMORAIS/Documents/DAVE_WS/1p_inverter_200V/Libraries/CMSIS/Include\cmsis_gcc.h ****  */
1111:C:/Users/VMORAIS/Documents/DAVE_WS/1p_inverter_200V/Libraries/CMSIS/Include\cmsis_gcc.h **** __attribute__((always_inline)) __STATIC_INLINE uint32_t __LDRT(volatile uint32_t *ptr)
1112:C:/Users/VMORAIS/Documents/DAVE_WS/1p_inverter_200V/Libraries/CMSIS/Include\cmsis_gcc.h **** {
1113:C:/Users/VMORAIS/Documents/DAVE_WS/1p_inverter_200V/Libraries/CMSIS/Include\cmsis_gcc.h ****     uint32_t result;
1114:C:/Users/VMORAIS/Documents/DAVE_WS/1p_inverter_200V/Libraries/CMSIS/Include\cmsis_gcc.h **** 
1115:C:/Users/VMORAIS/Documents/DAVE_WS/1p_inverter_200V/Libraries/CMSIS/Include\cmsis_gcc.h ****    __ASM volatile ("ldrt %0, %1" : "=r" (result) : "Q" (*ptr) );
1116:C:/Users/VMORAIS/Documents/DAVE_WS/1p_inverter_200V/Libraries/CMSIS/Include\cmsis_gcc.h ****    return(result);
1117:C:/Users/VMORAIS/Documents/DAVE_WS/1p_inverter_200V/Libraries/CMSIS/Include\cmsis_gcc.h **** }
1118:C:/Users/VMORAIS/Documents/DAVE_WS/1p_inverter_200V/Libraries/CMSIS/Include\cmsis_gcc.h **** 
1119:C:/Users/VMORAIS/Documents/DAVE_WS/1p_inverter_200V/Libraries/CMSIS/Include\cmsis_gcc.h **** 
1120:C:/Users/VMORAIS/Documents/DAVE_WS/1p_inverter_200V/Libraries/CMSIS/Include\cmsis_gcc.h **** /**
1121:C:/Users/VMORAIS/Documents/DAVE_WS/1p_inverter_200V/Libraries/CMSIS/Include\cmsis_gcc.h ****   \brief   STRT Unprivileged (8 bit)
1122:C:/Users/VMORAIS/Documents/DAVE_WS/1p_inverter_200V/Libraries/CMSIS/Include\cmsis_gcc.h ****   \details Executes a Unprivileged STRT instruction for 8 bit values.
1123:C:/Users/VMORAIS/Documents/DAVE_WS/1p_inverter_200V/Libraries/CMSIS/Include\cmsis_gcc.h ****   \param [in]  value  Value to store
1124:C:/Users/VMORAIS/Documents/DAVE_WS/1p_inverter_200V/Libraries/CMSIS/Include\cmsis_gcc.h ****   \param [in]    ptr  Pointer to location
1125:C:/Users/VMORAIS/Documents/DAVE_WS/1p_inverter_200V/Libraries/CMSIS/Include\cmsis_gcc.h ****  */
1126:C:/Users/VMORAIS/Documents/DAVE_WS/1p_inverter_200V/Libraries/CMSIS/Include\cmsis_gcc.h **** __attribute__((always_inline)) __STATIC_INLINE void __STRBT(uint8_t value, volatile uint8_t *ptr)
1127:C:/Users/VMORAIS/Documents/DAVE_WS/1p_inverter_200V/Libraries/CMSIS/Include\cmsis_gcc.h **** {
1128:C:/Users/VMORAIS/Documents/DAVE_WS/1p_inverter_200V/Libraries/CMSIS/Include\cmsis_gcc.h ****    __ASM volatile ("strbt %1, %0" : "=Q" (*ptr) : "r" ((uint32_t)value) );
1129:C:/Users/VMORAIS/Documents/DAVE_WS/1p_inverter_200V/Libraries/CMSIS/Include\cmsis_gcc.h **** }
1130:C:/Users/VMORAIS/Documents/DAVE_WS/1p_inverter_200V/Libraries/CMSIS/Include\cmsis_gcc.h **** 
1131:C:/Users/VMORAIS/Documents/DAVE_WS/1p_inverter_200V/Libraries/CMSIS/Include\cmsis_gcc.h **** 
1132:C:/Users/VMORAIS/Documents/DAVE_WS/1p_inverter_200V/Libraries/CMSIS/Include\cmsis_gcc.h **** /**
1133:C:/Users/VMORAIS/Documents/DAVE_WS/1p_inverter_200V/Libraries/CMSIS/Include\cmsis_gcc.h ****   \brief   STRT Unprivileged (16 bit)
1134:C:/Users/VMORAIS/Documents/DAVE_WS/1p_inverter_200V/Libraries/CMSIS/Include\cmsis_gcc.h ****   \details Executes a Unprivileged STRT instruction for 16 bit values.
1135:C:/Users/VMORAIS/Documents/DAVE_WS/1p_inverter_200V/Libraries/CMSIS/Include\cmsis_gcc.h ****   \param [in]  value  Value to store
1136:C:/Users/VMORAIS/Documents/DAVE_WS/1p_inverter_200V/Libraries/CMSIS/Include\cmsis_gcc.h ****   \param [in]    ptr  Pointer to location
1137:C:/Users/VMORAIS/Documents/DAVE_WS/1p_inverter_200V/Libraries/CMSIS/Include\cmsis_gcc.h ****  */
1138:C:/Users/VMORAIS/Documents/DAVE_WS/1p_inverter_200V/Libraries/CMSIS/Include\cmsis_gcc.h **** __attribute__((always_inline)) __STATIC_INLINE void __STRHT(uint16_t value, volatile uint16_t *ptr)
1139:C:/Users/VMORAIS/Documents/DAVE_WS/1p_inverter_200V/Libraries/CMSIS/Include\cmsis_gcc.h **** {
1140:C:/Users/VMORAIS/Documents/DAVE_WS/1p_inverter_200V/Libraries/CMSIS/Include\cmsis_gcc.h ****    __ASM volatile ("strht %1, %0" : "=Q" (*ptr) : "r" ((uint32_t)value) );
1141:C:/Users/VMORAIS/Documents/DAVE_WS/1p_inverter_200V/Libraries/CMSIS/Include\cmsis_gcc.h **** }
1142:C:/Users/VMORAIS/Documents/DAVE_WS/1p_inverter_200V/Libraries/CMSIS/Include\cmsis_gcc.h **** 
1143:C:/Users/VMORAIS/Documents/DAVE_WS/1p_inverter_200V/Libraries/CMSIS/Include\cmsis_gcc.h **** 
1144:C:/Users/VMORAIS/Documents/DAVE_WS/1p_inverter_200V/Libraries/CMSIS/Include\cmsis_gcc.h **** /**
1145:C:/Users/VMORAIS/Documents/DAVE_WS/1p_inverter_200V/Libraries/CMSIS/Include\cmsis_gcc.h ****   \brief   STRT Unprivileged (32 bit)
1146:C:/Users/VMORAIS/Documents/DAVE_WS/1p_inverter_200V/Libraries/CMSIS/Include\cmsis_gcc.h ****   \details Executes a Unprivileged STRT instruction for 32 bit values.
1147:C:/Users/VMORAIS/Documents/DAVE_WS/1p_inverter_200V/Libraries/CMSIS/Include\cmsis_gcc.h ****   \param [in]  value  Value to store
1148:C:/Users/VMORAIS/Documents/DAVE_WS/1p_inverter_200V/Libraries/CMSIS/Include\cmsis_gcc.h ****   \param [in]    ptr  Pointer to location
1149:C:/Users/VMORAIS/Documents/DAVE_WS/1p_inverter_200V/Libraries/CMSIS/Include\cmsis_gcc.h ****  */
1150:C:/Users/VMORAIS/Documents/DAVE_WS/1p_inverter_200V/Libraries/CMSIS/Include\cmsis_gcc.h **** __attribute__((always_inline)) __STATIC_INLINE void __STRT(uint32_t value, volatile uint32_t *ptr)
1151:C:/Users/VMORAIS/Documents/DAVE_WS/1p_inverter_200V/Libraries/CMSIS/Include\cmsis_gcc.h **** {
1152:C:/Users/VMORAIS/Documents/DAVE_WS/1p_inverter_200V/Libraries/CMSIS/Include\cmsis_gcc.h ****    __ASM volatile ("strt %1, %0" : "=Q" (*ptr) : "r" (value) );
1153:C:/Users/VMORAIS/Documents/DAVE_WS/1p_inverter_200V/Libraries/CMSIS/Include\cmsis_gcc.h **** }
1154:C:/Users/VMORAIS/Documents/DAVE_WS/1p_inverter_200V/Libraries/CMSIS/Include\cmsis_gcc.h **** 
1155:C:/Users/VMORAIS/Documents/DAVE_WS/1p_inverter_200V/Libraries/CMSIS/Include\cmsis_gcc.h **** #endif /* ((defined (__ARM_ARCH_7M__      ) && (__ARM_ARCH_7M__      == 1)) || \
1156:C:/Users/VMORAIS/Documents/DAVE_WS/1p_inverter_200V/Libraries/CMSIS/Include\cmsis_gcc.h ****            (defined (__ARM_ARCH_7EM__     ) && (__ARM_ARCH_7EM__     == 1)) || \
1157:C:/Users/VMORAIS/Documents/DAVE_WS/1p_inverter_200V/Libraries/CMSIS/Include\cmsis_gcc.h ****            (defined (__ARM_ARCH_8M_MAIN__ ) && (__ARM_ARCH_8M_MAIN__ == 1))    ) */
1158:C:/Users/VMORAIS/Documents/DAVE_WS/1p_inverter_200V/Libraries/CMSIS/Include\cmsis_gcc.h **** 
1159:C:/Users/VMORAIS/Documents/DAVE_WS/1p_inverter_200V/Libraries/CMSIS/Include\cmsis_gcc.h **** 
1160:C:/Users/VMORAIS/Documents/DAVE_WS/1p_inverter_200V/Libraries/CMSIS/Include\cmsis_gcc.h **** #if ((defined (__ARM_ARCH_8M_MAIN__ ) && (__ARM_ARCH_8M_MAIN__ == 1)) || \
1161:C:/Users/VMORAIS/Documents/DAVE_WS/1p_inverter_200V/Libraries/CMSIS/Include\cmsis_gcc.h ****      (defined (__ARM_ARCH_8M_BASE__ ) && (__ARM_ARCH_8M_BASE__ == 1))    )
1162:C:/Users/VMORAIS/Documents/DAVE_WS/1p_inverter_200V/Libraries/CMSIS/Include\cmsis_gcc.h **** /**
1163:C:/Users/VMORAIS/Documents/DAVE_WS/1p_inverter_200V/Libraries/CMSIS/Include\cmsis_gcc.h ****   \brief   Load-Acquire (8 bit)
1164:C:/Users/VMORAIS/Documents/DAVE_WS/1p_inverter_200V/Libraries/CMSIS/Include\cmsis_gcc.h ****   \details Executes a LDAB instruction for 8 bit value.
1165:C:/Users/VMORAIS/Documents/DAVE_WS/1p_inverter_200V/Libraries/CMSIS/Include\cmsis_gcc.h ****   \param [in]    ptr  Pointer to data
1166:C:/Users/VMORAIS/Documents/DAVE_WS/1p_inverter_200V/Libraries/CMSIS/Include\cmsis_gcc.h ****   \return             value of type uint8_t at (*ptr)
1167:C:/Users/VMORAIS/Documents/DAVE_WS/1p_inverter_200V/Libraries/CMSIS/Include\cmsis_gcc.h ****  */
1168:C:/Users/VMORAIS/Documents/DAVE_WS/1p_inverter_200V/Libraries/CMSIS/Include\cmsis_gcc.h **** __attribute__((always_inline)) __STATIC_INLINE uint8_t __LDAB(volatile uint8_t *ptr)
1169:C:/Users/VMORAIS/Documents/DAVE_WS/1p_inverter_200V/Libraries/CMSIS/Include\cmsis_gcc.h **** {
1170:C:/Users/VMORAIS/Documents/DAVE_WS/1p_inverter_200V/Libraries/CMSIS/Include\cmsis_gcc.h ****     uint32_t result;
1171:C:/Users/VMORAIS/Documents/DAVE_WS/1p_inverter_200V/Libraries/CMSIS/Include\cmsis_gcc.h **** 
1172:C:/Users/VMORAIS/Documents/DAVE_WS/1p_inverter_200V/Libraries/CMSIS/Include\cmsis_gcc.h ****    __ASM volatile ("ldab %0, %1" : "=r" (result) : "Q" (*ptr) );
1173:C:/Users/VMORAIS/Documents/DAVE_WS/1p_inverter_200V/Libraries/CMSIS/Include\cmsis_gcc.h ****    return ((uint8_t) result);
1174:C:/Users/VMORAIS/Documents/DAVE_WS/1p_inverter_200V/Libraries/CMSIS/Include\cmsis_gcc.h **** }
1175:C:/Users/VMORAIS/Documents/DAVE_WS/1p_inverter_200V/Libraries/CMSIS/Include\cmsis_gcc.h **** 
1176:C:/Users/VMORAIS/Documents/DAVE_WS/1p_inverter_200V/Libraries/CMSIS/Include\cmsis_gcc.h **** 
1177:C:/Users/VMORAIS/Documents/DAVE_WS/1p_inverter_200V/Libraries/CMSIS/Include\cmsis_gcc.h **** /**
1178:C:/Users/VMORAIS/Documents/DAVE_WS/1p_inverter_200V/Libraries/CMSIS/Include\cmsis_gcc.h ****   \brief   Load-Acquire (16 bit)
1179:C:/Users/VMORAIS/Documents/DAVE_WS/1p_inverter_200V/Libraries/CMSIS/Include\cmsis_gcc.h ****   \details Executes a LDAH instruction for 16 bit values.
1180:C:/Users/VMORAIS/Documents/DAVE_WS/1p_inverter_200V/Libraries/CMSIS/Include\cmsis_gcc.h ****   \param [in]    ptr  Pointer to data
1181:C:/Users/VMORAIS/Documents/DAVE_WS/1p_inverter_200V/Libraries/CMSIS/Include\cmsis_gcc.h ****   \return        value of type uint16_t at (*ptr)
1182:C:/Users/VMORAIS/Documents/DAVE_WS/1p_inverter_200V/Libraries/CMSIS/Include\cmsis_gcc.h ****  */
1183:C:/Users/VMORAIS/Documents/DAVE_WS/1p_inverter_200V/Libraries/CMSIS/Include\cmsis_gcc.h **** __attribute__((always_inline)) __STATIC_INLINE uint16_t __LDAH(volatile uint16_t *ptr)
1184:C:/Users/VMORAIS/Documents/DAVE_WS/1p_inverter_200V/Libraries/CMSIS/Include\cmsis_gcc.h **** {
1185:C:/Users/VMORAIS/Documents/DAVE_WS/1p_inverter_200V/Libraries/CMSIS/Include\cmsis_gcc.h ****     uint32_t result;
1186:C:/Users/VMORAIS/Documents/DAVE_WS/1p_inverter_200V/Libraries/CMSIS/Include\cmsis_gcc.h **** 
1187:C:/Users/VMORAIS/Documents/DAVE_WS/1p_inverter_200V/Libraries/CMSIS/Include\cmsis_gcc.h ****    __ASM volatile ("ldah %0, %1" : "=r" (result) : "Q" (*ptr) );
1188:C:/Users/VMORAIS/Documents/DAVE_WS/1p_inverter_200V/Libraries/CMSIS/Include\cmsis_gcc.h ****    return ((uint16_t) result);
1189:C:/Users/VMORAIS/Documents/DAVE_WS/1p_inverter_200V/Libraries/CMSIS/Include\cmsis_gcc.h **** }
1190:C:/Users/VMORAIS/Documents/DAVE_WS/1p_inverter_200V/Libraries/CMSIS/Include\cmsis_gcc.h **** 
1191:C:/Users/VMORAIS/Documents/DAVE_WS/1p_inverter_200V/Libraries/CMSIS/Include\cmsis_gcc.h **** 
1192:C:/Users/VMORAIS/Documents/DAVE_WS/1p_inverter_200V/Libraries/CMSIS/Include\cmsis_gcc.h **** /**
1193:C:/Users/VMORAIS/Documents/DAVE_WS/1p_inverter_200V/Libraries/CMSIS/Include\cmsis_gcc.h ****   \brief   Load-Acquire (32 bit)
1194:C:/Users/VMORAIS/Documents/DAVE_WS/1p_inverter_200V/Libraries/CMSIS/Include\cmsis_gcc.h ****   \details Executes a LDA instruction for 32 bit values.
1195:C:/Users/VMORAIS/Documents/DAVE_WS/1p_inverter_200V/Libraries/CMSIS/Include\cmsis_gcc.h ****   \param [in]    ptr  Pointer to data
1196:C:/Users/VMORAIS/Documents/DAVE_WS/1p_inverter_200V/Libraries/CMSIS/Include\cmsis_gcc.h ****   \return        value of type uint32_t at (*ptr)
1197:C:/Users/VMORAIS/Documents/DAVE_WS/1p_inverter_200V/Libraries/CMSIS/Include\cmsis_gcc.h ****  */
1198:C:/Users/VMORAIS/Documents/DAVE_WS/1p_inverter_200V/Libraries/CMSIS/Include\cmsis_gcc.h **** __attribute__((always_inline)) __STATIC_INLINE uint32_t __LDA(volatile uint32_t *ptr)
1199:C:/Users/VMORAIS/Documents/DAVE_WS/1p_inverter_200V/Libraries/CMSIS/Include\cmsis_gcc.h **** {
1200:C:/Users/VMORAIS/Documents/DAVE_WS/1p_inverter_200V/Libraries/CMSIS/Include\cmsis_gcc.h ****     uint32_t result;
1201:C:/Users/VMORAIS/Documents/DAVE_WS/1p_inverter_200V/Libraries/CMSIS/Include\cmsis_gcc.h **** 
1202:C:/Users/VMORAIS/Documents/DAVE_WS/1p_inverter_200V/Libraries/CMSIS/Include\cmsis_gcc.h ****    __ASM volatile ("lda %0, %1" : "=r" (result) : "Q" (*ptr) );
1203:C:/Users/VMORAIS/Documents/DAVE_WS/1p_inverter_200V/Libraries/CMSIS/Include\cmsis_gcc.h ****    return(result);
1204:C:/Users/VMORAIS/Documents/DAVE_WS/1p_inverter_200V/Libraries/CMSIS/Include\cmsis_gcc.h **** }
1205:C:/Users/VMORAIS/Documents/DAVE_WS/1p_inverter_200V/Libraries/CMSIS/Include\cmsis_gcc.h **** 
1206:C:/Users/VMORAIS/Documents/DAVE_WS/1p_inverter_200V/Libraries/CMSIS/Include\cmsis_gcc.h **** 
1207:C:/Users/VMORAIS/Documents/DAVE_WS/1p_inverter_200V/Libraries/CMSIS/Include\cmsis_gcc.h **** /**
1208:C:/Users/VMORAIS/Documents/DAVE_WS/1p_inverter_200V/Libraries/CMSIS/Include\cmsis_gcc.h ****   \brief   Store-Release (8 bit)
1209:C:/Users/VMORAIS/Documents/DAVE_WS/1p_inverter_200V/Libraries/CMSIS/Include\cmsis_gcc.h ****   \details Executes a STLB instruction for 8 bit values.
1210:C:/Users/VMORAIS/Documents/DAVE_WS/1p_inverter_200V/Libraries/CMSIS/Include\cmsis_gcc.h ****   \param [in]  value  Value to store
1211:C:/Users/VMORAIS/Documents/DAVE_WS/1p_inverter_200V/Libraries/CMSIS/Include\cmsis_gcc.h ****   \param [in]    ptr  Pointer to location
1212:C:/Users/VMORAIS/Documents/DAVE_WS/1p_inverter_200V/Libraries/CMSIS/Include\cmsis_gcc.h ****  */
1213:C:/Users/VMORAIS/Documents/DAVE_WS/1p_inverter_200V/Libraries/CMSIS/Include\cmsis_gcc.h **** __attribute__((always_inline)) __STATIC_INLINE void __STLB(uint8_t value, volatile uint8_t *ptr)
1214:C:/Users/VMORAIS/Documents/DAVE_WS/1p_inverter_200V/Libraries/CMSIS/Include\cmsis_gcc.h **** {
1215:C:/Users/VMORAIS/Documents/DAVE_WS/1p_inverter_200V/Libraries/CMSIS/Include\cmsis_gcc.h ****    __ASM volatile ("stlb %1, %0" : "=Q" (*ptr) : "r" ((uint32_t)value) );
1216:C:/Users/VMORAIS/Documents/DAVE_WS/1p_inverter_200V/Libraries/CMSIS/Include\cmsis_gcc.h **** }
1217:C:/Users/VMORAIS/Documents/DAVE_WS/1p_inverter_200V/Libraries/CMSIS/Include\cmsis_gcc.h **** 
1218:C:/Users/VMORAIS/Documents/DAVE_WS/1p_inverter_200V/Libraries/CMSIS/Include\cmsis_gcc.h **** 
1219:C:/Users/VMORAIS/Documents/DAVE_WS/1p_inverter_200V/Libraries/CMSIS/Include\cmsis_gcc.h **** /**
1220:C:/Users/VMORAIS/Documents/DAVE_WS/1p_inverter_200V/Libraries/CMSIS/Include\cmsis_gcc.h ****   \brief   Store-Release (16 bit)
1221:C:/Users/VMORAIS/Documents/DAVE_WS/1p_inverter_200V/Libraries/CMSIS/Include\cmsis_gcc.h ****   \details Executes a STLH instruction for 16 bit values.
1222:C:/Users/VMORAIS/Documents/DAVE_WS/1p_inverter_200V/Libraries/CMSIS/Include\cmsis_gcc.h ****   \param [in]  value  Value to store
1223:C:/Users/VMORAIS/Documents/DAVE_WS/1p_inverter_200V/Libraries/CMSIS/Include\cmsis_gcc.h ****   \param [in]    ptr  Pointer to location
1224:C:/Users/VMORAIS/Documents/DAVE_WS/1p_inverter_200V/Libraries/CMSIS/Include\cmsis_gcc.h ****  */
1225:C:/Users/VMORAIS/Documents/DAVE_WS/1p_inverter_200V/Libraries/CMSIS/Include\cmsis_gcc.h **** __attribute__((always_inline)) __STATIC_INLINE void __STLH(uint16_t value, volatile uint16_t *ptr)
1226:C:/Users/VMORAIS/Documents/DAVE_WS/1p_inverter_200V/Libraries/CMSIS/Include\cmsis_gcc.h **** {
1227:C:/Users/VMORAIS/Documents/DAVE_WS/1p_inverter_200V/Libraries/CMSIS/Include\cmsis_gcc.h ****    __ASM volatile ("stlh %1, %0" : "=Q" (*ptr) : "r" ((uint32_t)value) );
1228:C:/Users/VMORAIS/Documents/DAVE_WS/1p_inverter_200V/Libraries/CMSIS/Include\cmsis_gcc.h **** }
1229:C:/Users/VMORAIS/Documents/DAVE_WS/1p_inverter_200V/Libraries/CMSIS/Include\cmsis_gcc.h **** 
1230:C:/Users/VMORAIS/Documents/DAVE_WS/1p_inverter_200V/Libraries/CMSIS/Include\cmsis_gcc.h **** 
1231:C:/Users/VMORAIS/Documents/DAVE_WS/1p_inverter_200V/Libraries/CMSIS/Include\cmsis_gcc.h **** /**
1232:C:/Users/VMORAIS/Documents/DAVE_WS/1p_inverter_200V/Libraries/CMSIS/Include\cmsis_gcc.h ****   \brief   Store-Release (32 bit)
1233:C:/Users/VMORAIS/Documents/DAVE_WS/1p_inverter_200V/Libraries/CMSIS/Include\cmsis_gcc.h ****   \details Executes a STL instruction for 32 bit values.
1234:C:/Users/VMORAIS/Documents/DAVE_WS/1p_inverter_200V/Libraries/CMSIS/Include\cmsis_gcc.h ****   \param [in]  value  Value to store
1235:C:/Users/VMORAIS/Documents/DAVE_WS/1p_inverter_200V/Libraries/CMSIS/Include\cmsis_gcc.h ****   \param [in]    ptr  Pointer to location
1236:C:/Users/VMORAIS/Documents/DAVE_WS/1p_inverter_200V/Libraries/CMSIS/Include\cmsis_gcc.h ****  */
1237:C:/Users/VMORAIS/Documents/DAVE_WS/1p_inverter_200V/Libraries/CMSIS/Include\cmsis_gcc.h **** __attribute__((always_inline)) __STATIC_INLINE void __STL(uint32_t value, volatile uint32_t *ptr)
1238:C:/Users/VMORAIS/Documents/DAVE_WS/1p_inverter_200V/Libraries/CMSIS/Include\cmsis_gcc.h **** {
1239:C:/Users/VMORAIS/Documents/DAVE_WS/1p_inverter_200V/Libraries/CMSIS/Include\cmsis_gcc.h ****    __ASM volatile ("stl %1, %0" : "=Q" (*ptr) : "r" ((uint32_t)value) );
1240:C:/Users/VMORAIS/Documents/DAVE_WS/1p_inverter_200V/Libraries/CMSIS/Include\cmsis_gcc.h **** }
1241:C:/Users/VMORAIS/Documents/DAVE_WS/1p_inverter_200V/Libraries/CMSIS/Include\cmsis_gcc.h **** 
1242:C:/Users/VMORAIS/Documents/DAVE_WS/1p_inverter_200V/Libraries/CMSIS/Include\cmsis_gcc.h **** 
1243:C:/Users/VMORAIS/Documents/DAVE_WS/1p_inverter_200V/Libraries/CMSIS/Include\cmsis_gcc.h **** /**
1244:C:/Users/VMORAIS/Documents/DAVE_WS/1p_inverter_200V/Libraries/CMSIS/Include\cmsis_gcc.h ****   \brief   Load-Acquire Exclusive (8 bit)
1245:C:/Users/VMORAIS/Documents/DAVE_WS/1p_inverter_200V/Libraries/CMSIS/Include\cmsis_gcc.h ****   \details Executes a LDAB exclusive instruction for 8 bit value.
1246:C:/Users/VMORAIS/Documents/DAVE_WS/1p_inverter_200V/Libraries/CMSIS/Include\cmsis_gcc.h ****   \param [in]    ptr  Pointer to data
1247:C:/Users/VMORAIS/Documents/DAVE_WS/1p_inverter_200V/Libraries/CMSIS/Include\cmsis_gcc.h ****   \return             value of type uint8_t at (*ptr)
1248:C:/Users/VMORAIS/Documents/DAVE_WS/1p_inverter_200V/Libraries/CMSIS/Include\cmsis_gcc.h ****  */
1249:C:/Users/VMORAIS/Documents/DAVE_WS/1p_inverter_200V/Libraries/CMSIS/Include\cmsis_gcc.h **** __attribute__((always_inline)) __STATIC_INLINE uint8_t __LDAEXB(volatile uint8_t *ptr)
1250:C:/Users/VMORAIS/Documents/DAVE_WS/1p_inverter_200V/Libraries/CMSIS/Include\cmsis_gcc.h **** {
1251:C:/Users/VMORAIS/Documents/DAVE_WS/1p_inverter_200V/Libraries/CMSIS/Include\cmsis_gcc.h ****     uint32_t result;
1252:C:/Users/VMORAIS/Documents/DAVE_WS/1p_inverter_200V/Libraries/CMSIS/Include\cmsis_gcc.h **** 
1253:C:/Users/VMORAIS/Documents/DAVE_WS/1p_inverter_200V/Libraries/CMSIS/Include\cmsis_gcc.h ****    __ASM volatile ("ldaexb %0, %1" : "=r" (result) : "Q" (*ptr) );
1254:C:/Users/VMORAIS/Documents/DAVE_WS/1p_inverter_200V/Libraries/CMSIS/Include\cmsis_gcc.h ****    return ((uint8_t) result);
1255:C:/Users/VMORAIS/Documents/DAVE_WS/1p_inverter_200V/Libraries/CMSIS/Include\cmsis_gcc.h **** }
1256:C:/Users/VMORAIS/Documents/DAVE_WS/1p_inverter_200V/Libraries/CMSIS/Include\cmsis_gcc.h **** 
1257:C:/Users/VMORAIS/Documents/DAVE_WS/1p_inverter_200V/Libraries/CMSIS/Include\cmsis_gcc.h **** 
1258:C:/Users/VMORAIS/Documents/DAVE_WS/1p_inverter_200V/Libraries/CMSIS/Include\cmsis_gcc.h **** /**
1259:C:/Users/VMORAIS/Documents/DAVE_WS/1p_inverter_200V/Libraries/CMSIS/Include\cmsis_gcc.h ****   \brief   Load-Acquire Exclusive (16 bit)
1260:C:/Users/VMORAIS/Documents/DAVE_WS/1p_inverter_200V/Libraries/CMSIS/Include\cmsis_gcc.h ****   \details Executes a LDAH exclusive instruction for 16 bit values.
1261:C:/Users/VMORAIS/Documents/DAVE_WS/1p_inverter_200V/Libraries/CMSIS/Include\cmsis_gcc.h ****   \param [in]    ptr  Pointer to data
1262:C:/Users/VMORAIS/Documents/DAVE_WS/1p_inverter_200V/Libraries/CMSIS/Include\cmsis_gcc.h ****   \return        value of type uint16_t at (*ptr)
1263:C:/Users/VMORAIS/Documents/DAVE_WS/1p_inverter_200V/Libraries/CMSIS/Include\cmsis_gcc.h ****  */
1264:C:/Users/VMORAIS/Documents/DAVE_WS/1p_inverter_200V/Libraries/CMSIS/Include\cmsis_gcc.h **** __attribute__((always_inline)) __STATIC_INLINE uint16_t __LDAEXH(volatile uint16_t *ptr)
1265:C:/Users/VMORAIS/Documents/DAVE_WS/1p_inverter_200V/Libraries/CMSIS/Include\cmsis_gcc.h **** {
1266:C:/Users/VMORAIS/Documents/DAVE_WS/1p_inverter_200V/Libraries/CMSIS/Include\cmsis_gcc.h ****     uint32_t result;
1267:C:/Users/VMORAIS/Documents/DAVE_WS/1p_inverter_200V/Libraries/CMSIS/Include\cmsis_gcc.h **** 
1268:C:/Users/VMORAIS/Documents/DAVE_WS/1p_inverter_200V/Libraries/CMSIS/Include\cmsis_gcc.h ****    __ASM volatile ("ldaexh %0, %1" : "=r" (result) : "Q" (*ptr) );
1269:C:/Users/VMORAIS/Documents/DAVE_WS/1p_inverter_200V/Libraries/CMSIS/Include\cmsis_gcc.h ****    return ((uint16_t) result);
1270:C:/Users/VMORAIS/Documents/DAVE_WS/1p_inverter_200V/Libraries/CMSIS/Include\cmsis_gcc.h **** }
1271:C:/Users/VMORAIS/Documents/DAVE_WS/1p_inverter_200V/Libraries/CMSIS/Include\cmsis_gcc.h **** 
1272:C:/Users/VMORAIS/Documents/DAVE_WS/1p_inverter_200V/Libraries/CMSIS/Include\cmsis_gcc.h **** 
1273:C:/Users/VMORAIS/Documents/DAVE_WS/1p_inverter_200V/Libraries/CMSIS/Include\cmsis_gcc.h **** /**
1274:C:/Users/VMORAIS/Documents/DAVE_WS/1p_inverter_200V/Libraries/CMSIS/Include\cmsis_gcc.h ****   \brief   Load-Acquire Exclusive (32 bit)
1275:C:/Users/VMORAIS/Documents/DAVE_WS/1p_inverter_200V/Libraries/CMSIS/Include\cmsis_gcc.h ****   \details Executes a LDA exclusive instruction for 32 bit values.
1276:C:/Users/VMORAIS/Documents/DAVE_WS/1p_inverter_200V/Libraries/CMSIS/Include\cmsis_gcc.h ****   \param [in]    ptr  Pointer to data
1277:C:/Users/VMORAIS/Documents/DAVE_WS/1p_inverter_200V/Libraries/CMSIS/Include\cmsis_gcc.h ****   \return        value of type uint32_t at (*ptr)
1278:C:/Users/VMORAIS/Documents/DAVE_WS/1p_inverter_200V/Libraries/CMSIS/Include\cmsis_gcc.h ****  */
1279:C:/Users/VMORAIS/Documents/DAVE_WS/1p_inverter_200V/Libraries/CMSIS/Include\cmsis_gcc.h **** __attribute__((always_inline)) __STATIC_INLINE uint32_t __LDAEX(volatile uint32_t *ptr)
1280:C:/Users/VMORAIS/Documents/DAVE_WS/1p_inverter_200V/Libraries/CMSIS/Include\cmsis_gcc.h **** {
1281:C:/Users/VMORAIS/Documents/DAVE_WS/1p_inverter_200V/Libraries/CMSIS/Include\cmsis_gcc.h ****     uint32_t result;
1282:C:/Users/VMORAIS/Documents/DAVE_WS/1p_inverter_200V/Libraries/CMSIS/Include\cmsis_gcc.h **** 
1283:C:/Users/VMORAIS/Documents/DAVE_WS/1p_inverter_200V/Libraries/CMSIS/Include\cmsis_gcc.h ****    __ASM volatile ("ldaex %0, %1" : "=r" (result) : "Q" (*ptr) );
1284:C:/Users/VMORAIS/Documents/DAVE_WS/1p_inverter_200V/Libraries/CMSIS/Include\cmsis_gcc.h ****    return(result);
1285:C:/Users/VMORAIS/Documents/DAVE_WS/1p_inverter_200V/Libraries/CMSIS/Include\cmsis_gcc.h **** }
1286:C:/Users/VMORAIS/Documents/DAVE_WS/1p_inverter_200V/Libraries/CMSIS/Include\cmsis_gcc.h **** 
1287:C:/Users/VMORAIS/Documents/DAVE_WS/1p_inverter_200V/Libraries/CMSIS/Include\cmsis_gcc.h **** 
1288:C:/Users/VMORAIS/Documents/DAVE_WS/1p_inverter_200V/Libraries/CMSIS/Include\cmsis_gcc.h **** /**
1289:C:/Users/VMORAIS/Documents/DAVE_WS/1p_inverter_200V/Libraries/CMSIS/Include\cmsis_gcc.h ****   \brief   Store-Release Exclusive (8 bit)
1290:C:/Users/VMORAIS/Documents/DAVE_WS/1p_inverter_200V/Libraries/CMSIS/Include\cmsis_gcc.h ****   \details Executes a STLB exclusive instruction for 8 bit values.
1291:C:/Users/VMORAIS/Documents/DAVE_WS/1p_inverter_200V/Libraries/CMSIS/Include\cmsis_gcc.h ****   \param [in]  value  Value to store
1292:C:/Users/VMORAIS/Documents/DAVE_WS/1p_inverter_200V/Libraries/CMSIS/Include\cmsis_gcc.h ****   \param [in]    ptr  Pointer to location
1293:C:/Users/VMORAIS/Documents/DAVE_WS/1p_inverter_200V/Libraries/CMSIS/Include\cmsis_gcc.h ****   \return          0  Function succeeded
1294:C:/Users/VMORAIS/Documents/DAVE_WS/1p_inverter_200V/Libraries/CMSIS/Include\cmsis_gcc.h ****   \return          1  Function failed
1295:C:/Users/VMORAIS/Documents/DAVE_WS/1p_inverter_200V/Libraries/CMSIS/Include\cmsis_gcc.h ****  */
1296:C:/Users/VMORAIS/Documents/DAVE_WS/1p_inverter_200V/Libraries/CMSIS/Include\cmsis_gcc.h **** __attribute__((always_inline)) __STATIC_INLINE uint32_t __STLEXB(uint8_t value, volatile uint8_t *p
1297:C:/Users/VMORAIS/Documents/DAVE_WS/1p_inverter_200V/Libraries/CMSIS/Include\cmsis_gcc.h **** {
1298:C:/Users/VMORAIS/Documents/DAVE_WS/1p_inverter_200V/Libraries/CMSIS/Include\cmsis_gcc.h ****    uint32_t result;
1299:C:/Users/VMORAIS/Documents/DAVE_WS/1p_inverter_200V/Libraries/CMSIS/Include\cmsis_gcc.h **** 
1300:C:/Users/VMORAIS/Documents/DAVE_WS/1p_inverter_200V/Libraries/CMSIS/Include\cmsis_gcc.h ****    __ASM volatile ("stlexb %0, %2, %1" : "=&r" (result), "=Q" (*ptr) : "r" ((uint32_t)value) );
1301:C:/Users/VMORAIS/Documents/DAVE_WS/1p_inverter_200V/Libraries/CMSIS/Include\cmsis_gcc.h ****    return(result);
1302:C:/Users/VMORAIS/Documents/DAVE_WS/1p_inverter_200V/Libraries/CMSIS/Include\cmsis_gcc.h **** }
1303:C:/Users/VMORAIS/Documents/DAVE_WS/1p_inverter_200V/Libraries/CMSIS/Include\cmsis_gcc.h **** 
1304:C:/Users/VMORAIS/Documents/DAVE_WS/1p_inverter_200V/Libraries/CMSIS/Include\cmsis_gcc.h **** 
1305:C:/Users/VMORAIS/Documents/DAVE_WS/1p_inverter_200V/Libraries/CMSIS/Include\cmsis_gcc.h **** /**
1306:C:/Users/VMORAIS/Documents/DAVE_WS/1p_inverter_200V/Libraries/CMSIS/Include\cmsis_gcc.h ****   \brief   Store-Release Exclusive (16 bit)
1307:C:/Users/VMORAIS/Documents/DAVE_WS/1p_inverter_200V/Libraries/CMSIS/Include\cmsis_gcc.h ****   \details Executes a STLH exclusive instruction for 16 bit values.
1308:C:/Users/VMORAIS/Documents/DAVE_WS/1p_inverter_200V/Libraries/CMSIS/Include\cmsis_gcc.h ****   \param [in]  value  Value to store
1309:C:/Users/VMORAIS/Documents/DAVE_WS/1p_inverter_200V/Libraries/CMSIS/Include\cmsis_gcc.h ****   \param [in]    ptr  Pointer to location
1310:C:/Users/VMORAIS/Documents/DAVE_WS/1p_inverter_200V/Libraries/CMSIS/Include\cmsis_gcc.h ****   \return          0  Function succeeded
1311:C:/Users/VMORAIS/Documents/DAVE_WS/1p_inverter_200V/Libraries/CMSIS/Include\cmsis_gcc.h ****   \return          1  Function failed
1312:C:/Users/VMORAIS/Documents/DAVE_WS/1p_inverter_200V/Libraries/CMSIS/Include\cmsis_gcc.h ****  */
1313:C:/Users/VMORAIS/Documents/DAVE_WS/1p_inverter_200V/Libraries/CMSIS/Include\cmsis_gcc.h **** __attribute__((always_inline)) __STATIC_INLINE uint32_t __STLEXH(uint16_t value, volatile uint16_t 
1314:C:/Users/VMORAIS/Documents/DAVE_WS/1p_inverter_200V/Libraries/CMSIS/Include\cmsis_gcc.h **** {
1315:C:/Users/VMORAIS/Documents/DAVE_WS/1p_inverter_200V/Libraries/CMSIS/Include\cmsis_gcc.h ****    uint32_t result;
1316:C:/Users/VMORAIS/Documents/DAVE_WS/1p_inverter_200V/Libraries/CMSIS/Include\cmsis_gcc.h **** 
1317:C:/Users/VMORAIS/Documents/DAVE_WS/1p_inverter_200V/Libraries/CMSIS/Include\cmsis_gcc.h ****    __ASM volatile ("stlexh %0, %2, %1" : "=&r" (result), "=Q" (*ptr) : "r" ((uint32_t)value) );
1318:C:/Users/VMORAIS/Documents/DAVE_WS/1p_inverter_200V/Libraries/CMSIS/Include\cmsis_gcc.h ****    return(result);
1319:C:/Users/VMORAIS/Documents/DAVE_WS/1p_inverter_200V/Libraries/CMSIS/Include\cmsis_gcc.h **** }
1320:C:/Users/VMORAIS/Documents/DAVE_WS/1p_inverter_200V/Libraries/CMSIS/Include\cmsis_gcc.h **** 
1321:C:/Users/VMORAIS/Documents/DAVE_WS/1p_inverter_200V/Libraries/CMSIS/Include\cmsis_gcc.h **** 
1322:C:/Users/VMORAIS/Documents/DAVE_WS/1p_inverter_200V/Libraries/CMSIS/Include\cmsis_gcc.h **** /**
1323:C:/Users/VMORAIS/Documents/DAVE_WS/1p_inverter_200V/Libraries/CMSIS/Include\cmsis_gcc.h ****   \brief   Store-Release Exclusive (32 bit)
1324:C:/Users/VMORAIS/Documents/DAVE_WS/1p_inverter_200V/Libraries/CMSIS/Include\cmsis_gcc.h ****   \details Executes a STL exclusive instruction for 32 bit values.
1325:C:/Users/VMORAIS/Documents/DAVE_WS/1p_inverter_200V/Libraries/CMSIS/Include\cmsis_gcc.h ****   \param [in]  value  Value to store
1326:C:/Users/VMORAIS/Documents/DAVE_WS/1p_inverter_200V/Libraries/CMSIS/Include\cmsis_gcc.h ****   \param [in]    ptr  Pointer to location
1327:C:/Users/VMORAIS/Documents/DAVE_WS/1p_inverter_200V/Libraries/CMSIS/Include\cmsis_gcc.h ****   \return          0  Function succeeded
1328:C:/Users/VMORAIS/Documents/DAVE_WS/1p_inverter_200V/Libraries/CMSIS/Include\cmsis_gcc.h ****   \return          1  Function failed
1329:C:/Users/VMORAIS/Documents/DAVE_WS/1p_inverter_200V/Libraries/CMSIS/Include\cmsis_gcc.h ****  */
1330:C:/Users/VMORAIS/Documents/DAVE_WS/1p_inverter_200V/Libraries/CMSIS/Include\cmsis_gcc.h **** __attribute__((always_inline)) __STATIC_INLINE uint32_t __STLEX(uint32_t value, volatile uint32_t *
1331:C:/Users/VMORAIS/Documents/DAVE_WS/1p_inverter_200V/Libraries/CMSIS/Include\cmsis_gcc.h **** {
1332:C:/Users/VMORAIS/Documents/DAVE_WS/1p_inverter_200V/Libraries/CMSIS/Include\cmsis_gcc.h ****    uint32_t result;
1333:C:/Users/VMORAIS/Documents/DAVE_WS/1p_inverter_200V/Libraries/CMSIS/Include\cmsis_gcc.h **** 
1334:C:/Users/VMORAIS/Documents/DAVE_WS/1p_inverter_200V/Libraries/CMSIS/Include\cmsis_gcc.h ****    __ASM volatile ("stlex %0, %2, %1" : "=&r" (result), "=Q" (*ptr) : "r" ((uint32_t)value) );
1335:C:/Users/VMORAIS/Documents/DAVE_WS/1p_inverter_200V/Libraries/CMSIS/Include\cmsis_gcc.h ****    return(result);
1336:C:/Users/VMORAIS/Documents/DAVE_WS/1p_inverter_200V/Libraries/CMSIS/Include\cmsis_gcc.h **** }
1337:C:/Users/VMORAIS/Documents/DAVE_WS/1p_inverter_200V/Libraries/CMSIS/Include\cmsis_gcc.h **** 
1338:C:/Users/VMORAIS/Documents/DAVE_WS/1p_inverter_200V/Libraries/CMSIS/Include\cmsis_gcc.h **** #endif /* ((defined (__ARM_ARCH_8M_MAIN__ ) && (__ARM_ARCH_8M_MAIN__ == 1)) || \
1339:C:/Users/VMORAIS/Documents/DAVE_WS/1p_inverter_200V/Libraries/CMSIS/Include\cmsis_gcc.h ****            (defined (__ARM_ARCH_8M_BASE__ ) && (__ARM_ARCH_8M_BASE__ == 1))    ) */
1340:C:/Users/VMORAIS/Documents/DAVE_WS/1p_inverter_200V/Libraries/CMSIS/Include\cmsis_gcc.h **** 
1341:C:/Users/VMORAIS/Documents/DAVE_WS/1p_inverter_200V/Libraries/CMSIS/Include\cmsis_gcc.h **** /*@}*/ /* end of group CMSIS_Core_InstructionInterface */
1342:C:/Users/VMORAIS/Documents/DAVE_WS/1p_inverter_200V/Libraries/CMSIS/Include\cmsis_gcc.h **** 
1343:C:/Users/VMORAIS/Documents/DAVE_WS/1p_inverter_200V/Libraries/CMSIS/Include\cmsis_gcc.h **** 
1344:C:/Users/VMORAIS/Documents/DAVE_WS/1p_inverter_200V/Libraries/CMSIS/Include\cmsis_gcc.h **** /* ###################  Compiler specific Intrinsics  ########################### */
1345:C:/Users/VMORAIS/Documents/DAVE_WS/1p_inverter_200V/Libraries/CMSIS/Include\cmsis_gcc.h **** /** \defgroup CMSIS_SIMD_intrinsics CMSIS SIMD Intrinsics
1346:C:/Users/VMORAIS/Documents/DAVE_WS/1p_inverter_200V/Libraries/CMSIS/Include\cmsis_gcc.h ****   Access to dedicated SIMD instructions
1347:C:/Users/VMORAIS/Documents/DAVE_WS/1p_inverter_200V/Libraries/CMSIS/Include\cmsis_gcc.h ****   @{
1348:C:/Users/VMORAIS/Documents/DAVE_WS/1p_inverter_200V/Libraries/CMSIS/Include\cmsis_gcc.h **** */
1349:C:/Users/VMORAIS/Documents/DAVE_WS/1p_inverter_200V/Libraries/CMSIS/Include\cmsis_gcc.h **** 
1350:C:/Users/VMORAIS/Documents/DAVE_WS/1p_inverter_200V/Libraries/CMSIS/Include\cmsis_gcc.h **** #if (__ARM_FEATURE_DSP == 1)                             /* ToDo ARMCLANG: This should be ARCH >= A
1351:C:/Users/VMORAIS/Documents/DAVE_WS/1p_inverter_200V/Libraries/CMSIS/Include\cmsis_gcc.h **** 
1352:C:/Users/VMORAIS/Documents/DAVE_WS/1p_inverter_200V/Libraries/CMSIS/Include\cmsis_gcc.h **** __attribute__((always_inline)) __STATIC_INLINE uint32_t __SADD8(uint32_t op1, uint32_t op2)
1353:C:/Users/VMORAIS/Documents/DAVE_WS/1p_inverter_200V/Libraries/CMSIS/Include\cmsis_gcc.h **** {
1354:C:/Users/VMORAIS/Documents/DAVE_WS/1p_inverter_200V/Libraries/CMSIS/Include\cmsis_gcc.h ****   uint32_t result;
1355:C:/Users/VMORAIS/Documents/DAVE_WS/1p_inverter_200V/Libraries/CMSIS/Include\cmsis_gcc.h **** 
1356:C:/Users/VMORAIS/Documents/DAVE_WS/1p_inverter_200V/Libraries/CMSIS/Include\cmsis_gcc.h ****   __ASM volatile ("sadd8 %0, %1, %2" : "=r" (result) : "r" (op1), "r" (op2) );
1357:C:/Users/VMORAIS/Documents/DAVE_WS/1p_inverter_200V/Libraries/CMSIS/Include\cmsis_gcc.h ****   return(result);
1358:C:/Users/VMORAIS/Documents/DAVE_WS/1p_inverter_200V/Libraries/CMSIS/Include\cmsis_gcc.h **** }
1359:C:/Users/VMORAIS/Documents/DAVE_WS/1p_inverter_200V/Libraries/CMSIS/Include\cmsis_gcc.h **** 
1360:C:/Users/VMORAIS/Documents/DAVE_WS/1p_inverter_200V/Libraries/CMSIS/Include\cmsis_gcc.h **** __attribute__((always_inline)) __STATIC_INLINE uint32_t __QADD8(uint32_t op1, uint32_t op2)
1361:C:/Users/VMORAIS/Documents/DAVE_WS/1p_inverter_200V/Libraries/CMSIS/Include\cmsis_gcc.h **** {
1362:C:/Users/VMORAIS/Documents/DAVE_WS/1p_inverter_200V/Libraries/CMSIS/Include\cmsis_gcc.h ****   uint32_t result;
1363:C:/Users/VMORAIS/Documents/DAVE_WS/1p_inverter_200V/Libraries/CMSIS/Include\cmsis_gcc.h **** 
1364:C:/Users/VMORAIS/Documents/DAVE_WS/1p_inverter_200V/Libraries/CMSIS/Include\cmsis_gcc.h ****   __ASM volatile ("qadd8 %0, %1, %2" : "=r" (result) : "r" (op1), "r" (op2) );
1365:C:/Users/VMORAIS/Documents/DAVE_WS/1p_inverter_200V/Libraries/CMSIS/Include\cmsis_gcc.h ****   return(result);
1366:C:/Users/VMORAIS/Documents/DAVE_WS/1p_inverter_200V/Libraries/CMSIS/Include\cmsis_gcc.h **** }
1367:C:/Users/VMORAIS/Documents/DAVE_WS/1p_inverter_200V/Libraries/CMSIS/Include\cmsis_gcc.h **** 
1368:C:/Users/VMORAIS/Documents/DAVE_WS/1p_inverter_200V/Libraries/CMSIS/Include\cmsis_gcc.h **** __attribute__((always_inline)) __STATIC_INLINE uint32_t __SHADD8(uint32_t op1, uint32_t op2)
1369:C:/Users/VMORAIS/Documents/DAVE_WS/1p_inverter_200V/Libraries/CMSIS/Include\cmsis_gcc.h **** {
1370:C:/Users/VMORAIS/Documents/DAVE_WS/1p_inverter_200V/Libraries/CMSIS/Include\cmsis_gcc.h ****   uint32_t result;
1371:C:/Users/VMORAIS/Documents/DAVE_WS/1p_inverter_200V/Libraries/CMSIS/Include\cmsis_gcc.h **** 
1372:C:/Users/VMORAIS/Documents/DAVE_WS/1p_inverter_200V/Libraries/CMSIS/Include\cmsis_gcc.h ****   __ASM volatile ("shadd8 %0, %1, %2" : "=r" (result) : "r" (op1), "r" (op2) );
1373:C:/Users/VMORAIS/Documents/DAVE_WS/1p_inverter_200V/Libraries/CMSIS/Include\cmsis_gcc.h ****   return(result);
1374:C:/Users/VMORAIS/Documents/DAVE_WS/1p_inverter_200V/Libraries/CMSIS/Include\cmsis_gcc.h **** }
1375:C:/Users/VMORAIS/Documents/DAVE_WS/1p_inverter_200V/Libraries/CMSIS/Include\cmsis_gcc.h **** 
1376:C:/Users/VMORAIS/Documents/DAVE_WS/1p_inverter_200V/Libraries/CMSIS/Include\cmsis_gcc.h **** __attribute__((always_inline)) __STATIC_INLINE uint32_t __UADD8(uint32_t op1, uint32_t op2)
1377:C:/Users/VMORAIS/Documents/DAVE_WS/1p_inverter_200V/Libraries/CMSIS/Include\cmsis_gcc.h **** {
1378:C:/Users/VMORAIS/Documents/DAVE_WS/1p_inverter_200V/Libraries/CMSIS/Include\cmsis_gcc.h ****   uint32_t result;
1379:C:/Users/VMORAIS/Documents/DAVE_WS/1p_inverter_200V/Libraries/CMSIS/Include\cmsis_gcc.h **** 
1380:C:/Users/VMORAIS/Documents/DAVE_WS/1p_inverter_200V/Libraries/CMSIS/Include\cmsis_gcc.h ****   __ASM volatile ("uadd8 %0, %1, %2" : "=r" (result) : "r" (op1), "r" (op2) );
1381:C:/Users/VMORAIS/Documents/DAVE_WS/1p_inverter_200V/Libraries/CMSIS/Include\cmsis_gcc.h ****   return(result);
1382:C:/Users/VMORAIS/Documents/DAVE_WS/1p_inverter_200V/Libraries/CMSIS/Include\cmsis_gcc.h **** }
1383:C:/Users/VMORAIS/Documents/DAVE_WS/1p_inverter_200V/Libraries/CMSIS/Include\cmsis_gcc.h **** 
1384:C:/Users/VMORAIS/Documents/DAVE_WS/1p_inverter_200V/Libraries/CMSIS/Include\cmsis_gcc.h **** __attribute__((always_inline)) __STATIC_INLINE uint32_t __UQADD8(uint32_t op1, uint32_t op2)
1385:C:/Users/VMORAIS/Documents/DAVE_WS/1p_inverter_200V/Libraries/CMSIS/Include\cmsis_gcc.h **** {
1386:C:/Users/VMORAIS/Documents/DAVE_WS/1p_inverter_200V/Libraries/CMSIS/Include\cmsis_gcc.h ****   uint32_t result;
1387:C:/Users/VMORAIS/Documents/DAVE_WS/1p_inverter_200V/Libraries/CMSIS/Include\cmsis_gcc.h **** 
1388:C:/Users/VMORAIS/Documents/DAVE_WS/1p_inverter_200V/Libraries/CMSIS/Include\cmsis_gcc.h ****   __ASM volatile ("uqadd8 %0, %1, %2" : "=r" (result) : "r" (op1), "r" (op2) );
1389:C:/Users/VMORAIS/Documents/DAVE_WS/1p_inverter_200V/Libraries/CMSIS/Include\cmsis_gcc.h ****   return(result);
1390:C:/Users/VMORAIS/Documents/DAVE_WS/1p_inverter_200V/Libraries/CMSIS/Include\cmsis_gcc.h **** }
1391:C:/Users/VMORAIS/Documents/DAVE_WS/1p_inverter_200V/Libraries/CMSIS/Include\cmsis_gcc.h **** 
1392:C:/Users/VMORAIS/Documents/DAVE_WS/1p_inverter_200V/Libraries/CMSIS/Include\cmsis_gcc.h **** __attribute__((always_inline)) __STATIC_INLINE uint32_t __UHADD8(uint32_t op1, uint32_t op2)
1393:C:/Users/VMORAIS/Documents/DAVE_WS/1p_inverter_200V/Libraries/CMSIS/Include\cmsis_gcc.h **** {
1394:C:/Users/VMORAIS/Documents/DAVE_WS/1p_inverter_200V/Libraries/CMSIS/Include\cmsis_gcc.h ****   uint32_t result;
1395:C:/Users/VMORAIS/Documents/DAVE_WS/1p_inverter_200V/Libraries/CMSIS/Include\cmsis_gcc.h **** 
1396:C:/Users/VMORAIS/Documents/DAVE_WS/1p_inverter_200V/Libraries/CMSIS/Include\cmsis_gcc.h ****   __ASM volatile ("uhadd8 %0, %1, %2" : "=r" (result) : "r" (op1), "r" (op2) );
1397:C:/Users/VMORAIS/Documents/DAVE_WS/1p_inverter_200V/Libraries/CMSIS/Include\cmsis_gcc.h ****   return(result);
1398:C:/Users/VMORAIS/Documents/DAVE_WS/1p_inverter_200V/Libraries/CMSIS/Include\cmsis_gcc.h **** }
1399:C:/Users/VMORAIS/Documents/DAVE_WS/1p_inverter_200V/Libraries/CMSIS/Include\cmsis_gcc.h **** 
1400:C:/Users/VMORAIS/Documents/DAVE_WS/1p_inverter_200V/Libraries/CMSIS/Include\cmsis_gcc.h **** 
1401:C:/Users/VMORAIS/Documents/DAVE_WS/1p_inverter_200V/Libraries/CMSIS/Include\cmsis_gcc.h **** __attribute__((always_inline)) __STATIC_INLINE uint32_t __SSUB8(uint32_t op1, uint32_t op2)
1402:C:/Users/VMORAIS/Documents/DAVE_WS/1p_inverter_200V/Libraries/CMSIS/Include\cmsis_gcc.h **** {
1403:C:/Users/VMORAIS/Documents/DAVE_WS/1p_inverter_200V/Libraries/CMSIS/Include\cmsis_gcc.h ****   uint32_t result;
1404:C:/Users/VMORAIS/Documents/DAVE_WS/1p_inverter_200V/Libraries/CMSIS/Include\cmsis_gcc.h **** 
1405:C:/Users/VMORAIS/Documents/DAVE_WS/1p_inverter_200V/Libraries/CMSIS/Include\cmsis_gcc.h ****   __ASM volatile ("ssub8 %0, %1, %2" : "=r" (result) : "r" (op1), "r" (op2) );
1406:C:/Users/VMORAIS/Documents/DAVE_WS/1p_inverter_200V/Libraries/CMSIS/Include\cmsis_gcc.h ****   return(result);
1407:C:/Users/VMORAIS/Documents/DAVE_WS/1p_inverter_200V/Libraries/CMSIS/Include\cmsis_gcc.h **** }
1408:C:/Users/VMORAIS/Documents/DAVE_WS/1p_inverter_200V/Libraries/CMSIS/Include\cmsis_gcc.h **** 
1409:C:/Users/VMORAIS/Documents/DAVE_WS/1p_inverter_200V/Libraries/CMSIS/Include\cmsis_gcc.h **** __attribute__((always_inline)) __STATIC_INLINE uint32_t __QSUB8(uint32_t op1, uint32_t op2)
1410:C:/Users/VMORAIS/Documents/DAVE_WS/1p_inverter_200V/Libraries/CMSIS/Include\cmsis_gcc.h **** {
1411:C:/Users/VMORAIS/Documents/DAVE_WS/1p_inverter_200V/Libraries/CMSIS/Include\cmsis_gcc.h ****   uint32_t result;
1412:C:/Users/VMORAIS/Documents/DAVE_WS/1p_inverter_200V/Libraries/CMSIS/Include\cmsis_gcc.h **** 
1413:C:/Users/VMORAIS/Documents/DAVE_WS/1p_inverter_200V/Libraries/CMSIS/Include\cmsis_gcc.h ****   __ASM volatile ("qsub8 %0, %1, %2" : "=r" (result) : "r" (op1), "r" (op2) );
1414:C:/Users/VMORAIS/Documents/DAVE_WS/1p_inverter_200V/Libraries/CMSIS/Include\cmsis_gcc.h ****   return(result);
1415:C:/Users/VMORAIS/Documents/DAVE_WS/1p_inverter_200V/Libraries/CMSIS/Include\cmsis_gcc.h **** }
1416:C:/Users/VMORAIS/Documents/DAVE_WS/1p_inverter_200V/Libraries/CMSIS/Include\cmsis_gcc.h **** 
1417:C:/Users/VMORAIS/Documents/DAVE_WS/1p_inverter_200V/Libraries/CMSIS/Include\cmsis_gcc.h **** __attribute__((always_inline)) __STATIC_INLINE uint32_t __SHSUB8(uint32_t op1, uint32_t op2)
1418:C:/Users/VMORAIS/Documents/DAVE_WS/1p_inverter_200V/Libraries/CMSIS/Include\cmsis_gcc.h **** {
1419:C:/Users/VMORAIS/Documents/DAVE_WS/1p_inverter_200V/Libraries/CMSIS/Include\cmsis_gcc.h ****   uint32_t result;
1420:C:/Users/VMORAIS/Documents/DAVE_WS/1p_inverter_200V/Libraries/CMSIS/Include\cmsis_gcc.h **** 
1421:C:/Users/VMORAIS/Documents/DAVE_WS/1p_inverter_200V/Libraries/CMSIS/Include\cmsis_gcc.h ****   __ASM volatile ("shsub8 %0, %1, %2" : "=r" (result) : "r" (op1), "r" (op2) );
1422:C:/Users/VMORAIS/Documents/DAVE_WS/1p_inverter_200V/Libraries/CMSIS/Include\cmsis_gcc.h ****   return(result);
1423:C:/Users/VMORAIS/Documents/DAVE_WS/1p_inverter_200V/Libraries/CMSIS/Include\cmsis_gcc.h **** }
1424:C:/Users/VMORAIS/Documents/DAVE_WS/1p_inverter_200V/Libraries/CMSIS/Include\cmsis_gcc.h **** 
1425:C:/Users/VMORAIS/Documents/DAVE_WS/1p_inverter_200V/Libraries/CMSIS/Include\cmsis_gcc.h **** __attribute__((always_inline)) __STATIC_INLINE uint32_t __USUB8(uint32_t op1, uint32_t op2)
1426:C:/Users/VMORAIS/Documents/DAVE_WS/1p_inverter_200V/Libraries/CMSIS/Include\cmsis_gcc.h **** {
1427:C:/Users/VMORAIS/Documents/DAVE_WS/1p_inverter_200V/Libraries/CMSIS/Include\cmsis_gcc.h ****   uint32_t result;
1428:C:/Users/VMORAIS/Documents/DAVE_WS/1p_inverter_200V/Libraries/CMSIS/Include\cmsis_gcc.h **** 
1429:C:/Users/VMORAIS/Documents/DAVE_WS/1p_inverter_200V/Libraries/CMSIS/Include\cmsis_gcc.h ****   __ASM volatile ("usub8 %0, %1, %2" : "=r" (result) : "r" (op1), "r" (op2) );
1430:C:/Users/VMORAIS/Documents/DAVE_WS/1p_inverter_200V/Libraries/CMSIS/Include\cmsis_gcc.h ****   return(result);
1431:C:/Users/VMORAIS/Documents/DAVE_WS/1p_inverter_200V/Libraries/CMSIS/Include\cmsis_gcc.h **** }
1432:C:/Users/VMORAIS/Documents/DAVE_WS/1p_inverter_200V/Libraries/CMSIS/Include\cmsis_gcc.h **** 
1433:C:/Users/VMORAIS/Documents/DAVE_WS/1p_inverter_200V/Libraries/CMSIS/Include\cmsis_gcc.h **** __attribute__((always_inline)) __STATIC_INLINE uint32_t __UQSUB8(uint32_t op1, uint32_t op2)
1434:C:/Users/VMORAIS/Documents/DAVE_WS/1p_inverter_200V/Libraries/CMSIS/Include\cmsis_gcc.h **** {
1435:C:/Users/VMORAIS/Documents/DAVE_WS/1p_inverter_200V/Libraries/CMSIS/Include\cmsis_gcc.h ****   uint32_t result;
1436:C:/Users/VMORAIS/Documents/DAVE_WS/1p_inverter_200V/Libraries/CMSIS/Include\cmsis_gcc.h **** 
1437:C:/Users/VMORAIS/Documents/DAVE_WS/1p_inverter_200V/Libraries/CMSIS/Include\cmsis_gcc.h ****   __ASM volatile ("uqsub8 %0, %1, %2" : "=r" (result) : "r" (op1), "r" (op2) );
1438:C:/Users/VMORAIS/Documents/DAVE_WS/1p_inverter_200V/Libraries/CMSIS/Include\cmsis_gcc.h ****   return(result);
1439:C:/Users/VMORAIS/Documents/DAVE_WS/1p_inverter_200V/Libraries/CMSIS/Include\cmsis_gcc.h **** }
1440:C:/Users/VMORAIS/Documents/DAVE_WS/1p_inverter_200V/Libraries/CMSIS/Include\cmsis_gcc.h **** 
1441:C:/Users/VMORAIS/Documents/DAVE_WS/1p_inverter_200V/Libraries/CMSIS/Include\cmsis_gcc.h **** __attribute__((always_inline)) __STATIC_INLINE uint32_t __UHSUB8(uint32_t op1, uint32_t op2)
1442:C:/Users/VMORAIS/Documents/DAVE_WS/1p_inverter_200V/Libraries/CMSIS/Include\cmsis_gcc.h **** {
1443:C:/Users/VMORAIS/Documents/DAVE_WS/1p_inverter_200V/Libraries/CMSIS/Include\cmsis_gcc.h ****   uint32_t result;
1444:C:/Users/VMORAIS/Documents/DAVE_WS/1p_inverter_200V/Libraries/CMSIS/Include\cmsis_gcc.h **** 
1445:C:/Users/VMORAIS/Documents/DAVE_WS/1p_inverter_200V/Libraries/CMSIS/Include\cmsis_gcc.h ****   __ASM volatile ("uhsub8 %0, %1, %2" : "=r" (result) : "r" (op1), "r" (op2) );
1446:C:/Users/VMORAIS/Documents/DAVE_WS/1p_inverter_200V/Libraries/CMSIS/Include\cmsis_gcc.h ****   return(result);
1447:C:/Users/VMORAIS/Documents/DAVE_WS/1p_inverter_200V/Libraries/CMSIS/Include\cmsis_gcc.h **** }
1448:C:/Users/VMORAIS/Documents/DAVE_WS/1p_inverter_200V/Libraries/CMSIS/Include\cmsis_gcc.h **** 
1449:C:/Users/VMORAIS/Documents/DAVE_WS/1p_inverter_200V/Libraries/CMSIS/Include\cmsis_gcc.h **** 
1450:C:/Users/VMORAIS/Documents/DAVE_WS/1p_inverter_200V/Libraries/CMSIS/Include\cmsis_gcc.h **** __attribute__((always_inline)) __STATIC_INLINE uint32_t __SADD16(uint32_t op1, uint32_t op2)
1451:C:/Users/VMORAIS/Documents/DAVE_WS/1p_inverter_200V/Libraries/CMSIS/Include\cmsis_gcc.h **** {
1452:C:/Users/VMORAIS/Documents/DAVE_WS/1p_inverter_200V/Libraries/CMSIS/Include\cmsis_gcc.h ****   uint32_t result;
1453:C:/Users/VMORAIS/Documents/DAVE_WS/1p_inverter_200V/Libraries/CMSIS/Include\cmsis_gcc.h **** 
1454:C:/Users/VMORAIS/Documents/DAVE_WS/1p_inverter_200V/Libraries/CMSIS/Include\cmsis_gcc.h ****   __ASM volatile ("sadd16 %0, %1, %2" : "=r" (result) : "r" (op1), "r" (op2) );
1455:C:/Users/VMORAIS/Documents/DAVE_WS/1p_inverter_200V/Libraries/CMSIS/Include\cmsis_gcc.h ****   return(result);
1456:C:/Users/VMORAIS/Documents/DAVE_WS/1p_inverter_200V/Libraries/CMSIS/Include\cmsis_gcc.h **** }
1457:C:/Users/VMORAIS/Documents/DAVE_WS/1p_inverter_200V/Libraries/CMSIS/Include\cmsis_gcc.h **** 
1458:C:/Users/VMORAIS/Documents/DAVE_WS/1p_inverter_200V/Libraries/CMSIS/Include\cmsis_gcc.h **** __attribute__((always_inline)) __STATIC_INLINE uint32_t __QADD16(uint32_t op1, uint32_t op2)
1459:C:/Users/VMORAIS/Documents/DAVE_WS/1p_inverter_200V/Libraries/CMSIS/Include\cmsis_gcc.h **** {
1460:C:/Users/VMORAIS/Documents/DAVE_WS/1p_inverter_200V/Libraries/CMSIS/Include\cmsis_gcc.h ****   uint32_t result;
1461:C:/Users/VMORAIS/Documents/DAVE_WS/1p_inverter_200V/Libraries/CMSIS/Include\cmsis_gcc.h **** 
1462:C:/Users/VMORAIS/Documents/DAVE_WS/1p_inverter_200V/Libraries/CMSIS/Include\cmsis_gcc.h ****   __ASM volatile ("qadd16 %0, %1, %2" : "=r" (result) : "r" (op1), "r" (op2) );
1463:C:/Users/VMORAIS/Documents/DAVE_WS/1p_inverter_200V/Libraries/CMSIS/Include\cmsis_gcc.h ****   return(result);
1464:C:/Users/VMORAIS/Documents/DAVE_WS/1p_inverter_200V/Libraries/CMSIS/Include\cmsis_gcc.h **** }
1465:C:/Users/VMORAIS/Documents/DAVE_WS/1p_inverter_200V/Libraries/CMSIS/Include\cmsis_gcc.h **** 
1466:C:/Users/VMORAIS/Documents/DAVE_WS/1p_inverter_200V/Libraries/CMSIS/Include\cmsis_gcc.h **** __attribute__((always_inline)) __STATIC_INLINE uint32_t __SHADD16(uint32_t op1, uint32_t op2)
1467:C:/Users/VMORAIS/Documents/DAVE_WS/1p_inverter_200V/Libraries/CMSIS/Include\cmsis_gcc.h **** {
1468:C:/Users/VMORAIS/Documents/DAVE_WS/1p_inverter_200V/Libraries/CMSIS/Include\cmsis_gcc.h ****   uint32_t result;
1469:C:/Users/VMORAIS/Documents/DAVE_WS/1p_inverter_200V/Libraries/CMSIS/Include\cmsis_gcc.h **** 
1470:C:/Users/VMORAIS/Documents/DAVE_WS/1p_inverter_200V/Libraries/CMSIS/Include\cmsis_gcc.h ****   __ASM volatile ("shadd16 %0, %1, %2" : "=r" (result) : "r" (op1), "r" (op2) );
1471:C:/Users/VMORAIS/Documents/DAVE_WS/1p_inverter_200V/Libraries/CMSIS/Include\cmsis_gcc.h ****   return(result);
1472:C:/Users/VMORAIS/Documents/DAVE_WS/1p_inverter_200V/Libraries/CMSIS/Include\cmsis_gcc.h **** }
1473:C:/Users/VMORAIS/Documents/DAVE_WS/1p_inverter_200V/Libraries/CMSIS/Include\cmsis_gcc.h **** 
1474:C:/Users/VMORAIS/Documents/DAVE_WS/1p_inverter_200V/Libraries/CMSIS/Include\cmsis_gcc.h **** __attribute__((always_inline)) __STATIC_INLINE uint32_t __UADD16(uint32_t op1, uint32_t op2)
1475:C:/Users/VMORAIS/Documents/DAVE_WS/1p_inverter_200V/Libraries/CMSIS/Include\cmsis_gcc.h **** {
1476:C:/Users/VMORAIS/Documents/DAVE_WS/1p_inverter_200V/Libraries/CMSIS/Include\cmsis_gcc.h ****   uint32_t result;
1477:C:/Users/VMORAIS/Documents/DAVE_WS/1p_inverter_200V/Libraries/CMSIS/Include\cmsis_gcc.h **** 
1478:C:/Users/VMORAIS/Documents/DAVE_WS/1p_inverter_200V/Libraries/CMSIS/Include\cmsis_gcc.h ****   __ASM volatile ("uadd16 %0, %1, %2" : "=r" (result) : "r" (op1), "r" (op2) );
1479:C:/Users/VMORAIS/Documents/DAVE_WS/1p_inverter_200V/Libraries/CMSIS/Include\cmsis_gcc.h ****   return(result);
1480:C:/Users/VMORAIS/Documents/DAVE_WS/1p_inverter_200V/Libraries/CMSIS/Include\cmsis_gcc.h **** }
1481:C:/Users/VMORAIS/Documents/DAVE_WS/1p_inverter_200V/Libraries/CMSIS/Include\cmsis_gcc.h **** 
1482:C:/Users/VMORAIS/Documents/DAVE_WS/1p_inverter_200V/Libraries/CMSIS/Include\cmsis_gcc.h **** __attribute__((always_inline)) __STATIC_INLINE uint32_t __UQADD16(uint32_t op1, uint32_t op2)
1483:C:/Users/VMORAIS/Documents/DAVE_WS/1p_inverter_200V/Libraries/CMSIS/Include\cmsis_gcc.h **** {
1484:C:/Users/VMORAIS/Documents/DAVE_WS/1p_inverter_200V/Libraries/CMSIS/Include\cmsis_gcc.h ****   uint32_t result;
1485:C:/Users/VMORAIS/Documents/DAVE_WS/1p_inverter_200V/Libraries/CMSIS/Include\cmsis_gcc.h **** 
1486:C:/Users/VMORAIS/Documents/DAVE_WS/1p_inverter_200V/Libraries/CMSIS/Include\cmsis_gcc.h ****   __ASM volatile ("uqadd16 %0, %1, %2" : "=r" (result) : "r" (op1), "r" (op2) );
1487:C:/Users/VMORAIS/Documents/DAVE_WS/1p_inverter_200V/Libraries/CMSIS/Include\cmsis_gcc.h ****   return(result);
1488:C:/Users/VMORAIS/Documents/DAVE_WS/1p_inverter_200V/Libraries/CMSIS/Include\cmsis_gcc.h **** }
1489:C:/Users/VMORAIS/Documents/DAVE_WS/1p_inverter_200V/Libraries/CMSIS/Include\cmsis_gcc.h **** 
1490:C:/Users/VMORAIS/Documents/DAVE_WS/1p_inverter_200V/Libraries/CMSIS/Include\cmsis_gcc.h **** __attribute__((always_inline)) __STATIC_INLINE uint32_t __UHADD16(uint32_t op1, uint32_t op2)
1491:C:/Users/VMORAIS/Documents/DAVE_WS/1p_inverter_200V/Libraries/CMSIS/Include\cmsis_gcc.h **** {
1492:C:/Users/VMORAIS/Documents/DAVE_WS/1p_inverter_200V/Libraries/CMSIS/Include\cmsis_gcc.h ****   uint32_t result;
1493:C:/Users/VMORAIS/Documents/DAVE_WS/1p_inverter_200V/Libraries/CMSIS/Include\cmsis_gcc.h **** 
1494:C:/Users/VMORAIS/Documents/DAVE_WS/1p_inverter_200V/Libraries/CMSIS/Include\cmsis_gcc.h ****   __ASM volatile ("uhadd16 %0, %1, %2" : "=r" (result) : "r" (op1), "r" (op2) );
1495:C:/Users/VMORAIS/Documents/DAVE_WS/1p_inverter_200V/Libraries/CMSIS/Include\cmsis_gcc.h ****   return(result);
1496:C:/Users/VMORAIS/Documents/DAVE_WS/1p_inverter_200V/Libraries/CMSIS/Include\cmsis_gcc.h **** }
1497:C:/Users/VMORAIS/Documents/DAVE_WS/1p_inverter_200V/Libraries/CMSIS/Include\cmsis_gcc.h **** 
1498:C:/Users/VMORAIS/Documents/DAVE_WS/1p_inverter_200V/Libraries/CMSIS/Include\cmsis_gcc.h **** __attribute__((always_inline)) __STATIC_INLINE uint32_t __SSUB16(uint32_t op1, uint32_t op2)
1499:C:/Users/VMORAIS/Documents/DAVE_WS/1p_inverter_200V/Libraries/CMSIS/Include\cmsis_gcc.h **** {
1500:C:/Users/VMORAIS/Documents/DAVE_WS/1p_inverter_200V/Libraries/CMSIS/Include\cmsis_gcc.h ****   uint32_t result;
1501:C:/Users/VMORAIS/Documents/DAVE_WS/1p_inverter_200V/Libraries/CMSIS/Include\cmsis_gcc.h **** 
1502:C:/Users/VMORAIS/Documents/DAVE_WS/1p_inverter_200V/Libraries/CMSIS/Include\cmsis_gcc.h ****   __ASM volatile ("ssub16 %0, %1, %2" : "=r" (result) : "r" (op1), "r" (op2) );
1503:C:/Users/VMORAIS/Documents/DAVE_WS/1p_inverter_200V/Libraries/CMSIS/Include\cmsis_gcc.h ****   return(result);
1504:C:/Users/VMORAIS/Documents/DAVE_WS/1p_inverter_200V/Libraries/CMSIS/Include\cmsis_gcc.h **** }
1505:C:/Users/VMORAIS/Documents/DAVE_WS/1p_inverter_200V/Libraries/CMSIS/Include\cmsis_gcc.h **** 
1506:C:/Users/VMORAIS/Documents/DAVE_WS/1p_inverter_200V/Libraries/CMSIS/Include\cmsis_gcc.h **** __attribute__((always_inline)) __STATIC_INLINE uint32_t __QSUB16(uint32_t op1, uint32_t op2)
1507:C:/Users/VMORAIS/Documents/DAVE_WS/1p_inverter_200V/Libraries/CMSIS/Include\cmsis_gcc.h **** {
1508:C:/Users/VMORAIS/Documents/DAVE_WS/1p_inverter_200V/Libraries/CMSIS/Include\cmsis_gcc.h ****   uint32_t result;
1509:C:/Users/VMORAIS/Documents/DAVE_WS/1p_inverter_200V/Libraries/CMSIS/Include\cmsis_gcc.h **** 
1510:C:/Users/VMORAIS/Documents/DAVE_WS/1p_inverter_200V/Libraries/CMSIS/Include\cmsis_gcc.h ****   __ASM volatile ("qsub16 %0, %1, %2" : "=r" (result) : "r" (op1), "r" (op2) );
1511:C:/Users/VMORAIS/Documents/DAVE_WS/1p_inverter_200V/Libraries/CMSIS/Include\cmsis_gcc.h ****   return(result);
1512:C:/Users/VMORAIS/Documents/DAVE_WS/1p_inverter_200V/Libraries/CMSIS/Include\cmsis_gcc.h **** }
1513:C:/Users/VMORAIS/Documents/DAVE_WS/1p_inverter_200V/Libraries/CMSIS/Include\cmsis_gcc.h **** 
1514:C:/Users/VMORAIS/Documents/DAVE_WS/1p_inverter_200V/Libraries/CMSIS/Include\cmsis_gcc.h **** __attribute__((always_inline)) __STATIC_INLINE uint32_t __SHSUB16(uint32_t op1, uint32_t op2)
1515:C:/Users/VMORAIS/Documents/DAVE_WS/1p_inverter_200V/Libraries/CMSIS/Include\cmsis_gcc.h **** {
1516:C:/Users/VMORAIS/Documents/DAVE_WS/1p_inverter_200V/Libraries/CMSIS/Include\cmsis_gcc.h ****   uint32_t result;
1517:C:/Users/VMORAIS/Documents/DAVE_WS/1p_inverter_200V/Libraries/CMSIS/Include\cmsis_gcc.h **** 
1518:C:/Users/VMORAIS/Documents/DAVE_WS/1p_inverter_200V/Libraries/CMSIS/Include\cmsis_gcc.h ****   __ASM volatile ("shsub16 %0, %1, %2" : "=r" (result) : "r" (op1), "r" (op2) );
1519:C:/Users/VMORAIS/Documents/DAVE_WS/1p_inverter_200V/Libraries/CMSIS/Include\cmsis_gcc.h ****   return(result);
1520:C:/Users/VMORAIS/Documents/DAVE_WS/1p_inverter_200V/Libraries/CMSIS/Include\cmsis_gcc.h **** }
1521:C:/Users/VMORAIS/Documents/DAVE_WS/1p_inverter_200V/Libraries/CMSIS/Include\cmsis_gcc.h **** 
1522:C:/Users/VMORAIS/Documents/DAVE_WS/1p_inverter_200V/Libraries/CMSIS/Include\cmsis_gcc.h **** __attribute__((always_inline)) __STATIC_INLINE uint32_t __USUB16(uint32_t op1, uint32_t op2)
1523:C:/Users/VMORAIS/Documents/DAVE_WS/1p_inverter_200V/Libraries/CMSIS/Include\cmsis_gcc.h **** {
1524:C:/Users/VMORAIS/Documents/DAVE_WS/1p_inverter_200V/Libraries/CMSIS/Include\cmsis_gcc.h ****   uint32_t result;
1525:C:/Users/VMORAIS/Documents/DAVE_WS/1p_inverter_200V/Libraries/CMSIS/Include\cmsis_gcc.h **** 
1526:C:/Users/VMORAIS/Documents/DAVE_WS/1p_inverter_200V/Libraries/CMSIS/Include\cmsis_gcc.h ****   __ASM volatile ("usub16 %0, %1, %2" : "=r" (result) : "r" (op1), "r" (op2) );
1527:C:/Users/VMORAIS/Documents/DAVE_WS/1p_inverter_200V/Libraries/CMSIS/Include\cmsis_gcc.h ****   return(result);
1528:C:/Users/VMORAIS/Documents/DAVE_WS/1p_inverter_200V/Libraries/CMSIS/Include\cmsis_gcc.h **** }
1529:C:/Users/VMORAIS/Documents/DAVE_WS/1p_inverter_200V/Libraries/CMSIS/Include\cmsis_gcc.h **** 
1530:C:/Users/VMORAIS/Documents/DAVE_WS/1p_inverter_200V/Libraries/CMSIS/Include\cmsis_gcc.h **** __attribute__((always_inline)) __STATIC_INLINE uint32_t __UQSUB16(uint32_t op1, uint32_t op2)
1531:C:/Users/VMORAIS/Documents/DAVE_WS/1p_inverter_200V/Libraries/CMSIS/Include\cmsis_gcc.h **** {
1532:C:/Users/VMORAIS/Documents/DAVE_WS/1p_inverter_200V/Libraries/CMSIS/Include\cmsis_gcc.h ****   uint32_t result;
1533:C:/Users/VMORAIS/Documents/DAVE_WS/1p_inverter_200V/Libraries/CMSIS/Include\cmsis_gcc.h **** 
1534:C:/Users/VMORAIS/Documents/DAVE_WS/1p_inverter_200V/Libraries/CMSIS/Include\cmsis_gcc.h ****   __ASM volatile ("uqsub16 %0, %1, %2" : "=r" (result) : "r" (op1), "r" (op2) );
1535:C:/Users/VMORAIS/Documents/DAVE_WS/1p_inverter_200V/Libraries/CMSIS/Include\cmsis_gcc.h ****   return(result);
1536:C:/Users/VMORAIS/Documents/DAVE_WS/1p_inverter_200V/Libraries/CMSIS/Include\cmsis_gcc.h **** }
1537:C:/Users/VMORAIS/Documents/DAVE_WS/1p_inverter_200V/Libraries/CMSIS/Include\cmsis_gcc.h **** 
1538:C:/Users/VMORAIS/Documents/DAVE_WS/1p_inverter_200V/Libraries/CMSIS/Include\cmsis_gcc.h **** __attribute__((always_inline)) __STATIC_INLINE uint32_t __UHSUB16(uint32_t op1, uint32_t op2)
1539:C:/Users/VMORAIS/Documents/DAVE_WS/1p_inverter_200V/Libraries/CMSIS/Include\cmsis_gcc.h **** {
1540:C:/Users/VMORAIS/Documents/DAVE_WS/1p_inverter_200V/Libraries/CMSIS/Include\cmsis_gcc.h ****   uint32_t result;
1541:C:/Users/VMORAIS/Documents/DAVE_WS/1p_inverter_200V/Libraries/CMSIS/Include\cmsis_gcc.h **** 
1542:C:/Users/VMORAIS/Documents/DAVE_WS/1p_inverter_200V/Libraries/CMSIS/Include\cmsis_gcc.h ****   __ASM volatile ("uhsub16 %0, %1, %2" : "=r" (result) : "r" (op1), "r" (op2) );
1543:C:/Users/VMORAIS/Documents/DAVE_WS/1p_inverter_200V/Libraries/CMSIS/Include\cmsis_gcc.h ****   return(result);
1544:C:/Users/VMORAIS/Documents/DAVE_WS/1p_inverter_200V/Libraries/CMSIS/Include\cmsis_gcc.h **** }
1545:C:/Users/VMORAIS/Documents/DAVE_WS/1p_inverter_200V/Libraries/CMSIS/Include\cmsis_gcc.h **** 
1546:C:/Users/VMORAIS/Documents/DAVE_WS/1p_inverter_200V/Libraries/CMSIS/Include\cmsis_gcc.h **** __attribute__((always_inline)) __STATIC_INLINE uint32_t __SASX(uint32_t op1, uint32_t op2)
1547:C:/Users/VMORAIS/Documents/DAVE_WS/1p_inverter_200V/Libraries/CMSIS/Include\cmsis_gcc.h **** {
1548:C:/Users/VMORAIS/Documents/DAVE_WS/1p_inverter_200V/Libraries/CMSIS/Include\cmsis_gcc.h ****   uint32_t result;
1549:C:/Users/VMORAIS/Documents/DAVE_WS/1p_inverter_200V/Libraries/CMSIS/Include\cmsis_gcc.h **** 
1550:C:/Users/VMORAIS/Documents/DAVE_WS/1p_inverter_200V/Libraries/CMSIS/Include\cmsis_gcc.h ****   __ASM volatile ("sasx %0, %1, %2" : "=r" (result) : "r" (op1), "r" (op2) );
1551:C:/Users/VMORAIS/Documents/DAVE_WS/1p_inverter_200V/Libraries/CMSIS/Include\cmsis_gcc.h ****   return(result);
1552:C:/Users/VMORAIS/Documents/DAVE_WS/1p_inverter_200V/Libraries/CMSIS/Include\cmsis_gcc.h **** }
1553:C:/Users/VMORAIS/Documents/DAVE_WS/1p_inverter_200V/Libraries/CMSIS/Include\cmsis_gcc.h **** 
1554:C:/Users/VMORAIS/Documents/DAVE_WS/1p_inverter_200V/Libraries/CMSIS/Include\cmsis_gcc.h **** __attribute__((always_inline)) __STATIC_INLINE uint32_t __QASX(uint32_t op1, uint32_t op2)
1555:C:/Users/VMORAIS/Documents/DAVE_WS/1p_inverter_200V/Libraries/CMSIS/Include\cmsis_gcc.h **** {
1556:C:/Users/VMORAIS/Documents/DAVE_WS/1p_inverter_200V/Libraries/CMSIS/Include\cmsis_gcc.h ****   uint32_t result;
1557:C:/Users/VMORAIS/Documents/DAVE_WS/1p_inverter_200V/Libraries/CMSIS/Include\cmsis_gcc.h **** 
1558:C:/Users/VMORAIS/Documents/DAVE_WS/1p_inverter_200V/Libraries/CMSIS/Include\cmsis_gcc.h ****   __ASM volatile ("qasx %0, %1, %2" : "=r" (result) : "r" (op1), "r" (op2) );
1559:C:/Users/VMORAIS/Documents/DAVE_WS/1p_inverter_200V/Libraries/CMSIS/Include\cmsis_gcc.h ****   return(result);
1560:C:/Users/VMORAIS/Documents/DAVE_WS/1p_inverter_200V/Libraries/CMSIS/Include\cmsis_gcc.h **** }
1561:C:/Users/VMORAIS/Documents/DAVE_WS/1p_inverter_200V/Libraries/CMSIS/Include\cmsis_gcc.h **** 
1562:C:/Users/VMORAIS/Documents/DAVE_WS/1p_inverter_200V/Libraries/CMSIS/Include\cmsis_gcc.h **** __attribute__((always_inline)) __STATIC_INLINE uint32_t __SHASX(uint32_t op1, uint32_t op2)
1563:C:/Users/VMORAIS/Documents/DAVE_WS/1p_inverter_200V/Libraries/CMSIS/Include\cmsis_gcc.h **** {
1564:C:/Users/VMORAIS/Documents/DAVE_WS/1p_inverter_200V/Libraries/CMSIS/Include\cmsis_gcc.h ****   uint32_t result;
1565:C:/Users/VMORAIS/Documents/DAVE_WS/1p_inverter_200V/Libraries/CMSIS/Include\cmsis_gcc.h **** 
1566:C:/Users/VMORAIS/Documents/DAVE_WS/1p_inverter_200V/Libraries/CMSIS/Include\cmsis_gcc.h ****   __ASM volatile ("shasx %0, %1, %2" : "=r" (result) : "r" (op1), "r" (op2) );
1567:C:/Users/VMORAIS/Documents/DAVE_WS/1p_inverter_200V/Libraries/CMSIS/Include\cmsis_gcc.h ****   return(result);
1568:C:/Users/VMORAIS/Documents/DAVE_WS/1p_inverter_200V/Libraries/CMSIS/Include\cmsis_gcc.h **** }
1569:C:/Users/VMORAIS/Documents/DAVE_WS/1p_inverter_200V/Libraries/CMSIS/Include\cmsis_gcc.h **** 
1570:C:/Users/VMORAIS/Documents/DAVE_WS/1p_inverter_200V/Libraries/CMSIS/Include\cmsis_gcc.h **** __attribute__((always_inline)) __STATIC_INLINE uint32_t __UASX(uint32_t op1, uint32_t op2)
1571:C:/Users/VMORAIS/Documents/DAVE_WS/1p_inverter_200V/Libraries/CMSIS/Include\cmsis_gcc.h **** {
1572:C:/Users/VMORAIS/Documents/DAVE_WS/1p_inverter_200V/Libraries/CMSIS/Include\cmsis_gcc.h ****   uint32_t result;
1573:C:/Users/VMORAIS/Documents/DAVE_WS/1p_inverter_200V/Libraries/CMSIS/Include\cmsis_gcc.h **** 
1574:C:/Users/VMORAIS/Documents/DAVE_WS/1p_inverter_200V/Libraries/CMSIS/Include\cmsis_gcc.h ****   __ASM volatile ("uasx %0, %1, %2" : "=r" (result) : "r" (op1), "r" (op2) );
1575:C:/Users/VMORAIS/Documents/DAVE_WS/1p_inverter_200V/Libraries/CMSIS/Include\cmsis_gcc.h ****   return(result);
1576:C:/Users/VMORAIS/Documents/DAVE_WS/1p_inverter_200V/Libraries/CMSIS/Include\cmsis_gcc.h **** }
1577:C:/Users/VMORAIS/Documents/DAVE_WS/1p_inverter_200V/Libraries/CMSIS/Include\cmsis_gcc.h **** 
1578:C:/Users/VMORAIS/Documents/DAVE_WS/1p_inverter_200V/Libraries/CMSIS/Include\cmsis_gcc.h **** __attribute__((always_inline)) __STATIC_INLINE uint32_t __UQASX(uint32_t op1, uint32_t op2)
1579:C:/Users/VMORAIS/Documents/DAVE_WS/1p_inverter_200V/Libraries/CMSIS/Include\cmsis_gcc.h **** {
1580:C:/Users/VMORAIS/Documents/DAVE_WS/1p_inverter_200V/Libraries/CMSIS/Include\cmsis_gcc.h ****   uint32_t result;
1581:C:/Users/VMORAIS/Documents/DAVE_WS/1p_inverter_200V/Libraries/CMSIS/Include\cmsis_gcc.h **** 
1582:C:/Users/VMORAIS/Documents/DAVE_WS/1p_inverter_200V/Libraries/CMSIS/Include\cmsis_gcc.h ****   __ASM volatile ("uqasx %0, %1, %2" : "=r" (result) : "r" (op1), "r" (op2) );
1583:C:/Users/VMORAIS/Documents/DAVE_WS/1p_inverter_200V/Libraries/CMSIS/Include\cmsis_gcc.h ****   return(result);
1584:C:/Users/VMORAIS/Documents/DAVE_WS/1p_inverter_200V/Libraries/CMSIS/Include\cmsis_gcc.h **** }
1585:C:/Users/VMORAIS/Documents/DAVE_WS/1p_inverter_200V/Libraries/CMSIS/Include\cmsis_gcc.h **** 
1586:C:/Users/VMORAIS/Documents/DAVE_WS/1p_inverter_200V/Libraries/CMSIS/Include\cmsis_gcc.h **** __attribute__((always_inline)) __STATIC_INLINE uint32_t __UHASX(uint32_t op1, uint32_t op2)
1587:C:/Users/VMORAIS/Documents/DAVE_WS/1p_inverter_200V/Libraries/CMSIS/Include\cmsis_gcc.h **** {
1588:C:/Users/VMORAIS/Documents/DAVE_WS/1p_inverter_200V/Libraries/CMSIS/Include\cmsis_gcc.h ****   uint32_t result;
1589:C:/Users/VMORAIS/Documents/DAVE_WS/1p_inverter_200V/Libraries/CMSIS/Include\cmsis_gcc.h **** 
1590:C:/Users/VMORAIS/Documents/DAVE_WS/1p_inverter_200V/Libraries/CMSIS/Include\cmsis_gcc.h ****   __ASM volatile ("uhasx %0, %1, %2" : "=r" (result) : "r" (op1), "r" (op2) );
1591:C:/Users/VMORAIS/Documents/DAVE_WS/1p_inverter_200V/Libraries/CMSIS/Include\cmsis_gcc.h ****   return(result);
1592:C:/Users/VMORAIS/Documents/DAVE_WS/1p_inverter_200V/Libraries/CMSIS/Include\cmsis_gcc.h **** }
1593:C:/Users/VMORAIS/Documents/DAVE_WS/1p_inverter_200V/Libraries/CMSIS/Include\cmsis_gcc.h **** 
1594:C:/Users/VMORAIS/Documents/DAVE_WS/1p_inverter_200V/Libraries/CMSIS/Include\cmsis_gcc.h **** __attribute__((always_inline)) __STATIC_INLINE uint32_t __SSAX(uint32_t op1, uint32_t op2)
1595:C:/Users/VMORAIS/Documents/DAVE_WS/1p_inverter_200V/Libraries/CMSIS/Include\cmsis_gcc.h **** {
1596:C:/Users/VMORAIS/Documents/DAVE_WS/1p_inverter_200V/Libraries/CMSIS/Include\cmsis_gcc.h ****   uint32_t result;
1597:C:/Users/VMORAIS/Documents/DAVE_WS/1p_inverter_200V/Libraries/CMSIS/Include\cmsis_gcc.h **** 
1598:C:/Users/VMORAIS/Documents/DAVE_WS/1p_inverter_200V/Libraries/CMSIS/Include\cmsis_gcc.h ****   __ASM volatile ("ssax %0, %1, %2" : "=r" (result) : "r" (op1), "r" (op2) );
1599:C:/Users/VMORAIS/Documents/DAVE_WS/1p_inverter_200V/Libraries/CMSIS/Include\cmsis_gcc.h ****   return(result);
1600:C:/Users/VMORAIS/Documents/DAVE_WS/1p_inverter_200V/Libraries/CMSIS/Include\cmsis_gcc.h **** }
1601:C:/Users/VMORAIS/Documents/DAVE_WS/1p_inverter_200V/Libraries/CMSIS/Include\cmsis_gcc.h **** 
1602:C:/Users/VMORAIS/Documents/DAVE_WS/1p_inverter_200V/Libraries/CMSIS/Include\cmsis_gcc.h **** __attribute__((always_inline)) __STATIC_INLINE uint32_t __QSAX(uint32_t op1, uint32_t op2)
1603:C:/Users/VMORAIS/Documents/DAVE_WS/1p_inverter_200V/Libraries/CMSIS/Include\cmsis_gcc.h **** {
1604:C:/Users/VMORAIS/Documents/DAVE_WS/1p_inverter_200V/Libraries/CMSIS/Include\cmsis_gcc.h ****   uint32_t result;
1605:C:/Users/VMORAIS/Documents/DAVE_WS/1p_inverter_200V/Libraries/CMSIS/Include\cmsis_gcc.h **** 
1606:C:/Users/VMORAIS/Documents/DAVE_WS/1p_inverter_200V/Libraries/CMSIS/Include\cmsis_gcc.h ****   __ASM volatile ("qsax %0, %1, %2" : "=r" (result) : "r" (op1), "r" (op2) );
1607:C:/Users/VMORAIS/Documents/DAVE_WS/1p_inverter_200V/Libraries/CMSIS/Include\cmsis_gcc.h ****   return(result);
1608:C:/Users/VMORAIS/Documents/DAVE_WS/1p_inverter_200V/Libraries/CMSIS/Include\cmsis_gcc.h **** }
1609:C:/Users/VMORAIS/Documents/DAVE_WS/1p_inverter_200V/Libraries/CMSIS/Include\cmsis_gcc.h **** 
1610:C:/Users/VMORAIS/Documents/DAVE_WS/1p_inverter_200V/Libraries/CMSIS/Include\cmsis_gcc.h **** __attribute__((always_inline)) __STATIC_INLINE uint32_t __SHSAX(uint32_t op1, uint32_t op2)
1611:C:/Users/VMORAIS/Documents/DAVE_WS/1p_inverter_200V/Libraries/CMSIS/Include\cmsis_gcc.h **** {
1612:C:/Users/VMORAIS/Documents/DAVE_WS/1p_inverter_200V/Libraries/CMSIS/Include\cmsis_gcc.h ****   uint32_t result;
1613:C:/Users/VMORAIS/Documents/DAVE_WS/1p_inverter_200V/Libraries/CMSIS/Include\cmsis_gcc.h **** 
1614:C:/Users/VMORAIS/Documents/DAVE_WS/1p_inverter_200V/Libraries/CMSIS/Include\cmsis_gcc.h ****   __ASM volatile ("shsax %0, %1, %2" : "=r" (result) : "r" (op1), "r" (op2) );
1615:C:/Users/VMORAIS/Documents/DAVE_WS/1p_inverter_200V/Libraries/CMSIS/Include\cmsis_gcc.h ****   return(result);
1616:C:/Users/VMORAIS/Documents/DAVE_WS/1p_inverter_200V/Libraries/CMSIS/Include\cmsis_gcc.h **** }
1617:C:/Users/VMORAIS/Documents/DAVE_WS/1p_inverter_200V/Libraries/CMSIS/Include\cmsis_gcc.h **** 
1618:C:/Users/VMORAIS/Documents/DAVE_WS/1p_inverter_200V/Libraries/CMSIS/Include\cmsis_gcc.h **** __attribute__((always_inline)) __STATIC_INLINE uint32_t __USAX(uint32_t op1, uint32_t op2)
1619:C:/Users/VMORAIS/Documents/DAVE_WS/1p_inverter_200V/Libraries/CMSIS/Include\cmsis_gcc.h **** {
1620:C:/Users/VMORAIS/Documents/DAVE_WS/1p_inverter_200V/Libraries/CMSIS/Include\cmsis_gcc.h ****   uint32_t result;
1621:C:/Users/VMORAIS/Documents/DAVE_WS/1p_inverter_200V/Libraries/CMSIS/Include\cmsis_gcc.h **** 
1622:C:/Users/VMORAIS/Documents/DAVE_WS/1p_inverter_200V/Libraries/CMSIS/Include\cmsis_gcc.h ****   __ASM volatile ("usax %0, %1, %2" : "=r" (result) : "r" (op1), "r" (op2) );
1623:C:/Users/VMORAIS/Documents/DAVE_WS/1p_inverter_200V/Libraries/CMSIS/Include\cmsis_gcc.h ****   return(result);
1624:C:/Users/VMORAIS/Documents/DAVE_WS/1p_inverter_200V/Libraries/CMSIS/Include\cmsis_gcc.h **** }
1625:C:/Users/VMORAIS/Documents/DAVE_WS/1p_inverter_200V/Libraries/CMSIS/Include\cmsis_gcc.h **** 
1626:C:/Users/VMORAIS/Documents/DAVE_WS/1p_inverter_200V/Libraries/CMSIS/Include\cmsis_gcc.h **** __attribute__((always_inline)) __STATIC_INLINE uint32_t __UQSAX(uint32_t op1, uint32_t op2)
1627:C:/Users/VMORAIS/Documents/DAVE_WS/1p_inverter_200V/Libraries/CMSIS/Include\cmsis_gcc.h **** {
1628:C:/Users/VMORAIS/Documents/DAVE_WS/1p_inverter_200V/Libraries/CMSIS/Include\cmsis_gcc.h ****   uint32_t result;
1629:C:/Users/VMORAIS/Documents/DAVE_WS/1p_inverter_200V/Libraries/CMSIS/Include\cmsis_gcc.h **** 
1630:C:/Users/VMORAIS/Documents/DAVE_WS/1p_inverter_200V/Libraries/CMSIS/Include\cmsis_gcc.h ****   __ASM volatile ("uqsax %0, %1, %2" : "=r" (result) : "r" (op1), "r" (op2) );
1631:C:/Users/VMORAIS/Documents/DAVE_WS/1p_inverter_200V/Libraries/CMSIS/Include\cmsis_gcc.h ****   return(result);
1632:C:/Users/VMORAIS/Documents/DAVE_WS/1p_inverter_200V/Libraries/CMSIS/Include\cmsis_gcc.h **** }
1633:C:/Users/VMORAIS/Documents/DAVE_WS/1p_inverter_200V/Libraries/CMSIS/Include\cmsis_gcc.h **** 
1634:C:/Users/VMORAIS/Documents/DAVE_WS/1p_inverter_200V/Libraries/CMSIS/Include\cmsis_gcc.h **** __attribute__((always_inline)) __STATIC_INLINE uint32_t __UHSAX(uint32_t op1, uint32_t op2)
1635:C:/Users/VMORAIS/Documents/DAVE_WS/1p_inverter_200V/Libraries/CMSIS/Include\cmsis_gcc.h **** {
1636:C:/Users/VMORAIS/Documents/DAVE_WS/1p_inverter_200V/Libraries/CMSIS/Include\cmsis_gcc.h ****   uint32_t result;
1637:C:/Users/VMORAIS/Documents/DAVE_WS/1p_inverter_200V/Libraries/CMSIS/Include\cmsis_gcc.h **** 
1638:C:/Users/VMORAIS/Documents/DAVE_WS/1p_inverter_200V/Libraries/CMSIS/Include\cmsis_gcc.h ****   __ASM volatile ("uhsax %0, %1, %2" : "=r" (result) : "r" (op1), "r" (op2) );
1639:C:/Users/VMORAIS/Documents/DAVE_WS/1p_inverter_200V/Libraries/CMSIS/Include\cmsis_gcc.h ****   return(result);
1640:C:/Users/VMORAIS/Documents/DAVE_WS/1p_inverter_200V/Libraries/CMSIS/Include\cmsis_gcc.h **** }
1641:C:/Users/VMORAIS/Documents/DAVE_WS/1p_inverter_200V/Libraries/CMSIS/Include\cmsis_gcc.h **** 
1642:C:/Users/VMORAIS/Documents/DAVE_WS/1p_inverter_200V/Libraries/CMSIS/Include\cmsis_gcc.h **** __attribute__((always_inline)) __STATIC_INLINE uint32_t __USAD8(uint32_t op1, uint32_t op2)
1643:C:/Users/VMORAIS/Documents/DAVE_WS/1p_inverter_200V/Libraries/CMSIS/Include\cmsis_gcc.h **** {
1644:C:/Users/VMORAIS/Documents/DAVE_WS/1p_inverter_200V/Libraries/CMSIS/Include\cmsis_gcc.h ****   uint32_t result;
1645:C:/Users/VMORAIS/Documents/DAVE_WS/1p_inverter_200V/Libraries/CMSIS/Include\cmsis_gcc.h **** 
1646:C:/Users/VMORAIS/Documents/DAVE_WS/1p_inverter_200V/Libraries/CMSIS/Include\cmsis_gcc.h ****   __ASM volatile ("usad8 %0, %1, %2" : "=r" (result) : "r" (op1), "r" (op2) );
1647:C:/Users/VMORAIS/Documents/DAVE_WS/1p_inverter_200V/Libraries/CMSIS/Include\cmsis_gcc.h ****   return(result);
1648:C:/Users/VMORAIS/Documents/DAVE_WS/1p_inverter_200V/Libraries/CMSIS/Include\cmsis_gcc.h **** }
1649:C:/Users/VMORAIS/Documents/DAVE_WS/1p_inverter_200V/Libraries/CMSIS/Include\cmsis_gcc.h **** 
1650:C:/Users/VMORAIS/Documents/DAVE_WS/1p_inverter_200V/Libraries/CMSIS/Include\cmsis_gcc.h **** __attribute__((always_inline)) __STATIC_INLINE uint32_t __USADA8(uint32_t op1, uint32_t op2, uint32
1651:C:/Users/VMORAIS/Documents/DAVE_WS/1p_inverter_200V/Libraries/CMSIS/Include\cmsis_gcc.h **** {
1652:C:/Users/VMORAIS/Documents/DAVE_WS/1p_inverter_200V/Libraries/CMSIS/Include\cmsis_gcc.h ****   uint32_t result;
1653:C:/Users/VMORAIS/Documents/DAVE_WS/1p_inverter_200V/Libraries/CMSIS/Include\cmsis_gcc.h **** 
1654:C:/Users/VMORAIS/Documents/DAVE_WS/1p_inverter_200V/Libraries/CMSIS/Include\cmsis_gcc.h ****   __ASM volatile ("usada8 %0, %1, %2, %3" : "=r" (result) : "r" (op1), "r" (op2), "r" (op3) );
1655:C:/Users/VMORAIS/Documents/DAVE_WS/1p_inverter_200V/Libraries/CMSIS/Include\cmsis_gcc.h ****   return(result);
1656:C:/Users/VMORAIS/Documents/DAVE_WS/1p_inverter_200V/Libraries/CMSIS/Include\cmsis_gcc.h **** }
1657:C:/Users/VMORAIS/Documents/DAVE_WS/1p_inverter_200V/Libraries/CMSIS/Include\cmsis_gcc.h **** 
1658:C:/Users/VMORAIS/Documents/DAVE_WS/1p_inverter_200V/Libraries/CMSIS/Include\cmsis_gcc.h **** #define __SSAT16(ARG1,ARG2) \
1659:C:/Users/VMORAIS/Documents/DAVE_WS/1p_inverter_200V/Libraries/CMSIS/Include\cmsis_gcc.h **** ({                          \
1660:C:/Users/VMORAIS/Documents/DAVE_WS/1p_inverter_200V/Libraries/CMSIS/Include\cmsis_gcc.h ****   int32_t __RES, __ARG1 = (ARG1); \
1661:C:/Users/VMORAIS/Documents/DAVE_WS/1p_inverter_200V/Libraries/CMSIS/Include\cmsis_gcc.h ****   __ASM ("ssat16 %0, %1, %2" : "=r" (__RES) :  "I" (ARG2), "r" (__ARG1) ); \
1662:C:/Users/VMORAIS/Documents/DAVE_WS/1p_inverter_200V/Libraries/CMSIS/Include\cmsis_gcc.h ****   __RES; \
1663:C:/Users/VMORAIS/Documents/DAVE_WS/1p_inverter_200V/Libraries/CMSIS/Include\cmsis_gcc.h ****  })
1664:C:/Users/VMORAIS/Documents/DAVE_WS/1p_inverter_200V/Libraries/CMSIS/Include\cmsis_gcc.h **** 
1665:C:/Users/VMORAIS/Documents/DAVE_WS/1p_inverter_200V/Libraries/CMSIS/Include\cmsis_gcc.h **** #define __USAT16(ARG1,ARG2) \
1666:C:/Users/VMORAIS/Documents/DAVE_WS/1p_inverter_200V/Libraries/CMSIS/Include\cmsis_gcc.h **** ({                          \
1667:C:/Users/VMORAIS/Documents/DAVE_WS/1p_inverter_200V/Libraries/CMSIS/Include\cmsis_gcc.h ****   uint32_t __RES, __ARG1 = (ARG1); \
1668:C:/Users/VMORAIS/Documents/DAVE_WS/1p_inverter_200V/Libraries/CMSIS/Include\cmsis_gcc.h ****   __ASM ("usat16 %0, %1, %2" : "=r" (__RES) :  "I" (ARG2), "r" (__ARG1) ); \
1669:C:/Users/VMORAIS/Documents/DAVE_WS/1p_inverter_200V/Libraries/CMSIS/Include\cmsis_gcc.h ****   __RES; \
1670:C:/Users/VMORAIS/Documents/DAVE_WS/1p_inverter_200V/Libraries/CMSIS/Include\cmsis_gcc.h ****  })
1671:C:/Users/VMORAIS/Documents/DAVE_WS/1p_inverter_200V/Libraries/CMSIS/Include\cmsis_gcc.h **** 
1672:C:/Users/VMORAIS/Documents/DAVE_WS/1p_inverter_200V/Libraries/CMSIS/Include\cmsis_gcc.h **** __attribute__((always_inline)) __STATIC_INLINE uint32_t __UXTB16(uint32_t op1)
1673:C:/Users/VMORAIS/Documents/DAVE_WS/1p_inverter_200V/Libraries/CMSIS/Include\cmsis_gcc.h **** {
1674:C:/Users/VMORAIS/Documents/DAVE_WS/1p_inverter_200V/Libraries/CMSIS/Include\cmsis_gcc.h ****   uint32_t result;
1675:C:/Users/VMORAIS/Documents/DAVE_WS/1p_inverter_200V/Libraries/CMSIS/Include\cmsis_gcc.h **** 
1676:C:/Users/VMORAIS/Documents/DAVE_WS/1p_inverter_200V/Libraries/CMSIS/Include\cmsis_gcc.h ****   __ASM volatile ("uxtb16 %0, %1" : "=r" (result) : "r" (op1));
1677:C:/Users/VMORAIS/Documents/DAVE_WS/1p_inverter_200V/Libraries/CMSIS/Include\cmsis_gcc.h ****   return(result);
1678:C:/Users/VMORAIS/Documents/DAVE_WS/1p_inverter_200V/Libraries/CMSIS/Include\cmsis_gcc.h **** }
1679:C:/Users/VMORAIS/Documents/DAVE_WS/1p_inverter_200V/Libraries/CMSIS/Include\cmsis_gcc.h **** 
1680:C:/Users/VMORAIS/Documents/DAVE_WS/1p_inverter_200V/Libraries/CMSIS/Include\cmsis_gcc.h **** __attribute__((always_inline)) __STATIC_INLINE uint32_t __UXTAB16(uint32_t op1, uint32_t op2)
1681:C:/Users/VMORAIS/Documents/DAVE_WS/1p_inverter_200V/Libraries/CMSIS/Include\cmsis_gcc.h **** {
1682:C:/Users/VMORAIS/Documents/DAVE_WS/1p_inverter_200V/Libraries/CMSIS/Include\cmsis_gcc.h ****   uint32_t result;
1683:C:/Users/VMORAIS/Documents/DAVE_WS/1p_inverter_200V/Libraries/CMSIS/Include\cmsis_gcc.h **** 
