   1              	 .syntax unified
   2              	 .cpu cortex-m4
   3              	 .eabi_attribute 27,3
   4              	 .fpu fpv4-sp-d16
   5              	 .eabi_attribute 20,1
   6              	 .eabi_attribute 21,1
   7              	 .eabi_attribute 23,3
   8              	 .eabi_attribute 24,1
   9              	 .eabi_attribute 25,1
  10              	 .eabi_attribute 26,1
  11              	 .eabi_attribute 30,6
  12              	 .eabi_attribute 34,1
  13              	 .eabi_attribute 18,4
  14              	 .thumb
  15              	 .file "arm_fir_lattice_init_f32.c"
  16              	 .text
  17              	.Ltext0:
  18              	 .cfi_sections .debug_frame
  19              	 .section .text.arm_fir_lattice_init_f32,"ax",%progbits
  20              	 .align 2
  21              	 .global arm_fir_lattice_init_f32
  22              	 .thumb
  23              	 .thumb_func
  25              	arm_fir_lattice_init_f32:
  26              	.LFB135:
  27              	 .file 1 "../Dave/Generated/CMSIS_DSP/FilteringFunctions/arm_fir_lattice_init_f32.c"
   1:../Dave/Generated/CMSIS_DSP/FilteringFunctions/arm_fir_lattice_init_f32.c **** /* ----------------------------------------------------------------------
   2:../Dave/Generated/CMSIS_DSP/FilteringFunctions/arm_fir_lattice_init_f32.c ****  * Project:      CMSIS DSP Library
   3:../Dave/Generated/CMSIS_DSP/FilteringFunctions/arm_fir_lattice_init_f32.c ****  * Title:        arm_fir_lattice_init_f32.c
   4:../Dave/Generated/CMSIS_DSP/FilteringFunctions/arm_fir_lattice_init_f32.c ****  * Description:  Floating-point FIR Lattice filter initialization function
   5:../Dave/Generated/CMSIS_DSP/FilteringFunctions/arm_fir_lattice_init_f32.c ****  *
   6:../Dave/Generated/CMSIS_DSP/FilteringFunctions/arm_fir_lattice_init_f32.c ****  * $Date:        27. January 2017
   7:../Dave/Generated/CMSIS_DSP/FilteringFunctions/arm_fir_lattice_init_f32.c ****  * $Revision:    V.1.5.1
   8:../Dave/Generated/CMSIS_DSP/FilteringFunctions/arm_fir_lattice_init_f32.c ****  *
   9:../Dave/Generated/CMSIS_DSP/FilteringFunctions/arm_fir_lattice_init_f32.c ****  * Target Processor: Cortex-M cores
  10:../Dave/Generated/CMSIS_DSP/FilteringFunctions/arm_fir_lattice_init_f32.c ****  * -------------------------------------------------------------------- */
  11:../Dave/Generated/CMSIS_DSP/FilteringFunctions/arm_fir_lattice_init_f32.c **** /*
  12:../Dave/Generated/CMSIS_DSP/FilteringFunctions/arm_fir_lattice_init_f32.c ****  * Copyright (C) 2010-2017 ARM Limited or its affiliates. All rights reserved.
  13:../Dave/Generated/CMSIS_DSP/FilteringFunctions/arm_fir_lattice_init_f32.c ****  *
  14:../Dave/Generated/CMSIS_DSP/FilteringFunctions/arm_fir_lattice_init_f32.c ****  * SPDX-License-Identifier: Apache-2.0
  15:../Dave/Generated/CMSIS_DSP/FilteringFunctions/arm_fir_lattice_init_f32.c ****  *
  16:../Dave/Generated/CMSIS_DSP/FilteringFunctions/arm_fir_lattice_init_f32.c ****  * Licensed under the Apache License, Version 2.0 (the License); you may
  17:../Dave/Generated/CMSIS_DSP/FilteringFunctions/arm_fir_lattice_init_f32.c ****  * not use this file except in compliance with the License.
  18:../Dave/Generated/CMSIS_DSP/FilteringFunctions/arm_fir_lattice_init_f32.c ****  * You may obtain a copy of the License at
  19:../Dave/Generated/CMSIS_DSP/FilteringFunctions/arm_fir_lattice_init_f32.c ****  *
  20:../Dave/Generated/CMSIS_DSP/FilteringFunctions/arm_fir_lattice_init_f32.c ****  * www.apache.org/licenses/LICENSE-2.0
  21:../Dave/Generated/CMSIS_DSP/FilteringFunctions/arm_fir_lattice_init_f32.c ****  *
  22:../Dave/Generated/CMSIS_DSP/FilteringFunctions/arm_fir_lattice_init_f32.c ****  * Unless required by applicable law or agreed to in writing, software
  23:../Dave/Generated/CMSIS_DSP/FilteringFunctions/arm_fir_lattice_init_f32.c ****  * distributed under the License is distributed on an AS IS BASIS, WITHOUT
  24:../Dave/Generated/CMSIS_DSP/FilteringFunctions/arm_fir_lattice_init_f32.c ****  * WARRANTIES OR CONDITIONS OF ANY KIND, either express or implied.
  25:../Dave/Generated/CMSIS_DSP/FilteringFunctions/arm_fir_lattice_init_f32.c ****  * See the License for the specific language governing permissions and
  26:../Dave/Generated/CMSIS_DSP/FilteringFunctions/arm_fir_lattice_init_f32.c ****  * limitations under the License.
  27:../Dave/Generated/CMSIS_DSP/FilteringFunctions/arm_fir_lattice_init_f32.c ****  */
  28:../Dave/Generated/CMSIS_DSP/FilteringFunctions/arm_fir_lattice_init_f32.c **** 
  29:../Dave/Generated/CMSIS_DSP/FilteringFunctions/arm_fir_lattice_init_f32.c **** #include "CMSIS_DSP/cmsis_dsp.h"
  30:../Dave/Generated/CMSIS_DSP/FilteringFunctions/arm_fir_lattice_init_f32.c **** 
  31:../Dave/Generated/CMSIS_DSP/FilteringFunctions/arm_fir_lattice_init_f32.c **** /**
  32:../Dave/Generated/CMSIS_DSP/FilteringFunctions/arm_fir_lattice_init_f32.c ****  * @ingroup groupFilters
  33:../Dave/Generated/CMSIS_DSP/FilteringFunctions/arm_fir_lattice_init_f32.c ****  */
  34:../Dave/Generated/CMSIS_DSP/FilteringFunctions/arm_fir_lattice_init_f32.c **** 
  35:../Dave/Generated/CMSIS_DSP/FilteringFunctions/arm_fir_lattice_init_f32.c **** /**
  36:../Dave/Generated/CMSIS_DSP/FilteringFunctions/arm_fir_lattice_init_f32.c ****  * @addtogroup FIR_Lattice
  37:../Dave/Generated/CMSIS_DSP/FilteringFunctions/arm_fir_lattice_init_f32.c ****  * @{
  38:../Dave/Generated/CMSIS_DSP/FilteringFunctions/arm_fir_lattice_init_f32.c ****  */
  39:../Dave/Generated/CMSIS_DSP/FilteringFunctions/arm_fir_lattice_init_f32.c **** 
  40:../Dave/Generated/CMSIS_DSP/FilteringFunctions/arm_fir_lattice_init_f32.c **** /**
  41:../Dave/Generated/CMSIS_DSP/FilteringFunctions/arm_fir_lattice_init_f32.c ****  * @brief Initialization function for the floating-point FIR lattice filter.
  42:../Dave/Generated/CMSIS_DSP/FilteringFunctions/arm_fir_lattice_init_f32.c ****  * @param[in] *S points to an instance of the floating-point FIR lattice structure.
  43:../Dave/Generated/CMSIS_DSP/FilteringFunctions/arm_fir_lattice_init_f32.c ****  * @param[in] numStages  number of filter stages.
  44:../Dave/Generated/CMSIS_DSP/FilteringFunctions/arm_fir_lattice_init_f32.c ****  * @param[in] *pCoeffs points to the coefficient buffer.  The array is of length numStages.
  45:../Dave/Generated/CMSIS_DSP/FilteringFunctions/arm_fir_lattice_init_f32.c ****  * @param[in] *pState points to the state buffer.  The array is of length numStages.
  46:../Dave/Generated/CMSIS_DSP/FilteringFunctions/arm_fir_lattice_init_f32.c ****  * @return none.
  47:../Dave/Generated/CMSIS_DSP/FilteringFunctions/arm_fir_lattice_init_f32.c ****  */
  48:../Dave/Generated/CMSIS_DSP/FilteringFunctions/arm_fir_lattice_init_f32.c **** 
  49:../Dave/Generated/CMSIS_DSP/FilteringFunctions/arm_fir_lattice_init_f32.c **** void arm_fir_lattice_init_f32(
  50:../Dave/Generated/CMSIS_DSP/FilteringFunctions/arm_fir_lattice_init_f32.c ****   arm_fir_lattice_instance_f32 * S,
  51:../Dave/Generated/CMSIS_DSP/FilteringFunctions/arm_fir_lattice_init_f32.c ****   uint16_t numStages,
  52:../Dave/Generated/CMSIS_DSP/FilteringFunctions/arm_fir_lattice_init_f32.c ****   float32_t * pCoeffs,
  53:../Dave/Generated/CMSIS_DSP/FilteringFunctions/arm_fir_lattice_init_f32.c ****   float32_t * pState)
  54:../Dave/Generated/CMSIS_DSP/FilteringFunctions/arm_fir_lattice_init_f32.c **** {
  28              	 .loc 1 54 0
  29              	 .cfi_startproc
  30              	 
  31              	 
  32 0000 80B5     	 push {r7,lr}
  33              	.LCFI0:
  34              	 .cfi_def_cfa_offset 8
  35              	 .cfi_offset 7,-8
  36              	 .cfi_offset 14,-4
  37 0002 84B0     	 sub sp,sp,#16
  38              	.LCFI1:
  39              	 .cfi_def_cfa_offset 24
  40 0004 00AF     	 add r7,sp,#0
  41              	.LCFI2:
  42              	 .cfi_def_cfa_register 7
  43 0006 F860     	 str r0,[r7,#12]
  44 0008 7A60     	 str r2,[r7,#4]
  45 000a 3B60     	 str r3,[r7]
  46 000c 0B46     	 mov r3,r1
  47 000e 7B81     	 strh r3,[r7,#10]
  55:../Dave/Generated/CMSIS_DSP/FilteringFunctions/arm_fir_lattice_init_f32.c ****   /* Assign filter taps */
  56:../Dave/Generated/CMSIS_DSP/FilteringFunctions/arm_fir_lattice_init_f32.c ****   S->numStages = numStages;
  48              	 .loc 1 56 0
  49 0010 FB68     	 ldr r3,[r7,#12]
  50 0012 7A89     	 ldrh r2,[r7,#10]
  51 0014 1A80     	 strh r2,[r3]
  57:../Dave/Generated/CMSIS_DSP/FilteringFunctions/arm_fir_lattice_init_f32.c **** 
  58:../Dave/Generated/CMSIS_DSP/FilteringFunctions/arm_fir_lattice_init_f32.c ****   /* Assign coefficient pointer */
  59:../Dave/Generated/CMSIS_DSP/FilteringFunctions/arm_fir_lattice_init_f32.c ****   S->pCoeffs = pCoeffs;
  52              	 .loc 1 59 0
  53 0016 FB68     	 ldr r3,[r7,#12]
  54 0018 7A68     	 ldr r2,[r7,#4]
  55 001a 9A60     	 str r2,[r3,#8]
  60:../Dave/Generated/CMSIS_DSP/FilteringFunctions/arm_fir_lattice_init_f32.c **** 
  61:../Dave/Generated/CMSIS_DSP/FilteringFunctions/arm_fir_lattice_init_f32.c ****   /* Clear state buffer and size is always numStages */
  62:../Dave/Generated/CMSIS_DSP/FilteringFunctions/arm_fir_lattice_init_f32.c ****   memset(pState, 0, (numStages) * sizeof(float32_t));
  56              	 .loc 1 62 0
  57 001c 7B89     	 ldrh r3,[r7,#10]
  58 001e 9B00     	 lsls r3,r3,#2
  59 0020 3868     	 ldr r0,[r7]
  60 0022 0021     	 movs r1,#0
  61 0024 1A46     	 mov r2,r3
  62 0026 FFF7FEFF 	 bl memset
  63:../Dave/Generated/CMSIS_DSP/FilteringFunctions/arm_fir_lattice_init_f32.c **** 
  64:../Dave/Generated/CMSIS_DSP/FilteringFunctions/arm_fir_lattice_init_f32.c ****   /* Assign state pointer */
  65:../Dave/Generated/CMSIS_DSP/FilteringFunctions/arm_fir_lattice_init_f32.c ****   S->pState = pState;
  63              	 .loc 1 65 0
  64 002a FB68     	 ldr r3,[r7,#12]
  65 002c 3A68     	 ldr r2,[r7]
  66 002e 5A60     	 str r2,[r3,#4]
  66:../Dave/Generated/CMSIS_DSP/FilteringFunctions/arm_fir_lattice_init_f32.c **** 
  67:../Dave/Generated/CMSIS_DSP/FilteringFunctions/arm_fir_lattice_init_f32.c **** }
  67              	 .loc 1 67 0
  68 0030 1037     	 adds r7,r7,#16
  69              	.LCFI3:
  70              	 .cfi_def_cfa_offset 8
  71 0032 BD46     	 mov sp,r7
  72              	.LCFI4:
  73              	 .cfi_def_cfa_register 13
  74              	 
  75 0034 80BD     	 pop {r7,pc}
  76              	 .cfi_endproc
  77              	.LFE135:
  79 0036 00BF     	 .text
  80              	.Letext0:
  81              	 .file 2 "c:\\program files (x86)\\dave\\eclipse\\arm-gcc-49\\arm-none-eabi\\include\\machine\\_default_types.h"
  82              	 .file 3 "c:\\program files (x86)\\dave\\eclipse\\arm-gcc-49\\arm-none-eabi\\include\\stdint.h"
  83              	 .file 4 "C:/Users/VMORAIS/Documents/DAVE_WS/1p_inverter_200V/Dave/Generated/CMSIS_DSP/arm_math.h"