   1              	 .syntax unified
   2              	 .cpu cortex-m4
   3              	 .eabi_attribute 27,3
   4              	 .fpu fpv4-sp-d16
   5              	 .eabi_attribute 20,1
   6              	 .eabi_attribute 21,1
   7              	 .eabi_attribute 23,3
   8              	 .eabi_attribute 24,1
   9              	 .eabi_attribute 25,1
  10              	 .eabi_attribute 26,1
  11              	 .eabi_attribute 30,4
  12              	 .eabi_attribute 34,1
  13              	 .eabi_attribute 18,4
  14              	 .thumb
  15              	 .file "main.c"
  16              	 .section .text.HPF1,"ax",%progbits
  17              	 .align 1
  18              	 .global HPF1
  19              	 .thumb
  20              	 .thumb_func
  22              	HPF1:
  23              	 
  24              	 
  25              	 
  26 0000 D2ED006A 	 flds s13,[r2]
  27 0004 D2ED035A 	 flds s11,[r2,#12]
  28 0008 91ED006A 	 flds s12,[r1]
  29 000c 07EE100A 	 fmsr s14,r0
  30 0010 66EE877A 	 fmuls s15,s13,s14
  31 0014 E5EE867A 	 vfma.f32 s15,s11,s12
  32 0018 D2ED015A 	 flds s11,[r2,#4]
  33 001c 91ED016A 	 flds s12,[r1,#4]
  34 0020 4860     	 str r0,[r1,#4]
  35 0022 E5EE867A 	 vfma.f32 s15,s11,s12
  36 0026 C7EEA67A 	 fdivs s15,s15,s13
  37 002a C1ED007A 	 fsts s15,[r1]
  38 002e 17EE900A 	 fmrs r0,s15
  39 0032 7047     	 bx lr
  41              	 .section .text.fw_integ,"ax",%progbits
  42              	 .align 1
  43              	 .global fw_integ
  44              	 .thumb
  45              	 .thumb_func
  47              	fw_integ:
  48              	 
  49              	 
  50              	 
  51 0000 07EE103A 	 fmsr s14,r3
  52 0004 06EE902A 	 fmsr s13,r2
  53 0008 D1ED007A 	 flds s15,[r1]
  54 000c 06EE100A 	 fmsr s12,r0
  55 0010 B5EE407A 	 fcmpzs s14
  56 0014 F1EE10FA 	 fmstat
  57 0018 E6EE267A 	 vfma.f32 s15,s12,s13
  58 001c 14D0     	 beq .L3
  59 001e F4EEC77A 	 fcmpes s15,s14
  60 0022 F1EE10FA 	 fmstat
  61 0026 04DD     	 ble .L9
  62 0028 37EEC77A 	 fsubs s14,s15,s14
  63 002c A7EEA67A 	 vfma.f32 s14,s15,s13
  64 0030 08E0     	 b .L10
  65              	.L9:
  66 0032 F5EEC07A 	 fcmpezs s15
  67 0036 F1EE10FA 	 fmstat
  68 003a 05D5     	 bpl .L3
  69 003c 37EE877A 	 fadds s14,s15,s14
  70 0040 A7EEE67A 	 vfms.f32 s14,s15,s13
  71              	.L10:
  72 0044 F0EE477A 	 fcpys s15,s14
  73              	.L3:
  74 0048 C1ED007A 	 fsts s15,[r1]
  75 004c 17EE900A 	 fmrs r0,s15
  76 0050 7047     	 bx lr
  78              	 .section .text.tr_integ,"ax",%progbits
  79              	 .align 1
  80              	 .global tr_integ
  81              	 .thumb
  82              	 .thumb_func
  84              	tr_integ:
  85              	 
  86              	 
  87              	 
  88 0000 91ED007A 	 flds s14,[r1]
  89 0004 0860     	 str r0,[r1]
  90 0006 06EE900A 	 fmsr s13,r0
  91 000a 76EE877A 	 fadds s15,s13,s14
  92 000e B6EE007A 	 fconsts s14,#96
  93 0012 27EE877A 	 fmuls s14,s15,s14
  94 0016 06EE102A 	 fmsr s12,r2
  95 001a D1ED017A 	 flds s15,[r1,#4]
  96 001e E7EE067A 	 vfma.f32 s15,s14,s12
  97 0022 9FED0B7A 	 flds s14,.L20
  98 0026 F4EEC77A 	 fcmpes s15,s14
  99 002a F1EE10FA 	 fmstat
 100 002e 02DD     	 ble .L19
 101 0030 77EEC77A 	 fsubs s15,s15,s14
 102 0034 06E0     	 b .L15
 103              	.L19:
 104 0036 F5EEC07A 	 fcmpezs s15
 105 003a F1EE10FA 	 fmstat
 106 003e 48BF     	 it mi
 107 0040 77EE877A 	 faddsmi s15,s15,s14
 108              	.L15:
 109 0044 C1ED017A 	 fsts s15,[r1,#4]
 110 0048 17EE900A 	 fmrs r0,s15
 111 004c 7047     	 bx lr
 112              	.L21:
 113 004e 00BF     	 .align 2
 114              	.L20:
 115 0050 DB0FC940 	 .word 1086918619
 117              	 .section .text.deriv,"ax",%progbits
 118              	 .align 1
 119              	 .global deriv
 120              	 .thumb
 121              	 .thumb_func
 123              	deriv:
 124              	 
 125              	 
 126              	 
 127 0000 07EE100A 	 fmsr s14,r0
 128 0004 D1ED007A 	 flds s15,[r1]
 129 0008 0860     	 str r0,[r1]
 130 000a 77EE677A 	 fsubs s15,s14,s15
 131 000e 07EE102A 	 fmsr s14,r2
 132 0012 C7EE877A 	 fdivs s15,s15,s14
 133 0016 17EE900A 	 fmrs r0,s15
 134 001a 7047     	 bx lr
 136              	 .section .text.abc_AB,"ax",%progbits
 137              	 .align 1
 138              	 .global abc_AB
 139              	 .thumb
 140              	 .thumb_func
 142              	abc_AB:
 143              	 
 144              	 
 145              	 
 146 0000 90ED016A 	 flds s12,[r0,#4]
 147 0004 90ED007A 	 flds s14,[r0]
 148 0008 D0ED026A 	 flds s13,[r0,#8]
 149 000c F6EE007A 	 fconsts s15,#96
 150 0010 A6EE677A 	 vfms.f32 s14,s12,s15
 151 0014 A6EEE77A 	 vfms.f32 s14,s13,s15
 152 0018 DFED0A6A 	 flds s13,.L24
 153 001c 27EE267A 	 fmuls s14,s14,s13
 154 0020 81ED007A 	 fsts s14,[r1]
 155 0024 D0ED027A 	 flds s15,[r0,#8]
 156 0028 9FED077A 	 flds s14,.L24+4
 157 002c 90ED016A 	 flds s12,[r0,#4]
 158 0030 67EE677A 	 fnmuls s15,s14,s15
 159 0034 E6EE077A 	 vfma.f32 s15,s12,s14
 160 0038 67EEA67A 	 fmuls s15,s15,s13
 161 003c C1ED017A 	 fsts s15,[r1,#4]
 162 0040 7047     	 bx lr
 163              	.L25:
 164 0042 00BF     	 .align 2
 165              	.L24:
 166 0044 ABAA2A3F 	 .word 1059760811
 167 0048 D7B35D3F 	 .word 1063105495
 169              	 .section .text.abc_AB_Dy,"ax",%progbits
 170              	 .align 1
 171              	 .global abc_AB_Dy
 172              	 .thumb
 173              	 .thumb_func
 175              	abc_AB_Dy:
 176              	 
 177              	 
 178              	 
 179 0000 90ED027A 	 flds s14,[r0,#8]
 180 0004 DFED107A 	 flds s15,.L27
 181 0008 D0ED006A 	 flds s13,[r0]
 182 000c 27EEC77A 	 fnmuls s14,s15,s14
 183 0010 A6EEA77A 	 vfma.f32 s14,s13,s15
 184 0014 DFED0D6A 	 flds s13,.L27+4
 185 0018 27EE267A 	 fmuls s14,s14,s13
 186 001c 81ED007A 	 fsts s14,[r1]
 187 0020 D0ED005A 	 flds s11,[r0]
 188 0024 D0ED017A 	 flds s15,[r0,#4]
 189 0028 90ED026A 	 flds s12,[r0,#8]
 190 002c BEEE007A 	 fconsts s14,#224
 191 0030 E5EE877A 	 vfma.f32 s15,s11,s14
 192 0034 B6EE007A 	 fconsts s14,#96
 193 0038 E6EE477A 	 vfms.f32 s15,s12,s14
 194 003c 67EEA67A 	 fmuls s15,s15,s13
 195 0040 C1ED017A 	 fsts s15,[r1,#4]
 196 0044 7047     	 bx lr
 197              	.L28:
 198 0046 00BF     	 .align 2
 199              	.L27:
 200 0048 D7B35D3F 	 .word 1063105495
 201 004c A311C53E 	 .word 1053102499
 203              	 .section .text.AB_dq,"ax",%progbits
 204              	 .align 1
 205              	 .global AB_dq
 206              	 .thumb
 207              	 .thumb_func
 209              	AB_dq:
 210              	 
 211              	 
 212 0000 70B5     	 push {r4,r5,r6,lr}
 213 0002 0546     	 mov r5,r0
 214 0004 2DED048B 	 fstmfdd sp!,{d8,d9}
 215 0008 90ED009A 	 flds s18,[r0]
 216 000c 1046     	 mov r0,r2
 217 000e 1446     	 mov r4,r2
 218 0010 0E46     	 mov r6,r1
 219 0012 FFF7FEFF 	 bl arm_cos_f32
 220 0016 08EE900A 	 fmsr s17,r0
 221 001a 2046     	 mov r0,r4
 222 001c 95ED018A 	 flds s16,[r5,#4]
 223 0020 FFF7FEFF 	 bl arm_sin_f32
 224 0024 07EE900A 	 fmsr s15,r0
 225 0028 28EE278A 	 fmuls s16,s16,s15
 226 002c 2046     	 mov r0,r4
 227 002e A9EE288A 	 vfma.f32 s16,s18,s17
 228 0032 86ED008A 	 fsts s16,[r6]
 229 0036 D5ED008A 	 flds s17,[r5]
 230 003a FFF7FEFF 	 bl arm_sin_f32
 231 003e 09EE100A 	 fmsr s18,r0
 232 0042 2046     	 mov r0,r4
 233 0044 95ED018A 	 flds s16,[r5,#4]
 234 0048 FFF7FEFF 	 bl arm_cos_f32
 235 004c 07EE900A 	 fmsr s15,r0
 236 0050 28EE278A 	 fmuls s16,s16,s15
 237 0054 F1EE688A 	 fnegs s17,s17
 238 0058 A8EE898A 	 vfma.f32 s16,s17,s18
 239 005c 86ED018A 	 fsts s16,[r6,#4]
 240 0060 BDEC048B 	 fldmfdd sp!,{d8-d9}
 241 0064 70BD     	 pop {r4,r5,r6,pc}
 243              	 .section .text.dq_AB,"ax",%progbits
 244              	 .align 1
 245              	 .global dq_AB
 246              	 .thumb
 247              	 .thumb_func
 249              	dq_AB:
 250              	 
 251              	 
 252 0000 70B5     	 push {r4,r5,r6,lr}
 253 0002 0446     	 mov r4,r0
 254 0004 2DED028B 	 fstmfdd sp!,{d8}
 255 0008 1046     	 mov r0,r2
 256 000a 0D46     	 mov r5,r1
 257 000c 1646     	 mov r6,r2
 258 000e FFF7FEFF 	 bl arm_cos_f32
 259 0012 08EE100A 	 fmsr s16,r0
 260 0016 3046     	 mov r0,r6
 261 0018 FFF7FEFF 	 bl arm_sin_f32
 262 001c D4ED017A 	 flds s15,[r4,#4]
 263 0020 D4ED006A 	 flds s13,[r4]
 264 0024 07EE100A 	 fmsr s14,r0
 265 0028 67EEC77A 	 fnmuls s15,s15,s14
 266 002c E8EE267A 	 vfma.f32 s15,s16,s13
 267 0030 C5ED007A 	 fsts s15,[r5]
 268 0034 D4ED017A 	 flds s15,[r4,#4]
 269 0038 28EE278A 	 fmuls s16,s16,s15
 270 003c D4ED007A 	 flds s15,[r4]
 271 0040 A7EE278A 	 vfma.f32 s16,s14,s15
 272 0044 85ED018A 	 fsts s16,[r5,#4]
 273 0048 BDEC028B 	 fldmfdd sp!,{d8}
 274 004c 70BD     	 pop {r4,r5,r6,pc}
 276              	 .section .text.AB_abc,"ax",%progbits
 277              	 .align 1
 278              	 .global AB_abc
 279              	 .thumb
 280              	 .thumb_func
 282              	AB_abc:
 283              	 
 284              	 
 285              	 
 286 0000 0368     	 ldr r3,[r0]
 287 0002 0B60     	 str r3,[r1]
 288 0004 90ED017A 	 flds s14,[r0,#4]
 289 0008 DFED0B7A 	 flds s15,.L32
 290 000c 90ED006A 	 flds s12,[r0]
 291 0010 27EE277A 	 fmuls s14,s14,s15
 292 0014 FEEE006A 	 fconsts s13,#224
 293 0018 A6EE267A 	 vfma.f32 s14,s12,s13
 294 001c 81ED017A 	 fsts s14,[r1,#4]
 295 0020 90ED017A 	 flds s14,[r0,#4]
 296 0024 67EEC77A 	 fnmuls s15,s15,s14
 297 0028 90ED007A 	 flds s14,[r0]
 298 002c E7EE267A 	 vfma.f32 s15,s14,s13
 299 0030 C1ED027A 	 fsts s15,[r1,#8]
 300 0034 7047     	 bx lr
 301              	.L33:
 302 0036 00BF     	 .align 2
 303              	.L32:
 304 0038 D7B35D3F 	 .word 1063105495
 306              	 .section .text.LPF1,"ax",%progbits
 307              	 .align 1
 308              	 .global LPF1
 309              	 .thumb
 310              	 .thumb_func
 312              	LPF1:
 313              	 
 314              	 
 315              	 
 316 0000 D2ED007A 	 flds s15,[r2]
 317 0004 92ED017A 	 flds s14,[r2,#4]
 318 0008 92ED026A 	 flds s12,[r2,#8]
 319 000c 06EE900A 	 fmsr s13,r0
 320 0010 27EE877A 	 fmuls s14,s15,s14
 321 0014 D1ED007A 	 flds s15,[r1]
 322 0018 0860     	 str r0,[r1]
 323 001a 76EEA77A 	 fadds s15,s13,s15
 324 001e 67EE277A 	 fmuls s15,s14,s15
 325 0022 91ED017A 	 flds s14,[r1,#4]
 326 0026 E6EE077A 	 vfma.f32 s15,s12,s14
 327 002a C1ED017A 	 fsts s15,[r1,#4]
 328 002e 17EE900A 	 fmrs r0,s15
 329 0032 7047     	 bx lr
 331              	 .section .text.LPF2,"ax",%progbits
 332              	 .align 1
 333              	 .global LPF2
 334              	 .thumb
 335              	 .thumb_func
 337              	LPF2:
 338              	 
 339              	 
 340              	 
 341 0000 D1ED065A 	 flds s11,[r1,#24]
 342 0004 D1ED017A 	 flds s15,[r1,#4]
 343 0008 91ED027A 	 flds s14,[r1,#8]
 344 000c 91ED075A 	 flds s10,[r1,#28]
 345 0010 D1ED086A 	 flds s13,[r1,#32]
 346 0014 8861     	 str r0,[r1,#24]
 347 0016 06EE100A 	 fmsr s12,r0
 348 001a 65EEA77A 	 fmuls s15,s11,s15
 349 001e C1ED075A 	 fsts s11,[r1,#28]
 350 0022 E6EE077A 	 vfma.f32 s15,s12,s14
 351 0026 91ED007A 	 flds s14,[r1]
 352 002a E5EE077A 	 vfma.f32 s15,s10,s14
 353 002e 91ED035A 	 flds s10,[r1,#12]
 354 0032 B0EE677A 	 fcpys s14,s15
 355 0036 D1ED097A 	 flds s15,[r1,#36]
 356 003a C1ED096A 	 fsts s13,[r1,#36]
 357 003e 67EE857A 	 fmuls s15,s15,s10
 358 0042 91ED045A 	 flds s10,[r1,#16]
 359 0046 E6EE857A 	 vfma.f32 s15,s13,s10
 360 004a 77EE677A 	 fsubs s15,s14,s15
 361 004e 91ED057A 	 flds s14,[r1,#20]
 362 0052 67EE877A 	 fmuls s15,s15,s14
 363 0056 C1ED087A 	 fsts s15,[r1,#32]
 364 005a 17EE900A 	 fmrs r0,s15
 365 005e 7047     	 bx lr
 367              	 .section .text.LPF1_dq,"ax",%progbits
 368              	 .align 1
 369              	 .global LPF1_dq
 370              	 .thumb
 371              	 .thumb_func
 373              	LPF1_dq:
 374              	 
 375              	 
 376              	 
 377 0000 D1ED007A 	 flds s15,[r1]
 378 0004 91ED017A 	 flds s14,[r1,#4]
 379 0008 D1ED036A 	 flds s13,[r1,#12]
 380 000c 27EE877A 	 fmuls s14,s15,s14
 381 0010 D0ED007A 	 flds s15,[r0]
 382 0014 77EEA67A 	 fadds s15,s15,s13
 383 0018 D1ED026A 	 flds s13,[r1,#8]
 384 001c 67EE277A 	 fmuls s15,s14,s15
 385 0020 91ED047A 	 flds s14,[r1,#16]
 386 0024 E6EE877A 	 vfma.f32 s15,s13,s14
 387 0028 C2ED007A 	 fsts s15,[r2]
 388 002c 0368     	 ldr r3,[r0]
 389 002e CB60     	 str r3,[r1,#12]
 390 0030 1368     	 ldr r3,[r2]
 391 0032 D1ED007A 	 flds s15,[r1]
 392 0036 91ED017A 	 flds s14,[r1,#4]
 393 003a 0B61     	 str r3,[r1,#16]
 394 003c D1ED056A 	 flds s13,[r1,#20]
 395 0040 27EE877A 	 fmuls s14,s15,s14
 396 0044 D0ED017A 	 flds s15,[r0,#4]
 397 0048 77EEA67A 	 fadds s15,s15,s13
 398 004c D1ED026A 	 flds s13,[r1,#8]
 399 0050 67EE277A 	 fmuls s15,s14,s15
 400 0054 91ED067A 	 flds s14,[r1,#24]
 401 0058 E6EE877A 	 vfma.f32 s15,s13,s14
 402 005c C2ED017A 	 fsts s15,[r2,#4]
 403 0060 4368     	 ldr r3,[r0,#4]
 404 0062 4B61     	 str r3,[r1,#20]
 405 0064 5368     	 ldr r3,[r2,#4]
 406 0066 8B61     	 str r3,[r1,#24]
 407 0068 7047     	 bx lr
 409              	 .section .text.conv2DAC,"ax",%progbits
 410              	 .align 1
 411              	 .global conv2DAC
 412              	 .thumb
 413              	 .thumb_func
 415              	conv2DAC:
 416              	 
 417              	 
 418              	 
 419 0000 07EE900A 	 fmsr s15,r0
 420 0004 B7EE007A 	 fconsts s14,#112
 421 0008 F4EEC77A 	 fcmpes s15,s14
 422 000c F1EE10FA 	 fmstat
 423 0010 82B0     	 sub sp,sp,#8
 424 0012 09DC     	 bgt .L39
 425 0014 BFEE007A 	 fconsts s14,#240
 426 0018 F4EE477A 	 fcmps s15,s14
 427 001c F1EE10FA 	 fmstat
 428 0020 48BF     	 it mi
 429 0022 F0EE477A 	 fcpysmi s15,s14
 430 0026 01E0     	 b .L38
 431              	.L39:
 432 0028 F0EE477A 	 fcpys s15,s14
 433              	.L38:
 434 002c 9FED057A 	 flds s14,.L41
 435 0030 67EE877A 	 fmuls s15,s15,s14
 436 0034 FDEEE77A 	 ftosizs s15,s15
 437 0038 CDED017A 	 fsts s15,[sp,#4]
 438 003c BDF90400 	 ldrsh r0,[sp,#4]
 439 0040 02B0     	 add sp,sp,#8
 440              	 
 441 0042 7047     	 bx lr
 442              	.L42:
 443              	 .align 2
 444              	.L41:
 445 0044 00E0FF44 	 .word 1157619712
 447              	 .section .text.PI_FW,"ax",%progbits
 448              	 .align 1
 449              	 .global PI_FW
 450              	 .thumb
 451              	 .thumb_func
 453              	PI_FW:
 454              	 
 455              	 
 456              	 
 457 0000 D2ED006A 	 flds s13,[r2]
 458 0004 D1ED007A 	 flds s15,[r1]
 459 0008 91ED016A 	 flds s12,[r1,#4]
 460 000c 4860     	 str r0,[r1,#4]
 461 000e 07EE100A 	 fmsr s14,r0
 462 0012 E6EE877A 	 vfma.f32 s15,s13,s14
 463 0016 E6EE867A 	 vfma.f32 s15,s13,s12
 464 001a C1ED007A 	 fsts s15,[r1]
 465 001e 17EE900A 	 fmrs r0,s15
 466 0022 7047     	 bx lr
 468              	 .section .text.PI_TR,"ax",%progbits
 469              	 .align 1
 470              	 .global PI_TR
 471              	 .thumb
 472              	 .thumb_func
 474              	PI_TR:
 475              	 
 476              	 
 477 0000 70B5     	 push {r4,r5,r6,lr}
 478 0002 91ED017A 	 flds s14,[r1,#4]
 479 0006 2DED028B 	 fstmfdd sp!,{d8}
 480 000a 08EE100A 	 fmsr s16,r0
 481 000e 78EE077A 	 fadds s15,s16,s14
 482 0012 B6EE007A 	 fconsts s14,#96
 483 0016 27EE877A 	 fmuls s14,s15,s14
 484 001a 06EE902A 	 fmsr s13,r2
 485 001e D1ED007A 	 flds s15,[r1]
 486 0022 079D     	 ldr r5,[sp,#28]
 487 0024 E7EE267A 	 vfma.f32 s15,s14,s13
 488 0028 1E46     	 mov r6,r3
 489 002a 0C46     	 mov r4,r1
 490 002c 069B     	 ldr r3,[sp,#24]
 491 002e F5EEC07A 	 fcmpezs s15
 492 0032 F1EE10FA 	 fmstat
 493 0036 0FDD     	 ble .L55
 494 0038 D3ED008A 	 flds s17,[r3]
 495 003c 17EE900A 	 fmrs r0,s15
 496 0040 18EE901A 	 fmrs r1,s17
 497 0044 FFF7FEFF 	 bl fminf
 498 0048 07EE900A 	 fmsr s15,r0
 499 004c F4EEE87A 	 fcmpes s15,s17
 500 0050 F1EE10FA 	 fmstat
 501 0054 11D5     	 bpl .L57
 502 0056 0EE0     	 b .L59
 503              	.L55:
 504 0058 D3ED018A 	 flds s17,[r3,#4]
 505 005c 17EE900A 	 fmrs r0,s15
 506 0060 18EE901A 	 fmrs r1,s17
 507 0064 FFF7FEFF 	 bl fmaxf
 508 0068 07EE900A 	 fmsr s15,r0
 509 006c F4EEE87A 	 fcmpes s15,s17
 510 0070 F1EE10FA 	 fmstat
 511 0074 01DD     	 ble .L57
 512              	.L59:
 513 0076 0023     	 movs r3,#0
 514 0078 00E0     	 b .L58
 515              	.L57:
 516 007a 0123     	 movs r3,#1
 517              	.L58:
 518 007c 2B80     	 strh r3,[r5]
 519 007e 84ED018A 	 fsts s16,[r4,#4]
 520 0082 C4ED007A 	 fsts s15,[r4]
 521 0086 96ED017A 	 flds s14,[r6,#4]
 522 008a A7EE278A 	 vfma.f32 s16,s14,s15
 523 008e D6ED007A 	 flds s15,[r6]
 524 0092 68EE277A 	 fmuls s15,s16,s15
 525 0096 BDEC028B 	 fldmfdd sp!,{d8}
 526 009a 17EE900A 	 fmrs r0,s15
 527 009e 70BD     	 pop {r4,r5,r6,pc}
 529              	 .section .text.PI_TR_p,"ax",%progbits
 530              	 .align 1
 531              	 .global PI_TR_p
 532              	 .thumb
 533              	 .thumb_func
 535              	PI_TR_p:
 536              	 
 537              	 
 538              	 
 539 0000 137E     	 ldrb r3,[r2,#24]
 540 0002 07EE100A 	 fmsr s14,r0
 541 0006 06EE101A 	 fmsr s12,r1
 542 000a 6BB9     	 cbnz r3,.L61
 543 000c D2ED047A 	 flds s15,[r2,#16]
 544 0010 77EE277A 	 fadds s15,s14,s15
 545 0014 F6EE006A 	 fconsts s13,#96
 546 0018 67EEA67A 	 fmuls s15,s15,s13
 547 001c D2ED056A 	 flds s13,[r2,#20]
 548 0020 E7EE866A 	 vfma.f32 s13,s15,s12
 549 0024 C2ED056A 	 fsts s13,[r2,#20]
 550              	.L61:
 551 0028 D2ED056A 	 flds s13,[r2,#20]
 552 002c D2ED017A 	 flds s15,[r2,#4]
 553 0030 67EEA67A 	 fmuls s15,s15,s13
 554 0034 D2ED006A 	 flds s13,[r2]
 555 0038 E6EE877A 	 vfma.f32 s15,s13,s14
 556 003c D2ED026A 	 flds s13,[r2,#8]
 557 0040 F4EEE67A 	 fcmpes s15,s13
 558 0044 F1EE10FA 	 fmstat
 559 0048 06DC     	 bgt .L71
 560 004a D2ED036A 	 flds s13,[r2,#12]
 561 004e F4EEE67A 	 fcmpes s15,s13
 562 0052 F1EE10FA 	 fmstat
 563 0056 05D5     	 bpl .L70
 564              	.L71:
 565 0058 43F00103 	 orr r3,r3,#1
 566 005c 1376     	 strb r3,[r2,#24]
 567 005e F0EE667A 	 fcpys s15,s13
 568 0062 02E0     	 b .L64
 569              	.L70:
 570 0064 03F07E03 	 and r3,r3,#126
 571 0068 1376     	 strb r3,[r2,#24]
 572              	.L64:
 573 006a 82ED047A 	 fsts s14,[r2,#16]
 574 006e 17EE900A 	 fmrs r0,s15
 575 0072 7047     	 bx lr
 577              	 .section .text.PI_TR_dq,"ax",%progbits
 578              	 .align 1
 579              	 .global PI_TR_dq
 580              	 .thumb
 581              	 .thumb_func
 583              	PI_TR_dq:
 584              	 
 585              	 
 586              	 
 587 0000 06EE101A 	 fmsr s12,r1
 588 0004 92F82010 	 ldrb r1,[r2,#32]
 589 0008 E9B9     	 cbnz r1,.L73
 590 000a D0ED007A 	 flds s15,[r0]
 591 000e 92ED047A 	 flds s14,[r2,#16]
 592 0012 D2ED056A 	 flds s13,[r2,#20]
 593 0016 37EE877A 	 fadds s14,s15,s14
 594 001a F6EE005A 	 fconsts s11,#96
 595 001e 27EE257A 	 fmuls s14,s14,s11
 596 0022 D2ED067A 	 flds s15,[r2,#24]
 597 0026 E7EE066A 	 vfma.f32 s13,s14,s12
 598 002a C2ED056A 	 fsts s13,[r2,#20]
 599 002e 90ED017A 	 flds s14,[r0,#4]
 600 0032 77EE277A 	 fadds s15,s14,s15
 601 0036 92ED077A 	 flds s14,[r2,#28]
 602 003a 67EEA57A 	 fmuls s15,s15,s11
 603 003e A7EE867A 	 vfma.f32 s14,s15,s12
 604 0042 82ED077A 	 fsts s14,[r2,#28]
 605              	.L73:
 606 0046 92ED057A 	 flds s14,[r2,#20]
 607 004a D2ED017A 	 flds s15,[r2,#4]
 608 004e D2ED006A 	 flds s13,[r2]
 609 0052 67EE877A 	 fmuls s15,s15,s14
 610 0056 90ED007A 	 flds s14,[r0]
 611 005a E6EE877A 	 vfma.f32 s15,s13,s14
 612 005e C3ED007A 	 fsts s15,[r3]
 613 0062 D2ED076A 	 flds s13,[r2,#28]
 614 0066 92ED017A 	 flds s14,[r2,#4]
 615 006a 92ED006A 	 flds s12,[r2]
 616 006e 27EE267A 	 fmuls s14,s14,s13
 617 0072 D0ED016A 	 flds s13,[r0,#4]
 618 0076 A6EE267A 	 vfma.f32 s14,s12,s13
 619 007a 83ED017A 	 fsts s14,[r3,#4]
 620 007e 92ED027A 	 flds s14,[r2,#8]
 621 0082 F4EEC77A 	 fcmpes s15,s14
 622 0086 F1EE10FA 	 fmstat
 623 008a 04DD     	 ble .L88
 624 008c 83ED007A 	 fsts s14,[r3]
 625 0090 92F82010 	 ldrb r1,[r2,#32]
 626 0094 08E0     	 b .L94
 627              	.L88:
 628 0096 92ED037A 	 flds s14,[r2,#12]
 629 009a 92F82010 	 ldrb r1,[r2,#32]
 630 009e F4EEC77A 	 fcmpes s15,s14
 631 00a2 F1EE10FA 	 fmstat
 632 00a6 02D5     	 bpl .L89
 633              	.L94:
 634 00a8 41F00201 	 orr r1,r1,#2
 635 00ac 01E0     	 b .L92
 636              	.L89:
 637 00ae 01F07D01 	 and r1,r1,#125
 638              	.L92:
 639 00b2 82F82010 	 strb r1,[r2,#32]
 640 00b6 93ED017A 	 flds s14,[r3,#4]
 641 00ba D2ED027A 	 flds s15,[r2,#8]
 642 00be B4EEE77A 	 fcmpes s14,s15
 643 00c2 F1EE10FA 	 fmstat
 644 00c6 06DC     	 bgt .L95
 645 00c8 D2ED037A 	 flds s15,[r2,#12]
 646 00cc B4EEE77A 	 fcmpes s14,s15
 647 00d0 F1EE10FA 	 fmstat
 648 00d4 06D5     	 bpl .L91
 649              	.L95:
 650 00d6 C3ED017A 	 fsts s15,[r3,#4]
 651 00da 92F82030 	 ldrb r3,[r2,#32]
 652 00de 43F00103 	 orr r3,r3,#1
 653 00e2 03E0     	 b .L93
 654              	.L91:
 655 00e4 92F82030 	 ldrb r3,[r2,#32]
 656 00e8 03F07E03 	 and r3,r3,#126
 657              	.L93:
 658 00ec 82F82030 	 strb r3,[r2,#32]
 659 00f0 0368     	 ldr r3,[r0]
 660 00f2 1361     	 str r3,[r2,#16]
 661 00f4 4368     	 ldr r3,[r0,#4]
 662 00f6 9361     	 str r3,[r2,#24]
 663 00f8 7047     	 bx lr
 665              	 .section .text.abs_sat,"ax",%progbits
 666              	 .align 1
 667              	 .global abs_sat
 668              	 .thumb
 669              	 .thumb_func
 671              	abs_sat:
 672              	 
 673              	 
 674 0000 10B5     	 push {r4,lr}
 675 0002 D0ED017A 	 flds s15,[r0,#4]
 676 0006 90ED007A 	 flds s14,[r0]
 677 000a 67EEA77A 	 fmuls s15,s15,s15
 678 000e 2DED028B 	 fstmfdd sp!,{d8}
 679 0012 E7EE077A 	 vfma.f32 s15,s14,s14
 680 0016 0446     	 mov r4,r0
 681 0018 08EE101A 	 fmsr s16,r1
 682 001c 28EE087A 	 fmuls s14,s16,s16
 683 0020 F4EEC77A 	 fcmpes s15,s14
 684 0024 F1EE10FA 	 fmstat
 685 0028 17DD     	 ble .L101
 686 002a 17EE900A 	 fmrs r0,s15
 687 002e FFF7FEFF 	 bl sqrtf
 688 0032 D4ED007A 	 flds s15,[r4]
 689 0036 07EE100A 	 fmsr s14,r0
 690 003a 68EE277A 	 fmuls s15,s16,s15
 691 003e 0120     	 movs r0,#1
 692 0040 C7EE877A 	 fdivs s15,s15,s14
 693 0044 C4ED007A 	 fsts s15,[r4]
 694 0048 D4ED017A 	 flds s15,[r4,#4]
 695 004c 28EE278A 	 fmuls s16,s16,s15
 696 0050 88EE078A 	 fdivs s16,s16,s14
 697 0054 84ED018A 	 fsts s16,[r4,#4]
 698 0058 00E0     	 b .L97
 699              	.L101:
 700 005a 0020     	 movs r0,#0
 701              	.L97:
 702 005c BDEC028B 	 fldmfdd sp!,{d8}
 703 0060 10BD     	 pop {r4,pc}
 705              	 .section .text.sat2D,"ax",%progbits
 706              	 .align 1
 707              	 .global sat2D
 708              	 .thumb
 709              	 .thumb_func
 711              	sat2D:
 712              	 
 713              	 
 714 0000 10B5     	 push {r4,lr}
 715 0002 D0ED007A 	 flds s15,[r0]
 716 0006 90ED017A 	 flds s14,[r0,#4]
 717 000a 67EEA77A 	 fmuls s15,s15,s15
 718 000e 27EE077A 	 fmuls s14,s14,s14
 719 0012 06EE101A 	 fmsr s12,r1
 720 0016 2DED048B 	 fstmfdd sp!,{d8,d9}
 721 001a 77EE876A 	 fadds s13,s15,s14
 722 001e 26EE069A 	 fmuls s18,s12,s12
 723 0022 0446     	 mov r4,r0
 724 0024 F4EEC96A 	 fcmpes s13,s18
 725 0028 F1EE10FA 	 fmstat
 726 002c 39DD     	 ble .L115
 727 002e C7EEA67A 	 fdivs s15,s15,s13
 728 0032 87EE268A 	 fdivs s16,s14,s13
 729 0036 69EE277A 	 fmuls s15,s18,s15
 730 003a F5EEC07A 	 fcmpezs s15
 731 003e F1EE10FA 	 fmstat
 732 0042 06DB     	 blt .L116
 733 0044 17EE900A 	 fmrs r0,s15
 734 0048 FFF7FEFF 	 bl sqrtf
 735 004c 08EE900A 	 fmsr s17,r0
 736 0050 01E0     	 b .L105
 737              	.L116:
 738 0052 DFED168A 	 flds s17,.L118
 739              	.L105:
 740 0056 29EE087A 	 fmuls s14,s18,s16
 741 005a B5EEC07A 	 fcmpezs s14
 742 005e F1EE10FA 	 fmstat
 743 0062 06DB     	 blt .L117
 744 0064 17EE100A 	 fmrs r0,s14
 745 0068 FFF7FEFF 	 bl sqrtf
 746 006c 07EE900A 	 fmsr s15,r0
 747 0070 01E0     	 b .L107
 748              	.L117:
 749 0072 DFED0E7A 	 flds s15,.L118
 750              	.L107:
 751 0076 94ED007A 	 flds s14,[r4]
 752 007a 68EE878A 	 fmuls s17,s17,s14
 753 007e B0EEC77A 	 fabss s14,s14
 754 0082 C8EE878A 	 fdivs s17,s17,s14
 755 0086 0120     	 movs r0,#1
 756 0088 94ED017A 	 flds s14,[r4,#4]
 757 008c C4ED008A 	 fsts s17,[r4]
 758 0090 67EE877A 	 fmuls s15,s15,s14
 759 0094 B0EEC77A 	 fabss s14,s14
 760 0098 C7EE877A 	 fdivs s15,s15,s14
 761 009c C4ED017A 	 fsts s15,[r4,#4]
 762 00a0 00E0     	 b .L103
 763              	.L115:
 764 00a2 0020     	 movs r0,#0
 765              	.L103:
 766 00a4 BDEC048B 	 fldmfdd sp!,{d8-d9}
 767 00a8 10BD     	 pop {r4,pc}
 768              	.L119:
 769 00aa 00BF     	 .align 2
 770              	.L118:
 771 00ac 00000000 	 .word 0
 773              	 .section .text.QSG,"ax",%progbits
 774              	 .align 1
 775              	 .global QSG
 776              	 .thumb
 777              	 .thumb_func
 779              	QSG:
 780              	 
 781              	 
 782              	 
 783 0000 D2ED007A 	 flds s15,[r2]
 784 0004 D2ED025A 	 flds s11,[r2,#8]
 785 0008 92ED056A 	 flds s12,[r2,#20]
 786 000c 07EE100A 	 fmsr s14,r0
 787 0010 77EE677A 	 fsubs s15,s14,s15
 788 0014 92ED017A 	 flds s14,[r2,#4]
 789 0018 97EEA57A 	 vfnms.f32 s14,s15,s11
 790 001c 06EE901A 	 fmsr s13,r1
 791 0020 D2ED037A 	 flds s15,[r2,#12]
 792 0024 27EE267A 	 fmuls s14,s14,s13
 793 0028 E7EE067A 	 vfma.f32 s15,s14,s12
 794 002c 92ED047A 	 flds s14,[r2,#16]
 795 0030 C2ED037A 	 fsts s15,[r2,#12]
 796 0034 A7EE867A 	 vfma.f32 s14,s15,s12
 797 0038 C2ED007A 	 fsts s15,[r2]
 798 003c 66EE876A 	 fmuls s13,s13,s14
 799 0040 82ED047A 	 fsts s14,[r2,#16]
 800 0044 C2ED016A 	 fsts s13,[r2,#4]
 801 0048 7047     	 bx lr
 803              	 .section .text.DSOGI_filter,"ax",%progbits
 804              	 .align 1
 805              	 .global DSOGI_filter
 806              	 .thumb
 807              	 .thumb_func
 809              	DSOGI_filter:
 810              	 
 811              	 
 812 0000 F8B5     	 push {r3,r4,r5,r6,r7,lr}
 813 0002 0D46     	 mov r5,r1
 814 0004 0C46     	 mov r4,r1
 815 0006 0746     	 mov r7,r0
 816 0008 55F81C1B 	 ldr r1,[r5],#28
 817 000c 0068     	 ldr r0,[r0]
 818 000e 1646     	 mov r6,r2
 819 0010 221D     	 adds r2,r4,#4
 820 0012 FFF7FEFF 	 bl QSG
 821 0016 7868     	 ldr r0,[r7,#4]
 822 0018 2168     	 ldr r1,[r4]
 823 001a 2A46     	 mov r2,r5
 824 001c FFF7FEFF 	 bl QSG
 825 0020 D4ED017A 	 flds s15,[r4,#4]
 826 0024 94ED087A 	 flds s14,[r4,#32]
 827 0028 37EEC77A 	 fsubs s14,s15,s14
 828 002c F6EE006A 	 fconsts s13,#96
 829 0030 27EE267A 	 fmuls s14,s14,s13
 830 0034 86ED007A 	 fsts s14,[r6]
 831 0038 94ED027A 	 flds s14,[r4,#8]
 832 003c D4ED077A 	 flds s15,[r4,#28]
 833 0040 77EE277A 	 fadds s15,s14,s15
 834 0044 67EEA67A 	 fmuls s15,s15,s13
 835 0048 C6ED017A 	 fsts s15,[r6,#4]
 836 004c F8BD     	 pop {r3,r4,r5,r6,r7,pc}
 838              	 .section .text.FFDSOGI_filter,"ax",%progbits
 839              	 .align 1
 840              	 .global FFDSOGI_filter
 841              	 .thumb
 842              	 .thumb_func
 844              	FFDSOGI_filter:
 845              	 
 846              	 
 847 0000 F8B5     	 push {r3,r4,r5,r6,r7,lr}
 848 0002 0D46     	 mov r5,r1
 849 0004 0C46     	 mov r4,r1
 850 0006 0746     	 mov r7,r0
 851 0008 55F81C1B 	 ldr r1,[r5],#28
 852 000c 0068     	 ldr r0,[r0]
 853 000e 2DED028B 	 fstmfdd sp!,{d8}
 854 0012 08EE102A 	 fmsr s16,r2
 855 0016 221D     	 adds r2,r4,#4
 856 0018 1E46     	 mov r6,r3
 857 001a FFF7FEFF 	 bl QSG
 858 001e 7868     	 ldr r0,[r7,#4]
 859 0020 2168     	 ldr r1,[r4]
 860 0022 2A46     	 mov r2,r5
 861 0024 FFF7FEFF 	 bl QSG
 862 0028 D4ED007A 	 flds s15,[r4]
 863 002c D4ED086A 	 flds s13,[r4,#32]
 864 0030 94ED017A 	 flds s14,[r4,#4]
 865 0034 C8EE277A 	 fdivs s15,s16,s15
 866 0038 A6EEE77A 	 vfms.f32 s14,s13,s15
 867 003c F6EE006A 	 fconsts s13,#96
 868 0040 27EE267A 	 fmuls s14,s14,s13
 869 0044 86ED007A 	 fsts s14,[r6]
 870 0048 D4ED007A 	 flds s15,[r4]
 871 004c 94ED027A 	 flds s14,[r4,#8]
 872 0050 88EE278A 	 fdivs s16,s16,s15
 873 0054 D4ED077A 	 flds s15,[r4,#28]
 874 0058 E7EE087A 	 vfma.f32 s15,s14,s16
 875 005c BDEC028B 	 fldmfdd sp!,{d8}
 876 0060 67EEA67A 	 fmuls s15,s15,s13
 877 0064 C6ED017A 	 fsts s15,[r6,#4]
 878 0068 F8BD     	 pop {r3,r4,r5,r6,r7,pc}
 880              	 .section .text.update_config,"ax",%progbits
 881              	 .align 1
 882              	 .global update_config
 883              	 .thumb
 884              	 .thumb_func
 886              	update_config:
 887              	 
 888              	 
 889              	 
 890 0000 034A     	 ldr r2,.L124
 891 0002 044B     	 ldr r3,.L124+4
 892 0004 9169     	 ldr r1,[r2,#24]
 893 0006 D269     	 ldr r2,[r2,#28]
 894 0008 9960     	 str r1,[r3,#8]
 895 000a DA60     	 str r2,[r3,#12]
 896 000c 7047     	 bx lr
 897              	.L125:
 898 000e 00BF     	 .align 2
 899              	.L124:
 900 0010 00000000 	 .word .LANCHOR1
 901 0014 00000000 	 .word .LANCHOR0
 903              	 .section .text.CCU80_3_IRQHandler,"ax",%progbits
 904              	 .align 1
 905              	 .global CCU80_3_IRQHandler
 906              	 .thumb
 907              	 .thumb_func
 909              	CCU80_3_IRQHandler:
 910              	 
 911              	 
 912 0000 2DE9F04F 	 push {r4,r5,r6,r7,r8,r9,r10,fp,lr}
 913 0004 C94B     	 ldr r3,.L129
 914 0006 9FEDCA6A 	 flds s12,.L129+4
 915 000a 93F810A0 	 ldrb r10,[r3,#16]
 916 000e 1A68     	 ldr r2,[r3]
 917 0010 DFEDC86A 	 flds s13,.L129+8
 918 0014 DFEDC85A 	 flds s11,.L129+12
 919 0018 C84C     	 ldr r4,.L129+16
 920 001a DFF8C483 	 ldr r8,.L129+180
 921 001e DFF8C4B3 	 ldr fp,.L129+184
 922 0022 C74F     	 ldr r7,.L129+20
 923 0024 DFF8C093 	 ldr r9,.L129+188
 924 0028 0123     	 movs r3,#1
 925 002a 03FA0AF3 	 lsl r3,r3,r10
 926 002e 2DED088B 	 fstmfdd sp!,{d8,d9,d10,d11}
 927 0032 5360     	 str r3,[r2,#4]
 928 0034 C34B     	 ldr r3,.L129+24
 929 0036 197A     	 ldrb r1,[r3,#8]
 930 0038 1B68     	 ldr r3,[r3]
 931 003a 83B0     	 sub sp,sp,#12
 932 003c 9B78     	 ldrb r3,[r3,#2]
 933 003e 0092     	 str r2,[sp]
 934 0040 C14A     	 ldr r2,.L129+28
 935 0042 03F00F03 	 and r3,r3,#15
 936 0046 52F82110 	 ldr r1,[r2,r1,lsl#2]
 937 004a C033     	 adds r3,r3,#192
 938 004c 51F82300 	 ldr r0,[r1,r3,lsl#2]
 939 0050 BE4B     	 ldr r3,.L129+32
 940 0052 197A     	 ldrb r1,[r3,#8]
 941 0054 1B68     	 ldr r3,[r3]
 942 0056 52F82110 	 ldr r1,[r2,r1,lsl#2]
 943 005a 9B78     	 ldrb r3,[r3,#2]
 944 005c 03F00F03 	 and r3,r3,#15
 945 0060 C033     	 adds r3,r3,#192
 946 0062 80B2     	 uxth r0,r0
 947 0064 51F82310 	 ldr r1,[r1,r3,lsl#2]
 948 0068 B94B     	 ldr r3,.L129+36
 949 006a 2080     	 strh r0,[r4]
 950 006c 1D7A     	 ldrb r5,[r3,#8]
 951 006e 1B68     	 ldr r3,[r3]
 952 0070 52F82550 	 ldr r5,[r2,r5,lsl#2]
 953 0074 9B78     	 ldrb r3,[r3,#2]
 954 0076 07EE900A 	 fmsr s15,r0
 955 007a 03F00F03 	 and r3,r3,#15
 956 007e C033     	 adds r3,r3,#192
 957 0080 F8EEE77A 	 fsitos s15,s15
 958 0084 89B2     	 uxth r1,r1
 959 0086 55F82330 	 ldr r3,[r5,r3,lsl#2]
 960 008a 6180     	 strh r1,[r4,#2]
 961 008c 37EEC66A 	 fsubs s12,s15,s12
 962 0090 07EE901A 	 fmsr s15,r1
 963 0094 9BB2     	 uxth r3,r3
 964 0096 B8EEE77A 	 fsitos s14,s15
 965 009a 07EE903A 	 fmsr s15,r3
 966 009e 77EE666A 	 fsubs s13,s14,s13
 967 00a2 B8EEE77A 	 fsitos s14,s15
 968 00a6 DFEDAB7A 	 flds s15,.L129+40
 969 00aa A380     	 strh r3,[r4,#4]
 970 00ac 77EE677A 	 fsubs s15,s14,s15
 971 00b0 66EEA56A 	 fmuls s13,s13,s11
 972 00b4 67EEA57A 	 fmuls s15,s15,s11
 973 00b8 26EE256A 	 fmuls s12,s12,s11
 974 00bc A64C     	 ldr r4,.L129+44
 975 00be 84ED006A 	 fsts s12,[r4]
 976 00c2 C4ED016A 	 fsts s13,[r4,#4]
 977 00c6 C4ED027A 	 fsts s15,[r4,#8]
 978 00ca A44C     	 ldr r4,.L129+48
 979 00cc 257A     	 ldrb r5,[r4,#8]
 980 00ce 2468     	 ldr r4,[r4]
 981 00d0 52F82550 	 ldr r5,[r2,r5,lsl#2]
 982 00d4 A478     	 ldrb r4,[r4,#2]
 983 00d6 04F00F04 	 and r4,r4,#15
 984 00da C034     	 adds r4,r4,#192
 985 00dc 55F82440 	 ldr r4,[r5,r4,lsl#2]
 986 00e0 9F4D     	 ldr r5,.L129+52
 987 00e2 2C80     	 strh r4,[r5]
 988 00e4 9F4C     	 ldr r4,.L129+56
 989 00e6 267A     	 ldrb r6,[r4,#8]
 990 00e8 2468     	 ldr r4,[r4]
 991 00ea 52F82660 	 ldr r6,[r2,r6,lsl#2]
 992 00ee A478     	 ldrb r4,[r4,#2]
 993 00f0 04F00F04 	 and r4,r4,#15
 994 00f4 C034     	 adds r4,r4,#192
 995 00f6 56F82440 	 ldr r4,[r6,r4,lsl#2]
 996 00fa 6C80     	 strh r4,[r5,#2]
 997 00fc 9A4C     	 ldr r4,.L129+60
 998 00fe 267A     	 ldrb r6,[r4,#8]
 999 0100 2468     	 ldr r4,[r4]
 1000 0102 52F82660 	 ldr r6,[r2,r6,lsl#2]
 1001 0106 A478     	 ldrb r4,[r4,#2]
 1002 0108 04F00F04 	 and r4,r4,#15
 1003 010c C034     	 adds r4,r4,#192
 1004 010e 56F82440 	 ldr r4,[r6,r4,lsl#2]
 1005 0112 AC80     	 strh r4,[r5,#4]
 1006 0114 954C     	 ldr r4,.L129+64
 1007 0116 964E     	 ldr r6,.L129+68
 1008 0118 257A     	 ldrb r5,[r4,#8]
 1009 011a 52F82550 	 ldr r5,[r2,r5,lsl#2]
 1010 011e 2268     	 ldr r2,[r4]
 1011 0120 944C     	 ldr r4,.L129+72
 1012 0122 9278     	 ldrb r2,[r2,#2]
 1013 0124 02F00F02 	 and r2,r2,#15
 1014 0128 C032     	 adds r2,r2,#192
 1015 012a 55F82220 	 ldr r2,[r5,r2,lsl#2]
 1016 012e 924D     	 ldr r5,.L129+76
 1017 0130 92B2     	 uxth r2,r2
 1018 0132 07EE102A 	 fmsr s14,r2
 1019 0136 914A     	 ldr r2,.L129+80
 1020 0138 B8EE477A 	 fuitos s14,s14
 1021 013c 82ED007A 	 fsts s14,[r2]
 1022 0140 07EE100A 	 fmsr s14,r0
 1023 0144 8E4A     	 ldr r2,.L129+84
 1024 0146 2068     	 ldr r0,[r4]
 1025 0148 B8EE477A 	 fuitos s14,s14
 1026 014c 82ED007A 	 fsts s14,[r2]
 1027 0150 07EE101A 	 fmsr s14,r1
 1028 0154 8B4A     	 ldr r2,.L129+88
 1029 0156 B8EE477A 	 fuitos s14,s14
 1030 015a 4FF07E51 	 mov r1,#1065353216
 1031 015e 82ED007A 	 fsts s14,[r2]
 1032 0162 07EE103A 	 fmsr s14,r3
 1033 0166 884B     	 ldr r3,.L129+92
 1034 0168 B8EE477A 	 fuitos s14,s14
 1035 016c 83ED007A 	 fsts s14,[r3]
 1036 0170 864B     	 ldr r3,.L129+96
 1037 0172 83ED006A 	 fsts s12,[r3]
 1038 0176 864B     	 ldr r3,.L129+100
 1039 0178 C3ED006A 	 fsts s13,[r3]
 1040 017c 854B     	 ldr r3,.L129+104
 1041 017e C3ED007A 	 fsts s15,[r3]
 1042 0182 FFF7FEFF 	 bl fminf
 1043 0186 8449     	 ldr r1,.L129+108
 1044 0188 FFF7FEFF 	 bl fmaxf
 1045 018c 4FF07E51 	 mov r1,#1065353216
 1046 0190 2060     	 str r0,[r4]
 1047 0192 0BEE900A 	 fmsr s23,r0
 1048 0196 6068     	 ldr r0,[r4,#4]
 1049 0198 FFF7FEFF 	 bl fminf
 1050 019c 7E49     	 ldr r1,.L129+108
 1051 019e FFF7FEFF 	 bl fmaxf
 1052 01a2 6060     	 str r0,[r4,#4]
 1053 01a4 7D4C     	 ldr r4,.L129+112
 1054 01a6 0AEE900A 	 fmsr s21,r0
 1055 01aa 4FF07E51 	 mov r1,#1065353216
 1056 01ae 2068     	 ldr r0,[r4]
 1057 01b0 FFF7FEFF 	 bl fminf
 1058 01b4 7849     	 ldr r1,.L129+108
 1059 01b6 FFF7FEFF 	 bl fmaxf
 1060 01ba 4FF07E51 	 mov r1,#1065353216
 1061 01be 2060     	 str r0,[r4]
 1062 01c0 0BEE100A 	 fmsr s22,r0
 1063 01c4 6068     	 ldr r0,[r4,#4]
 1064 01c6 FFF7FEFF 	 bl fminf
 1065 01ca 7349     	 ldr r1,.L129+108
 1066 01cc FFF7FEFF 	 bl fmaxf
 1067 01d0 6060     	 str r0,[r4,#4]
 1068 01d2 734C     	 ldr r4,.L129+116
 1069 01d4 0AEE100A 	 fmsr s20,r0
 1070 01d8 4FF07E51 	 mov r1,#1065353216
 1071 01dc 2068     	 ldr r0,[r4]
 1072 01de FFF7FEFF 	 bl fminf
 1073 01e2 0021     	 movs r1,#0
 1074 01e4 FFF7FEFF 	 bl fmaxf
 1075 01e8 2060     	 str r0,[r4]
 1076 01ea 6E4C     	 ldr r4,.L129+120
 1077 01ec 08EE100A 	 fmsr s16,r0
 1078 01f0 4FF07E51 	 mov r1,#1065353216
 1079 01f4 2068     	 ldr r0,[r4]
 1080 01f6 FFF7FEFF 	 bl fminf
 1081 01fa 0021     	 movs r1,#0
 1082 01fc FFF7FEFF 	 bl fmaxf
 1083 0200 2060     	 str r0,[r4]
 1084 0202 694C     	 ldr r4,.L129+124
 1085 0204 09EE900A 	 fmsr s19,r0
 1086 0208 4FF07E51 	 mov r1,#1065353216
 1087 020c 2068     	 ldr r0,[r4]
 1088 020e FFF7FEFF 	 bl fminf
 1089 0212 0021     	 movs r1,#0
 1090 0214 FFF7FEFF 	 bl fmaxf
 1091 0218 2060     	 str r0,[r4]
 1092 021a 644C     	 ldr r4,.L129+128
 1093 021c 09EE100A 	 fmsr s18,r0
 1094 0220 4FF07E51 	 mov r1,#1065353216
 1095 0224 2068     	 ldr r0,[r4]
 1096 0226 FFF7FEFF 	 bl fminf
 1097 022a 0021     	 movs r1,#0
 1098 022c FFF7FEFF 	 bl fmaxf
 1099 0230 2060     	 str r0,[r4]
 1100 0232 5F4C     	 ldr r4,.L129+132
 1101 0234 08EE900A 	 fmsr s17,r0
 1102 0238 4FF07E51 	 mov r1,#1065353216
 1103 023c 2068     	 ldr r0,[r4]
 1104 023e FFF7FEFF 	 bl fminf
 1105 0242 0021     	 movs r1,#0
 1106 0244 FFF7FEFF 	 bl fmaxf
 1107 0248 68EE888A 	 fmuls s17,s17,s16
 1108 024c 07EE900A 	 fmsr s15,r0
 1109 0250 584B     	 ldr r3,.L129+136
 1110 0252 DFF898C1 	 ldr ip,.L129+192
 1111 0256 C3ED008A 	 fsts s17,[r3]
 1112 025a 6BEE88BA 	 fmuls s23,s23,s16
 1113 025e 2BEE08BA 	 fmuls s22,s22,s16
 1114 0262 6AEE88AA 	 fmuls s21,s21,s16
 1115 0266 2AEE08AA 	 fmuls s20,s20,s16
 1116 026a 69EE889A 	 fmuls s19,s19,s16
 1117 026e 29EE089A 	 fmuls s18,s18,s16
 1118 0272 514B     	 ldr r3,.L129+140
 1119 0274 2060     	 str r0,[r4]
 1120 0276 27EE888A 	 fmuls s16,s15,s16
 1121 027a 2868     	 ldr r0,[r5]
 1122 027c 83ED008A 	 fsts s16,[r3]
 1123 0280 4E49     	 ldr r1,.L129+144
 1124 0282 4F4A     	 ldr r2,.L129+148
 1125 0284 4F4B     	 ldr r3,.L129+152
 1126 0286 CCED009A 	 fsts s19,[ip]
 1127 028a CDF804C0 	 str ip,[sp,#4]
 1128 028e C8ED00BA 	 fsts s23,[r8]
 1129 0292 86ED00BA 	 fsts s22,[r6]
 1130 0296 C8ED01AA 	 fsts s21,[r8,#4]
 1131 029a 86ED01AA 	 fsts s20,[r6,#4]
 1132 029e 8BED009A 	 fsts s18,[fp]
 1133 02a2 FFF7FEFF 	 bl fw_integ
 1134 02a6 484C     	 ldr r4,.L129+156
 1135 02a8 4849     	 ldr r1,.L129+160
 1136 02aa D4ED007A 	 flds s15,[r4]
 1137 02ae 444A     	 ldr r2,.L129+148
 1138 02b0 444B     	 ldr r3,.L129+152
 1139 02b2 07EE100A 	 fmsr s14,r0
 1140 02b6 77EE277A 	 fadds s15,s14,s15
 1141 02ba 95ED007A 	 flds s14,[r5]
 1142 02be C7ED007A 	 fsts s15,[r7]
 1143 02c2 F1EE047A 	 fconsts s15,#20
 1144 02c6 67EE277A 	 fmuls s15,s14,s15
 1145 02ca 17EE900A 	 fmrs r0,s15
 1146 02ce FFF7FEFF 	 bl fw_integ
 1147 02d2 D4ED007A 	 flds s15,[r4]
 1148 02d6 3E4B     	 ldr r3,.L129+164
 1149 02d8 3E49     	 ldr r1,.L129+168
 1150 02da 394A     	 ldr r2,.L129+148
 1151 02dc 07EE100A 	 fmsr s14,r0
 1152 02e0 77EE277A 	 fadds s15,s14,s15
 1153 02e4 95ED007A 	 flds s14,[r5]
 1154 02e8 C3ED007A 	 fsts s15,[r3]
 1155 02ec F1EE0C7A 	 fconsts s15,#28
 1156 02f0 67EE277A 	 fmuls s15,s14,s15
 1157 02f4 334B     	 ldr r3,.L129+152
 1158 02f6 17EE900A 	 fmrs r0,s15
 1159 02fa FFF7FEFF 	 bl fw_integ
 1160 02fe D4ED007A 	 flds s15,[r4]
 1161 0302 354B     	 ldr r3,.L129+172
 1162 0304 3549     	 ldr r1,.L129+176
 1163 0306 2E4A     	 ldr r2,.L129+148
 1164 0308 07EE100A 	 fmsr s14,r0
 1165 030c 77EE277A 	 fadds s15,s14,s15
 1166 0310 95ED007A 	 flds s14,[r5]
 1167 0314 C3ED007A 	 fsts s15,[r3]
 1168 0318 F2EE067A 	 fconsts s15,#38
 1169 031c 67EE277A 	 fmuls s15,s14,s15
 1170 0320 284B     	 ldr r3,.L129+152
 1171 0322 17EE900A 	 fmrs r0,s15
 1172 0326 FFF7FEFF 	 bl fw_integ
 1173 032a 61E0     	 b .L130
 1174              	.L131:
 1175              	 .align 2
 1176              	.L129:
 1177 032c 00000000 	 .word P_1_0
 1178 0330 3DDAE244 	 .word 1155717693
 1179 0334 6696E144 	 .word 1155634790
 1180 0338 EC51383F 	 .word 1060655596
 1181 033c 00000000 	 .word .LANCHOR2
 1182 0340 00000000 	 .word .LANCHOR20
 1183 0344 00000000 	 .word ADC_MEASUREMENT_1_V1_1_handle
 1184 0348 00000000 	 .word group_ptrs
 1185 034c 00000000 	 .word ADC_MEASUREMENT_2_V2_1_handle
 1186 0350 00000000 	 .word ADC_MEASUREMENT_2_V2_3_handle
 1187 0354 8F4AE344 	 .word 1155746447
 1188 0358 00000000 	 .word .LANCHOR3
 1189 035c 00000000 	 .word ADC_MEASUREMENT_2_V2_2_handle
 1190 0360 00000000 	 .word .LANCHOR4
 1191 0364 00000000 	 .word ADC_MEASUREMENT_1_V1_4_handle
 1192 0368 00000000 	 .word ADC_MEASUREMENT_1_V1_3_handle
 1193 036c 00000000 	 .word ADC_MEASUREMENT_1_V1_2_handle
 1194 0370 00000000 	 .word .LANCHOR13
 1195 0374 00000000 	 .word .LANCHOR5
 1196 0378 00000000 	 .word .LANCHOR18
 1197 037c 00000000 	 .word scope_adc7
 1198 0380 00000000 	 .word scope_adc1
 1199 0384 00000000 	 .word scope_adc2
 1200 0388 00000000 	 .word scope_adc3
 1201 038c 00000000 	 .word scope_adc4
 1202 0390 00000000 	 .word scope_adc5
 1203 0394 00000000 	 .word scope_adc6
 1204 0398 000080BF 	 .word -1082130432
 1205 039c 00000000 	 .word .LANCHOR6
 1206 03a0 00000000 	 .word .LANCHOR7
 1207 03a4 00000000 	 .word .LANCHOR8
 1208 03a8 00000000 	 .word .LANCHOR9
 1209 03ac 00000000 	 .word .LANCHOR10
 1210 03b0 00000000 	 .word .LANCHOR11
 1211 03b4 00000000 	 .word .LANCHOR16
 1212 03b8 00000000 	 .word .LANCHOR17
 1213 03bc 00000000 	 .word .LANCHOR19
 1214 03c0 17B7D138 	 .word 953267991
 1215 03c4 DB0FC940 	 .word 1086918619
 1216 03c8 00000000 	 .word .LANCHOR21
 1217 03cc 00000000 	 .word .LANCHOR22
 1218 03d0 00000000 	 .word .LANCHOR23
 1219 03d4 00000000 	 .word .LANCHOR24
 1220 03d8 00000000 	 .word .LANCHOR25
 1221 03dc 00000000 	 .word .LANCHOR26
 1222 03e0 00000000 	 .word .LANCHOR12
 1223 03e4 00000000 	 .word .LANCHOR15
 1224 03e8 00000000 	 .word .LANCHOR27
 1225 03ec 00000000 	 .word .LANCHOR14
 1226              	.L130:
 1227 03f0 D4ED007A 	 flds s15,[r4]
 1228 03f4 624B     	 ldr r3,.L132
 1229 03f6 6349     	 ldr r1,.L132+4
 1230 03f8 634A     	 ldr r2,.L132+8
 1231 03fa 07EE100A 	 fmsr s14,r0
 1232 03fe 77EE277A 	 fadds s15,s14,s15
 1233 0402 95ED007A 	 flds s14,[r5]
 1234 0406 C9ED007A 	 fsts s15,[r9]
 1235 040a F2EE0A7A 	 fconsts s15,#42
 1236 040e 67EE277A 	 fmuls s15,s14,s15
 1237 0412 5E4D     	 ldr r5,.L132+12
 1238 0414 17EE900A 	 fmrs r0,s15
 1239 0418 FFF7FEFF 	 bl fw_integ
 1240 041c D4ED007A 	 flds s15,[r4]
 1241 0420 5B4C     	 ldr r4,.L132+16
 1242 0422 3A68     	 ldr r2,[r7]
 1243 0424 07EE100A 	 fmsr s14,r0
 1244 0428 77EE277A 	 fadds s15,s14,s15
 1245 042c 4046     	 mov r0,r8
 1246 042e 2146     	 mov r1,r4
 1247 0430 C5ED007A 	 fsts s15,[r5]
 1248 0434 DFF8C481 	 ldr r8,.L132+124
 1249 0438 FFF7FEFF 	 bl dq_AB
 1250 043c 3A68     	 ldr r2,[r7]
 1251 043e 554F     	 ldr r7,.L132+20
 1252 0440 3046     	 mov r0,r6
 1253 0442 4146     	 mov r1,r8
 1254 0444 82F00042 	 eor r2,r2,#-2147483648
 1255 0448 FFF7FEFF 	 bl dq_AB
 1256 044c DDF804C0 	 ldr ip,[sp,#4]
 1257 0450 514B     	 ldr r3,.L132+24
 1258 0452 5249     	 ldr r1,.L132+28
 1259 0454 1A68     	 ldr r2,[r3]
 1260 0456 524E     	 ldr r6,.L132+32
 1261 0458 6046     	 mov r0,ip
 1262 045a FFF7FEFF 	 bl dq_AB
 1263 045e 514B     	 ldr r3,.L132+36
 1264 0460 5149     	 ldr r1,.L132+40
 1265 0462 1A68     	 ldr r2,[r3]
 1266 0464 5846     	 mov r0,fp
 1267 0466 FFF7FEFF 	 bl dq_AB
 1268 046a D9F80020 	 ldr r2,[r9]
 1269 046e 4F48     	 ldr r0,.L132+44
 1270 0470 4F49     	 ldr r1,.L132+48
 1271 0472 DFF84891 	 ldr r9,.L132+60
 1272 0476 FFF7FEFF 	 bl dq_AB
 1273 047a 2A68     	 ldr r2,[r5]
 1274 047c 4D48     	 ldr r0,.L132+52
 1275 047e 4E49     	 ldr r1,.L132+56
 1276 0480 FFF7FEFF 	 bl dq_AB
 1277 0484 4548     	 ldr r0,.L132+28
 1278 0486 4D49     	 ldr r1,.L132+60
 1279 0488 FFF7FEFF 	 bl AB_abc
 1280 048c 4648     	 ldr r0,.L132+40
 1281 048e 4C49     	 ldr r1,.L132+64
 1282 0490 FFF7FEFF 	 bl AB_abc
 1283 0494 4648     	 ldr r0,.L132+48
 1284 0496 3F49     	 ldr r1,.L132+20
 1285 0498 FFF7FEFF 	 bl AB_abc
 1286 049c 4648     	 ldr r0,.L132+56
 1287 049e 4949     	 ldr r1,.L132+68
 1288 04a0 FFF7FEFF 	 bl AB_abc
 1289 04a4 D4ED007A 	 flds s15,[r4]
 1290 04a8 98ED007A 	 flds s14,[r8]
 1291 04ac D8ED016A 	 flds s13,[r8,#4]
 1292 04b0 454B     	 ldr r3,.L132+72
 1293 04b2 4648     	 ldr r0,.L132+76
 1294 04b4 3A49     	 ldr r1,.L132+32
 1295 04b6 DFF80881 	 ldr r8,.L132+64
 1296 04ba 37EE877A 	 fadds s14,s15,s14
 1297 04be D4ED017A 	 flds s15,[r4,#4]
 1298 04c2 83ED007A 	 fsts s14,[r3]
 1299 04c6 77EEA67A 	 fadds s15,s15,s13
 1300 04ca 414B     	 ldr r3,.L132+80
 1301 04cc 80ED007A 	 fsts s14,[r0]
 1302 04d0 C0ED017A 	 fsts s15,[r0,#4]
 1303 04d4 C3ED007A 	 fsts s15,[r3]
 1304 04d8 FFF7FEFF 	 bl AB_abc
 1305 04dc 0025     	 movs r5,#0
 1306              	.L127:
 1307 04de 96ED006A 	 flds s12,[r6]
 1308 04e2 B9EC017A 	 fldmias r9!,{s14}
 1309 04e6 F8EC017A 	 fldmias r8!,{s15}
 1310 04ea 364B     	 ldr r3,.L132+68
 1311 04ec F7EC016A 	 fldmias r7!,{s13}
 1312 04f0 3849     	 ldr r1,.L132+84
 1313 04f2 394C     	 ldr r4,.L132+88
 1314 04f4 37EE067A 	 fadds s14,s14,s12
 1315 04f8 2B44     	 add r3,r3,r5
 1316 04fa 77EE277A 	 fadds s15,s14,s15
 1317 04fe 93ED007A 	 flds s14,[r3]
 1318 0502 77EEA67A 	 fadds s15,s15,s13
 1319 0506 77EE877A 	 fadds s15,s15,s14
 1320 050a 17EE900A 	 fmrs r0,s15
 1321 050e FFF7FEFF 	 bl fminf
 1322 0512 3249     	 ldr r1,.L132+92
 1323 0514 FFF7FEFF 	 bl fmaxf
 1324 0518 9FED317A 	 flds s14,.L132+96
 1325 051c 46F8040B 	 str r0,[r6],#4
 1326 0520 07EE900A 	 fmsr s15,r0
 1327 0524 67EE877A 	 fmuls s15,s15,s14
 1328 0528 FDEEE77A 	 ftosizs s15,s15
 1329 052c 17EE903A 	 fmrs r3,s15
 1330 0530 5B10     	 asrs r3,r3,#1
 1331 0532 03F59C53 	 add r3,r3,#4992
 1332 0536 0833     	 adds r3,r3,#8
 1333 0538 2B51     	 str r3,[r5,r4]
 1334 053a 0435     	 adds r5,r5,#4
 1335 053c 0C2D     	 cmp r5,#12
 1336 053e CED1     	 bne .L127
 1337 0540 284B     	 ldr r3,.L132+100
 1338 0542 2168     	 ldr r1,[r4]
 1339 0544 1960     	 str r1,[r3]
 1340 0546 284B     	 ldr r3,.L132+104
 1341 0548 6268     	 ldr r2,[r4,#4]
 1342 054a 1A60     	 str r2,[r3]
 1343 054c 274B     	 ldr r3,.L132+108
 1344 054e A268     	 ldr r2,[r4,#8]
 1345 0550 2748     	 ldr r0,.L132+112
 1346 0552 1A60     	 str r2,[r3]
 1347 0554 FFF7FEFF 	 bl PWM_SetDutyCycle
 1348 0558 6168     	 ldr r1,[r4,#4]
 1349 055a 2648     	 ldr r0,.L132+116
 1350 055c FFF7FEFF 	 bl PWM_SetDutyCycle
 1351 0560 A168     	 ldr r1,[r4,#8]
 1352 0562 2548     	 ldr r0,.L132+120
 1353 0564 FFF7FEFF 	 bl PWM_SetDutyCycle
 1354 0568 009A     	 ldr r2,[sp]
 1355 056a 4FF48033 	 mov r3,#65536
 1356 056e 03FA0AF3 	 lsl r3,r3,r10
 1357 0572 5360     	 str r3,[r2,#4]
 1358 0574 03B0     	 add sp,sp,#12
 1359              	 
 1360 0576 BDEC088B 	 fldmfdd sp!,{d8-d11}
 1361 057a BDE8F08F 	 pop {r4,r5,r6,r7,r8,r9,r10,fp,pc}
 1362              	.L133:
 1363 057e 00BF     	 .align 2
 1364              	.L132:
 1365 0580 DB0FC940 	 .word 1086918619
 1366 0584 00000000 	 .word .LANCHOR28
 1367 0588 17B7D138 	 .word 953267991
 1368 058c 00000000 	 .word .LANCHOR29
 1369 0590 00000000 	 .word .LANCHOR30
 1370 0594 00000000 	 .word .LANCHOR38
 1371 0598 00000000 	 .word .LANCHOR23
 1372 059c 00000000 	 .word .LANCHOR32
 1373 05a0 00000000 	 .word .LANCHOR41
 1374 05a4 00000000 	 .word .LANCHOR25
 1375 05a8 00000000 	 .word .LANCHOR33
 1376 05ac 00000000 	 .word .LANCHOR16
 1377 05b0 00000000 	 .word .LANCHOR34
 1378 05b4 00000000 	 .word .LANCHOR17
 1379 05b8 00000000 	 .word .LANCHOR35
 1380 05bc 00000000 	 .word .LANCHOR36
 1381 05c0 00000000 	 .word .LANCHOR37
 1382 05c4 00000000 	 .word .LANCHOR39
 1383 05c8 00000000 	 .word scope1
 1384 05cc 00000000 	 .word .LANCHOR40
 1385 05d0 00000000 	 .word scope2
 1386 05d4 EC51783F 	 .word 1064849900
 1387 05d8 00000000 	 .word .LANCHOR42
 1388 05dc EC5178BF 	 .word -1082633748
 1389 05e0 00401C46 	 .word 1176256512
 1390 05e4 00000000 	 .word scopeu1
 1391 05e8 00000000 	 .word scopeu2
 1392 05ec 00000000 	 .word scopeu3
 1393 05f0 00000000 	 .word PWM_a
 1394 05f4 00000000 	 .word PWM_b
 1395 05f8 00000000 	 .word PWM_c
 1396 05fc 00000000 	 .word .LANCHOR31
 1398              	 .section .text.startup.main,"ax",%progbits
 1399              	 .align 1
 1400              	 .global main
 1401              	 .thumb
 1402              	 .thumb_func
 1404              	main:
 1405              	 
 1406              	 
 1407 0000 2DE9F843 	 push {r3,r4,r5,r6,r7,r8,r9,lr}
 1408 0004 FFF7FEFF 	 bl DAVE_Init
 1409 0008 00B1     	 cbz r0,.L135
 1410              	.L138:
 1411 000a FEE7     	 b .L138
 1412              	.L135:
 1413 000c 274B     	 ldr r3,.L139
 1414 000e 1868     	 ldr r0,[r3]
 1415 0010 42F21073 	 movw r3,#10000
 1416 0014 B0FBF3F0 	 udiv r0,r0,r3
 1417 0018 FFF7FEFF 	 bl ProbeScope_Init
 1418 001c 244B     	 ldr r3,.L139+4
 1419 001e 2548     	 ldr r0,.L139+8
 1420 0020 197C     	 ldrb r1,[r3,#16]
 1421 0022 1A68     	 ldr r2,[r3]
 1422 0024 4FF48033 	 mov r3,#65536
 1423 0028 03FA01F1 	 lsl r1,r3,r1
 1424 002c 5160     	 str r1,[r2,#4]
 1425 002e 224A     	 ldr r2,.L139+12
 1426 0030 1168     	 ldr r1,[r2]
 1427 0032 127C     	 ldrb r2,[r2,#16]
 1428 0034 03FA02F2 	 lsl r2,r3,r2
 1429 0038 4A60     	 str r2,[r1,#4]
 1430 003a 204A     	 ldr r2,.L139+16
 1431 003c 92F81090 	 ldrb r9,[r2,#16]
 1432 0040 1768     	 ldr r7,[r2]
 1433 0042 03FA09F2 	 lsl r2,r3,r9
 1434 0046 7A60     	 str r2,[r7,#4]
 1435 0048 1D4A     	 ldr r2,.L139+20
 1436 004a 92F81080 	 ldrb r8,[r2,#16]
 1437 004e 1668     	 ldr r6,[r2]
 1438 0050 03FA08F2 	 lsl r2,r3,r8
 1439 0054 7260     	 str r2,[r6,#4]
 1440 0056 1B4A     	 ldr r2,.L139+24
 1441 0058 147C     	 ldrb r4,[r2,#16]
 1442 005a 1568     	 ldr r5,[r2]
 1443 005c A340     	 lsls r3,r3,r4
 1444 005e 6B60     	 str r3,[r5,#4]
 1445 0060 FFF7FEFF 	 bl PWM_Stop
 1446 0064 1848     	 ldr r0,.L139+28
 1447 0066 FFF7FEFF 	 bl PWM_Stop
 1448 006a 1848     	 ldr r0,.L139+32
 1449 006c FFF7FEFF 	 bl PWM_Stop
 1450 0070 1748     	 ldr r0,.L139+36
 1451 0072 FFF7FEFF 	 bl PWM_Start
 1452 0076 174B     	 ldr r3,.L139+40
 1453 0078 174A     	 ldr r2,.L139+44
 1454 007a 1A60     	 str r2,[r3]
 1455 007c 0123     	 movs r3,#1
 1456 007e 03FA09F9 	 lsl r9,r3,r9
 1457 0082 03FA08F8 	 lsl r8,r3,r8
 1458 0086 03FA04F4 	 lsl r4,r3,r4
 1459              	.L137:
 1460 008a 0A48     	 ldr r0,.L139+8
 1461 008c FFF7FEFF 	 bl PWM_Start
 1462 0090 0D48     	 ldr r0,.L139+28
 1463 0092 FFF7FEFF 	 bl PWM_Start
 1464 0096 0D48     	 ldr r0,.L139+32
 1465 0098 FFF7FEFF 	 bl PWM_Start
 1466 009c C7F80490 	 str r9,[r7,#4]
 1467 00a0 C6F80480 	 str r8,[r6,#4]
 1468 00a4 6C60     	 str r4,[r5,#4]
 1469 00a6 FFF7FEFF 	 bl ProbeScope_Sampling
 1470 00aa EEE7     	 b .L137
 1471              	.L140:
 1472              	 .align 2
 1473              	.L139:
 1474 00ac 00000000 	 .word SystemCoreClock
 1475 00b0 00000000 	 .word ENABLE
 1476 00b4 00000000 	 .word PWM_a
 1477 00b8 00000000 	 .word FAULT_RST
 1478 00bc 00000000 	 .word EN_1
 1479 00c0 00000000 	 .word EN_2
 1480 00c4 00000000 	 .word EN_3
 1481 00c8 00000000 	 .word PWM_b
 1482 00cc 00000000 	 .word PWM_c
 1483 00d0 00000000 	 .word PWM_update
 1484 00d4 00000000 	 .word .LANCHOR18
 1485 00d8 63149D43 	 .word 1134367843
 1487              	 .comm scope_adc7,4,4
 1488              	 .comm scope_adc6,4,4
 1489              	 .comm scope_adc5,4,4
 1490              	 .comm scope_adc4,4,4
 1491              	 .comm scope_adc3,4,4
 1492              	 .comm scope_adc2,4,4
 1493              	 .comm scope_adc1,4,4
 1494              	 .global wt_jump
 1495              	 .global wt13
 1496              	 .global wt11
 1497              	 .global wt7
 1498              	 .global wt5
 1499              	 .global wt_buff13
 1500              	 .global wt_buff11
 1501              	 .global wt_buff7
 1502              	 .global wt_buff5
 1503              	 .global vmabc
 1504              	 .global vmAB
 1505              	 .global vabc13
 1506              	 .global vAB13
 1507              	 .global vDQ13
 1508              	 .global vabc11
 1509              	 .global vAB11
 1510              	 .global vDQ11
 1511              	 .global vabc7
 1512              	 .global vAB7
 1513              	 .global vDQ7
 1514              	 .global vabc5
 1515              	 .global vAB5
 1516              	 .global vDQ5
 1517              	 .global V13
 1518              	 .global V11
 1519              	 .global V7
 1520              	 .global V5
 1521              	 .global Vn
 1522              	 .global vABn
 1523              	 .global vDQn
 1524              	 .global vDQn_ref
 1525              	 .global vABp
 1526              	 .global vDQp
 1527              	 .global vDQp_ref
 1528              	 .global fault
 1529              	 .global counter
 1530              	 .comm scopeu3,4,4
 1531              	 .comm scopeu2,4,4
 1532              	 .comm scopeu1,4,4
 1533              	 .comm scope3,4,4
 1534              	 .comm scope2,4,4
 1535              	 .comm scope1,4,4
 1536              	 .global LPF_buff_Vdc_ref
 1537              	 .global LPF_buff_Vdc
 1538              	 .global LPF_buff_IB
 1539              	 .global LPF_buff_IA
 1540              	 .global LPF_buff_VB
 1541              	 .global LPF_buff_VA
 1542              	 .global LPF_buff_sync2
 1543              	 .global LPF_buff_conv_wt
 1544              	 .global LPF_buff_conv_w
 1545              	 .global LPF_buff_w
 1546              	 .global LPF_buff_w0
 1547              	 .global sync_aux3_buff
 1548              	 .global wt_buff
 1549              	 .global dw_buff
 1550              	 .global HPFq_buff
 1551              	 .global HPFd_buff
 1552              	 .global PI_V_DC_buff
 1553              	 .global PI_CCq_buff
 1554              	 .global PI_CCd_buff
 1555              	 .global PI_PLL_buff
 1556              	 .global sync_aux2
 1557              	 .global wt
 1558              	 .global wf
 1559              	 .global dw
 1560              	 .global w
 1561              	 .global Vm_AB2
 1562              	 .global Vm_dq
 1563              	 .global Vm_AB
 1564              	 .global Vm_abc
 1565              	 .global PI_sat_CC
 1566              	 .global ID_dq
 1567              	 .global Ie_dq
 1568              	 .global I_dq_ref_f
 1569              	 .global I_dq
 1570              	 .global V_dq
 1571              	 .global I_ABf
 1572              	 .global V_ABf
 1573              	 .global V_DCf
 1574              	 .global I_AB
 1575              	 .global V_AB
 1576              	 .global I_abc
 1577              	 .global V_abc
 1578              	 .global V_DC
 1579              	 .global I_abc_adc
 1580              	 .global V_abc_adc
 1581              	 .global m_abc
 1582              	 .global V_DC_adc
 1583              	 .global sync_aux3
 1584              	 .global fan_pwm
 1585              	 .global error_code
 1586              	 .global fault_flag
 1587              	 .comm relayTimer,2,2
 1588              	 .global REARMcommand
 1589              	 .global SWcommand
 1590              	 .global fault_rst
 1591              	 .global B2command
 1592              	 .global sync
 1593              	 .global ramp
 1594              	 .global mode
 1595              	 .global relayTimerFlag
 1596              	 .global state
 1597              	 .global V_DC_ref_f
 1598              	 .global V_DC_ref
 1599              	 .global PQ_ref
 1600              	 .global I_dq_ref
 1601              	 .global V_dq_ref
 1602              	 .global dqsg
 1603              	 .global PI_cc
 1604              	 .global PI_Vdc
 1605              	 .global PI_PLL
 1606              	 .global LPF2_K_1500
 1607              	 .global LPF2_K_500
 1608              	 .global LPF2_K_100
 1609              	 .global LPF2_K_50
 1610              	 .global LPF2_K_10
 1611              	 .global LPF_vAB
 1612              	 .global LPF_iAB
 1613              	 .global LPF_idq_ref
 1614              	 .global conv
 1615              	 .global conf
 1616              	 .global LPF_K_1500
 1617              	 .global LPF_K_500
 1618              	 .global LPF_K_100
 1619              	 .global LPF_K_50
 1620              	 .global LPF_K_10
 1621              	 .global LPF_K_1
 1622              	 .global HPF_K
 1623              	 .global PI_K_CC
 1624              	 .global K_sync
 1625              	 .global ADC
 1626              	 .global chargeTime
 1627              	 .global Vdc_error
 1628              	 .section .bss.LPF_buff_VA,"aw",%nobits
 1629              	 .align 2
 1632              	LPF_buff_VA:
 1633 0000 00000000 	 .space 8
 1633      00000000 
 1634              	 .section .bss.LPF_buff_sync2,"aw",%nobits
 1635              	 .align 2
 1638              	LPF_buff_sync2:
 1639 0000 00000000 	 .space 8
 1639      00000000 
 1640              	 .section .bss.LPF_buff_VB,"aw",%nobits
 1641              	 .align 2
 1644              	LPF_buff_VB:
 1645 0000 00000000 	 .space 8
 1645      00000000 
 1646              	 .section .bss.vDQ13,"aw",%nobits
 1647              	 .align 2
 1648              	 .set .LANCHOR17,.+0
 1651              	vDQ13:
 1652 0000 00000000 	 .space 8
 1652      00000000 
 1653              	 .section .data.PI_PLL,"aw",%progbits
 1654              	 .align 2
 1657              	PI_PLL:
 1658 0000 0000803F 	 .word 1065353216
 1659 0004 0000C842 	 .word 1120403456
 1660 0008 949E6B44 	 .word 1147903636
 1661 000c 949E6BC4 	 .word -999580012
 1662 0010 00000000 	 .word 0
 1663 0014 00000000 	 .word 0
 1664 0018 00       	 .byte 0
 1665 0019 000000   	 .space 3
 1666              	 .section .bss.HPFd_buff,"aw",%nobits
 1667              	 .align 2
 1670              	HPFd_buff:
 1671 0000 00000000 	 .space 8
 1671      00000000 
 1672              	 .section .bss.vabc13,"aw",%nobits
 1673              	 .align 2
 1674              	 .set .LANCHOR39,.+0
 1677              	vabc13:
 1678 0000 00000000 	 .space 12
 1678      00000000 
 1678      00000000 
 1679              	 .section .bss.LPF_buff_Vdc_ref,"aw",%nobits
 1680              	 .align 2
 1683              	LPF_buff_Vdc_ref:
 1684 0000 00000000 	 .space 8
 1684      00000000 
 1685              	 .section .data.state,"aw",%progbits
 1686              	 .align 1
 1689              	state:
 1690 0000 0100     	 .short 1
 1691              	 .section .rodata.LPF_K_500,"a",%progbits
 1692              	 .align 2
 1695              	LPF_K_500:
 1696 0000 0000803F 	 .word 1065353216
 1697 0004 D6DD163E 	 .word 1041685974
 1698 0008 1591343F 	 .word 1060409621
 1699              	 .section .bss.vAB5,"aw",%nobits
 1700              	 .align 2
 1701              	 .set .LANCHOR32,.+0
 1704              	vAB5:
 1705 0000 00000000 	 .space 8
 1705      00000000 
 1706              	 .section .bss.vAB7,"aw",%nobits
 1707              	 .align 2
 1708              	 .set .LANCHOR33,.+0
 1711              	vAB7:
 1712 0000 00000000 	 .space 8
 1712      00000000 
 1713              	 .section .data.Vm_dq,"aw",%progbits
 1714              	 .align 2
 1717              	Vm_dq:
 1718 0000 0000F041 	 .word 1106247680
 1719 0004 00000000 	 .word 0
 1720              	 .section .rodata.K_sync,"a",%progbits
 1721              	 .align 2
 1724              	K_sync:
 1725 0000 00504347 	 .word 1195593728
 1726 0004 0000403F 	 .word 1061158912
 1727 0008 00002041 	 .word 1092616192
 1728 000c 00000000 	 .space 4
 1729              	 .section .bss.wt_jump,"aw",%nobits
 1730              	 .align 2
 1731              	 .set .LANCHOR21,.+0
 1734              	wt_jump:
 1735 0000 00000000 	 .space 4
 1736              	 .section .bss.V_AB,"aw",%nobits
 1737              	 .align 2
 1740              	V_AB:
 1741 0000 00000000 	 .space 8
 1741      00000000 
 1742              	 .section .bss.fault_flag,"aw",%nobits
 1743              	 .align 1
 1746              	fault_flag:
 1747 0000 0000     	 .space 2
 1748              	 .section .bss.vabc11,"aw",%nobits
 1749              	 .align 2
 1750              	 .set .LANCHOR38,.+0
 1753              	vabc11:
 1754 0000 00000000 	 .space 12
 1754      00000000 
 1754      00000000 
 1755              	 .section .bss.wt_buff,"aw",%nobits
 1756              	 .align 2
 1757              	 .set .LANCHOR19,.+0
 1760              	wt_buff:
 1761 0000 00000000 	 .space 4
 1762              	 .section .data.conf,"aw",%progbits
 1763              	 .align 2
 1764              	 .set .LANCHOR1,.+0
 1767              	conf:
 1768 0000 00803B44 	 .word 1144750080
 1769 0004 0000AF43 	 .word 1135542272
 1770 0008 AE07BB43 	 .word 1136330670
 1771 000c 293C8A43 	 .word 1133132841
 1772 0010 85CBA143 	 .word 1134676869
 1773 0014 9A399543 	 .word 1133853082
 1774 0018 00007041 	 .word 1097859072
 1775 001c 000070C1 	 .word -1049624576
 1776 0020 00409C45 	 .word 1167867904
 1777              	 .section .data.LPF_idq_ref,"aw",%progbits
 1778              	 .align 2
 1781              	LPF_idq_ref:
 1782 0000 0000803F 	 .word 1065353216
 1783 0004 04617D3C 	 .word 1014849796
 1784 0008 F714783F 	 .word 1064834295
 1785 000c 00000000 	 .word 0
 1786 0010 00000000 	 .word 0
 1787 0014 00000000 	 .word 0
 1788 0018 00000000 	 .word 0
 1789              	 .section .data.V_dq_ref,"aw",%progbits
 1790              	 .align 2
 1793              	V_dq_ref:
 1794 0000 00008241 	 .word 1099038720
 1795 0004 00000000 	 .word 0
 1796              	 .section .data.LPF2_K_500,"aw",%progbits
 1797              	 .align 2
 1800              	LPF2_K_500:
 1801 0000 9093F43D 	 .word 1039438736
 1802 0004 9093743E 	 .word 1047827344
 1803 0008 9093F43D 	 .word 1039438736
 1804 000c 55164940 	 .word 1078531669
 1805 0010 645BF8C0 	 .word -1057465500
 1806 0014 7DE8483E 	 .word 1044965501
 1807 0018 00000000 	 .word 0
 1808 001c 00000000 	 .word 0
 1809 0020 00000000 	 .word 0
 1810 0024 00000000 	 .word 0
 1811              	 .section .bss.vabc5,"aw",%nobits
 1812              	 .align 2
 1813              	 .set .LANCHOR36,.+0
 1816              	vabc5:
 1817 0000 00000000 	 .space 12
 1817      00000000 
 1817      00000000 
 1818              	 .section .bss.vabc7,"aw",%nobits
 1819              	 .align 2
 1820              	 .set .LANCHOR37,.+0
 1823              	vabc7:
 1824 0000 00000000 	 .space 12
 1824      00000000 
 1824      00000000 
 1825              	 .section .bss.PI_CCq_buff,"aw",%nobits
 1826              	 .align 2
 1829              	PI_CCq_buff:
 1830 0000 00000000 	 .space 12
 1830      00000000 
 1830      00000000 
 1831              	 .section .bss.SWcommand,"aw",%nobits
 1832              	 .align 1
 1835              	SWcommand:
 1836 0000 0000     	 .space 2
 1837              	 .section .bss.vAB11,"aw",%nobits
 1838              	 .align 2
 1839              	 .set .LANCHOR34,.+0
 1842              	vAB11:
 1843 0000 00000000 	 .space 8
 1843      00000000 
 1844              	 .section .bss.ID_dq,"aw",%nobits
 1845              	 .align 2
 1848              	ID_dq:
 1849 0000 00000000 	 .space 8
 1849      00000000 
 1850              	 .section .bss.Vdc_error,"aw",%nobits
 1851              	 .align 2
 1854              	Vdc_error:
 1855 0000 00000000 	 .space 4
 1856              	 .section .bss.Vm_AB2,"aw",%nobits
 1857              	 .align 2
 1860              	Vm_AB2:
 1861 0000 00000000 	 .space 4
 1862              	 .section .bss.V_abc_adc,"aw",%nobits
 1863              	 .align 1
 1864              	 .set .LANCHOR2,.+0
 1867              	V_abc_adc:
 1868 0000 00000000 	 .space 6
 1868      0000
 1869              	 .section .bss.vDQ11,"aw",%nobits
 1870              	 .align 2
 1871              	 .set .LANCHOR16,.+0
 1874              	vDQ11:
 1875 0000 00000000 	 .space 8
 1875      00000000 
 1876              	 .section .bss.sync_aux3_buff,"aw",%nobits
 1877              	 .align 1
 1880              	sync_aux3_buff:
 1881 0000 0000     	 .space 2
 1882              	 .section .bss.I_dq,"aw",%nobits
 1883              	 .align 2
 1886              	I_dq:
 1887 0000 00000000 	 .space 8
 1887      00000000 
 1888              	 .section .bss.I_dq_ref_f,"aw",%nobits
 1889              	 .align 2
 1892              	I_dq_ref_f:
 1893 0000 00000000 	 .space 8
 1893      00000000 
 1894              	 .section .bss.dw,"aw",%nobits
 1895              	 .align 2
 1898              	dw:
 1899 0000 00000000 	 .space 4
 1900              	 .section .bss.wf,"aw",%nobits
 1901              	 .align 2
 1904              	wf:
 1905 0000 00000000 	 .space 4
 1906              	 .section .bss.V7,"aw",%nobits
 1907              	 .align 2
 1908              	 .set .LANCHOR9,.+0
 1911              	V7:
 1912 0000 00000000 	 .space 4
 1913              	 .section .bss.wt_buff11,"aw",%nobits
 1914              	 .align 2
 1915              	 .set .LANCHOR26,.+0
 1918              	wt_buff11:
 1919 0000 00000000 	 .space 4
 1920              	 .section .bss.wt_buff13,"aw",%nobits
 1921              	 .align 2
 1922              	 .set .LANCHOR28,.+0
 1925              	wt_buff13:
 1926 0000 00000000 	 .space 4
 1927              	 .section .bss.vmabc,"aw",%nobits
 1928              	 .align 2
 1929              	 .set .LANCHOR41,.+0
 1932              	vmabc:
 1933 0000 00000000 	 .space 12
 1933      00000000 
 1933      00000000 
 1934              	 .section .bss.vABp,"aw",%nobits
 1935              	 .align 2
 1936              	 .set .LANCHOR30,.+0
 1939              	vABp:
 1940 0000 00000000 	 .space 8
 1940      00000000 
 1941              	 .section .data.ADC,"aw",%progbits
 1942              	 .align 2
 1945              	ADC:
 1946 0000 5940533A 	 .word 978534489
 1947 0004 3333D33F 	 .word 1070805811
 1948 0008 F910AE43 	 .word 1135481081
 1949 000c 2200483E 	 .word 1044906018
 1950 0010 0080ED41 	 .word 1106083840
 1951              	 .section .bss.m_abc,"aw",%nobits
 1952              	 .align 2
 1953              	 .set .LANCHOR42,.+0
 1956              	m_abc:
 1957 0000 00000000 	 .space 12
 1957      00000000 
 1957      00000000 
 1958              	 .section .bss.wt,"aw",%nobits
 1959              	 .align 2
 1960              	 .set .LANCHOR20,.+0
 1963              	wt:
 1964 0000 00000000 	 .space 4
 1965              	 .section .data.PI_cc,"aw",%progbits
 1966              	 .align 2
 1969              	PI_cc:
 1970 0000 0AD72340 	 .word 1076090634
 1971 0004 00004445 	 .word 1162084352
 1972 0008 00803144 	 .word 1144094720
 1973 000c 00002FC4 	 .word -1003552768
 1974 0010 00000000 	 .word 0
 1975 0014 00000000 	 .word 0
 1976 0018 00000000 	 .word 0
 1977 001c 00000000 	 .word 0
 1978 0020 00       	 .byte 0
 1979 0021 000000   	 .space 3
 1980              	 .section .bss.fault_rst,"aw",%nobits
 1981              	 .align 1
 1984              	fault_rst:
 1985 0000 0000     	 .space 2
 1986              	 .section .data.counter,"aw",%progbits
 1987              	 .align 2
 1990              	counter:
 1991 0000 01000000 	 .word 1
 1992              	 .section .data.PI_sat_CC,"aw",%progbits
 1993              	 .align 2
 1996              	PI_sat_CC:
 1997 0000 00000000 	 .word 0
 1998 0004 00000080 	 .word -2147483648
 1999              	 .section .bss.LPF_buff_conv_wt,"aw",%nobits
 2000              	 .align 2
 2003              	LPF_buff_conv_wt:
 2004 0000 00000000 	 .space 8
 2004      00000000 
 2005              	 .section .data.LPF2_K_50,"aw",%progbits
 2006              	 .align 2
 2009              	LPF2_K_50:
 2010 0000 D65C813A 	 .word 981556438
 2011 0004 D65C013B 	 .word 989945046
 2012 0008 D65C813A 	 .word 981556438
 2013 000c 54607A40 	 .word 1081761876
 2014 0010 D4EFFFC0 	 .word -1056968748
 2015 0014 52607A3E 	 .word 1048207442
 2016 0018 00000000 	 .word 0
 2017 001c 00000000 	 .word 0
 2018 0020 00000000 	 .word 0
 2019 0024 00000000 	 .word 0
 2020              	 .section .bss.I_abc,"aw",%nobits
 2021              	 .align 2
 2024              	I_abc:
 2025 0000 00000000 	 .space 12
 2025      00000000 
 2025      00000000 
 2026              	 .section .bss.I_dq_ref,"aw",%nobits
 2027              	 .align 2
 2030              	I_dq_ref:
 2031 0000 00000000 	 .space 8
 2031      00000000 
 2032              	 .section .bss.wt7,"aw",%nobits
 2033              	 .align 2
 2034              	 .set .LANCHOR25,.+0
 2037              	wt7:
 2038 0000 00000000 	 .space 4
 2039              	 .section .bss.V_ABf,"aw",%nobits
 2040              	 .align 2
 2043              	V_ABf:
 2044 0000 00000000 	 .space 8
 2044      00000000 
 2045              	 .section .data.ramp,"aw",%progbits
 2048              	ramp:
 2049 0000 FF       	 .byte -1
 2050              	 .section .rodata.LPF_K_100,"a",%progbits
 2051              	 .align 2
 2054              	LPF_K_100:
 2055 0000 0000803F 	 .word 1065353216
 2056 0004 4085F93C 	 .word 1022985536
 2057 0008 AC67703F 	 .word 1064331180
 2058              	 .section .bss.HPFq_buff,"aw",%nobits
 2059              	 .align 2
 2062              	HPFq_buff:
 2063 0000 00000000 	 .space 8
 2063      00000000 
 2064              	 .section .bss.V11,"aw",%nobits
 2065              	 .align 2
 2066              	 .set .LANCHOR10,.+0
 2069              	V11:
 2070 0000 00000000 	 .space 4
 2071              	 .section .bss.V5,"aw",%nobits
 2072              	 .align 2
 2073              	 .set .LANCHOR8,.+0
 2076              	V5:
 2077 0000 00000000 	 .space 4
 2078              	 .section .bss.V13,"aw",%nobits
 2079              	 .align 2
 2080              	 .set .LANCHOR11,.+0
 2083              	V13:
 2084 0000 00000000 	 .space 4
 2085              	 .section .data.Vn,"aw",%progbits
 2086              	 .align 2
 2087              	 .set .LANCHOR7,.+0
 2090              	Vn:
 2091 0000 0000003F 	 .word 1056964608
 2092              	 .section .data.PI_Vdc,"aw",%progbits
 2093              	 .align 2
 2094              	 .set .LANCHOR0,.+0
 2097              	PI_Vdc:
 2098 0000 F1499F3E 	 .word 1050626545
 2099 0004 985DA141 	 .word 1101094296
 2100 0008 00007041 	 .word 1097859072
 2101 000c 000070C1 	 .word -1049624576
 2102 0010 00000000 	 .word 0
 2103 0014 00000000 	 .word 0
 2104 0018 00       	 .byte 0
 2105 0019 000000   	 .space 3
 2106              	 .section .rodata.LPF_K_50,"a",%progbits
 2107              	 .align 2
 2110              	LPF_K_50:
 2111 0000 0000803F 	 .word 1065353216
 2112 0004 04617D3C 	 .word 1014849796
 2113 0008 F714783F 	 .word 1064834295
 2114              	 .section .bss.LPF_buff_conv_w,"aw",%nobits
 2115              	 .align 2
 2118              	LPF_buff_conv_w:
 2119 0000 00000000 	 .space 8
 2119      00000000 
 2120              	 .section .bss.fault,"aw",%nobits
 2121              	 .align 2
 2124              	fault:
 2125 0000 00000000 	 .space 4
 2126              	 .section .rodata.PI_K_CC,"a",%progbits
 2127              	 .align 2
 2130              	PI_K_CC:
 2131 0000 0AD72340 	 .word 1076090634
 2132 0004 00209944 	 .word 1150885888
 2133              	 .section .bss.wt_buff5,"aw",%nobits
 2134              	 .align 2
 2135              	 .set .LANCHOR22,.+0
 2138              	wt_buff5:
 2139 0000 00000000 	 .space 4
 2140              	 .section .bss.wt5,"aw",%nobits
 2141              	 .align 2
 2142              	 .set .LANCHOR23,.+0
 2145              	wt5:
 2146 0000 00000000 	 .space 4
 2147              	 .section .bss.LPF_buff_IA,"aw",%nobits
 2148              	 .align 2
 2151              	LPF_buff_IA:
 2152 0000 00000000 	 .space 8
 2152      00000000 
 2153              	 .section .bss.LPF_buff_IB,"aw",%nobits
 2154              	 .align 2
 2157              	LPF_buff_IB:
 2158 0000 00000000 	 .space 8
 2158      00000000 
 2159              	 .section .bss.PI_CCd_buff,"aw",%nobits
 2160              	 .align 2
 2163              	PI_CCd_buff:
 2164 0000 00000000 	 .space 12
 2164      00000000 
 2164      00000000 
 2165              	 .section .bss.I_ABf,"aw",%nobits
 2166              	 .align 2
 2169              	I_ABf:
 2170 0000 00000000 	 .space 8
 2170      00000000 
 2171              	 .section .data.dqsg,"aw",%progbits
 2172              	 .align 2
 2175              	dqsg:
 2176 0000 63149D43 	 .word 1134367843
 2177 0004 00000000 	 .word 0
 2178 0008 00000000 	 .word 0
 2179 000c F404B53F 	 .word 1068827892
 2180 0010 00000000 	 .word 0
 2181 0014 00000000 	 .word 0
 2182 0018 17B7D138 	 .word 953267991
 2183 001c 00000000 	 .word 0
 2184 0020 00000000 	 .word 0
 2185 0024 F404B53F 	 .word 1068827892
 2186 0028 00000000 	 .word 0
 2187 002c 00000000 	 .word 0
 2188 0030 17B7D138 	 .word 953267991
 2189              	 .section .bss.vABn,"aw",%nobits
 2190              	 .align 2
 2191              	 .set .LANCHOR31,.+0
 2194              	vABn:
 2195 0000 00000000 	 .space 8
 2195      00000000 
 2196              	 .section .rodata.chargeTime,"a",%progbits
 2197              	 .align 2
 2200              	chargeTime:
 2201 0000 80841E00 	 .word 2000000
 2202              	 .section .data.LPF_vAB,"aw",%progbits
 2203              	 .align 2
 2206              	LPF_vAB:
 2207 0000 0000803F 	 .word 1065353216
 2208 0004 D6DD163E 	 .word 1041685974
 2209 0008 1591343F 	 .word 1060409621
 2210 000c 00000000 	 .word 0
 2211 0010 00000000 	 .word 0
 2212 0014 00000000 	 .word 0
 2213 0018 00000000 	 .word 0
 2214              	 .section .data.LPF2_K_100,"aw",%progbits
 2215              	 .align 2
 2218              	LPF2_K_100:
 2219 0000 F15C813B 	 .word 998333681
 2220 0004 F15C013C 	 .word 1006722289
 2221 0008 F15C813B 	 .word 998333681
 2222 000c FDE07440 	 .word 1081401597
 2223 0010 52BFFFC0 	 .word -1056981166
 2224 0014 EDE0743E 	 .word 1047847149
 2225 0018 00000000 	 .word 0
 2226 001c 00000000 	 .word 0
 2227 0020 00000000 	 .word 0
 2228 0024 00000000 	 .word 0
 2229              	 .section .bss.V_dq,"aw",%nobits
 2230              	 .align 2
 2233              	V_dq:
 2234 0000 00000000 	 .space 8
 2234      00000000 
 2235              	 .section .bss.V_DC_adc,"aw",%nobits
 2236              	 .align 1
 2239              	V_DC_adc:
 2240 0000 0000     	 .space 2
 2241              	 .section .rodata.LPF_K_1500,"a",%progbits
 2242              	 .align 2
 2245              	LPF_K_1500:
 2246 0000 0000803F 	 .word 1065353216
 2247 0004 77FEA33E 	 .word 1050934903
 2248 0008 1303B83E 	 .word 1052246803
 2249              	 .section .bss.fan_pwm,"aw",%nobits
 2250              	 .align 2
 2253              	fan_pwm:
 2254 0000 00000000 	 .space 4
 2255              	 .section .rodata.LPF_K_1,"a",%progbits
 2256              	 .align 2
 2259              	LPF_K_1:
 2260 0000 0000803F 	 .word 1065353216
 2261 0004 88A8A439 	 .word 967092360
 2262 0008 D6D67F3F 	 .word 1065342678
 2263              	 .section .bss.V_DCf,"aw",%nobits
 2264              	 .align 2
 2267              	V_DCf:
 2268 0000 00000000 	 .space 4
 2269              	 .section .data.LPF_iAB,"aw",%progbits
 2270              	 .align 2
 2273              	LPF_iAB:
 2274 0000 0000803F 	 .word 1065353216
 2275 0004 D6DD163E 	 .word 1041685974
 2276 0008 1591343F 	 .word 1060409621
 2277 000c 00000000 	 .word 0
 2278 0010 00000000 	 .word 0
 2279 0014 00000000 	 .word 0
 2280 0018 00000000 	 .word 0
 2281              	 .section .bss.PI_V_DC_buff,"aw",%nobits
 2282              	 .align 2
 2285              	PI_V_DC_buff:
 2286 0000 00000000 	 .space 12
 2286      00000000 
 2286      00000000 
 2287              	 .section .bss.mode,"aw",%nobits
 2290              	mode:
 2291 0000 00       	 .space 1
 2292              	 .section .bss.sync_aux2,"aw",%nobits
 2293              	 .align 2
 2296              	sync_aux2:
 2297 0000 00000000 	 .space 4
 2298              	 .section .bss.sync_aux3,"aw",%nobits
 2299              	 .align 1
 2302              	sync_aux3:
 2303 0000 0000     	 .space 2
 2304              	 .section .bss.LPF_buff_w,"aw",%nobits
 2305              	 .align 2
 2308              	LPF_buff_w:
 2309 0000 00000000 	 .space 8
 2309      00000000 
 2310              	 .section .bss.vDQ5,"aw",%nobits
 2311              	 .align 2
 2312              	 .set .LANCHOR14,.+0
 2315              	vDQ5:
 2316 0000 00000000 	 .space 8
 2316      00000000 
 2317              	 .section .bss.Vm_abc,"aw",%nobits
 2318              	 .align 2
 2321              	Vm_abc:
 2322 0000 00000000 	 .space 12
 2322      00000000 
 2322      00000000 
 2323              	 .section .bss.I_AB,"aw",%nobits
 2324              	 .align 2
 2327              	I_AB:
 2328 0000 00000000 	 .space 8
 2328      00000000 
 2329              	 .section .bss.LPF_buff_w0,"aw",%nobits
 2330              	 .align 2
 2333              	LPF_buff_w0:
 2334 0000 00000000 	 .space 8
 2334      00000000 
 2335              	 .section .bss.LPF_buff_Vdc,"aw",%nobits
 2336              	 .align 2
 2339              	LPF_buff_Vdc:
 2340 0000 00000000 	 .space 8
 2340      00000000 
 2341              	 .section .bss.sync,"aw",%nobits
 2342              	 .align 1
 2345              	sync:
 2346 0000 0000     	 .space 2
 2347              	 .section .bss.Ie_dq,"aw",%nobits
 2348              	 .align 2
 2351              	Ie_dq:
 2352 0000 00000000 	 .space 8
 2352      00000000 
 2353              	 .section .bss.PQ_ref,"aw",%nobits
 2354              	 .align 2
 2357              	PQ_ref:
 2358 0000 00000000 	 .space 8
 2358      00000000 
 2359              	 .section .bss.I_abc_adc,"aw",%nobits
 2360              	 .align 1
 2361              	 .set .LANCHOR4,.+0
 2364              	I_abc_adc:
 2365 0000 00000000 	 .space 6
 2365      0000
 2366              	 .section .data.vDQp_ref,"aw",%progbits
 2367              	 .align 2
 2368              	 .set .LANCHOR5,.+0
 2371              	vDQp_ref:
 2372 0000 0000803F 	 .word 1065353216
 2373 0004 00000000 	 .word 0
 2374              	 .section .bss.PI_PLL_buff,"aw",%nobits
 2375              	 .align 2
 2378              	PI_PLL_buff:
 2379 0000 00000000 	 .space 12
 2379      00000000 
 2379      00000000 
 2380              	 .section .bss.dw_buff,"aw",%nobits
 2381              	 .align 2
 2384              	dw_buff:
 2385 0000 00000000 	 .space 4
 2386              	 .section .bss.vDQn_ref,"aw",%nobits
 2387              	 .align 2
 2388              	 .set .LANCHOR6,.+0
 2391              	vDQn_ref:
 2392 0000 00000000 	 .space 8
 2392      00000000 
 2393              	 .section .bss.conv,"aw",%nobits
 2394              	 .align 2
 2397              	conv:
 2398 0000 00000000 	 .space 36
 2398      00000000 
 2398      00000000 
 2398      00000000 
 2398      00000000 
 2399              	 .section .rodata.HPF_K,"a",%progbits
 2400              	 .align 2
 2403              	HPF_K:
 2404 0000 7B698A38 	 .word 948595067
 2405 0004 7B698AB8 	 .word -1198888581
 2406 0008 022B873D 	 .word 1032268546
 2407 000c 94F6863D 	 .word 1032255124
 2408              	 .section .data.LPF2_K_10,"aw",%progbits
 2409              	 .align 2
 2412              	LPF2_K_10:
 2413 0000 E25C8138 	 .word 948002018
 2414 0004 E25C0139 	 .word 956390626
 2415 0008 E25C8138 	 .word 948002018
 2416 000c 0C957E40 	 .word 1082037516
 2417 0010 FDFEFFC0 	 .word -1056964867
 2418 0014 0D957E3E 	 .word 1048483085
 2419 0018 00000000 	 .word 0
 2420 001c 00000000 	 .word 0
 2421 0020 00000000 	 .word 0
 2422 0024 00000000 	 .word 0
 2423              	 .section .bss.V_DC_ref,"aw",%nobits
 2424              	 .align 2
 2427              	V_DC_ref:
 2428 0000 00000000 	 .space 4
 2429              	 .section .bss.vmAB,"aw",%nobits
 2430              	 .align 2
 2431              	 .set .LANCHOR40,.+0
 2434              	vmAB:
 2435 0000 00000000 	 .space 8
 2435      00000000 
 2436              	 .section .bss.B2command,"aw",%nobits
 2437              	 .align 1
 2440              	B2command:
 2441 0000 0000     	 .space 2
 2442              	 .section .bss.relayTimerFlag,"aw",%nobits
 2443              	 .align 1
 2446              	relayTimerFlag:
 2447 0000 0000     	 .space 2
 2448              	 .section .bss.Vm_AB,"aw",%nobits
 2449              	 .align 2
 2452              	Vm_AB:
 2453 0000 00000000 	 .space 8
 2453      00000000 
 2454              	 .section .bss.wt11,"aw",%nobits
 2455              	 .align 2
 2456              	 .set .LANCHOR27,.+0
 2459              	wt11:
 2460 0000 00000000 	 .space 4
 2461              	 .section .bss.wt13,"aw",%nobits
 2462              	 .align 2
 2463              	 .set .LANCHOR29,.+0
 2466              	wt13:
 2467 0000 00000000 	 .space 4
 2468              	 .section .data.w,"aw",%progbits
 2469              	 .align 2
 2470              	 .set .LANCHOR18,.+0
 2473              	w:
 2474 0000 63149D43 	 .word 1134367843
 2475              	 .section .bss.vAB13,"aw",%nobits
 2476              	 .align 2
 2477              	 .set .LANCHOR35,.+0
 2480              	vAB13:
 2481 0000 00000000 	 .space 8
 2481      00000000 
 2482              	 .section .bss.error_code,"aw",%nobits
 2483              	 .align 2
 2486              	error_code:
 2487 0000 00000000 	 .space 4
 2488              	 .section .bss.V_DC,"aw",%nobits
 2489              	 .align 2
 2492              	V_DC:
 2493 0000 00000000 	 .space 4
 2494              	 .section .bss.vDQ7,"aw",%nobits
 2495              	 .align 2
 2496              	 .set .LANCHOR15,.+0
 2499              	vDQ7:
 2500 0000 00000000 	 .space 8
 2500      00000000 
 2501              	 .section .data.LPF2_K_1500,"aw",%progbits
 2502              	 .align 2
 2505              	LPF2_K_1500:
 2506 0000 5165633F 	 .word 1063478609
 2507 0004 5165E33F 	 .word 1071867217
 2508 0008 5165633F 	 .word 1063478609
 2509 000c FD3D0E40 	 .word 1074675197
 2510 0010 AC26C7C0 	 .word -1060690260
 2511 0014 B18E073E 	 .word 1040682673
 2512 0018 00000000 	 .word 0
 2513 001c 00000000 	 .word 0
 2514 0020 00000000 	 .word 0
 2515 0024 00000000 	 .word 0
 2516              	 .section .rodata.LPF_K_10,"a",%progbits
 2517              	 .align 2
 2520              	LPF_K_10:
 2521 0000 0000803F 	 .word 1065353216
 2522 0004 202D803B 	 .word 998255904
 2523 0008 4BFF7D3F 	 .word 1065221963
 2524              	 .section .bss.V_abc,"aw",%nobits
 2525              	 .align 2
 2526              	 .set .LANCHOR3,.+0
 2529              	V_abc:
 2530 0000 00000000 	 .space 12
 2530      00000000 
 2530      00000000 
 2531              	 .section .bss.vDQn,"aw",%nobits
 2532              	 .align 2
 2533              	 .set .LANCHOR13,.+0
 2536              	vDQn:
 2537 0000 00000000 	 .space 8
 2537      00000000 
 2538              	 .section .bss.vDQp,"aw",%nobits
 2539              	 .align 2
 2540              	 .set .LANCHOR12,.+0
 2543              	vDQp:
 2544 0000 00000000 	 .space 8
 2544      00000000 
 2545              	 .section .bss.wt_buff7,"aw",%nobits
 2546              	 .align 2
 2547              	 .set .LANCHOR24,.+0
 2550              	wt_buff7:
 2551 0000 00000000 	 .space 4
 2552              	 .section .bss.REARMcommand,"aw",%nobits
 2553              	 .align 1
 2556              	REARMcommand:
 2557 0000 0000     	 .space 2
 2558              	 .section .bss.V_DC_ref_f,"aw",%nobits
 2559              	 .align 2
 2562              	V_DC_ref_f:
 2563 0000 00000000 	 .space 4
 2564              	 .ident "GCC: (GNU Tools for ARM Embedded Processors) 4.9.3 20141119 (release) [ARM/embedded-4_9-branch revision 218278]"
DEFINED SYMBOLS
                            *ABS*:00000000 main.c
    {standard input}:17     .text.HPF1:00000000 $t
    {standard input}:22     .text.HPF1:00000000 HPF1
    {standard input}:42     .text.fw_integ:00000000 $t
    {standard input}:47     .text.fw_integ:00000000 fw_integ
    {standard input}:79     .text.tr_integ:00000000 $t
    {standard input}:84     .text.tr_integ:00000000 tr_integ
    {standard input}:115    .text.tr_integ:00000050 $d
    {standard input}:118    .text.deriv:00000000 $t
    {standard input}:123    .text.deriv:00000000 deriv
    {standard input}:137    .text.abc_AB:00000000 $t
    {standard input}:142    .text.abc_AB:00000000 abc_AB
    {standard input}:166    .text.abc_AB:00000044 $d
    {standard input}:170    .text.abc_AB_Dy:00000000 $t
    {standard input}:175    .text.abc_AB_Dy:00000000 abc_AB_Dy
    {standard input}:200    .text.abc_AB_Dy:00000048 $d
    {standard input}:204    .text.AB_dq:00000000 $t
    {standard input}:209    .text.AB_dq:00000000 AB_dq
    {standard input}:244    .text.dq_AB:00000000 $t
    {standard input}:249    .text.dq_AB:00000000 dq_AB
    {standard input}:277    .text.AB_abc:00000000 $t
    {standard input}:282    .text.AB_abc:00000000 AB_abc
    {standard input}:304    .text.AB_abc:00000038 $d
    {standard input}:307    .text.LPF1:00000000 $t
    {standard input}:312    .text.LPF1:00000000 LPF1
    {standard input}:332    .text.LPF2:00000000 $t
    {standard input}:337    .text.LPF2:00000000 LPF2
    {standard input}:368    .text.LPF1_dq:00000000 $t
    {standard input}:373    .text.LPF1_dq:00000000 LPF1_dq
    {standard input}:410    .text.conv2DAC:00000000 $t
    {standard input}:415    .text.conv2DAC:00000000 conv2DAC
    {standard input}:445    .text.conv2DAC:00000044 $d
    {standard input}:448    .text.PI_FW:00000000 $t
    {standard input}:453    .text.PI_FW:00000000 PI_FW
    {standard input}:469    .text.PI_TR:00000000 $t
    {standard input}:474    .text.PI_TR:00000000 PI_TR
    {standard input}:530    .text.PI_TR_p:00000000 $t
    {standard input}:535    .text.PI_TR_p:00000000 PI_TR_p
    {standard input}:578    .text.PI_TR_dq:00000000 $t
    {standard input}:583    .text.PI_TR_dq:00000000 PI_TR_dq
    {standard input}:666    .text.abs_sat:00000000 $t
    {standard input}:671    .text.abs_sat:00000000 abs_sat
    {standard input}:706    .text.sat2D:00000000 $t
    {standard input}:711    .text.sat2D:00000000 sat2D
    {standard input}:771    .text.sat2D:000000ac $d
    {standard input}:774    .text.QSG:00000000 $t
    {standard input}:779    .text.QSG:00000000 QSG
    {standard input}:804    .text.DSOGI_filter:00000000 $t
    {standard input}:809    .text.DSOGI_filter:00000000 DSOGI_filter
    {standard input}:839    .text.FFDSOGI_filter:00000000 $t
    {standard input}:844    .text.FFDSOGI_filter:00000000 FFDSOGI_filter
    {standard input}:881    .text.update_config:00000000 $t
    {standard input}:886    .text.update_config:00000000 update_config
    {standard input}:900    .text.update_config:00000010 $d
    {standard input}:904    .text.CCU80_3_IRQHandler:00000000 $t
    {standard input}:909    .text.CCU80_3_IRQHandler:00000000 CCU80_3_IRQHandler
    {standard input}:1177   .text.CCU80_3_IRQHandler:0000032c $d
                            *COM*:00000004 scope_adc7
                            *COM*:00000004 scope_adc1
                            *COM*:00000004 scope_adc2
                            *COM*:00000004 scope_adc3
                            *COM*:00000004 scope_adc4
                            *COM*:00000004 scope_adc5
                            *COM*:00000004 scope_adc6
    {standard input}:1227   .text.CCU80_3_IRQHandler:000003f0 $t
    {standard input}:1365   .text.CCU80_3_IRQHandler:00000580 $d
                            *COM*:00000004 scope1
                            *COM*:00000004 scope2
                            *COM*:00000004 scopeu1
                            *COM*:00000004 scopeu2
                            *COM*:00000004 scopeu3
    {standard input}:1399   .text.startup.main:00000000 $t
    {standard input}:1404   .text.startup.main:00000000 main
    {standard input}:1474   .text.startup.main:000000ac $d
    {standard input}:1734   .bss.wt_jump:00000000 wt_jump
    {standard input}:2466   .bss.wt13:00000000 wt13
    {standard input}:2459   .bss.wt11:00000000 wt11
    {standard input}:2037   .bss.wt7:00000000 wt7
    {standard input}:2145   .bss.wt5:00000000 wt5
    {standard input}:1925   .bss.wt_buff13:00000000 wt_buff13
    {standard input}:1918   .bss.wt_buff11:00000000 wt_buff11
    {standard input}:2550   .bss.wt_buff7:00000000 wt_buff7
    {standard input}:2138   .bss.wt_buff5:00000000 wt_buff5
    {standard input}:1932   .bss.vmabc:00000000 vmabc
    {standard input}:2434   .bss.vmAB:00000000 vmAB
    {standard input}:1677   .bss.vabc13:00000000 vabc13
    {standard input}:2480   .bss.vAB13:00000000 vAB13
    {standard input}:1651   .bss.vDQ13:00000000 vDQ13
    {standard input}:1753   .bss.vabc11:00000000 vabc11
    {standard input}:1842   .bss.vAB11:00000000 vAB11
    {standard input}:1874   .bss.vDQ11:00000000 vDQ11
    {standard input}:1823   .bss.vabc7:00000000 vabc7
    {standard input}:1711   .bss.vAB7:00000000 vAB7
    {standard input}:2499   .bss.vDQ7:00000000 vDQ7
    {standard input}:1816   .bss.vabc5:00000000 vabc5
    {standard input}:1704   .bss.vAB5:00000000 vAB5
    {standard input}:2315   .bss.vDQ5:00000000 vDQ5
    {standard input}:2083   .bss.V13:00000000 V13
    {standard input}:2069   .bss.V11:00000000 V11
    {standard input}:1911   .bss.V7:00000000 V7
    {standard input}:2076   .bss.V5:00000000 V5
    {standard input}:2090   .data.Vn:00000000 Vn
    {standard input}:2194   .bss.vABn:00000000 vABn
    {standard input}:2536   .bss.vDQn:00000000 vDQn
    {standard input}:2391   .bss.vDQn_ref:00000000 vDQn_ref
    {standard input}:1939   .bss.vABp:00000000 vABp
    {standard input}:2543   .bss.vDQp:00000000 vDQp
    {standard input}:2371   .data.vDQp_ref:00000000 vDQp_ref
    {standard input}:2124   .bss.fault:00000000 fault
    {standard input}:1990   .data.counter:00000000 counter
                            *COM*:00000004 scope3
    {standard input}:1683   .bss.LPF_buff_Vdc_ref:00000000 LPF_buff_Vdc_ref
    {standard input}:2339   .bss.LPF_buff_Vdc:00000000 LPF_buff_Vdc
    {standard input}:2157   .bss.LPF_buff_IB:00000000 LPF_buff_IB
    {standard input}:2151   .bss.LPF_buff_IA:00000000 LPF_buff_IA
    {standard input}:1644   .bss.LPF_buff_VB:00000000 LPF_buff_VB
    {standard input}:1632   .bss.LPF_buff_VA:00000000 LPF_buff_VA
    {standard input}:1638   .bss.LPF_buff_sync2:00000000 LPF_buff_sync2
    {standard input}:2003   .bss.LPF_buff_conv_wt:00000000 LPF_buff_conv_wt
    {standard input}:2118   .bss.LPF_buff_conv_w:00000000 LPF_buff_conv_w
    {standard input}:2308   .bss.LPF_buff_w:00000000 LPF_buff_w
    {standard input}:2333   .bss.LPF_buff_w0:00000000 LPF_buff_w0
    {standard input}:1880   .bss.sync_aux3_buff:00000000 sync_aux3_buff
    {standard input}:1760   .bss.wt_buff:00000000 wt_buff
    {standard input}:2384   .bss.dw_buff:00000000 dw_buff
    {standard input}:2062   .bss.HPFq_buff:00000000 HPFq_buff
    {standard input}:1670   .bss.HPFd_buff:00000000 HPFd_buff
    {standard input}:2285   .bss.PI_V_DC_buff:00000000 PI_V_DC_buff
    {standard input}:1829   .bss.PI_CCq_buff:00000000 PI_CCq_buff
    {standard input}:2163   .bss.PI_CCd_buff:00000000 PI_CCd_buff
    {standard input}:2378   .bss.PI_PLL_buff:00000000 PI_PLL_buff
    {standard input}:2296   .bss.sync_aux2:00000000 sync_aux2
    {standard input}:1963   .bss.wt:00000000 wt
    {standard input}:1904   .bss.wf:00000000 wf
    {standard input}:1898   .bss.dw:00000000 dw
    {standard input}:2473   .data.w:00000000 w
    {standard input}:1860   .bss.Vm_AB2:00000000 Vm_AB2
    {standard input}:1717   .data.Vm_dq:00000000 Vm_dq
    {standard input}:2452   .bss.Vm_AB:00000000 Vm_AB
    {standard input}:2321   .bss.Vm_abc:00000000 Vm_abc
    {standard input}:1996   .data.PI_sat_CC:00000000 PI_sat_CC
    {standard input}:1848   .bss.ID_dq:00000000 ID_dq
    {standard input}:2351   .bss.Ie_dq:00000000 Ie_dq
    {standard input}:1892   .bss.I_dq_ref_f:00000000 I_dq_ref_f
    {standard input}:1886   .bss.I_dq:00000000 I_dq
    {standard input}:2233   .bss.V_dq:00000000 V_dq
    {standard input}:2169   .bss.I_ABf:00000000 I_ABf
    {standard input}:2043   .bss.V_ABf:00000000 V_ABf
    {standard input}:2267   .bss.V_DCf:00000000 V_DCf
    {standard input}:2327   .bss.I_AB:00000000 I_AB
    {standard input}:1740   .bss.V_AB:00000000 V_AB
    {standard input}:2024   .bss.I_abc:00000000 I_abc
    {standard input}:2529   .bss.V_abc:00000000 V_abc
    {standard input}:2492   .bss.V_DC:00000000 V_DC
    {standard input}:2364   .bss.I_abc_adc:00000000 I_abc_adc
    {standard input}:1867   .bss.V_abc_adc:00000000 V_abc_adc
    {standard input}:1956   .bss.m_abc:00000000 m_abc
    {standard input}:2239   .bss.V_DC_adc:00000000 V_DC_adc
    {standard input}:2302   .bss.sync_aux3:00000000 sync_aux3
    {standard input}:2253   .bss.fan_pwm:00000000 fan_pwm
    {standard input}:2486   .bss.error_code:00000000 error_code
    {standard input}:1746   .bss.fault_flag:00000000 fault_flag
                            *COM*:00000002 relayTimer
    {standard input}:2556   .bss.REARMcommand:00000000 REARMcommand
    {standard input}:1835   .bss.SWcommand:00000000 SWcommand
    {standard input}:1984   .bss.fault_rst:00000000 fault_rst
    {standard input}:2440   .bss.B2command:00000000 B2command
    {standard input}:2345   .bss.sync:00000000 sync
    {standard input}:2048   .data.ramp:00000000 ramp
    {standard input}:2290   .bss.mode:00000000 mode
    {standard input}:2446   .bss.relayTimerFlag:00000000 relayTimerFlag
    {standard input}:1689   .data.state:00000000 state
    {standard input}:2562   .bss.V_DC_ref_f:00000000 V_DC_ref_f
    {standard input}:2427   .bss.V_DC_ref:00000000 V_DC_ref
    {standard input}:2357   .bss.PQ_ref:00000000 PQ_ref
    {standard input}:2030   .bss.I_dq_ref:00000000 I_dq_ref
    {standard input}:1793   .data.V_dq_ref:00000000 V_dq_ref
    {standard input}:2175   .data.dqsg:00000000 dqsg
    {standard input}:1969   .data.PI_cc:00000000 PI_cc
    {standard input}:2097   .data.PI_Vdc:00000000 PI_Vdc
    {standard input}:1657   .data.PI_PLL:00000000 PI_PLL
    {standard input}:2505   .data.LPF2_K_1500:00000000 LPF2_K_1500
    {standard input}:1800   .data.LPF2_K_500:00000000 LPF2_K_500
    {standard input}:2218   .data.LPF2_K_100:00000000 LPF2_K_100
    {standard input}:2009   .data.LPF2_K_50:00000000 LPF2_K_50
    {standard input}:2412   .data.LPF2_K_10:00000000 LPF2_K_10
    {standard input}:2206   .data.LPF_vAB:00000000 LPF_vAB
    {standard input}:2273   .data.LPF_iAB:00000000 LPF_iAB
    {standard input}:1781   .data.LPF_idq_ref:00000000 LPF_idq_ref
    {standard input}:2397   .bss.conv:00000000 conv
    {standard input}:1767   .data.conf:00000000 conf
    {standard input}:2245   .rodata.LPF_K_1500:00000000 LPF_K_1500
    {standard input}:1695   .rodata.LPF_K_500:00000000 LPF_K_500
    {standard input}:2054   .rodata.LPF_K_100:00000000 LPF_K_100
    {standard input}:2110   .rodata.LPF_K_50:00000000 LPF_K_50
    {standard input}:2520   .rodata.LPF_K_10:00000000 LPF_K_10
    {standard input}:2259   .rodata.LPF_K_1:00000000 LPF_K_1
    {standard input}:2403   .rodata.HPF_K:00000000 HPF_K
    {standard input}:2130   .rodata.PI_K_CC:00000000 PI_K_CC
    {standard input}:1724   .rodata.K_sync:00000000 K_sync
    {standard input}:1945   .data.ADC:00000000 ADC
    {standard input}:2200   .rodata.chargeTime:00000000 chargeTime
    {standard input}:1854   .bss.Vdc_error:00000000 Vdc_error
    {standard input}:1629   .bss.LPF_buff_VA:00000000 $d
    {standard input}:1635   .bss.LPF_buff_sync2:00000000 $d
    {standard input}:1641   .bss.LPF_buff_VB:00000000 $d
    {standard input}:1647   .bss.vDQ13:00000000 $d
    {standard input}:1654   .data.PI_PLL:00000000 $d
    {standard input}:1667   .bss.HPFd_buff:00000000 $d
    {standard input}:1673   .bss.vabc13:00000000 $d
    {standard input}:1680   .bss.LPF_buff_Vdc_ref:00000000 $d
    {standard input}:1686   .data.state:00000000 $d
    {standard input}:1692   .rodata.LPF_K_500:00000000 $d
    {standard input}:1700   .bss.vAB5:00000000 $d
    {standard input}:1707   .bss.vAB7:00000000 $d
    {standard input}:1714   .data.Vm_dq:00000000 $d
    {standard input}:1721   .rodata.K_sync:00000000 $d
    {standard input}:1730   .bss.wt_jump:00000000 $d
    {standard input}:1737   .bss.V_AB:00000000 $d
    {standard input}:1743   .bss.fault_flag:00000000 $d
    {standard input}:1749   .bss.vabc11:00000000 $d
    {standard input}:1756   .bss.wt_buff:00000000 $d
    {standard input}:1763   .data.conf:00000000 $d
    {standard input}:1778   .data.LPF_idq_ref:00000000 $d
    {standard input}:1790   .data.V_dq_ref:00000000 $d
    {standard input}:1797   .data.LPF2_K_500:00000000 $d
    {standard input}:1812   .bss.vabc5:00000000 $d
    {standard input}:1819   .bss.vabc7:00000000 $d
    {standard input}:1826   .bss.PI_CCq_buff:00000000 $d
    {standard input}:1832   .bss.SWcommand:00000000 $d
    {standard input}:1838   .bss.vAB11:00000000 $d
    {standard input}:1845   .bss.ID_dq:00000000 $d
    {standard input}:1851   .bss.Vdc_error:00000000 $d
    {standard input}:1857   .bss.Vm_AB2:00000000 $d
    {standard input}:1863   .bss.V_abc_adc:00000000 $d
    {standard input}:1870   .bss.vDQ11:00000000 $d
    {standard input}:1877   .bss.sync_aux3_buff:00000000 $d
    {standard input}:1883   .bss.I_dq:00000000 $d
    {standard input}:1889   .bss.I_dq_ref_f:00000000 $d
    {standard input}:1895   .bss.dw:00000000 $d
    {standard input}:1901   .bss.wf:00000000 $d
    {standard input}:1907   .bss.V7:00000000 $d
    {standard input}:1914   .bss.wt_buff11:00000000 $d
    {standard input}:1921   .bss.wt_buff13:00000000 $d
    {standard input}:1928   .bss.vmabc:00000000 $d
    {standard input}:1935   .bss.vABp:00000000 $d
    {standard input}:1942   .data.ADC:00000000 $d
    {standard input}:1952   .bss.m_abc:00000000 $d
    {standard input}:1959   .bss.wt:00000000 $d
    {standard input}:1966   .data.PI_cc:00000000 $d
    {standard input}:1981   .bss.fault_rst:00000000 $d
    {standard input}:1987   .data.counter:00000000 $d
    {standard input}:1993   .data.PI_sat_CC:00000000 $d
    {standard input}:2000   .bss.LPF_buff_conv_wt:00000000 $d
    {standard input}:2006   .data.LPF2_K_50:00000000 $d
    {standard input}:2021   .bss.I_abc:00000000 $d
    {standard input}:2027   .bss.I_dq_ref:00000000 $d
    {standard input}:2033   .bss.wt7:00000000 $d
    {standard input}:2040   .bss.V_ABf:00000000 $d
    {standard input}:2051   .rodata.LPF_K_100:00000000 $d
    {standard input}:2059   .bss.HPFq_buff:00000000 $d
    {standard input}:2065   .bss.V11:00000000 $d
    {standard input}:2072   .bss.V5:00000000 $d
    {standard input}:2079   .bss.V13:00000000 $d
    {standard input}:2086   .data.Vn:00000000 $d
    {standard input}:2093   .data.PI_Vdc:00000000 $d
    {standard input}:2107   .rodata.LPF_K_50:00000000 $d
    {standard input}:2115   .bss.LPF_buff_conv_w:00000000 $d
    {standard input}:2121   .bss.fault:00000000 $d
    {standard input}:2127   .rodata.PI_K_CC:00000000 $d
    {standard input}:2134   .bss.wt_buff5:00000000 $d
    {standard input}:2141   .bss.wt5:00000000 $d
    {standard input}:2148   .bss.LPF_buff_IA:00000000 $d
    {standard input}:2154   .bss.LPF_buff_IB:00000000 $d
    {standard input}:2160   .bss.PI_CCd_buff:00000000 $d
    {standard input}:2166   .bss.I_ABf:00000000 $d
    {standard input}:2172   .data.dqsg:00000000 $d
    {standard input}:2190   .bss.vABn:00000000 $d
    {standard input}:2197   .rodata.chargeTime:00000000 $d
    {standard input}:2203   .data.LPF_vAB:00000000 $d
    {standard input}:2215   .data.LPF2_K_100:00000000 $d
    {standard input}:2230   .bss.V_dq:00000000 $d
    {standard input}:2236   .bss.V_DC_adc:00000000 $d
    {standard input}:2242   .rodata.LPF_K_1500:00000000 $d
    {standard input}:2250   .bss.fan_pwm:00000000 $d
    {standard input}:2256   .rodata.LPF_K_1:00000000 $d
    {standard input}:2264   .bss.V_DCf:00000000 $d
    {standard input}:2270   .data.LPF_iAB:00000000 $d
    {standard input}:2282   .bss.PI_V_DC_buff:00000000 $d
    {standard input}:2291   .bss.mode:00000000 $d
    {standard input}:2293   .bss.sync_aux2:00000000 $d
    {standard input}:2299   .bss.sync_aux3:00000000 $d
    {standard input}:2305   .bss.LPF_buff_w:00000000 $d
    {standard input}:2311   .bss.vDQ5:00000000 $d
    {standard input}:2318   .bss.Vm_abc:00000000 $d
    {standard input}:2324   .bss.I_AB:00000000 $d
    {standard input}:2330   .bss.LPF_buff_w0:00000000 $d
    {standard input}:2336   .bss.LPF_buff_Vdc:00000000 $d
    {standard input}:2342   .bss.sync:00000000 $d
    {standard input}:2348   .bss.Ie_dq:00000000 $d
    {standard input}:2354   .bss.PQ_ref:00000000 $d
    {standard input}:2360   .bss.I_abc_adc:00000000 $d
    {standard input}:2367   .data.vDQp_ref:00000000 $d
    {standard input}:2375   .bss.PI_PLL_buff:00000000 $d
    {standard input}:2381   .bss.dw_buff:00000000 $d
    {standard input}:2387   .bss.vDQn_ref:00000000 $d
    {standard input}:2394   .bss.conv:00000000 $d
    {standard input}:2400   .rodata.HPF_K:00000000 $d
    {standard input}:2409   .data.LPF2_K_10:00000000 $d
    {standard input}:2424   .bss.V_DC_ref:00000000 $d
    {standard input}:2430   .bss.vmAB:00000000 $d
    {standard input}:2437   .bss.B2command:00000000 $d
    {standard input}:2443   .bss.relayTimerFlag:00000000 $d
    {standard input}:2449   .bss.Vm_AB:00000000 $d
    {standard input}:2455   .bss.wt11:00000000 $d
    {standard input}:2462   .bss.wt13:00000000 $d
    {standard input}:2469   .data.w:00000000 $d
    {standard input}:2476   .bss.vAB13:00000000 $d
    {standard input}:2483   .bss.error_code:00000000 $d
    {standard input}:2489   .bss.V_DC:00000000 $d
    {standard input}:2495   .bss.vDQ7:00000000 $d
    {standard input}:2502   .data.LPF2_K_1500:00000000 $d
    {standard input}:2517   .rodata.LPF_K_10:00000000 $d
    {standard input}:2525   .bss.V_abc:00000000 $d
    {standard input}:2532   .bss.vDQn:00000000 $d
    {standard input}:2539   .bss.vDQp:00000000 $d
    {standard input}:2546   .bss.wt_buff7:00000000 $d
    {standard input}:2553   .bss.REARMcommand:00000000 $d
    {standard input}:2559   .bss.V_DC_ref_f:00000000 $d

UNDEFINED SYMBOLS
arm_cos_f32
arm_sin_f32
fminf
fmaxf
sqrtf
P_1_0
ADC_MEASUREMENT_1_V1_1_handle
group_ptrs
ADC_MEASUREMENT_2_V2_1_handle
ADC_MEASUREMENT_2_V2_3_handle
ADC_MEASUREMENT_2_V2_2_handle
ADC_MEASUREMENT_1_V1_4_handle
ADC_MEASUREMENT_1_V1_3_handle
ADC_MEASUREMENT_1_V1_2_handle
PWM_SetDutyCycle
PWM_a
PWM_b
PWM_c
DAVE_Init
ProbeScope_Init
PWM_Stop
PWM_Start
ProbeScope_Sampling
SystemCoreClock
ENABLE
FAULT_RST
EN_1
EN_2
EN_3
PWM_update
