   1              	 .syntax unified
   2              	 .cpu cortex-m4
   3              	 .eabi_attribute 27,3
   4              	 .fpu fpv4-sp-d16
   5              	 .eabi_attribute 20,1
   6              	 .eabi_attribute 21,1
   7              	 .eabi_attribute 23,3
   8              	 .eabi_attribute 24,1
   9              	 .eabi_attribute 25,1
  10              	 .eabi_attribute 26,1
  11              	 .eabi_attribute 30,6
  12              	 .eabi_attribute 34,1
  13              	 .eabi_attribute 18,4
  14              	 .thumb
  15              	 .file "arm_float_to_q31.c"
  16              	 .text
  17              	.Ltext0:
  18              	 .cfi_sections .debug_frame
  19              	 .global __aeabi_f2lz
  20              	 .section .text.arm_float_to_q31,"ax",%progbits
  21              	 .align 2
  22              	 .global arm_float_to_q31
  23              	 .thumb
  24              	 .thumb_func
  26              	arm_float_to_q31:
  27              	.LFB135:
  28              	 .file 1 "../Dave/Generated/CMSIS_DSP/SupportFunctions/arm_float_to_q31.c"
   1:../Dave/Generated/CMSIS_DSP/SupportFunctions/arm_float_to_q31.c **** /* ----------------------------------------------------------------------
   2:../Dave/Generated/CMSIS_DSP/SupportFunctions/arm_float_to_q31.c ****  * Project:      CMSIS DSP Library
   3:../Dave/Generated/CMSIS_DSP/SupportFunctions/arm_float_to_q31.c ****  * Title:        arm_float_to_q31.c
   4:../Dave/Generated/CMSIS_DSP/SupportFunctions/arm_float_to_q31.c ****  * Description:  Converts the elements of the floating-point vector to Q31 vector
   5:../Dave/Generated/CMSIS_DSP/SupportFunctions/arm_float_to_q31.c ****  *
   6:../Dave/Generated/CMSIS_DSP/SupportFunctions/arm_float_to_q31.c ****  * $Date:        27. January 2017
   7:../Dave/Generated/CMSIS_DSP/SupportFunctions/arm_float_to_q31.c ****  * $Revision:    V.1.5.1
   8:../Dave/Generated/CMSIS_DSP/SupportFunctions/arm_float_to_q31.c ****  *
   9:../Dave/Generated/CMSIS_DSP/SupportFunctions/arm_float_to_q31.c ****  * Target Processor: Cortex-M cores
  10:../Dave/Generated/CMSIS_DSP/SupportFunctions/arm_float_to_q31.c ****  * -------------------------------------------------------------------- */
  11:../Dave/Generated/CMSIS_DSP/SupportFunctions/arm_float_to_q31.c **** /*
  12:../Dave/Generated/CMSIS_DSP/SupportFunctions/arm_float_to_q31.c ****  * Copyright (C) 2010-2017 ARM Limited or its affiliates. All rights reserved.
  13:../Dave/Generated/CMSIS_DSP/SupportFunctions/arm_float_to_q31.c ****  *
  14:../Dave/Generated/CMSIS_DSP/SupportFunctions/arm_float_to_q31.c ****  * SPDX-License-Identifier: Apache-2.0
  15:../Dave/Generated/CMSIS_DSP/SupportFunctions/arm_float_to_q31.c ****  *
  16:../Dave/Generated/CMSIS_DSP/SupportFunctions/arm_float_to_q31.c ****  * Licensed under the Apache License, Version 2.0 (the License); you may
  17:../Dave/Generated/CMSIS_DSP/SupportFunctions/arm_float_to_q31.c ****  * not use this file except in compliance with the License.
  18:../Dave/Generated/CMSIS_DSP/SupportFunctions/arm_float_to_q31.c ****  * You may obtain a copy of the License at
  19:../Dave/Generated/CMSIS_DSP/SupportFunctions/arm_float_to_q31.c ****  *
  20:../Dave/Generated/CMSIS_DSP/SupportFunctions/arm_float_to_q31.c ****  * www.apache.org/licenses/LICENSE-2.0
  21:../Dave/Generated/CMSIS_DSP/SupportFunctions/arm_float_to_q31.c ****  *
  22:../Dave/Generated/CMSIS_DSP/SupportFunctions/arm_float_to_q31.c ****  * Unless required by applicable law or agreed to in writing, software
  23:../Dave/Generated/CMSIS_DSP/SupportFunctions/arm_float_to_q31.c ****  * distributed under the License is distributed on an AS IS BASIS, WITHOUT
  24:../Dave/Generated/CMSIS_DSP/SupportFunctions/arm_float_to_q31.c ****  * WARRANTIES OR CONDITIONS OF ANY KIND, either express or implied.
  25:../Dave/Generated/CMSIS_DSP/SupportFunctions/arm_float_to_q31.c ****  * See the License for the specific language governing permissions and
  26:../Dave/Generated/CMSIS_DSP/SupportFunctions/arm_float_to_q31.c ****  * limitations under the License.
  27:../Dave/Generated/CMSIS_DSP/SupportFunctions/arm_float_to_q31.c ****  */
  28:../Dave/Generated/CMSIS_DSP/SupportFunctions/arm_float_to_q31.c **** 
  29:../Dave/Generated/CMSIS_DSP/SupportFunctions/arm_float_to_q31.c **** #include "CMSIS_DSP/cmsis_dsp.h"
  30:../Dave/Generated/CMSIS_DSP/SupportFunctions/arm_float_to_q31.c **** 
  31:../Dave/Generated/CMSIS_DSP/SupportFunctions/arm_float_to_q31.c **** /**
  32:../Dave/Generated/CMSIS_DSP/SupportFunctions/arm_float_to_q31.c ****  * @ingroup groupSupport
  33:../Dave/Generated/CMSIS_DSP/SupportFunctions/arm_float_to_q31.c ****  */
  34:../Dave/Generated/CMSIS_DSP/SupportFunctions/arm_float_to_q31.c **** 
  35:../Dave/Generated/CMSIS_DSP/SupportFunctions/arm_float_to_q31.c **** /**
  36:../Dave/Generated/CMSIS_DSP/SupportFunctions/arm_float_to_q31.c ****  * @defgroup float_to_x  Convert 32-bit floating point value
  37:../Dave/Generated/CMSIS_DSP/SupportFunctions/arm_float_to_q31.c ****  */
  38:../Dave/Generated/CMSIS_DSP/SupportFunctions/arm_float_to_q31.c **** 
  39:../Dave/Generated/CMSIS_DSP/SupportFunctions/arm_float_to_q31.c **** /**
  40:../Dave/Generated/CMSIS_DSP/SupportFunctions/arm_float_to_q31.c ****  * @addtogroup float_to_x
  41:../Dave/Generated/CMSIS_DSP/SupportFunctions/arm_float_to_q31.c ****  * @{
  42:../Dave/Generated/CMSIS_DSP/SupportFunctions/arm_float_to_q31.c ****  */
  43:../Dave/Generated/CMSIS_DSP/SupportFunctions/arm_float_to_q31.c **** 
  44:../Dave/Generated/CMSIS_DSP/SupportFunctions/arm_float_to_q31.c **** /**
  45:../Dave/Generated/CMSIS_DSP/SupportFunctions/arm_float_to_q31.c ****  * @brief Converts the elements of the floating-point vector to Q31 vector.
  46:../Dave/Generated/CMSIS_DSP/SupportFunctions/arm_float_to_q31.c ****  * @param[in]       *pSrc points to the floating-point input vector
  47:../Dave/Generated/CMSIS_DSP/SupportFunctions/arm_float_to_q31.c ****  * @param[out]      *pDst points to the Q31 output vector
  48:../Dave/Generated/CMSIS_DSP/SupportFunctions/arm_float_to_q31.c ****  * @param[in]       blockSize length of the input vector
  49:../Dave/Generated/CMSIS_DSP/SupportFunctions/arm_float_to_q31.c ****  * @return none.
  50:../Dave/Generated/CMSIS_DSP/SupportFunctions/arm_float_to_q31.c ****  *
  51:../Dave/Generated/CMSIS_DSP/SupportFunctions/arm_float_to_q31.c ****  *\par Description:
  52:../Dave/Generated/CMSIS_DSP/SupportFunctions/arm_float_to_q31.c ****  * \par
  53:../Dave/Generated/CMSIS_DSP/SupportFunctions/arm_float_to_q31.c ****  * The equation used for the conversion process is:
  54:../Dave/Generated/CMSIS_DSP/SupportFunctions/arm_float_to_q31.c ****  *
  55:../Dave/Generated/CMSIS_DSP/SupportFunctions/arm_float_to_q31.c ****  * <pre>
  56:../Dave/Generated/CMSIS_DSP/SupportFunctions/arm_float_to_q31.c ****  * 	pDst[n] = (q31_t)(pSrc[n] * 2147483648);   0 <= n < blockSize.
  57:../Dave/Generated/CMSIS_DSP/SupportFunctions/arm_float_to_q31.c ****  * </pre>
  58:../Dave/Generated/CMSIS_DSP/SupportFunctions/arm_float_to_q31.c ****  * <b>Scaling and Overflow Behavior:</b>
  59:../Dave/Generated/CMSIS_DSP/SupportFunctions/arm_float_to_q31.c ****  * \par
  60:../Dave/Generated/CMSIS_DSP/SupportFunctions/arm_float_to_q31.c ****  * The function uses saturating arithmetic.
  61:../Dave/Generated/CMSIS_DSP/SupportFunctions/arm_float_to_q31.c ****  * Results outside of the allowable Q31 range[0x80000000 0x7FFFFFFF] will be saturated.
  62:../Dave/Generated/CMSIS_DSP/SupportFunctions/arm_float_to_q31.c ****  *
  63:../Dave/Generated/CMSIS_DSP/SupportFunctions/arm_float_to_q31.c ****  * \note In order to apply rounding, the library should be rebuilt with the ROUNDING macro
  64:../Dave/Generated/CMSIS_DSP/SupportFunctions/arm_float_to_q31.c ****  * defined in the preprocessor section of project options.
  65:../Dave/Generated/CMSIS_DSP/SupportFunctions/arm_float_to_q31.c ****  */
  66:../Dave/Generated/CMSIS_DSP/SupportFunctions/arm_float_to_q31.c **** 
  67:../Dave/Generated/CMSIS_DSP/SupportFunctions/arm_float_to_q31.c **** 
  68:../Dave/Generated/CMSIS_DSP/SupportFunctions/arm_float_to_q31.c **** void arm_float_to_q31(
  69:../Dave/Generated/CMSIS_DSP/SupportFunctions/arm_float_to_q31.c ****   float32_t * pSrc,
  70:../Dave/Generated/CMSIS_DSP/SupportFunctions/arm_float_to_q31.c ****   q31_t * pDst,
  71:../Dave/Generated/CMSIS_DSP/SupportFunctions/arm_float_to_q31.c ****   uint32_t blockSize)
  72:../Dave/Generated/CMSIS_DSP/SupportFunctions/arm_float_to_q31.c **** {
  29              	 .loc 1 72 0
  30              	 .cfi_startproc
  31              	 
  32              	 
  33 0000 2DE9904F 	 push {r4,r7,r8,r9,r10,fp,lr}
  34              	.LCFI0:
  35              	 .cfi_def_cfa_offset 28
  36              	 .cfi_offset 4,-28
  37              	 .cfi_offset 7,-24
  38              	 .cfi_offset 8,-20
  39              	 .cfi_offset 9,-16
  40              	 .cfi_offset 10,-12
  41              	 .cfi_offset 11,-8
  42              	 .cfi_offset 14,-4
  43 0004 A3B0     	 sub sp,sp,#140
  44              	.LCFI1:
  45              	 .cfi_def_cfa_offset 168
  46 0006 00AF     	 add r7,sp,#0
  47              	.LCFI2:
  48              	 .cfi_def_cfa_register 7
  49 0008 F864     	 str r0,[r7,#76]
  50 000a B964     	 str r1,[r7,#72]
  51 000c 7A64     	 str r2,[r7,#68]
  73:../Dave/Generated/CMSIS_DSP/SupportFunctions/arm_float_to_q31.c ****   float32_t *pIn = pSrc;                         /* Src pointer */
  52              	 .loc 1 73 0
  53 000e FB6C     	 ldr r3,[r7,#76]
  54 0010 C7F88430 	 str r3,[r7,#132]
  74:../Dave/Generated/CMSIS_DSP/SupportFunctions/arm_float_to_q31.c ****   uint32_t blkCnt;                               /* loop counter */
  75:../Dave/Generated/CMSIS_DSP/SupportFunctions/arm_float_to_q31.c **** 
  76:../Dave/Generated/CMSIS_DSP/SupportFunctions/arm_float_to_q31.c **** #ifdef ARM_MATH_ROUNDING
  77:../Dave/Generated/CMSIS_DSP/SupportFunctions/arm_float_to_q31.c **** 
  78:../Dave/Generated/CMSIS_DSP/SupportFunctions/arm_float_to_q31.c ****   float32_t in;
  79:../Dave/Generated/CMSIS_DSP/SupportFunctions/arm_float_to_q31.c **** 
  80:../Dave/Generated/CMSIS_DSP/SupportFunctions/arm_float_to_q31.c **** #endif /*      #ifdef ARM_MATH_ROUNDING        */
  81:../Dave/Generated/CMSIS_DSP/SupportFunctions/arm_float_to_q31.c **** 
  82:../Dave/Generated/CMSIS_DSP/SupportFunctions/arm_float_to_q31.c **** #if defined (ARM_MATH_DSP)
  83:../Dave/Generated/CMSIS_DSP/SupportFunctions/arm_float_to_q31.c **** 
  84:../Dave/Generated/CMSIS_DSP/SupportFunctions/arm_float_to_q31.c ****   /* Run the below code for Cortex-M4 and Cortex-M3 */
  85:../Dave/Generated/CMSIS_DSP/SupportFunctions/arm_float_to_q31.c **** 
  86:../Dave/Generated/CMSIS_DSP/SupportFunctions/arm_float_to_q31.c ****   /*loop Unrolling */
  87:../Dave/Generated/CMSIS_DSP/SupportFunctions/arm_float_to_q31.c ****   blkCnt = blockSize >> 2u;
  55              	 .loc 1 87 0
  56 0014 7B6C     	 ldr r3,[r7,#68]
  57 0016 9B08     	 lsrs r3,r3,#2
  58 0018 C7F88030 	 str r3,[r7,#128]
  88:../Dave/Generated/CMSIS_DSP/SupportFunctions/arm_float_to_q31.c **** 
  89:../Dave/Generated/CMSIS_DSP/SupportFunctions/arm_float_to_q31.c ****   /* First part of the processing with loop unrolling.  Compute 4 outputs at a time.
  90:../Dave/Generated/CMSIS_DSP/SupportFunctions/arm_float_to_q31.c ****    ** a second loop below computes the remaining 1 to 3 samples. */
  91:../Dave/Generated/CMSIS_DSP/SupportFunctions/arm_float_to_q31.c ****   while (blkCnt > 0u)
  59              	 .loc 1 91 0
  60 001c 10E1     	 b .L2
  61              	.L27:
  92:../Dave/Generated/CMSIS_DSP/SupportFunctions/arm_float_to_q31.c ****   {
  93:../Dave/Generated/CMSIS_DSP/SupportFunctions/arm_float_to_q31.c **** 
  94:../Dave/Generated/CMSIS_DSP/SupportFunctions/arm_float_to_q31.c **** #ifdef ARM_MATH_ROUNDING
  95:../Dave/Generated/CMSIS_DSP/SupportFunctions/arm_float_to_q31.c **** 
  96:../Dave/Generated/CMSIS_DSP/SupportFunctions/arm_float_to_q31.c ****     /* C = A * 32768 */
  97:../Dave/Generated/CMSIS_DSP/SupportFunctions/arm_float_to_q31.c ****     /* convert from float to Q31 and then store the results in the destination buffer */
  98:../Dave/Generated/CMSIS_DSP/SupportFunctions/arm_float_to_q31.c ****     in = *pIn++;
  62              	 .loc 1 98 0
  63 001e D7F88420 	 ldr r2,[r7,#132]
  64 0022 131D     	 adds r3,r2,#4
  65 0024 C7F88430 	 str r3,[r7,#132]
  66 0028 1368     	 ldr r3,[r2]
  67 002a FB67     	 str r3,[r7,#124]
  99:../Dave/Generated/CMSIS_DSP/SupportFunctions/arm_float_to_q31.c ****     in = (in * 2147483648.0f);
  68              	 .loc 1 99 0
  69 002c D7ED1F7A 	 flds s15,[r7,#124]
  70 0030 9FEDB07A 	 flds s14,.L48
  71 0034 67EE877A 	 fmuls s15,s15,s14
  72 0038 C7ED1F7A 	 fsts s15,[r7,#124]
 100:../Dave/Generated/CMSIS_DSP/SupportFunctions/arm_float_to_q31.c ****     in += in > 0.0f ? 0.5f : -0.5f;
  73              	 .loc 1 100 0
  74 003c D7ED1F7A 	 flds s15,[r7,#124]
  75 0040 F5EEC07A 	 fcmpezs s15
  76 0044 F1EE10FA 	 fmstat
  77 0048 02DD     	 ble .L43
  78              	 .loc 1 100 0 is_stmt 0 discriminator 1
  79 004a F6EE007A 	 fconsts s15,#96
  80 004e 01E0     	 b .L5
  81              	.L43:
  82              	 .loc 1 100 0 discriminator 2
  83 0050 FEEE007A 	 fconsts s15,#224
  84              	.L5:
  85              	 .loc 1 100 0 discriminator 4
  86 0054 97ED1F7A 	 flds s14,[r7,#124]
  87 0058 77EE277A 	 fadds s15,s14,s15
  88 005c C7ED1F7A 	 fsts s15,[r7,#124]
 101:../Dave/Generated/CMSIS_DSP/SupportFunctions/arm_float_to_q31.c ****     *pDst++ = clip_q63_to_q31((q63_t) (in));
  89              	 .loc 1 101 0 is_stmt 1 discriminator 4
  90 0060 BC6C     	 ldr r4,[r7,#72]
  91 0062 231D     	 adds r3,r4,#4
  92 0064 BB64     	 str r3,[r7,#72]
  93 0066 F86F     	 ldr r0,[r7,#124]
  94 0068 FFF7FEFF 	 bl __aeabi_f2lz
  95 006c 0246     	 mov r2,r0
  96 006e 0B46     	 mov r3,r1
  97 0070 C7E91C23 	 strd r2,[r7,#112]
  98              	.LBB12:
  99              	.LBB13:
 100              	 .file 2 "C:/Users/VMORAIS/Documents/DAVE_WS/1p_inverter_200V/Dave/Generated/CMSIS_DSP/arm_math.h"
   1:C:/Users/VMORAIS/Documents/DAVE_WS/1p_inverter_200V/Dave/Generated/CMSIS_DSP\arm_math.h **** /* ----------------------------------------------------------------------
   2:C:/Users/VMORAIS/Documents/DAVE_WS/1p_inverter_200V/Dave/Generated/CMSIS_DSP\arm_math.h ****  * Project:      CMSIS DSP Library
   3:C:/Users/VMORAIS/Documents/DAVE_WS/1p_inverter_200V/Dave/Generated/CMSIS_DSP\arm_math.h ****  * Title:        CMSIS_DSP/cmsis_dsp.h
   4:C:/Users/VMORAIS/Documents/DAVE_WS/1p_inverter_200V/Dave/Generated/CMSIS_DSP\arm_math.h ****  * Description:  Public header file for CMSIS DSP Library
   5:C:/Users/VMORAIS/Documents/DAVE_WS/1p_inverter_200V/Dave/Generated/CMSIS_DSP\arm_math.h ****  *
   6:C:/Users/VMORAIS/Documents/DAVE_WS/1p_inverter_200V/Dave/Generated/CMSIS_DSP\arm_math.h ****  * $Date:        27. January 2017
   7:C:/Users/VMORAIS/Documents/DAVE_WS/1p_inverter_200V/Dave/Generated/CMSIS_DSP\arm_math.h ****  * $Revision:    V.1.5.1
   8:C:/Users/VMORAIS/Documents/DAVE_WS/1p_inverter_200V/Dave/Generated/CMSIS_DSP\arm_math.h ****  *
   9:C:/Users/VMORAIS/Documents/DAVE_WS/1p_inverter_200V/Dave/Generated/CMSIS_DSP\arm_math.h ****  * Target Processor: Cortex-M cores
  10:C:/Users/VMORAIS/Documents/DAVE_WS/1p_inverter_200V/Dave/Generated/CMSIS_DSP\arm_math.h ****  * -------------------------------------------------------------------- */
  11:C:/Users/VMORAIS/Documents/DAVE_WS/1p_inverter_200V/Dave/Generated/CMSIS_DSP\arm_math.h **** /*
  12:C:/Users/VMORAIS/Documents/DAVE_WS/1p_inverter_200V/Dave/Generated/CMSIS_DSP\arm_math.h ****  * Copyright (C) 2010-2017 ARM Limited or its affiliates. All rights reserved.
  13:C:/Users/VMORAIS/Documents/DAVE_WS/1p_inverter_200V/Dave/Generated/CMSIS_DSP\arm_math.h ****  *
  14:C:/Users/VMORAIS/Documents/DAVE_WS/1p_inverter_200V/Dave/Generated/CMSIS_DSP\arm_math.h ****  * SPDX-License-Identifier: Apache-2.0
  15:C:/Users/VMORAIS/Documents/DAVE_WS/1p_inverter_200V/Dave/Generated/CMSIS_DSP\arm_math.h ****  *
  16:C:/Users/VMORAIS/Documents/DAVE_WS/1p_inverter_200V/Dave/Generated/CMSIS_DSP\arm_math.h ****  * Licensed under the Apache License, Version 2.0 (the License); you may
  17:C:/Users/VMORAIS/Documents/DAVE_WS/1p_inverter_200V/Dave/Generated/CMSIS_DSP\arm_math.h ****  * not use this file except in compliance with the License.
  18:C:/Users/VMORAIS/Documents/DAVE_WS/1p_inverter_200V/Dave/Generated/CMSIS_DSP\arm_math.h ****  * You may obtain a copy of the License at
  19:C:/Users/VMORAIS/Documents/DAVE_WS/1p_inverter_200V/Dave/Generated/CMSIS_DSP\arm_math.h ****  *
  20:C:/Users/VMORAIS/Documents/DAVE_WS/1p_inverter_200V/Dave/Generated/CMSIS_DSP\arm_math.h ****  * www.apache.org/licenses/LICENSE-2.0
  21:C:/Users/VMORAIS/Documents/DAVE_WS/1p_inverter_200V/Dave/Generated/CMSIS_DSP\arm_math.h ****  *
  22:C:/Users/VMORAIS/Documents/DAVE_WS/1p_inverter_200V/Dave/Generated/CMSIS_DSP\arm_math.h ****  * Unless required by applicable law or agreed to in writing, software
  23:C:/Users/VMORAIS/Documents/DAVE_WS/1p_inverter_200V/Dave/Generated/CMSIS_DSP\arm_math.h ****  * distributed under the License is distributed on an AS IS BASIS, WITHOUT
  24:C:/Users/VMORAIS/Documents/DAVE_WS/1p_inverter_200V/Dave/Generated/CMSIS_DSP\arm_math.h ****  * WARRANTIES OR CONDITIONS OF ANY KIND, either express or implied.
  25:C:/Users/VMORAIS/Documents/DAVE_WS/1p_inverter_200V/Dave/Generated/CMSIS_DSP\arm_math.h ****  * See the License for the specific language governing permissions and
  26:C:/Users/VMORAIS/Documents/DAVE_WS/1p_inverter_200V/Dave/Generated/CMSIS_DSP\arm_math.h ****  * limitations under the License.
  27:C:/Users/VMORAIS/Documents/DAVE_WS/1p_inverter_200V/Dave/Generated/CMSIS_DSP\arm_math.h ****  */
  28:C:/Users/VMORAIS/Documents/DAVE_WS/1p_inverter_200V/Dave/Generated/CMSIS_DSP\arm_math.h **** 
  29:C:/Users/VMORAIS/Documents/DAVE_WS/1p_inverter_200V/Dave/Generated/CMSIS_DSP\arm_math.h **** /**
  30:C:/Users/VMORAIS/Documents/DAVE_WS/1p_inverter_200V/Dave/Generated/CMSIS_DSP\arm_math.h ****    \mainpage CMSIS DSP Software Library
  31:C:/Users/VMORAIS/Documents/DAVE_WS/1p_inverter_200V/Dave/Generated/CMSIS_DSP\arm_math.h ****    *
  32:C:/Users/VMORAIS/Documents/DAVE_WS/1p_inverter_200V/Dave/Generated/CMSIS_DSP\arm_math.h ****    * Introduction
  33:C:/Users/VMORAIS/Documents/DAVE_WS/1p_inverter_200V/Dave/Generated/CMSIS_DSP\arm_math.h ****    * ------------
  34:C:/Users/VMORAIS/Documents/DAVE_WS/1p_inverter_200V/Dave/Generated/CMSIS_DSP\arm_math.h ****    *
  35:C:/Users/VMORAIS/Documents/DAVE_WS/1p_inverter_200V/Dave/Generated/CMSIS_DSP\arm_math.h ****    * This user manual describes the CMSIS DSP software library,
  36:C:/Users/VMORAIS/Documents/DAVE_WS/1p_inverter_200V/Dave/Generated/CMSIS_DSP\arm_math.h ****    * a suite of common signal processing functions for use on Cortex-M processor based devices.
  37:C:/Users/VMORAIS/Documents/DAVE_WS/1p_inverter_200V/Dave/Generated/CMSIS_DSP\arm_math.h ****    *
  38:C:/Users/VMORAIS/Documents/DAVE_WS/1p_inverter_200V/Dave/Generated/CMSIS_DSP\arm_math.h ****    * The library is divided into a number of functions each covering a specific category:
  39:C:/Users/VMORAIS/Documents/DAVE_WS/1p_inverter_200V/Dave/Generated/CMSIS_DSP\arm_math.h ****    * - Basic math functions
  40:C:/Users/VMORAIS/Documents/DAVE_WS/1p_inverter_200V/Dave/Generated/CMSIS_DSP\arm_math.h ****    * - Fast math functions
  41:C:/Users/VMORAIS/Documents/DAVE_WS/1p_inverter_200V/Dave/Generated/CMSIS_DSP\arm_math.h ****    * - Complex math functions
  42:C:/Users/VMORAIS/Documents/DAVE_WS/1p_inverter_200V/Dave/Generated/CMSIS_DSP\arm_math.h ****    * - Filters
  43:C:/Users/VMORAIS/Documents/DAVE_WS/1p_inverter_200V/Dave/Generated/CMSIS_DSP\arm_math.h ****    * - Matrix functions
  44:C:/Users/VMORAIS/Documents/DAVE_WS/1p_inverter_200V/Dave/Generated/CMSIS_DSP\arm_math.h ****    * - Transforms
  45:C:/Users/VMORAIS/Documents/DAVE_WS/1p_inverter_200V/Dave/Generated/CMSIS_DSP\arm_math.h ****    * - Motor control functions
  46:C:/Users/VMORAIS/Documents/DAVE_WS/1p_inverter_200V/Dave/Generated/CMSIS_DSP\arm_math.h ****    * - Statistical functions
  47:C:/Users/VMORAIS/Documents/DAVE_WS/1p_inverter_200V/Dave/Generated/CMSIS_DSP\arm_math.h ****    * - Support functions
  48:C:/Users/VMORAIS/Documents/DAVE_WS/1p_inverter_200V/Dave/Generated/CMSIS_DSP\arm_math.h ****    * - Interpolation functions
  49:C:/Users/VMORAIS/Documents/DAVE_WS/1p_inverter_200V/Dave/Generated/CMSIS_DSP\arm_math.h ****    *
  50:C:/Users/VMORAIS/Documents/DAVE_WS/1p_inverter_200V/Dave/Generated/CMSIS_DSP\arm_math.h ****    * The library has separate functions for operating on 8-bit integers, 16-bit integers,
  51:C:/Users/VMORAIS/Documents/DAVE_WS/1p_inverter_200V/Dave/Generated/CMSIS_DSP\arm_math.h ****    * 32-bit integer and 32-bit floating-point values.
  52:C:/Users/VMORAIS/Documents/DAVE_WS/1p_inverter_200V/Dave/Generated/CMSIS_DSP\arm_math.h ****    *
  53:C:/Users/VMORAIS/Documents/DAVE_WS/1p_inverter_200V/Dave/Generated/CMSIS_DSP\arm_math.h ****    * Using the Library
  54:C:/Users/VMORAIS/Documents/DAVE_WS/1p_inverter_200V/Dave/Generated/CMSIS_DSP\arm_math.h ****    * ------------
  55:C:/Users/VMORAIS/Documents/DAVE_WS/1p_inverter_200V/Dave/Generated/CMSIS_DSP\arm_math.h ****    *
  56:C:/Users/VMORAIS/Documents/DAVE_WS/1p_inverter_200V/Dave/Generated/CMSIS_DSP\arm_math.h ****    * The library installer contains prebuilt versions of the libraries in the <code>Lib</code> fold
  57:C:/Users/VMORAIS/Documents/DAVE_WS/1p_inverter_200V/Dave/Generated/CMSIS_DSP\arm_math.h ****    * - arm_cortexM7lfdp_math.lib (Cortex-M7, Little endian, Double Precision Floating Point Unit)
  58:C:/Users/VMORAIS/Documents/DAVE_WS/1p_inverter_200V/Dave/Generated/CMSIS_DSP\arm_math.h ****    * - arm_cortexM7bfdp_math.lib (Cortex-M7, Big endian, Double Precision Floating Point Unit)
  59:C:/Users/VMORAIS/Documents/DAVE_WS/1p_inverter_200V/Dave/Generated/CMSIS_DSP\arm_math.h ****    * - arm_cortexM7lfsp_math.lib (Cortex-M7, Little endian, Single Precision Floating Point Unit)
  60:C:/Users/VMORAIS/Documents/DAVE_WS/1p_inverter_200V/Dave/Generated/CMSIS_DSP\arm_math.h ****    * - arm_cortexM7bfsp_math.lib (Cortex-M7, Big endian and Single Precision Floating Point Unit on
  61:C:/Users/VMORAIS/Documents/DAVE_WS/1p_inverter_200V/Dave/Generated/CMSIS_DSP\arm_math.h ****    * - arm_cortexM7l_math.lib (Cortex-M7, Little endian)
  62:C:/Users/VMORAIS/Documents/DAVE_WS/1p_inverter_200V/Dave/Generated/CMSIS_DSP\arm_math.h ****    * - arm_cortexM7b_math.lib (Cortex-M7, Big endian)
  63:C:/Users/VMORAIS/Documents/DAVE_WS/1p_inverter_200V/Dave/Generated/CMSIS_DSP\arm_math.h ****    * - arm_cortexM4lf_math.lib (Cortex-M4, Little endian, Floating Point Unit)
  64:C:/Users/VMORAIS/Documents/DAVE_WS/1p_inverter_200V/Dave/Generated/CMSIS_DSP\arm_math.h ****    * - arm_cortexM4bf_math.lib (Cortex-M4, Big endian, Floating Point Unit)
  65:C:/Users/VMORAIS/Documents/DAVE_WS/1p_inverter_200V/Dave/Generated/CMSIS_DSP\arm_math.h ****    * - arm_cortexM4l_math.lib (Cortex-M4, Little endian)
  66:C:/Users/VMORAIS/Documents/DAVE_WS/1p_inverter_200V/Dave/Generated/CMSIS_DSP\arm_math.h ****    * - arm_cortexM4b_math.lib (Cortex-M4, Big endian)
  67:C:/Users/VMORAIS/Documents/DAVE_WS/1p_inverter_200V/Dave/Generated/CMSIS_DSP\arm_math.h ****    * - arm_cortexM3l_math.lib (Cortex-M3, Little endian)
  68:C:/Users/VMORAIS/Documents/DAVE_WS/1p_inverter_200V/Dave/Generated/CMSIS_DSP\arm_math.h ****    * - arm_cortexM3b_math.lib (Cortex-M3, Big endian)
  69:C:/Users/VMORAIS/Documents/DAVE_WS/1p_inverter_200V/Dave/Generated/CMSIS_DSP\arm_math.h ****    * - arm_cortexM0l_math.lib (Cortex-M0 / Cortex-M0+, Little endian)
  70:C:/Users/VMORAIS/Documents/DAVE_WS/1p_inverter_200V/Dave/Generated/CMSIS_DSP\arm_math.h ****    * - arm_cortexM0b_math.lib (Cortex-M0 / Cortex-M0+, Big endian)
  71:C:/Users/VMORAIS/Documents/DAVE_WS/1p_inverter_200V/Dave/Generated/CMSIS_DSP\arm_math.h ****    * - arm_ARMv8MBLl_math.lib (ARMv8M Baseline, Little endian)
  72:C:/Users/VMORAIS/Documents/DAVE_WS/1p_inverter_200V/Dave/Generated/CMSIS_DSP\arm_math.h ****    * - arm_ARMv8MMLl_math.lib (ARMv8M Mainline, Little endian)
  73:C:/Users/VMORAIS/Documents/DAVE_WS/1p_inverter_200V/Dave/Generated/CMSIS_DSP\arm_math.h ****    * - arm_ARMv8MMLlfsp_math.lib (ARMv8M Mainline, Little endian, Single Precision Floating Point U
  74:C:/Users/VMORAIS/Documents/DAVE_WS/1p_inverter_200V/Dave/Generated/CMSIS_DSP\arm_math.h ****    * - arm_ARMv8MMLld_math.lib (ARMv8M Mainline, Little endian, DSP instructions)
  75:C:/Users/VMORAIS/Documents/DAVE_WS/1p_inverter_200V/Dave/Generated/CMSIS_DSP\arm_math.h ****    * - arm_ARMv8MMLldfsp_math.lib (ARMv8M Mainline, Little endian, DSP instructions, Single Precisi
  76:C:/Users/VMORAIS/Documents/DAVE_WS/1p_inverter_200V/Dave/Generated/CMSIS_DSP\arm_math.h ****    *
  77:C:/Users/VMORAIS/Documents/DAVE_WS/1p_inverter_200V/Dave/Generated/CMSIS_DSP\arm_math.h ****    * The library functions are declared in the public file <code>CMSIS_DSP/cmsis_dsp.h</code> which
  78:C:/Users/VMORAIS/Documents/DAVE_WS/1p_inverter_200V/Dave/Generated/CMSIS_DSP\arm_math.h ****    * Simply include this file and link the appropriate library in the application and begin calling
  79:C:/Users/VMORAIS/Documents/DAVE_WS/1p_inverter_200V/Dave/Generated/CMSIS_DSP\arm_math.h ****    * public header file <code> CMSIS_DSP/cmsis_dsp.h</code> for Cortex-M cores with little endian a
  80:C:/Users/VMORAIS/Documents/DAVE_WS/1p_inverter_200V/Dave/Generated/CMSIS_DSP\arm_math.h ****    * Define the appropriate pre processor MACRO ARM_MATH_CM7 or ARM_MATH_CM4 or  ARM_MATH_CM3 or
  81:C:/Users/VMORAIS/Documents/DAVE_WS/1p_inverter_200V/Dave/Generated/CMSIS_DSP\arm_math.h ****    * ARM_MATH_CM0 or ARM_MATH_CM0PLUS depending on the target processor in the application.
  82:C:/Users/VMORAIS/Documents/DAVE_WS/1p_inverter_200V/Dave/Generated/CMSIS_DSP\arm_math.h ****    * For ARMv8M cores define pre processor MACRO ARM_MATH_ARMV8MBL or ARM_MATH_ARMV8MML.
  83:C:/Users/VMORAIS/Documents/DAVE_WS/1p_inverter_200V/Dave/Generated/CMSIS_DSP\arm_math.h ****    * Set Pre processor MACRO __DSP_PRESENT if ARMv8M Mainline core supports DSP instructions.
  84:C:/Users/VMORAIS/Documents/DAVE_WS/1p_inverter_200V/Dave/Generated/CMSIS_DSP\arm_math.h ****    * 
  85:C:/Users/VMORAIS/Documents/DAVE_WS/1p_inverter_200V/Dave/Generated/CMSIS_DSP\arm_math.h ****    *
  86:C:/Users/VMORAIS/Documents/DAVE_WS/1p_inverter_200V/Dave/Generated/CMSIS_DSP\arm_math.h ****    * Examples
  87:C:/Users/VMORAIS/Documents/DAVE_WS/1p_inverter_200V/Dave/Generated/CMSIS_DSP\arm_math.h ****    * --------
  88:C:/Users/VMORAIS/Documents/DAVE_WS/1p_inverter_200V/Dave/Generated/CMSIS_DSP\arm_math.h ****    *
  89:C:/Users/VMORAIS/Documents/DAVE_WS/1p_inverter_200V/Dave/Generated/CMSIS_DSP\arm_math.h ****    * The library ships with a number of examples which demonstrate how to use the library functions
  90:C:/Users/VMORAIS/Documents/DAVE_WS/1p_inverter_200V/Dave/Generated/CMSIS_DSP\arm_math.h ****    *
  91:C:/Users/VMORAIS/Documents/DAVE_WS/1p_inverter_200V/Dave/Generated/CMSIS_DSP\arm_math.h ****    * Toolchain Support
  92:C:/Users/VMORAIS/Documents/DAVE_WS/1p_inverter_200V/Dave/Generated/CMSIS_DSP\arm_math.h ****    * ------------
  93:C:/Users/VMORAIS/Documents/DAVE_WS/1p_inverter_200V/Dave/Generated/CMSIS_DSP\arm_math.h ****    *
  94:C:/Users/VMORAIS/Documents/DAVE_WS/1p_inverter_200V/Dave/Generated/CMSIS_DSP\arm_math.h ****    * The library has been developed and tested with MDK-ARM version 5.14.0.0
  95:C:/Users/VMORAIS/Documents/DAVE_WS/1p_inverter_200V/Dave/Generated/CMSIS_DSP\arm_math.h ****    * The library is being tested in GCC and IAR toolchains and updates on this activity will be mad
  96:C:/Users/VMORAIS/Documents/DAVE_WS/1p_inverter_200V/Dave/Generated/CMSIS_DSP\arm_math.h ****    *
  97:C:/Users/VMORAIS/Documents/DAVE_WS/1p_inverter_200V/Dave/Generated/CMSIS_DSP\arm_math.h ****    * Building the Library
  98:C:/Users/VMORAIS/Documents/DAVE_WS/1p_inverter_200V/Dave/Generated/CMSIS_DSP\arm_math.h ****    * ------------
  99:C:/Users/VMORAIS/Documents/DAVE_WS/1p_inverter_200V/Dave/Generated/CMSIS_DSP\arm_math.h ****    *
 100:C:/Users/VMORAIS/Documents/DAVE_WS/1p_inverter_200V/Dave/Generated/CMSIS_DSP\arm_math.h ****    * The library installer contains a project file to re build libraries on MDK-ARM Tool chain in t
 101:C:/Users/VMORAIS/Documents/DAVE_WS/1p_inverter_200V/Dave/Generated/CMSIS_DSP\arm_math.h ****    * - arm_cortexM_math.uvprojx
 102:C:/Users/VMORAIS/Documents/DAVE_WS/1p_inverter_200V/Dave/Generated/CMSIS_DSP\arm_math.h ****    *
 103:C:/Users/VMORAIS/Documents/DAVE_WS/1p_inverter_200V/Dave/Generated/CMSIS_DSP\arm_math.h ****    *
 104:C:/Users/VMORAIS/Documents/DAVE_WS/1p_inverter_200V/Dave/Generated/CMSIS_DSP\arm_math.h ****    * The libraries can be built by opening the arm_cortexM_math.uvprojx project in MDK-ARM, selecti
 105:C:/Users/VMORAIS/Documents/DAVE_WS/1p_inverter_200V/Dave/Generated/CMSIS_DSP\arm_math.h ****    *
 106:C:/Users/VMORAIS/Documents/DAVE_WS/1p_inverter_200V/Dave/Generated/CMSIS_DSP\arm_math.h ****    * Pre-processor Macros
 107:C:/Users/VMORAIS/Documents/DAVE_WS/1p_inverter_200V/Dave/Generated/CMSIS_DSP\arm_math.h ****    * ------------
 108:C:/Users/VMORAIS/Documents/DAVE_WS/1p_inverter_200V/Dave/Generated/CMSIS_DSP\arm_math.h ****    *
 109:C:/Users/VMORAIS/Documents/DAVE_WS/1p_inverter_200V/Dave/Generated/CMSIS_DSP\arm_math.h ****    * Each library project have differant pre-processor macros.
 110:C:/Users/VMORAIS/Documents/DAVE_WS/1p_inverter_200V/Dave/Generated/CMSIS_DSP\arm_math.h ****    *
 111:C:/Users/VMORAIS/Documents/DAVE_WS/1p_inverter_200V/Dave/Generated/CMSIS_DSP\arm_math.h ****    * - UNALIGNED_SUPPORT_DISABLE:
 112:C:/Users/VMORAIS/Documents/DAVE_WS/1p_inverter_200V/Dave/Generated/CMSIS_DSP\arm_math.h ****    *
 113:C:/Users/VMORAIS/Documents/DAVE_WS/1p_inverter_200V/Dave/Generated/CMSIS_DSP\arm_math.h ****    * Define macro UNALIGNED_SUPPORT_DISABLE, If the silicon does not support unaligned memory acces
 114:C:/Users/VMORAIS/Documents/DAVE_WS/1p_inverter_200V/Dave/Generated/CMSIS_DSP\arm_math.h ****    *
 115:C:/Users/VMORAIS/Documents/DAVE_WS/1p_inverter_200V/Dave/Generated/CMSIS_DSP\arm_math.h ****    * - ARM_MATH_BIG_ENDIAN:
 116:C:/Users/VMORAIS/Documents/DAVE_WS/1p_inverter_200V/Dave/Generated/CMSIS_DSP\arm_math.h ****    *
 117:C:/Users/VMORAIS/Documents/DAVE_WS/1p_inverter_200V/Dave/Generated/CMSIS_DSP\arm_math.h ****    * Define macro ARM_MATH_BIG_ENDIAN to build the library for big endian targets. By default libra
 118:C:/Users/VMORAIS/Documents/DAVE_WS/1p_inverter_200V/Dave/Generated/CMSIS_DSP\arm_math.h ****    *
 119:C:/Users/VMORAIS/Documents/DAVE_WS/1p_inverter_200V/Dave/Generated/CMSIS_DSP\arm_math.h ****    * - ARM_MATH_MATRIX_CHECK:
 120:C:/Users/VMORAIS/Documents/DAVE_WS/1p_inverter_200V/Dave/Generated/CMSIS_DSP\arm_math.h ****    *
 121:C:/Users/VMORAIS/Documents/DAVE_WS/1p_inverter_200V/Dave/Generated/CMSIS_DSP\arm_math.h ****    * Define macro ARM_MATH_MATRIX_CHECK for checking on the input and output sizes of matrices
 122:C:/Users/VMORAIS/Documents/DAVE_WS/1p_inverter_200V/Dave/Generated/CMSIS_DSP\arm_math.h ****    *
 123:C:/Users/VMORAIS/Documents/DAVE_WS/1p_inverter_200V/Dave/Generated/CMSIS_DSP\arm_math.h ****    * - ARM_MATH_ROUNDING:
 124:C:/Users/VMORAIS/Documents/DAVE_WS/1p_inverter_200V/Dave/Generated/CMSIS_DSP\arm_math.h ****    *
 125:C:/Users/VMORAIS/Documents/DAVE_WS/1p_inverter_200V/Dave/Generated/CMSIS_DSP\arm_math.h ****    * Define macro ARM_MATH_ROUNDING for rounding on support functions
 126:C:/Users/VMORAIS/Documents/DAVE_WS/1p_inverter_200V/Dave/Generated/CMSIS_DSP\arm_math.h ****    *
 127:C:/Users/VMORAIS/Documents/DAVE_WS/1p_inverter_200V/Dave/Generated/CMSIS_DSP\arm_math.h ****    * - ARM_MATH_CMx:
 128:C:/Users/VMORAIS/Documents/DAVE_WS/1p_inverter_200V/Dave/Generated/CMSIS_DSP\arm_math.h ****    *
 129:C:/Users/VMORAIS/Documents/DAVE_WS/1p_inverter_200V/Dave/Generated/CMSIS_DSP\arm_math.h ****    * Define macro ARM_MATH_CM4 for building the library on Cortex-M4 target, ARM_MATH_CM3 for build
 130:C:/Users/VMORAIS/Documents/DAVE_WS/1p_inverter_200V/Dave/Generated/CMSIS_DSP\arm_math.h ****    * and ARM_MATH_CM0 for building library on Cortex-M0 target, ARM_MATH_CM0PLUS for building libra
 131:C:/Users/VMORAIS/Documents/DAVE_WS/1p_inverter_200V/Dave/Generated/CMSIS_DSP\arm_math.h ****    * ARM_MATH_CM7 for building the library on cortex-M7.
 132:C:/Users/VMORAIS/Documents/DAVE_WS/1p_inverter_200V/Dave/Generated/CMSIS_DSP\arm_math.h ****    *
 133:C:/Users/VMORAIS/Documents/DAVE_WS/1p_inverter_200V/Dave/Generated/CMSIS_DSP\arm_math.h ****    * - ARM_MATH_ARMV8MxL:
 134:C:/Users/VMORAIS/Documents/DAVE_WS/1p_inverter_200V/Dave/Generated/CMSIS_DSP\arm_math.h ****    *
 135:C:/Users/VMORAIS/Documents/DAVE_WS/1p_inverter_200V/Dave/Generated/CMSIS_DSP\arm_math.h ****    * Define macro ARM_MATH_ARMV8MBL for building the library on ARMv8M Baseline target, ARM_MATH_AR
 136:C:/Users/VMORAIS/Documents/DAVE_WS/1p_inverter_200V/Dave/Generated/CMSIS_DSP\arm_math.h ****    * on ARMv8M Mainline target.
 137:C:/Users/VMORAIS/Documents/DAVE_WS/1p_inverter_200V/Dave/Generated/CMSIS_DSP\arm_math.h ****    *
 138:C:/Users/VMORAIS/Documents/DAVE_WS/1p_inverter_200V/Dave/Generated/CMSIS_DSP\arm_math.h ****    * - __FPU_PRESENT:
 139:C:/Users/VMORAIS/Documents/DAVE_WS/1p_inverter_200V/Dave/Generated/CMSIS_DSP\arm_math.h ****    *
 140:C:/Users/VMORAIS/Documents/DAVE_WS/1p_inverter_200V/Dave/Generated/CMSIS_DSP\arm_math.h ****    * Initialize macro __FPU_PRESENT = 1 when building on FPU supported Targets. Enable this macro f
 141:C:/Users/VMORAIS/Documents/DAVE_WS/1p_inverter_200V/Dave/Generated/CMSIS_DSP\arm_math.h ****    *
 142:C:/Users/VMORAIS/Documents/DAVE_WS/1p_inverter_200V/Dave/Generated/CMSIS_DSP\arm_math.h ****    * - __DSP_PRESENT:
 143:C:/Users/VMORAIS/Documents/DAVE_WS/1p_inverter_200V/Dave/Generated/CMSIS_DSP\arm_math.h ****    *
 144:C:/Users/VMORAIS/Documents/DAVE_WS/1p_inverter_200V/Dave/Generated/CMSIS_DSP\arm_math.h ****    * Initialize macro __DSP_PRESENT = 1 when ARMv8M Mainline core supports DSP instructions.
 145:C:/Users/VMORAIS/Documents/DAVE_WS/1p_inverter_200V/Dave/Generated/CMSIS_DSP\arm_math.h ****    *
 146:C:/Users/VMORAIS/Documents/DAVE_WS/1p_inverter_200V/Dave/Generated/CMSIS_DSP\arm_math.h ****    * <hr>
 147:C:/Users/VMORAIS/Documents/DAVE_WS/1p_inverter_200V/Dave/Generated/CMSIS_DSP\arm_math.h ****    * CMSIS-DSP in ARM::CMSIS Pack
 148:C:/Users/VMORAIS/Documents/DAVE_WS/1p_inverter_200V/Dave/Generated/CMSIS_DSP\arm_math.h ****    * -----------------------------
 149:C:/Users/VMORAIS/Documents/DAVE_WS/1p_inverter_200V/Dave/Generated/CMSIS_DSP\arm_math.h ****    *
 150:C:/Users/VMORAIS/Documents/DAVE_WS/1p_inverter_200V/Dave/Generated/CMSIS_DSP\arm_math.h ****    * The following files relevant to CMSIS-DSP are present in the <b>ARM::CMSIS</b> Pack directorie
 151:C:/Users/VMORAIS/Documents/DAVE_WS/1p_inverter_200V/Dave/Generated/CMSIS_DSP\arm_math.h ****    * |File/Folder                   |Content                                                       
 152:C:/Users/VMORAIS/Documents/DAVE_WS/1p_inverter_200V/Dave/Generated/CMSIS_DSP\arm_math.h ****    * |------------------------------|--------------------------------------------------------------
 153:C:/Users/VMORAIS/Documents/DAVE_WS/1p_inverter_200V/Dave/Generated/CMSIS_DSP\arm_math.h ****    * |\b CMSIS\\Documentation\\DSP  | This documentation                                           
 154:C:/Users/VMORAIS/Documents/DAVE_WS/1p_inverter_200V/Dave/Generated/CMSIS_DSP\arm_math.h ****    * |\b CMSIS\\DSP_Lib             | Software license agreement (license.txt)                     
 155:C:/Users/VMORAIS/Documents/DAVE_WS/1p_inverter_200V/Dave/Generated/CMSIS_DSP\arm_math.h ****    * |\b CMSIS\\DSP_Lib\\Examples   | Example projects demonstrating the usage of the library funct
 156:C:/Users/VMORAIS/Documents/DAVE_WS/1p_inverter_200V/Dave/Generated/CMSIS_DSP\arm_math.h ****    * |\b CMSIS\\DSP_Lib\\Source     | Source files for rebuilding the library                      
 157:C:/Users/VMORAIS/Documents/DAVE_WS/1p_inverter_200V/Dave/Generated/CMSIS_DSP\arm_math.h ****    *
 158:C:/Users/VMORAIS/Documents/DAVE_WS/1p_inverter_200V/Dave/Generated/CMSIS_DSP\arm_math.h ****    * <hr>
 159:C:/Users/VMORAIS/Documents/DAVE_WS/1p_inverter_200V/Dave/Generated/CMSIS_DSP\arm_math.h ****    * Revision History of CMSIS-DSP
 160:C:/Users/VMORAIS/Documents/DAVE_WS/1p_inverter_200V/Dave/Generated/CMSIS_DSP\arm_math.h ****    * ------------
 161:C:/Users/VMORAIS/Documents/DAVE_WS/1p_inverter_200V/Dave/Generated/CMSIS_DSP\arm_math.h ****    * Please refer to \ref ChangeLog_pg.
 162:C:/Users/VMORAIS/Documents/DAVE_WS/1p_inverter_200V/Dave/Generated/CMSIS_DSP\arm_math.h ****    *
 163:C:/Users/VMORAIS/Documents/DAVE_WS/1p_inverter_200V/Dave/Generated/CMSIS_DSP\arm_math.h ****    * Copyright Notice
 164:C:/Users/VMORAIS/Documents/DAVE_WS/1p_inverter_200V/Dave/Generated/CMSIS_DSP\arm_math.h ****    * ------------
 165:C:/Users/VMORAIS/Documents/DAVE_WS/1p_inverter_200V/Dave/Generated/CMSIS_DSP\arm_math.h ****    *
 166:C:/Users/VMORAIS/Documents/DAVE_WS/1p_inverter_200V/Dave/Generated/CMSIS_DSP\arm_math.h ****    * Copyright (C) 2010-2015 ARM Limited. All rights reserved.
 167:C:/Users/VMORAIS/Documents/DAVE_WS/1p_inverter_200V/Dave/Generated/CMSIS_DSP\arm_math.h ****    */
 168:C:/Users/VMORAIS/Documents/DAVE_WS/1p_inverter_200V/Dave/Generated/CMSIS_DSP\arm_math.h **** 
 169:C:/Users/VMORAIS/Documents/DAVE_WS/1p_inverter_200V/Dave/Generated/CMSIS_DSP\arm_math.h **** 
 170:C:/Users/VMORAIS/Documents/DAVE_WS/1p_inverter_200V/Dave/Generated/CMSIS_DSP\arm_math.h **** /**
 171:C:/Users/VMORAIS/Documents/DAVE_WS/1p_inverter_200V/Dave/Generated/CMSIS_DSP\arm_math.h ****  * @defgroup groupMath Basic Math Functions
 172:C:/Users/VMORAIS/Documents/DAVE_WS/1p_inverter_200V/Dave/Generated/CMSIS_DSP\arm_math.h ****  */
 173:C:/Users/VMORAIS/Documents/DAVE_WS/1p_inverter_200V/Dave/Generated/CMSIS_DSP\arm_math.h **** 
 174:C:/Users/VMORAIS/Documents/DAVE_WS/1p_inverter_200V/Dave/Generated/CMSIS_DSP\arm_math.h **** /**
 175:C:/Users/VMORAIS/Documents/DAVE_WS/1p_inverter_200V/Dave/Generated/CMSIS_DSP\arm_math.h ****  * @defgroup groupFastMath Fast Math Functions
 176:C:/Users/VMORAIS/Documents/DAVE_WS/1p_inverter_200V/Dave/Generated/CMSIS_DSP\arm_math.h ****  * This set of functions provides a fast approximation to sine, cosine, and square root.
 177:C:/Users/VMORAIS/Documents/DAVE_WS/1p_inverter_200V/Dave/Generated/CMSIS_DSP\arm_math.h ****  * As compared to most of the other functions in the CMSIS math library, the fast math functions
 178:C:/Users/VMORAIS/Documents/DAVE_WS/1p_inverter_200V/Dave/Generated/CMSIS_DSP\arm_math.h ****  * operate on individual values and not arrays.
 179:C:/Users/VMORAIS/Documents/DAVE_WS/1p_inverter_200V/Dave/Generated/CMSIS_DSP\arm_math.h ****  * There are separate functions for Q15, Q31, and floating-point data.
 180:C:/Users/VMORAIS/Documents/DAVE_WS/1p_inverter_200V/Dave/Generated/CMSIS_DSP\arm_math.h ****  *
 181:C:/Users/VMORAIS/Documents/DAVE_WS/1p_inverter_200V/Dave/Generated/CMSIS_DSP\arm_math.h ****  */
 182:C:/Users/VMORAIS/Documents/DAVE_WS/1p_inverter_200V/Dave/Generated/CMSIS_DSP\arm_math.h **** 
 183:C:/Users/VMORAIS/Documents/DAVE_WS/1p_inverter_200V/Dave/Generated/CMSIS_DSP\arm_math.h **** /**
 184:C:/Users/VMORAIS/Documents/DAVE_WS/1p_inverter_200V/Dave/Generated/CMSIS_DSP\arm_math.h ****  * @defgroup groupCmplxMath Complex Math Functions
 185:C:/Users/VMORAIS/Documents/DAVE_WS/1p_inverter_200V/Dave/Generated/CMSIS_DSP\arm_math.h ****  * This set of functions operates on complex data vectors.
 186:C:/Users/VMORAIS/Documents/DAVE_WS/1p_inverter_200V/Dave/Generated/CMSIS_DSP\arm_math.h ****  * The data in the complex arrays is stored in an interleaved fashion
 187:C:/Users/VMORAIS/Documents/DAVE_WS/1p_inverter_200V/Dave/Generated/CMSIS_DSP\arm_math.h ****  * (real, imag, real, imag, ...).
 188:C:/Users/VMORAIS/Documents/DAVE_WS/1p_inverter_200V/Dave/Generated/CMSIS_DSP\arm_math.h ****  * In the API functions, the number of samples in a complex array refers
 189:C:/Users/VMORAIS/Documents/DAVE_WS/1p_inverter_200V/Dave/Generated/CMSIS_DSP\arm_math.h ****  * to the number of complex values; the array contains twice this number of
 190:C:/Users/VMORAIS/Documents/DAVE_WS/1p_inverter_200V/Dave/Generated/CMSIS_DSP\arm_math.h ****  * real values.
 191:C:/Users/VMORAIS/Documents/DAVE_WS/1p_inverter_200V/Dave/Generated/CMSIS_DSP\arm_math.h ****  */
 192:C:/Users/VMORAIS/Documents/DAVE_WS/1p_inverter_200V/Dave/Generated/CMSIS_DSP\arm_math.h **** 
 193:C:/Users/VMORAIS/Documents/DAVE_WS/1p_inverter_200V/Dave/Generated/CMSIS_DSP\arm_math.h **** /**
 194:C:/Users/VMORAIS/Documents/DAVE_WS/1p_inverter_200V/Dave/Generated/CMSIS_DSP\arm_math.h ****  * @defgroup groupFilters Filtering Functions
 195:C:/Users/VMORAIS/Documents/DAVE_WS/1p_inverter_200V/Dave/Generated/CMSIS_DSP\arm_math.h ****  */
 196:C:/Users/VMORAIS/Documents/DAVE_WS/1p_inverter_200V/Dave/Generated/CMSIS_DSP\arm_math.h **** 
 197:C:/Users/VMORAIS/Documents/DAVE_WS/1p_inverter_200V/Dave/Generated/CMSIS_DSP\arm_math.h **** /**
 198:C:/Users/VMORAIS/Documents/DAVE_WS/1p_inverter_200V/Dave/Generated/CMSIS_DSP\arm_math.h ****  * @defgroup groupMatrix Matrix Functions
 199:C:/Users/VMORAIS/Documents/DAVE_WS/1p_inverter_200V/Dave/Generated/CMSIS_DSP\arm_math.h ****  *
 200:C:/Users/VMORAIS/Documents/DAVE_WS/1p_inverter_200V/Dave/Generated/CMSIS_DSP\arm_math.h ****  * This set of functions provides basic matrix math operations.
 201:C:/Users/VMORAIS/Documents/DAVE_WS/1p_inverter_200V/Dave/Generated/CMSIS_DSP\arm_math.h ****  * The functions operate on matrix data structures.  For example,
 202:C:/Users/VMORAIS/Documents/DAVE_WS/1p_inverter_200V/Dave/Generated/CMSIS_DSP\arm_math.h ****  * the type
 203:C:/Users/VMORAIS/Documents/DAVE_WS/1p_inverter_200V/Dave/Generated/CMSIS_DSP\arm_math.h ****  * definition for the floating-point matrix structure is shown
 204:C:/Users/VMORAIS/Documents/DAVE_WS/1p_inverter_200V/Dave/Generated/CMSIS_DSP\arm_math.h ****  * below:
 205:C:/Users/VMORAIS/Documents/DAVE_WS/1p_inverter_200V/Dave/Generated/CMSIS_DSP\arm_math.h ****  * <pre>
 206:C:/Users/VMORAIS/Documents/DAVE_WS/1p_inverter_200V/Dave/Generated/CMSIS_DSP\arm_math.h ****  *     typedef struct
 207:C:/Users/VMORAIS/Documents/DAVE_WS/1p_inverter_200V/Dave/Generated/CMSIS_DSP\arm_math.h ****  *     {
 208:C:/Users/VMORAIS/Documents/DAVE_WS/1p_inverter_200V/Dave/Generated/CMSIS_DSP\arm_math.h ****  *       uint16_t numRows;     // number of rows of the matrix.
 209:C:/Users/VMORAIS/Documents/DAVE_WS/1p_inverter_200V/Dave/Generated/CMSIS_DSP\arm_math.h ****  *       uint16_t numCols;     // number of columns of the matrix.
 210:C:/Users/VMORAIS/Documents/DAVE_WS/1p_inverter_200V/Dave/Generated/CMSIS_DSP\arm_math.h ****  *       float32_t *pData;     // points to the data of the matrix.
 211:C:/Users/VMORAIS/Documents/DAVE_WS/1p_inverter_200V/Dave/Generated/CMSIS_DSP\arm_math.h ****  *     } arm_matrix_instance_f32;
 212:C:/Users/VMORAIS/Documents/DAVE_WS/1p_inverter_200V/Dave/Generated/CMSIS_DSP\arm_math.h ****  * </pre>
 213:C:/Users/VMORAIS/Documents/DAVE_WS/1p_inverter_200V/Dave/Generated/CMSIS_DSP\arm_math.h ****  * There are similar definitions for Q15 and Q31 data types.
 214:C:/Users/VMORAIS/Documents/DAVE_WS/1p_inverter_200V/Dave/Generated/CMSIS_DSP\arm_math.h ****  *
 215:C:/Users/VMORAIS/Documents/DAVE_WS/1p_inverter_200V/Dave/Generated/CMSIS_DSP\arm_math.h ****  * The structure specifies the size of the matrix and then points to
 216:C:/Users/VMORAIS/Documents/DAVE_WS/1p_inverter_200V/Dave/Generated/CMSIS_DSP\arm_math.h ****  * an array of data.  The array is of size <code>numRows X numCols</code>
 217:C:/Users/VMORAIS/Documents/DAVE_WS/1p_inverter_200V/Dave/Generated/CMSIS_DSP\arm_math.h ****  * and the values are arranged in row order.  That is, the
 218:C:/Users/VMORAIS/Documents/DAVE_WS/1p_inverter_200V/Dave/Generated/CMSIS_DSP\arm_math.h ****  * matrix element (i, j) is stored at:
 219:C:/Users/VMORAIS/Documents/DAVE_WS/1p_inverter_200V/Dave/Generated/CMSIS_DSP\arm_math.h ****  * <pre>
 220:C:/Users/VMORAIS/Documents/DAVE_WS/1p_inverter_200V/Dave/Generated/CMSIS_DSP\arm_math.h ****  *     pData[i*numCols + j]
 221:C:/Users/VMORAIS/Documents/DAVE_WS/1p_inverter_200V/Dave/Generated/CMSIS_DSP\arm_math.h ****  * </pre>
 222:C:/Users/VMORAIS/Documents/DAVE_WS/1p_inverter_200V/Dave/Generated/CMSIS_DSP\arm_math.h ****  *
 223:C:/Users/VMORAIS/Documents/DAVE_WS/1p_inverter_200V/Dave/Generated/CMSIS_DSP\arm_math.h ****  * \par Init Functions
 224:C:/Users/VMORAIS/Documents/DAVE_WS/1p_inverter_200V/Dave/Generated/CMSIS_DSP\arm_math.h ****  * There is an associated initialization function for each type of matrix
 225:C:/Users/VMORAIS/Documents/DAVE_WS/1p_inverter_200V/Dave/Generated/CMSIS_DSP\arm_math.h ****  * data structure.
 226:C:/Users/VMORAIS/Documents/DAVE_WS/1p_inverter_200V/Dave/Generated/CMSIS_DSP\arm_math.h ****  * The initialization function sets the values of the internal structure fields.
 227:C:/Users/VMORAIS/Documents/DAVE_WS/1p_inverter_200V/Dave/Generated/CMSIS_DSP\arm_math.h ****  * Refer to the function <code>arm_mat_init_f32()</code>, <code>arm_mat_init_q31()</code>
 228:C:/Users/VMORAIS/Documents/DAVE_WS/1p_inverter_200V/Dave/Generated/CMSIS_DSP\arm_math.h ****  * and <code>arm_mat_init_q15()</code> for floating-point, Q31 and Q15 types,  respectively.
 229:C:/Users/VMORAIS/Documents/DAVE_WS/1p_inverter_200V/Dave/Generated/CMSIS_DSP\arm_math.h ****  *
 230:C:/Users/VMORAIS/Documents/DAVE_WS/1p_inverter_200V/Dave/Generated/CMSIS_DSP\arm_math.h ****  * \par
 231:C:/Users/VMORAIS/Documents/DAVE_WS/1p_inverter_200V/Dave/Generated/CMSIS_DSP\arm_math.h ****  * Use of the initialization function is optional. However, if initialization function is used
 232:C:/Users/VMORAIS/Documents/DAVE_WS/1p_inverter_200V/Dave/Generated/CMSIS_DSP\arm_math.h ****  * then the instance structure cannot be placed into a const data section.
 233:C:/Users/VMORAIS/Documents/DAVE_WS/1p_inverter_200V/Dave/Generated/CMSIS_DSP\arm_math.h ****  * To place the instance structure in a const data
 234:C:/Users/VMORAIS/Documents/DAVE_WS/1p_inverter_200V/Dave/Generated/CMSIS_DSP\arm_math.h ****  * section, manually initialize the data structure.  For example:
 235:C:/Users/VMORAIS/Documents/DAVE_WS/1p_inverter_200V/Dave/Generated/CMSIS_DSP\arm_math.h ****  * <pre>
 236:C:/Users/VMORAIS/Documents/DAVE_WS/1p_inverter_200V/Dave/Generated/CMSIS_DSP\arm_math.h ****  * <code>arm_matrix_instance_f32 S = {nRows, nColumns, pData};</code>
 237:C:/Users/VMORAIS/Documents/DAVE_WS/1p_inverter_200V/Dave/Generated/CMSIS_DSP\arm_math.h ****  * <code>arm_matrix_instance_q31 S = {nRows, nColumns, pData};</code>
 238:C:/Users/VMORAIS/Documents/DAVE_WS/1p_inverter_200V/Dave/Generated/CMSIS_DSP\arm_math.h ****  * <code>arm_matrix_instance_q15 S = {nRows, nColumns, pData};</code>
 239:C:/Users/VMORAIS/Documents/DAVE_WS/1p_inverter_200V/Dave/Generated/CMSIS_DSP\arm_math.h ****  * </pre>
 240:C:/Users/VMORAIS/Documents/DAVE_WS/1p_inverter_200V/Dave/Generated/CMSIS_DSP\arm_math.h ****  * where <code>nRows</code> specifies the number of rows, <code>nColumns</code>
 241:C:/Users/VMORAIS/Documents/DAVE_WS/1p_inverter_200V/Dave/Generated/CMSIS_DSP\arm_math.h ****  * specifies the number of columns, and <code>pData</code> points to the
 242:C:/Users/VMORAIS/Documents/DAVE_WS/1p_inverter_200V/Dave/Generated/CMSIS_DSP\arm_math.h ****  * data array.
 243:C:/Users/VMORAIS/Documents/DAVE_WS/1p_inverter_200V/Dave/Generated/CMSIS_DSP\arm_math.h ****  *
 244:C:/Users/VMORAIS/Documents/DAVE_WS/1p_inverter_200V/Dave/Generated/CMSIS_DSP\arm_math.h ****  * \par Size Checking
 245:C:/Users/VMORAIS/Documents/DAVE_WS/1p_inverter_200V/Dave/Generated/CMSIS_DSP\arm_math.h ****  * By default all of the matrix functions perform size checking on the input and
 246:C:/Users/VMORAIS/Documents/DAVE_WS/1p_inverter_200V/Dave/Generated/CMSIS_DSP\arm_math.h ****  * output matrices.  For example, the matrix addition function verifies that the
 247:C:/Users/VMORAIS/Documents/DAVE_WS/1p_inverter_200V/Dave/Generated/CMSIS_DSP\arm_math.h ****  * two input matrices and the output matrix all have the same number of rows and
 248:C:/Users/VMORAIS/Documents/DAVE_WS/1p_inverter_200V/Dave/Generated/CMSIS_DSP\arm_math.h ****  * columns.  If the size check fails the functions return:
 249:C:/Users/VMORAIS/Documents/DAVE_WS/1p_inverter_200V/Dave/Generated/CMSIS_DSP\arm_math.h ****  * <pre>
 250:C:/Users/VMORAIS/Documents/DAVE_WS/1p_inverter_200V/Dave/Generated/CMSIS_DSP\arm_math.h ****  *     ARM_MATH_SIZE_MISMATCH
 251:C:/Users/VMORAIS/Documents/DAVE_WS/1p_inverter_200V/Dave/Generated/CMSIS_DSP\arm_math.h ****  * </pre>
 252:C:/Users/VMORAIS/Documents/DAVE_WS/1p_inverter_200V/Dave/Generated/CMSIS_DSP\arm_math.h ****  * Otherwise the functions return
 253:C:/Users/VMORAIS/Documents/DAVE_WS/1p_inverter_200V/Dave/Generated/CMSIS_DSP\arm_math.h ****  * <pre>
 254:C:/Users/VMORAIS/Documents/DAVE_WS/1p_inverter_200V/Dave/Generated/CMSIS_DSP\arm_math.h ****  *     ARM_MATH_SUCCESS
 255:C:/Users/VMORAIS/Documents/DAVE_WS/1p_inverter_200V/Dave/Generated/CMSIS_DSP\arm_math.h ****  * </pre>
 256:C:/Users/VMORAIS/Documents/DAVE_WS/1p_inverter_200V/Dave/Generated/CMSIS_DSP\arm_math.h ****  * There is some overhead associated with this matrix size checking.
 257:C:/Users/VMORAIS/Documents/DAVE_WS/1p_inverter_200V/Dave/Generated/CMSIS_DSP\arm_math.h ****  * The matrix size checking is enabled via the \#define
 258:C:/Users/VMORAIS/Documents/DAVE_WS/1p_inverter_200V/Dave/Generated/CMSIS_DSP\arm_math.h ****  * <pre>
 259:C:/Users/VMORAIS/Documents/DAVE_WS/1p_inverter_200V/Dave/Generated/CMSIS_DSP\arm_math.h ****  *     ARM_MATH_MATRIX_CHECK
 260:C:/Users/VMORAIS/Documents/DAVE_WS/1p_inverter_200V/Dave/Generated/CMSIS_DSP\arm_math.h ****  * </pre>
 261:C:/Users/VMORAIS/Documents/DAVE_WS/1p_inverter_200V/Dave/Generated/CMSIS_DSP\arm_math.h ****  * within the library project settings.  By default this macro is defined
 262:C:/Users/VMORAIS/Documents/DAVE_WS/1p_inverter_200V/Dave/Generated/CMSIS_DSP\arm_math.h ****  * and size checking is enabled.  By changing the project settings and
 263:C:/Users/VMORAIS/Documents/DAVE_WS/1p_inverter_200V/Dave/Generated/CMSIS_DSP\arm_math.h ****  * undefining this macro size checking is eliminated and the functions
 264:C:/Users/VMORAIS/Documents/DAVE_WS/1p_inverter_200V/Dave/Generated/CMSIS_DSP\arm_math.h ****  * run a bit faster.  With size checking disabled the functions always
 265:C:/Users/VMORAIS/Documents/DAVE_WS/1p_inverter_200V/Dave/Generated/CMSIS_DSP\arm_math.h ****  * return <code>ARM_MATH_SUCCESS</code>.
 266:C:/Users/VMORAIS/Documents/DAVE_WS/1p_inverter_200V/Dave/Generated/CMSIS_DSP\arm_math.h ****  */
 267:C:/Users/VMORAIS/Documents/DAVE_WS/1p_inverter_200V/Dave/Generated/CMSIS_DSP\arm_math.h **** 
 268:C:/Users/VMORAIS/Documents/DAVE_WS/1p_inverter_200V/Dave/Generated/CMSIS_DSP\arm_math.h **** /**
 269:C:/Users/VMORAIS/Documents/DAVE_WS/1p_inverter_200V/Dave/Generated/CMSIS_DSP\arm_math.h ****  * @defgroup groupTransforms Transform Functions
 270:C:/Users/VMORAIS/Documents/DAVE_WS/1p_inverter_200V/Dave/Generated/CMSIS_DSP\arm_math.h ****  */
 271:C:/Users/VMORAIS/Documents/DAVE_WS/1p_inverter_200V/Dave/Generated/CMSIS_DSP\arm_math.h **** 
 272:C:/Users/VMORAIS/Documents/DAVE_WS/1p_inverter_200V/Dave/Generated/CMSIS_DSP\arm_math.h **** /**
 273:C:/Users/VMORAIS/Documents/DAVE_WS/1p_inverter_200V/Dave/Generated/CMSIS_DSP\arm_math.h ****  * @defgroup groupController Controller Functions
 274:C:/Users/VMORAIS/Documents/DAVE_WS/1p_inverter_200V/Dave/Generated/CMSIS_DSP\arm_math.h ****  */
 275:C:/Users/VMORAIS/Documents/DAVE_WS/1p_inverter_200V/Dave/Generated/CMSIS_DSP\arm_math.h **** 
 276:C:/Users/VMORAIS/Documents/DAVE_WS/1p_inverter_200V/Dave/Generated/CMSIS_DSP\arm_math.h **** /**
 277:C:/Users/VMORAIS/Documents/DAVE_WS/1p_inverter_200V/Dave/Generated/CMSIS_DSP\arm_math.h ****  * @defgroup groupStats Statistics Functions
 278:C:/Users/VMORAIS/Documents/DAVE_WS/1p_inverter_200V/Dave/Generated/CMSIS_DSP\arm_math.h ****  */
 279:C:/Users/VMORAIS/Documents/DAVE_WS/1p_inverter_200V/Dave/Generated/CMSIS_DSP\arm_math.h **** /**
 280:C:/Users/VMORAIS/Documents/DAVE_WS/1p_inverter_200V/Dave/Generated/CMSIS_DSP\arm_math.h ****  * @defgroup groupSupport Support Functions
 281:C:/Users/VMORAIS/Documents/DAVE_WS/1p_inverter_200V/Dave/Generated/CMSIS_DSP\arm_math.h ****  */
 282:C:/Users/VMORAIS/Documents/DAVE_WS/1p_inverter_200V/Dave/Generated/CMSIS_DSP\arm_math.h **** 
 283:C:/Users/VMORAIS/Documents/DAVE_WS/1p_inverter_200V/Dave/Generated/CMSIS_DSP\arm_math.h **** /**
 284:C:/Users/VMORAIS/Documents/DAVE_WS/1p_inverter_200V/Dave/Generated/CMSIS_DSP\arm_math.h ****  * @defgroup groupInterpolation Interpolation Functions
 285:C:/Users/VMORAIS/Documents/DAVE_WS/1p_inverter_200V/Dave/Generated/CMSIS_DSP\arm_math.h ****  * These functions perform 1- and 2-dimensional interpolation of data.
 286:C:/Users/VMORAIS/Documents/DAVE_WS/1p_inverter_200V/Dave/Generated/CMSIS_DSP\arm_math.h ****  * Linear interpolation is used for 1-dimensional data and
 287:C:/Users/VMORAIS/Documents/DAVE_WS/1p_inverter_200V/Dave/Generated/CMSIS_DSP\arm_math.h ****  * bilinear interpolation is used for 2-dimensional data.
 288:C:/Users/VMORAIS/Documents/DAVE_WS/1p_inverter_200V/Dave/Generated/CMSIS_DSP\arm_math.h ****  */
 289:C:/Users/VMORAIS/Documents/DAVE_WS/1p_inverter_200V/Dave/Generated/CMSIS_DSP\arm_math.h **** 
 290:C:/Users/VMORAIS/Documents/DAVE_WS/1p_inverter_200V/Dave/Generated/CMSIS_DSP\arm_math.h **** /**
 291:C:/Users/VMORAIS/Documents/DAVE_WS/1p_inverter_200V/Dave/Generated/CMSIS_DSP\arm_math.h ****  * @defgroup groupExamples Examples
 292:C:/Users/VMORAIS/Documents/DAVE_WS/1p_inverter_200V/Dave/Generated/CMSIS_DSP\arm_math.h ****  */
 293:C:/Users/VMORAIS/Documents/DAVE_WS/1p_inverter_200V/Dave/Generated/CMSIS_DSP\arm_math.h **** #ifndef _ARM_MATH_H
 294:C:/Users/VMORAIS/Documents/DAVE_WS/1p_inverter_200V/Dave/Generated/CMSIS_DSP\arm_math.h **** #define _ARM_MATH_H
 295:C:/Users/VMORAIS/Documents/DAVE_WS/1p_inverter_200V/Dave/Generated/CMSIS_DSP\arm_math.h **** 
 296:C:/Users/VMORAIS/Documents/DAVE_WS/1p_inverter_200V/Dave/Generated/CMSIS_DSP\arm_math.h **** /* ignore some GCC warnings */
 297:C:/Users/VMORAIS/Documents/DAVE_WS/1p_inverter_200V/Dave/Generated/CMSIS_DSP\arm_math.h **** #if defined ( __GNUC__ )
 298:C:/Users/VMORAIS/Documents/DAVE_WS/1p_inverter_200V/Dave/Generated/CMSIS_DSP\arm_math.h **** #pragma GCC diagnostic push
 299:C:/Users/VMORAIS/Documents/DAVE_WS/1p_inverter_200V/Dave/Generated/CMSIS_DSP\arm_math.h **** #pragma GCC diagnostic ignored "-Wsign-conversion"
 300:C:/Users/VMORAIS/Documents/DAVE_WS/1p_inverter_200V/Dave/Generated/CMSIS_DSP\arm_math.h **** #pragma GCC diagnostic ignored "-Wconversion"
 301:C:/Users/VMORAIS/Documents/DAVE_WS/1p_inverter_200V/Dave/Generated/CMSIS_DSP\arm_math.h **** #pragma GCC diagnostic ignored "-Wunused-parameter"
 302:C:/Users/VMORAIS/Documents/DAVE_WS/1p_inverter_200V/Dave/Generated/CMSIS_DSP\arm_math.h **** #endif
 303:C:/Users/VMORAIS/Documents/DAVE_WS/1p_inverter_200V/Dave/Generated/CMSIS_DSP\arm_math.h **** 
 304:C:/Users/VMORAIS/Documents/DAVE_WS/1p_inverter_200V/Dave/Generated/CMSIS_DSP\arm_math.h **** #define __CMSIS_GENERIC         /* disable NVIC and Systick functions */
 305:C:/Users/VMORAIS/Documents/DAVE_WS/1p_inverter_200V/Dave/Generated/CMSIS_DSP\arm_math.h **** 
 306:C:/Users/VMORAIS/Documents/DAVE_WS/1p_inverter_200V/Dave/Generated/CMSIS_DSP\arm_math.h **** #if defined(ARM_MATH_CM7)
 307:C:/Users/VMORAIS/Documents/DAVE_WS/1p_inverter_200V/Dave/Generated/CMSIS_DSP\arm_math.h ****   #include "core_cm7.h"
 308:C:/Users/VMORAIS/Documents/DAVE_WS/1p_inverter_200V/Dave/Generated/CMSIS_DSP\arm_math.h ****   #define ARM_MATH_DSP
 309:C:/Users/VMORAIS/Documents/DAVE_WS/1p_inverter_200V/Dave/Generated/CMSIS_DSP\arm_math.h **** #elif defined (ARM_MATH_CM4)
 310:C:/Users/VMORAIS/Documents/DAVE_WS/1p_inverter_200V/Dave/Generated/CMSIS_DSP\arm_math.h ****   #include "core_cm4.h"
 311:C:/Users/VMORAIS/Documents/DAVE_WS/1p_inverter_200V/Dave/Generated/CMSIS_DSP\arm_math.h ****   #define ARM_MATH_DSP
 312:C:/Users/VMORAIS/Documents/DAVE_WS/1p_inverter_200V/Dave/Generated/CMSIS_DSP\arm_math.h **** #elif defined (ARM_MATH_CM3)
 313:C:/Users/VMORAIS/Documents/DAVE_WS/1p_inverter_200V/Dave/Generated/CMSIS_DSP\arm_math.h ****   #include "core_cm3.h"
 314:C:/Users/VMORAIS/Documents/DAVE_WS/1p_inverter_200V/Dave/Generated/CMSIS_DSP\arm_math.h **** #elif defined (ARM_MATH_CM0)
 315:C:/Users/VMORAIS/Documents/DAVE_WS/1p_inverter_200V/Dave/Generated/CMSIS_DSP\arm_math.h ****   #include "core_cm0.h"
 316:C:/Users/VMORAIS/Documents/DAVE_WS/1p_inverter_200V/Dave/Generated/CMSIS_DSP\arm_math.h ****   #define ARM_MATH_CM0_FAMILY
 317:C:/Users/VMORAIS/Documents/DAVE_WS/1p_inverter_200V/Dave/Generated/CMSIS_DSP\arm_math.h **** #elif defined (ARM_MATH_CM0PLUS)
 318:C:/Users/VMORAIS/Documents/DAVE_WS/1p_inverter_200V/Dave/Generated/CMSIS_DSP\arm_math.h ****   #include "core_cm0plus.h"
 319:C:/Users/VMORAIS/Documents/DAVE_WS/1p_inverter_200V/Dave/Generated/CMSIS_DSP\arm_math.h ****   #define ARM_MATH_CM0_FAMILY
 320:C:/Users/VMORAIS/Documents/DAVE_WS/1p_inverter_200V/Dave/Generated/CMSIS_DSP\arm_math.h **** #elif defined (ARM_MATH_ARMV8MBL)
 321:C:/Users/VMORAIS/Documents/DAVE_WS/1p_inverter_200V/Dave/Generated/CMSIS_DSP\arm_math.h ****   #include "core_armv8mbl.h"
 322:C:/Users/VMORAIS/Documents/DAVE_WS/1p_inverter_200V/Dave/Generated/CMSIS_DSP\arm_math.h ****   #define ARM_MATH_CM0_FAMILY
 323:C:/Users/VMORAIS/Documents/DAVE_WS/1p_inverter_200V/Dave/Generated/CMSIS_DSP\arm_math.h **** #elif defined (ARM_MATH_ARMV8MML)
 324:C:/Users/VMORAIS/Documents/DAVE_WS/1p_inverter_200V/Dave/Generated/CMSIS_DSP\arm_math.h ****   #include "core_armv8mml.h"
 325:C:/Users/VMORAIS/Documents/DAVE_WS/1p_inverter_200V/Dave/Generated/CMSIS_DSP\arm_math.h ****   #if (defined (__DSP_PRESENT) && (__DSP_PRESENT == 1))
 326:C:/Users/VMORAIS/Documents/DAVE_WS/1p_inverter_200V/Dave/Generated/CMSIS_DSP\arm_math.h ****     #define ARM_MATH_DSP
 327:C:/Users/VMORAIS/Documents/DAVE_WS/1p_inverter_200V/Dave/Generated/CMSIS_DSP\arm_math.h ****   #endif
 328:C:/Users/VMORAIS/Documents/DAVE_WS/1p_inverter_200V/Dave/Generated/CMSIS_DSP\arm_math.h **** #else
 329:C:/Users/VMORAIS/Documents/DAVE_WS/1p_inverter_200V/Dave/Generated/CMSIS_DSP\arm_math.h ****   #error "Define according the used Cortex core ARM_MATH_CM7, ARM_MATH_CM4, ARM_MATH_CM3, ARM_MATH_
 330:C:/Users/VMORAIS/Documents/DAVE_WS/1p_inverter_200V/Dave/Generated/CMSIS_DSP\arm_math.h **** #endif
 331:C:/Users/VMORAIS/Documents/DAVE_WS/1p_inverter_200V/Dave/Generated/CMSIS_DSP\arm_math.h **** 
 332:C:/Users/VMORAIS/Documents/DAVE_WS/1p_inverter_200V/Dave/Generated/CMSIS_DSP\arm_math.h **** #undef  __CMSIS_GENERIC         /* enable NVIC and Systick functions */
 333:C:/Users/VMORAIS/Documents/DAVE_WS/1p_inverter_200V/Dave/Generated/CMSIS_DSP\arm_math.h **** #include "string.h"
 334:C:/Users/VMORAIS/Documents/DAVE_WS/1p_inverter_200V/Dave/Generated/CMSIS_DSP\arm_math.h **** #include "math.h"
 335:C:/Users/VMORAIS/Documents/DAVE_WS/1p_inverter_200V/Dave/Generated/CMSIS_DSP\arm_math.h **** #ifdef   __cplusplus
 336:C:/Users/VMORAIS/Documents/DAVE_WS/1p_inverter_200V/Dave/Generated/CMSIS_DSP\arm_math.h **** extern "C"
 337:C:/Users/VMORAIS/Documents/DAVE_WS/1p_inverter_200V/Dave/Generated/CMSIS_DSP\arm_math.h **** {
 338:C:/Users/VMORAIS/Documents/DAVE_WS/1p_inverter_200V/Dave/Generated/CMSIS_DSP\arm_math.h **** #endif
 339:C:/Users/VMORAIS/Documents/DAVE_WS/1p_inverter_200V/Dave/Generated/CMSIS_DSP\arm_math.h **** 
 340:C:/Users/VMORAIS/Documents/DAVE_WS/1p_inverter_200V/Dave/Generated/CMSIS_DSP\arm_math.h **** 
 341:C:/Users/VMORAIS/Documents/DAVE_WS/1p_inverter_200V/Dave/Generated/CMSIS_DSP\arm_math.h ****   /**
 342:C:/Users/VMORAIS/Documents/DAVE_WS/1p_inverter_200V/Dave/Generated/CMSIS_DSP\arm_math.h ****    * @brief Macros required for reciprocal calculation in Normalized LMS
 343:C:/Users/VMORAIS/Documents/DAVE_WS/1p_inverter_200V/Dave/Generated/CMSIS_DSP\arm_math.h ****    */
 344:C:/Users/VMORAIS/Documents/DAVE_WS/1p_inverter_200V/Dave/Generated/CMSIS_DSP\arm_math.h **** 
 345:C:/Users/VMORAIS/Documents/DAVE_WS/1p_inverter_200V/Dave/Generated/CMSIS_DSP\arm_math.h **** #define DELTA_Q31          (0x100)
 346:C:/Users/VMORAIS/Documents/DAVE_WS/1p_inverter_200V/Dave/Generated/CMSIS_DSP\arm_math.h **** #define DELTA_Q15          0x5
 347:C:/Users/VMORAIS/Documents/DAVE_WS/1p_inverter_200V/Dave/Generated/CMSIS_DSP\arm_math.h **** #define INDEX_MASK         0x0000003F
 348:C:/Users/VMORAIS/Documents/DAVE_WS/1p_inverter_200V/Dave/Generated/CMSIS_DSP\arm_math.h **** #ifndef PI
 349:C:/Users/VMORAIS/Documents/DAVE_WS/1p_inverter_200V/Dave/Generated/CMSIS_DSP\arm_math.h ****   #define PI               3.14159265358979f
 350:C:/Users/VMORAIS/Documents/DAVE_WS/1p_inverter_200V/Dave/Generated/CMSIS_DSP\arm_math.h **** #endif
 351:C:/Users/VMORAIS/Documents/DAVE_WS/1p_inverter_200V/Dave/Generated/CMSIS_DSP\arm_math.h **** 
 352:C:/Users/VMORAIS/Documents/DAVE_WS/1p_inverter_200V/Dave/Generated/CMSIS_DSP\arm_math.h ****   /**
 353:C:/Users/VMORAIS/Documents/DAVE_WS/1p_inverter_200V/Dave/Generated/CMSIS_DSP\arm_math.h ****    * @brief Macros required for SINE and COSINE Fast math approximations
 354:C:/Users/VMORAIS/Documents/DAVE_WS/1p_inverter_200V/Dave/Generated/CMSIS_DSP\arm_math.h ****    */
 355:C:/Users/VMORAIS/Documents/DAVE_WS/1p_inverter_200V/Dave/Generated/CMSIS_DSP\arm_math.h **** 
 356:C:/Users/VMORAIS/Documents/DAVE_WS/1p_inverter_200V/Dave/Generated/CMSIS_DSP\arm_math.h **** #define FAST_MATH_TABLE_SIZE  512
 357:C:/Users/VMORAIS/Documents/DAVE_WS/1p_inverter_200V/Dave/Generated/CMSIS_DSP\arm_math.h **** #define FAST_MATH_Q31_SHIFT   (32 - 10)
 358:C:/Users/VMORAIS/Documents/DAVE_WS/1p_inverter_200V/Dave/Generated/CMSIS_DSP\arm_math.h **** #define FAST_MATH_Q15_SHIFT   (16 - 10)
 359:C:/Users/VMORAIS/Documents/DAVE_WS/1p_inverter_200V/Dave/Generated/CMSIS_DSP\arm_math.h **** #define CONTROLLER_Q31_SHIFT  (32 - 9)
 360:C:/Users/VMORAIS/Documents/DAVE_WS/1p_inverter_200V/Dave/Generated/CMSIS_DSP\arm_math.h **** #define TABLE_SPACING_Q31     0x400000
 361:C:/Users/VMORAIS/Documents/DAVE_WS/1p_inverter_200V/Dave/Generated/CMSIS_DSP\arm_math.h **** #define TABLE_SPACING_Q15     0x80
 362:C:/Users/VMORAIS/Documents/DAVE_WS/1p_inverter_200V/Dave/Generated/CMSIS_DSP\arm_math.h **** 
 363:C:/Users/VMORAIS/Documents/DAVE_WS/1p_inverter_200V/Dave/Generated/CMSIS_DSP\arm_math.h ****   /**
 364:C:/Users/VMORAIS/Documents/DAVE_WS/1p_inverter_200V/Dave/Generated/CMSIS_DSP\arm_math.h ****    * @brief Macros required for SINE and COSINE Controller functions
 365:C:/Users/VMORAIS/Documents/DAVE_WS/1p_inverter_200V/Dave/Generated/CMSIS_DSP\arm_math.h ****    */
 366:C:/Users/VMORAIS/Documents/DAVE_WS/1p_inverter_200V/Dave/Generated/CMSIS_DSP\arm_math.h ****   /* 1.31(q31) Fixed value of 2/360 */
 367:C:/Users/VMORAIS/Documents/DAVE_WS/1p_inverter_200V/Dave/Generated/CMSIS_DSP\arm_math.h ****   /* -1 to +1 is divided into 360 values so total spacing is (2/360) */
 368:C:/Users/VMORAIS/Documents/DAVE_WS/1p_inverter_200V/Dave/Generated/CMSIS_DSP\arm_math.h **** #define INPUT_SPACING         0xB60B61
 369:C:/Users/VMORAIS/Documents/DAVE_WS/1p_inverter_200V/Dave/Generated/CMSIS_DSP\arm_math.h **** 
 370:C:/Users/VMORAIS/Documents/DAVE_WS/1p_inverter_200V/Dave/Generated/CMSIS_DSP\arm_math.h ****   /**
 371:C:/Users/VMORAIS/Documents/DAVE_WS/1p_inverter_200V/Dave/Generated/CMSIS_DSP\arm_math.h ****    * @brief Macro for Unaligned Support
 372:C:/Users/VMORAIS/Documents/DAVE_WS/1p_inverter_200V/Dave/Generated/CMSIS_DSP\arm_math.h ****    */
 373:C:/Users/VMORAIS/Documents/DAVE_WS/1p_inverter_200V/Dave/Generated/CMSIS_DSP\arm_math.h **** #ifndef UNALIGNED_SUPPORT_DISABLE
 374:C:/Users/VMORAIS/Documents/DAVE_WS/1p_inverter_200V/Dave/Generated/CMSIS_DSP\arm_math.h ****     #define ALIGN4
 375:C:/Users/VMORAIS/Documents/DAVE_WS/1p_inverter_200V/Dave/Generated/CMSIS_DSP\arm_math.h **** #else
 376:C:/Users/VMORAIS/Documents/DAVE_WS/1p_inverter_200V/Dave/Generated/CMSIS_DSP\arm_math.h ****   #if defined  (__GNUC__)
 377:C:/Users/VMORAIS/Documents/DAVE_WS/1p_inverter_200V/Dave/Generated/CMSIS_DSP\arm_math.h ****     #define ALIGN4 __attribute__((aligned(4)))
 378:C:/Users/VMORAIS/Documents/DAVE_WS/1p_inverter_200V/Dave/Generated/CMSIS_DSP\arm_math.h ****   #else
 379:C:/Users/VMORAIS/Documents/DAVE_WS/1p_inverter_200V/Dave/Generated/CMSIS_DSP\arm_math.h ****     #define ALIGN4 __align(4)
 380:C:/Users/VMORAIS/Documents/DAVE_WS/1p_inverter_200V/Dave/Generated/CMSIS_DSP\arm_math.h ****   #endif
 381:C:/Users/VMORAIS/Documents/DAVE_WS/1p_inverter_200V/Dave/Generated/CMSIS_DSP\arm_math.h **** #endif   /* #ifndef UNALIGNED_SUPPORT_DISABLE */
 382:C:/Users/VMORAIS/Documents/DAVE_WS/1p_inverter_200V/Dave/Generated/CMSIS_DSP\arm_math.h **** 
 383:C:/Users/VMORAIS/Documents/DAVE_WS/1p_inverter_200V/Dave/Generated/CMSIS_DSP\arm_math.h ****   /**
 384:C:/Users/VMORAIS/Documents/DAVE_WS/1p_inverter_200V/Dave/Generated/CMSIS_DSP\arm_math.h ****    * @brief Error status returned by some functions in the library.
 385:C:/Users/VMORAIS/Documents/DAVE_WS/1p_inverter_200V/Dave/Generated/CMSIS_DSP\arm_math.h ****    */
 386:C:/Users/VMORAIS/Documents/DAVE_WS/1p_inverter_200V/Dave/Generated/CMSIS_DSP\arm_math.h **** 
 387:C:/Users/VMORAIS/Documents/DAVE_WS/1p_inverter_200V/Dave/Generated/CMSIS_DSP\arm_math.h ****   typedef enum
 388:C:/Users/VMORAIS/Documents/DAVE_WS/1p_inverter_200V/Dave/Generated/CMSIS_DSP\arm_math.h ****   {
 389:C:/Users/VMORAIS/Documents/DAVE_WS/1p_inverter_200V/Dave/Generated/CMSIS_DSP\arm_math.h ****     ARM_MATH_SUCCESS = 0,                /**< No error */
 390:C:/Users/VMORAIS/Documents/DAVE_WS/1p_inverter_200V/Dave/Generated/CMSIS_DSP\arm_math.h ****     ARM_MATH_ARGUMENT_ERROR = -1,        /**< One or more arguments are incorrect */
 391:C:/Users/VMORAIS/Documents/DAVE_WS/1p_inverter_200V/Dave/Generated/CMSIS_DSP\arm_math.h ****     ARM_MATH_LENGTH_ERROR = -2,          /**< Length of data buffer is incorrect */
 392:C:/Users/VMORAIS/Documents/DAVE_WS/1p_inverter_200V/Dave/Generated/CMSIS_DSP\arm_math.h ****     ARM_MATH_SIZE_MISMATCH = -3,         /**< Size of matrices is not compatible with the operation
 393:C:/Users/VMORAIS/Documents/DAVE_WS/1p_inverter_200V/Dave/Generated/CMSIS_DSP\arm_math.h ****     ARM_MATH_NANINF = -4,                /**< Not-a-number (NaN) or infinity is generated */
 394:C:/Users/VMORAIS/Documents/DAVE_WS/1p_inverter_200V/Dave/Generated/CMSIS_DSP\arm_math.h ****     ARM_MATH_SINGULAR = -5,              /**< Generated by matrix inversion if the input matrix is 
 395:C:/Users/VMORAIS/Documents/DAVE_WS/1p_inverter_200V/Dave/Generated/CMSIS_DSP\arm_math.h ****     ARM_MATH_TEST_FAILURE = -6           /**< Test Failed  */
 396:C:/Users/VMORAIS/Documents/DAVE_WS/1p_inverter_200V/Dave/Generated/CMSIS_DSP\arm_math.h ****   } arm_status;
 397:C:/Users/VMORAIS/Documents/DAVE_WS/1p_inverter_200V/Dave/Generated/CMSIS_DSP\arm_math.h **** 
 398:C:/Users/VMORAIS/Documents/DAVE_WS/1p_inverter_200V/Dave/Generated/CMSIS_DSP\arm_math.h ****   /**
 399:C:/Users/VMORAIS/Documents/DAVE_WS/1p_inverter_200V/Dave/Generated/CMSIS_DSP\arm_math.h ****    * @brief 8-bit fractional data type in 1.7 format.
 400:C:/Users/VMORAIS/Documents/DAVE_WS/1p_inverter_200V/Dave/Generated/CMSIS_DSP\arm_math.h ****    */
 401:C:/Users/VMORAIS/Documents/DAVE_WS/1p_inverter_200V/Dave/Generated/CMSIS_DSP\arm_math.h ****   typedef int8_t q7_t;
 402:C:/Users/VMORAIS/Documents/DAVE_WS/1p_inverter_200V/Dave/Generated/CMSIS_DSP\arm_math.h **** 
 403:C:/Users/VMORAIS/Documents/DAVE_WS/1p_inverter_200V/Dave/Generated/CMSIS_DSP\arm_math.h ****   /**
 404:C:/Users/VMORAIS/Documents/DAVE_WS/1p_inverter_200V/Dave/Generated/CMSIS_DSP\arm_math.h ****    * @brief 16-bit fractional data type in 1.15 format.
 405:C:/Users/VMORAIS/Documents/DAVE_WS/1p_inverter_200V/Dave/Generated/CMSIS_DSP\arm_math.h ****    */
 406:C:/Users/VMORAIS/Documents/DAVE_WS/1p_inverter_200V/Dave/Generated/CMSIS_DSP\arm_math.h ****   typedef int16_t q15_t;
 407:C:/Users/VMORAIS/Documents/DAVE_WS/1p_inverter_200V/Dave/Generated/CMSIS_DSP\arm_math.h **** 
 408:C:/Users/VMORAIS/Documents/DAVE_WS/1p_inverter_200V/Dave/Generated/CMSIS_DSP\arm_math.h ****   /**
 409:C:/Users/VMORAIS/Documents/DAVE_WS/1p_inverter_200V/Dave/Generated/CMSIS_DSP\arm_math.h ****    * @brief 32-bit fractional data type in 1.31 format.
 410:C:/Users/VMORAIS/Documents/DAVE_WS/1p_inverter_200V/Dave/Generated/CMSIS_DSP\arm_math.h ****    */
 411:C:/Users/VMORAIS/Documents/DAVE_WS/1p_inverter_200V/Dave/Generated/CMSIS_DSP\arm_math.h ****   typedef int32_t q31_t;
 412:C:/Users/VMORAIS/Documents/DAVE_WS/1p_inverter_200V/Dave/Generated/CMSIS_DSP\arm_math.h **** 
 413:C:/Users/VMORAIS/Documents/DAVE_WS/1p_inverter_200V/Dave/Generated/CMSIS_DSP\arm_math.h ****   /**
 414:C:/Users/VMORAIS/Documents/DAVE_WS/1p_inverter_200V/Dave/Generated/CMSIS_DSP\arm_math.h ****    * @brief 64-bit fractional data type in 1.63 format.
 415:C:/Users/VMORAIS/Documents/DAVE_WS/1p_inverter_200V/Dave/Generated/CMSIS_DSP\arm_math.h ****    */
 416:C:/Users/VMORAIS/Documents/DAVE_WS/1p_inverter_200V/Dave/Generated/CMSIS_DSP\arm_math.h ****   typedef int64_t q63_t;
 417:C:/Users/VMORAIS/Documents/DAVE_WS/1p_inverter_200V/Dave/Generated/CMSIS_DSP\arm_math.h **** 
 418:C:/Users/VMORAIS/Documents/DAVE_WS/1p_inverter_200V/Dave/Generated/CMSIS_DSP\arm_math.h ****   /**
 419:C:/Users/VMORAIS/Documents/DAVE_WS/1p_inverter_200V/Dave/Generated/CMSIS_DSP\arm_math.h ****    * @brief 32-bit floating-point type definition.
 420:C:/Users/VMORAIS/Documents/DAVE_WS/1p_inverter_200V/Dave/Generated/CMSIS_DSP\arm_math.h ****    */
 421:C:/Users/VMORAIS/Documents/DAVE_WS/1p_inverter_200V/Dave/Generated/CMSIS_DSP\arm_math.h ****   typedef float float32_t;
 422:C:/Users/VMORAIS/Documents/DAVE_WS/1p_inverter_200V/Dave/Generated/CMSIS_DSP\arm_math.h **** 
 423:C:/Users/VMORAIS/Documents/DAVE_WS/1p_inverter_200V/Dave/Generated/CMSIS_DSP\arm_math.h ****   /**
 424:C:/Users/VMORAIS/Documents/DAVE_WS/1p_inverter_200V/Dave/Generated/CMSIS_DSP\arm_math.h ****    * @brief 64-bit floating-point type definition.
 425:C:/Users/VMORAIS/Documents/DAVE_WS/1p_inverter_200V/Dave/Generated/CMSIS_DSP\arm_math.h ****    */
 426:C:/Users/VMORAIS/Documents/DAVE_WS/1p_inverter_200V/Dave/Generated/CMSIS_DSP\arm_math.h ****   typedef double float64_t;
 427:C:/Users/VMORAIS/Documents/DAVE_WS/1p_inverter_200V/Dave/Generated/CMSIS_DSP\arm_math.h **** 
 428:C:/Users/VMORAIS/Documents/DAVE_WS/1p_inverter_200V/Dave/Generated/CMSIS_DSP\arm_math.h ****   /**
 429:C:/Users/VMORAIS/Documents/DAVE_WS/1p_inverter_200V/Dave/Generated/CMSIS_DSP\arm_math.h ****    * @brief definition to read/write two 16 bit values.
 430:C:/Users/VMORAIS/Documents/DAVE_WS/1p_inverter_200V/Dave/Generated/CMSIS_DSP\arm_math.h ****    */
 431:C:/Users/VMORAIS/Documents/DAVE_WS/1p_inverter_200V/Dave/Generated/CMSIS_DSP\arm_math.h **** #if   defined ( __CC_ARM )
 432:C:/Users/VMORAIS/Documents/DAVE_WS/1p_inverter_200V/Dave/Generated/CMSIS_DSP\arm_math.h ****   #define __SIMD32_TYPE int32_t __packed
 433:C:/Users/VMORAIS/Documents/DAVE_WS/1p_inverter_200V/Dave/Generated/CMSIS_DSP\arm_math.h ****   #define CMSIS_UNUSED __attribute__((unused))
 434:C:/Users/VMORAIS/Documents/DAVE_WS/1p_inverter_200V/Dave/Generated/CMSIS_DSP\arm_math.h ****   #define CMSIS_INLINE __attribute__((always_inline))
 435:C:/Users/VMORAIS/Documents/DAVE_WS/1p_inverter_200V/Dave/Generated/CMSIS_DSP\arm_math.h **** 
 436:C:/Users/VMORAIS/Documents/DAVE_WS/1p_inverter_200V/Dave/Generated/CMSIS_DSP\arm_math.h **** #elif defined ( __ARMCC_VERSION ) && ( __ARMCC_VERSION >= 6010050 )
 437:C:/Users/VMORAIS/Documents/DAVE_WS/1p_inverter_200V/Dave/Generated/CMSIS_DSP\arm_math.h ****   #define __SIMD32_TYPE int32_t
 438:C:/Users/VMORAIS/Documents/DAVE_WS/1p_inverter_200V/Dave/Generated/CMSIS_DSP\arm_math.h ****   #define CMSIS_UNUSED __attribute__((unused))
 439:C:/Users/VMORAIS/Documents/DAVE_WS/1p_inverter_200V/Dave/Generated/CMSIS_DSP\arm_math.h ****   #define CMSIS_INLINE __attribute__((always_inline))
 440:C:/Users/VMORAIS/Documents/DAVE_WS/1p_inverter_200V/Dave/Generated/CMSIS_DSP\arm_math.h **** 
 441:C:/Users/VMORAIS/Documents/DAVE_WS/1p_inverter_200V/Dave/Generated/CMSIS_DSP\arm_math.h **** #elif defined ( __GNUC__ )
 442:C:/Users/VMORAIS/Documents/DAVE_WS/1p_inverter_200V/Dave/Generated/CMSIS_DSP\arm_math.h ****   #define __SIMD32_TYPE int32_t
 443:C:/Users/VMORAIS/Documents/DAVE_WS/1p_inverter_200V/Dave/Generated/CMSIS_DSP\arm_math.h ****   #define CMSIS_UNUSED __attribute__((unused))
 444:C:/Users/VMORAIS/Documents/DAVE_WS/1p_inverter_200V/Dave/Generated/CMSIS_DSP\arm_math.h ****   #define CMSIS_INLINE __attribute__((always_inline))
 445:C:/Users/VMORAIS/Documents/DAVE_WS/1p_inverter_200V/Dave/Generated/CMSIS_DSP\arm_math.h **** 
 446:C:/Users/VMORAIS/Documents/DAVE_WS/1p_inverter_200V/Dave/Generated/CMSIS_DSP\arm_math.h **** #elif defined ( __ICCARM__ )
 447:C:/Users/VMORAIS/Documents/DAVE_WS/1p_inverter_200V/Dave/Generated/CMSIS_DSP\arm_math.h ****   #define __SIMD32_TYPE int32_t __packed
 448:C:/Users/VMORAIS/Documents/DAVE_WS/1p_inverter_200V/Dave/Generated/CMSIS_DSP\arm_math.h ****   #define CMSIS_UNUSED
 449:C:/Users/VMORAIS/Documents/DAVE_WS/1p_inverter_200V/Dave/Generated/CMSIS_DSP\arm_math.h ****   #define CMSIS_INLINE
 450:C:/Users/VMORAIS/Documents/DAVE_WS/1p_inverter_200V/Dave/Generated/CMSIS_DSP\arm_math.h **** 
 451:C:/Users/VMORAIS/Documents/DAVE_WS/1p_inverter_200V/Dave/Generated/CMSIS_DSP\arm_math.h **** #elif defined ( __TI_ARM__ )
 452:C:/Users/VMORAIS/Documents/DAVE_WS/1p_inverter_200V/Dave/Generated/CMSIS_DSP\arm_math.h ****   #define __SIMD32_TYPE int32_t
 453:C:/Users/VMORAIS/Documents/DAVE_WS/1p_inverter_200V/Dave/Generated/CMSIS_DSP\arm_math.h ****   #define CMSIS_UNUSED __attribute__((unused))
 454:C:/Users/VMORAIS/Documents/DAVE_WS/1p_inverter_200V/Dave/Generated/CMSIS_DSP\arm_math.h ****   #define CMSIS_INLINE
 455:C:/Users/VMORAIS/Documents/DAVE_WS/1p_inverter_200V/Dave/Generated/CMSIS_DSP\arm_math.h **** 
 456:C:/Users/VMORAIS/Documents/DAVE_WS/1p_inverter_200V/Dave/Generated/CMSIS_DSP\arm_math.h **** #elif defined ( __CSMC__ )
 457:C:/Users/VMORAIS/Documents/DAVE_WS/1p_inverter_200V/Dave/Generated/CMSIS_DSP\arm_math.h ****   #define __SIMD32_TYPE int32_t
 458:C:/Users/VMORAIS/Documents/DAVE_WS/1p_inverter_200V/Dave/Generated/CMSIS_DSP\arm_math.h ****   #define CMSIS_UNUSED
 459:C:/Users/VMORAIS/Documents/DAVE_WS/1p_inverter_200V/Dave/Generated/CMSIS_DSP\arm_math.h ****   #define CMSIS_INLINE
 460:C:/Users/VMORAIS/Documents/DAVE_WS/1p_inverter_200V/Dave/Generated/CMSIS_DSP\arm_math.h **** 
 461:C:/Users/VMORAIS/Documents/DAVE_WS/1p_inverter_200V/Dave/Generated/CMSIS_DSP\arm_math.h **** #elif defined ( __TASKING__ )
 462:C:/Users/VMORAIS/Documents/DAVE_WS/1p_inverter_200V/Dave/Generated/CMSIS_DSP\arm_math.h ****   #define __SIMD32_TYPE __unaligned int32_t
 463:C:/Users/VMORAIS/Documents/DAVE_WS/1p_inverter_200V/Dave/Generated/CMSIS_DSP\arm_math.h ****   #define CMSIS_UNUSED
 464:C:/Users/VMORAIS/Documents/DAVE_WS/1p_inverter_200V/Dave/Generated/CMSIS_DSP\arm_math.h ****   #define CMSIS_INLINE
 465:C:/Users/VMORAIS/Documents/DAVE_WS/1p_inverter_200V/Dave/Generated/CMSIS_DSP\arm_math.h **** 
 466:C:/Users/VMORAIS/Documents/DAVE_WS/1p_inverter_200V/Dave/Generated/CMSIS_DSP\arm_math.h **** #else
 467:C:/Users/VMORAIS/Documents/DAVE_WS/1p_inverter_200V/Dave/Generated/CMSIS_DSP\arm_math.h ****   #error Unknown compiler
 468:C:/Users/VMORAIS/Documents/DAVE_WS/1p_inverter_200V/Dave/Generated/CMSIS_DSP\arm_math.h **** #endif
 469:C:/Users/VMORAIS/Documents/DAVE_WS/1p_inverter_200V/Dave/Generated/CMSIS_DSP\arm_math.h **** 
 470:C:/Users/VMORAIS/Documents/DAVE_WS/1p_inverter_200V/Dave/Generated/CMSIS_DSP\arm_math.h **** #define __SIMD32(addr)        (*(__SIMD32_TYPE **) & (addr))
 471:C:/Users/VMORAIS/Documents/DAVE_WS/1p_inverter_200V/Dave/Generated/CMSIS_DSP\arm_math.h **** #define __SIMD32_CONST(addr)  ((__SIMD32_TYPE *)(addr))
 472:C:/Users/VMORAIS/Documents/DAVE_WS/1p_inverter_200V/Dave/Generated/CMSIS_DSP\arm_math.h **** #define _SIMD32_OFFSET(addr)  (*(__SIMD32_TYPE *)  (addr))
 473:C:/Users/VMORAIS/Documents/DAVE_WS/1p_inverter_200V/Dave/Generated/CMSIS_DSP\arm_math.h **** #define __SIMD64(addr)        (*(int64_t **) & (addr))
 474:C:/Users/VMORAIS/Documents/DAVE_WS/1p_inverter_200V/Dave/Generated/CMSIS_DSP\arm_math.h **** 
 475:C:/Users/VMORAIS/Documents/DAVE_WS/1p_inverter_200V/Dave/Generated/CMSIS_DSP\arm_math.h **** /* #if defined (ARM_MATH_CM3) || defined (ARM_MATH_CM0_FAMILY) */
 476:C:/Users/VMORAIS/Documents/DAVE_WS/1p_inverter_200V/Dave/Generated/CMSIS_DSP\arm_math.h **** #if !defined (ARM_MATH_DSP)
 477:C:/Users/VMORAIS/Documents/DAVE_WS/1p_inverter_200V/Dave/Generated/CMSIS_DSP\arm_math.h ****   /**
 478:C:/Users/VMORAIS/Documents/DAVE_WS/1p_inverter_200V/Dave/Generated/CMSIS_DSP\arm_math.h ****    * @brief definition to pack two 16 bit values.
 479:C:/Users/VMORAIS/Documents/DAVE_WS/1p_inverter_200V/Dave/Generated/CMSIS_DSP\arm_math.h ****    */
 480:C:/Users/VMORAIS/Documents/DAVE_WS/1p_inverter_200V/Dave/Generated/CMSIS_DSP\arm_math.h **** #define __PKHBT(ARG1, ARG2, ARG3) ( (((int32_t)(ARG1) <<    0) & (int32_t)0x0000FFFF) | \
 481:C:/Users/VMORAIS/Documents/DAVE_WS/1p_inverter_200V/Dave/Generated/CMSIS_DSP\arm_math.h ****                                     (((int32_t)(ARG2) << ARG3) & (int32_t)0xFFFF0000)  )
 482:C:/Users/VMORAIS/Documents/DAVE_WS/1p_inverter_200V/Dave/Generated/CMSIS_DSP\arm_math.h **** #define __PKHTB(ARG1, ARG2, ARG3) ( (((int32_t)(ARG1) <<    0) & (int32_t)0xFFFF0000) | \
 483:C:/Users/VMORAIS/Documents/DAVE_WS/1p_inverter_200V/Dave/Generated/CMSIS_DSP\arm_math.h ****                                     (((int32_t)(ARG2) >> ARG3) & (int32_t)0x0000FFFF)  )
 484:C:/Users/VMORAIS/Documents/DAVE_WS/1p_inverter_200V/Dave/Generated/CMSIS_DSP\arm_math.h **** 
 485:C:/Users/VMORAIS/Documents/DAVE_WS/1p_inverter_200V/Dave/Generated/CMSIS_DSP\arm_math.h **** /* #endif // defined (ARM_MATH_CM3) || defined (ARM_MATH_CM0_FAMILY) */
 486:C:/Users/VMORAIS/Documents/DAVE_WS/1p_inverter_200V/Dave/Generated/CMSIS_DSP\arm_math.h **** #endif /* !defined (ARM_MATH_DSP) */
 487:C:/Users/VMORAIS/Documents/DAVE_WS/1p_inverter_200V/Dave/Generated/CMSIS_DSP\arm_math.h **** 
 488:C:/Users/VMORAIS/Documents/DAVE_WS/1p_inverter_200V/Dave/Generated/CMSIS_DSP\arm_math.h ****    /**
 489:C:/Users/VMORAIS/Documents/DAVE_WS/1p_inverter_200V/Dave/Generated/CMSIS_DSP\arm_math.h ****    * @brief definition to pack four 8 bit values.
 490:C:/Users/VMORAIS/Documents/DAVE_WS/1p_inverter_200V/Dave/Generated/CMSIS_DSP\arm_math.h ****    */
 491:C:/Users/VMORAIS/Documents/DAVE_WS/1p_inverter_200V/Dave/Generated/CMSIS_DSP\arm_math.h **** #ifndef ARM_MATH_BIG_ENDIAN
 492:C:/Users/VMORAIS/Documents/DAVE_WS/1p_inverter_200V/Dave/Generated/CMSIS_DSP\arm_math.h **** 
 493:C:/Users/VMORAIS/Documents/DAVE_WS/1p_inverter_200V/Dave/Generated/CMSIS_DSP\arm_math.h **** #define __PACKq7(v0,v1,v2,v3) ( (((int32_t)(v0) <<  0) & (int32_t)0x000000FF) | \
 494:C:/Users/VMORAIS/Documents/DAVE_WS/1p_inverter_200V/Dave/Generated/CMSIS_DSP\arm_math.h ****                                 (((int32_t)(v1) <<  8) & (int32_t)0x0000FF00) | \
 495:C:/Users/VMORAIS/Documents/DAVE_WS/1p_inverter_200V/Dave/Generated/CMSIS_DSP\arm_math.h ****                                 (((int32_t)(v2) << 16) & (int32_t)0x00FF0000) | \
 496:C:/Users/VMORAIS/Documents/DAVE_WS/1p_inverter_200V/Dave/Generated/CMSIS_DSP\arm_math.h ****                                 (((int32_t)(v3) << 24) & (int32_t)0xFF000000)  )
 497:C:/Users/VMORAIS/Documents/DAVE_WS/1p_inverter_200V/Dave/Generated/CMSIS_DSP\arm_math.h **** #else
 498:C:/Users/VMORAIS/Documents/DAVE_WS/1p_inverter_200V/Dave/Generated/CMSIS_DSP\arm_math.h **** 
 499:C:/Users/VMORAIS/Documents/DAVE_WS/1p_inverter_200V/Dave/Generated/CMSIS_DSP\arm_math.h **** #define __PACKq7(v0,v1,v2,v3) ( (((int32_t)(v3) <<  0) & (int32_t)0x000000FF) | \
 500:C:/Users/VMORAIS/Documents/DAVE_WS/1p_inverter_200V/Dave/Generated/CMSIS_DSP\arm_math.h ****                                 (((int32_t)(v2) <<  8) & (int32_t)0x0000FF00) | \
 501:C:/Users/VMORAIS/Documents/DAVE_WS/1p_inverter_200V/Dave/Generated/CMSIS_DSP\arm_math.h ****                                 (((int32_t)(v1) << 16) & (int32_t)0x00FF0000) | \
 502:C:/Users/VMORAIS/Documents/DAVE_WS/1p_inverter_200V/Dave/Generated/CMSIS_DSP\arm_math.h ****                                 (((int32_t)(v0) << 24) & (int32_t)0xFF000000)  )
 503:C:/Users/VMORAIS/Documents/DAVE_WS/1p_inverter_200V/Dave/Generated/CMSIS_DSP\arm_math.h **** 
 504:C:/Users/VMORAIS/Documents/DAVE_WS/1p_inverter_200V/Dave/Generated/CMSIS_DSP\arm_math.h **** #endif
 505:C:/Users/VMORAIS/Documents/DAVE_WS/1p_inverter_200V/Dave/Generated/CMSIS_DSP\arm_math.h **** 
 506:C:/Users/VMORAIS/Documents/DAVE_WS/1p_inverter_200V/Dave/Generated/CMSIS_DSP\arm_math.h **** 
 507:C:/Users/VMORAIS/Documents/DAVE_WS/1p_inverter_200V/Dave/Generated/CMSIS_DSP\arm_math.h ****   /**
 508:C:/Users/VMORAIS/Documents/DAVE_WS/1p_inverter_200V/Dave/Generated/CMSIS_DSP\arm_math.h ****    * @brief Clips Q63 to Q31 values.
 509:C:/Users/VMORAIS/Documents/DAVE_WS/1p_inverter_200V/Dave/Generated/CMSIS_DSP\arm_math.h ****    */
 510:C:/Users/VMORAIS/Documents/DAVE_WS/1p_inverter_200V/Dave/Generated/CMSIS_DSP\arm_math.h ****   CMSIS_INLINE __STATIC_INLINE q31_t clip_q63_to_q31(
 511:C:/Users/VMORAIS/Documents/DAVE_WS/1p_inverter_200V/Dave/Generated/CMSIS_DSP\arm_math.h ****   q63_t x)
 512:C:/Users/VMORAIS/Documents/DAVE_WS/1p_inverter_200V/Dave/Generated/CMSIS_DSP\arm_math.h ****   {
 513:C:/Users/VMORAIS/Documents/DAVE_WS/1p_inverter_200V/Dave/Generated/CMSIS_DSP\arm_math.h ****     return ((q31_t) (x >> 32) != ((q31_t) x >> 31)) ?
 101              	 .loc 2 513 0 discriminator 4
 102 0074 D7E91C23 	 ldrd r2,[r7,#112]
 103 0078 1900     	 movs r1,r3
 104 007a B963     	 str r1,[r7,#56]
 105 007c DB17     	 asrs r3,r3,#31
 106 007e FB63     	 str r3,[r7,#60]
 107 0080 BA6B     	 ldr r2,[r7,#56]
 108 0082 3B6F     	 ldr r3,[r7,#112]
 109 0084 DB17     	 asrs r3,r3,#31
 514:C:/Users/VMORAIS/Documents/DAVE_WS/1p_inverter_200V/Dave/Generated/CMSIS_DSP\arm_math.h ****       ((0x7FFFFFFF ^ ((q31_t) (x >> 63)))) : (q31_t) x;
 110              	 .loc 2 514 0 discriminator 4
 111 0086 9A42     	 cmp r2,r3
 112 0088 0AD0     	 beq .L6
 113              	 .loc 2 514 0 is_stmt 0
 114 008a D7E91C23 	 ldrd r2,[r7,#112]
 115 008e D917     	 asrs r1,r3,#31
 116 0090 3963     	 str r1,[r7,#48]
 117 0092 DB17     	 asrs r3,r3,#31
 118 0094 7B63     	 str r3,[r7,#52]
 119 0096 3B6B     	 ldr r3,[r7,#48]
 120 0098 83F00043 	 eor r3,r3,#-2147483648
 121 009c DB43     	 mvns r3,r3
 122 009e 00E0     	 b .L8
 123              	.L6:
 124 00a0 3B6F     	 ldr r3,[r7,#112]
 125              	.L8:
 126              	.LBE13:
 127              	.LBE12:
 128              	 .loc 1 101 0 is_stmt 1
 129 00a2 2360     	 str r3,[r4]
 102:../Dave/Generated/CMSIS_DSP/SupportFunctions/arm_float_to_q31.c **** 
 103:../Dave/Generated/CMSIS_DSP/SupportFunctions/arm_float_to_q31.c ****     in = *pIn++;
 130              	 .loc 1 103 0
 131 00a4 D7F88420 	 ldr r2,[r7,#132]
 132 00a8 131D     	 adds r3,r2,#4
 133 00aa C7F88430 	 str r3,[r7,#132]
 134 00ae 1368     	 ldr r3,[r2]
 135 00b0 FB67     	 str r3,[r7,#124]
 104:../Dave/Generated/CMSIS_DSP/SupportFunctions/arm_float_to_q31.c ****     in = (in * 2147483648.0f);
 136              	 .loc 1 104 0
 137 00b2 D7ED1F7A 	 flds s15,[r7,#124]
 138 00b6 9FED8F7A 	 flds s14,.L48
 139 00ba 67EE877A 	 fmuls s15,s15,s14
 140 00be C7ED1F7A 	 fsts s15,[r7,#124]
 105:../Dave/Generated/CMSIS_DSP/SupportFunctions/arm_float_to_q31.c ****     in += in > 0.0f ? 0.5f : -0.5f;
 141              	 .loc 1 105 0
 142 00c2 D7ED1F7A 	 flds s15,[r7,#124]
 143 00c6 F5EEC07A 	 fcmpezs s15
 144 00ca F1EE10FA 	 fmstat
 145 00ce 02DD     	 ble .L44
 146              	 .loc 1 105 0 is_stmt 0 discriminator 1
 147 00d0 F6EE007A 	 fconsts s15,#96
 148 00d4 01E0     	 b .L11
 149              	.L44:
 150              	 .loc 1 105 0 discriminator 2
 151 00d6 FEEE007A 	 fconsts s15,#224
 152              	.L11:
 153              	 .loc 1 105 0 discriminator 4
 154 00da 97ED1F7A 	 flds s14,[r7,#124]
 155 00de 77EE277A 	 fadds s15,s14,s15
 156 00e2 C7ED1F7A 	 fsts s15,[r7,#124]
 106:../Dave/Generated/CMSIS_DSP/SupportFunctions/arm_float_to_q31.c ****     *pDst++ = clip_q63_to_q31((q63_t) (in));
 157              	 .loc 1 106 0 is_stmt 1 discriminator 4
 158 00e6 BC6C     	 ldr r4,[r7,#72]
 159 00e8 231D     	 adds r3,r4,#4
 160 00ea BB64     	 str r3,[r7,#72]
 161 00ec F86F     	 ldr r0,[r7,#124]
 162 00ee FFF7FEFF 	 bl __aeabi_f2lz
 163 00f2 0246     	 mov r2,r0
 164 00f4 0B46     	 mov r3,r1
 165 00f6 C7E91A23 	 strd r2,[r7,#104]
 166              	.LBB14:
 167              	.LBB15:
 513:C:/Users/VMORAIS/Documents/DAVE_WS/1p_inverter_200V/Dave/Generated/CMSIS_DSP\arm_math.h ****       ((0x7FFFFFFF ^ ((q31_t) (x >> 63)))) : (q31_t) x;
 168              	 .loc 2 513 0 discriminator 4
 169 00fa D7E91A23 	 ldrd r2,[r7,#104]
 170 00fe 1900     	 movs r1,r3
 171 0100 B962     	 str r1,[r7,#40]
 172 0102 DB17     	 asrs r3,r3,#31
 173 0104 FB62     	 str r3,[r7,#44]
 174 0106 BA6A     	 ldr r2,[r7,#40]
 175 0108 BB6E     	 ldr r3,[r7,#104]
 176 010a DB17     	 asrs r3,r3,#31
 177              	 .loc 2 514 0 discriminator 4
 178 010c 9A42     	 cmp r2,r3
 179 010e 0AD0     	 beq .L12
 180              	 .loc 2 514 0 is_stmt 0
 181 0110 D7E91A23 	 ldrd r2,[r7,#104]
 182 0114 D917     	 asrs r1,r3,#31
 183 0116 3962     	 str r1,[r7,#32]
 184 0118 DB17     	 asrs r3,r3,#31
 185 011a 7B62     	 str r3,[r7,#36]
 186 011c 3B6A     	 ldr r3,[r7,#32]
 187 011e 83F00043 	 eor r3,r3,#-2147483648
 188 0122 DB43     	 mvns r3,r3
 189 0124 00E0     	 b .L14
 190              	.L12:
 191 0126 BB6E     	 ldr r3,[r7,#104]
 192              	.L14:
 193              	.LBE15:
 194              	.LBE14:
 195              	 .loc 1 106 0 is_stmt 1
 196 0128 2360     	 str r3,[r4]
 107:../Dave/Generated/CMSIS_DSP/SupportFunctions/arm_float_to_q31.c **** 
 108:../Dave/Generated/CMSIS_DSP/SupportFunctions/arm_float_to_q31.c ****     in = *pIn++;
 197              	 .loc 1 108 0
 198 012a D7F88420 	 ldr r2,[r7,#132]
 199 012e 131D     	 adds r3,r2,#4
 200 0130 C7F88430 	 str r3,[r7,#132]
 201 0134 1368     	 ldr r3,[r2]
 202 0136 FB67     	 str r3,[r7,#124]
 109:../Dave/Generated/CMSIS_DSP/SupportFunctions/arm_float_to_q31.c ****     in = (in * 2147483648.0f);
 203              	 .loc 1 109 0
 204 0138 D7ED1F7A 	 flds s15,[r7,#124]
 205 013c 9FED6D7A 	 flds s14,.L48
 206 0140 67EE877A 	 fmuls s15,s15,s14
 207 0144 C7ED1F7A 	 fsts s15,[r7,#124]
 110:../Dave/Generated/CMSIS_DSP/SupportFunctions/arm_float_to_q31.c ****     in += in > 0.0f ? 0.5f : -0.5f;
 208              	 .loc 1 110 0
 209 0148 D7ED1F7A 	 flds s15,[r7,#124]
 210 014c F5EEC07A 	 fcmpezs s15
 211 0150 F1EE10FA 	 fmstat
 212 0154 02DD     	 ble .L45
 213              	 .loc 1 110 0 is_stmt 0 discriminator 1
 214 0156 F6EE007A 	 fconsts s15,#96
 215 015a 01E0     	 b .L17
 216              	.L45:
 217              	 .loc 1 110 0 discriminator 2
 218 015c FEEE007A 	 fconsts s15,#224
 219              	.L17:
 220              	 .loc 1 110 0 discriminator 4
 221 0160 97ED1F7A 	 flds s14,[r7,#124]
 222 0164 77EE277A 	 fadds s15,s14,s15
 223 0168 C7ED1F7A 	 fsts s15,[r7,#124]
 111:../Dave/Generated/CMSIS_DSP/SupportFunctions/arm_float_to_q31.c ****     *pDst++ = clip_q63_to_q31((q63_t) (in));
 224              	 .loc 1 111 0 is_stmt 1 discriminator 4
 225 016c BC6C     	 ldr r4,[r7,#72]
 226 016e 231D     	 adds r3,r4,#4
 227 0170 BB64     	 str r3,[r7,#72]
 228 0172 F86F     	 ldr r0,[r7,#124]
 229 0174 FFF7FEFF 	 bl __aeabi_f2lz
 230 0178 0246     	 mov r2,r0
 231 017a 0B46     	 mov r3,r1
 232 017c C7E91823 	 strd r2,[r7,#96]
 233              	.LBB16:
 234              	.LBB17:
 513:C:/Users/VMORAIS/Documents/DAVE_WS/1p_inverter_200V/Dave/Generated/CMSIS_DSP\arm_math.h ****       ((0x7FFFFFFF ^ ((q31_t) (x >> 63)))) : (q31_t) x;
 235              	 .loc 2 513 0 discriminator 4
 236 0180 D7E91823 	 ldrd r2,[r7,#96]
 237 0184 1900     	 movs r1,r3
 238 0186 B961     	 str r1,[r7,#24]
 239 0188 DB17     	 asrs r3,r3,#31
 240 018a FB61     	 str r3,[r7,#28]
 241 018c BA69     	 ldr r2,[r7,#24]
 242 018e 3B6E     	 ldr r3,[r7,#96]
 243 0190 DB17     	 asrs r3,r3,#31
 244              	 .loc 2 514 0 discriminator 4
 245 0192 9A42     	 cmp r2,r3
 246 0194 0AD0     	 beq .L18
 247              	 .loc 2 514 0 is_stmt 0
 248 0196 D7E91823 	 ldrd r2,[r7,#96]
 249 019a D917     	 asrs r1,r3,#31
 250 019c 3961     	 str r1,[r7,#16]
 251 019e DB17     	 asrs r3,r3,#31
 252 01a0 7B61     	 str r3,[r7,#20]
 253 01a2 3B69     	 ldr r3,[r7,#16]
 254 01a4 83F00043 	 eor r3,r3,#-2147483648
 255 01a8 DB43     	 mvns r3,r3
 256 01aa 00E0     	 b .L20
 257              	.L18:
 258 01ac 3B6E     	 ldr r3,[r7,#96]
 259              	.L20:
 260              	.LBE17:
 261              	.LBE16:
 262              	 .loc 1 111 0 is_stmt 1
 263 01ae 2360     	 str r3,[r4]
 112:../Dave/Generated/CMSIS_DSP/SupportFunctions/arm_float_to_q31.c **** 
 113:../Dave/Generated/CMSIS_DSP/SupportFunctions/arm_float_to_q31.c ****     in = *pIn++;
 264              	 .loc 1 113 0
 265 01b0 D7F88420 	 ldr r2,[r7,#132]
 266 01b4 131D     	 adds r3,r2,#4
 267 01b6 C7F88430 	 str r3,[r7,#132]
 268 01ba 1368     	 ldr r3,[r2]
 269 01bc FB67     	 str r3,[r7,#124]
 114:../Dave/Generated/CMSIS_DSP/SupportFunctions/arm_float_to_q31.c ****     in = (in * 2147483648.0f);
 270              	 .loc 1 114 0
 271 01be D7ED1F7A 	 flds s15,[r7,#124]
 272 01c2 9FED4C7A 	 flds s14,.L48
 273 01c6 67EE877A 	 fmuls s15,s15,s14
 274 01ca C7ED1F7A 	 fsts s15,[r7,#124]
 115:../Dave/Generated/CMSIS_DSP/SupportFunctions/arm_float_to_q31.c ****     in += in > 0.0f ? 0.5f : -0.5f;
 275              	 .loc 1 115 0
 276 01ce D7ED1F7A 	 flds s15,[r7,#124]
 277 01d2 F5EEC07A 	 fcmpezs s15
 278 01d6 F1EE10FA 	 fmstat
 279 01da 02DD     	 ble .L46
 280              	 .loc 1 115 0 is_stmt 0 discriminator 1
 281 01dc F6EE007A 	 fconsts s15,#96
 282 01e0 01E0     	 b .L23
 283              	.L46:
 284              	 .loc 1 115 0 discriminator 2
 285 01e2 FEEE007A 	 fconsts s15,#224
 286              	.L23:
 287              	 .loc 1 115 0 discriminator 4
 288 01e6 97ED1F7A 	 flds s14,[r7,#124]
 289 01ea 77EE277A 	 fadds s15,s14,s15
 290 01ee C7ED1F7A 	 fsts s15,[r7,#124]
 116:../Dave/Generated/CMSIS_DSP/SupportFunctions/arm_float_to_q31.c ****     *pDst++ = clip_q63_to_q31((q63_t) (in));
 291              	 .loc 1 116 0 is_stmt 1 discriminator 4
 292 01f2 BC6C     	 ldr r4,[r7,#72]
 293 01f4 231D     	 adds r3,r4,#4
 294 01f6 BB64     	 str r3,[r7,#72]
 295 01f8 F86F     	 ldr r0,[r7,#124]
 296 01fa FFF7FEFF 	 bl __aeabi_f2lz
 297 01fe 0246     	 mov r2,r0
 298 0200 0B46     	 mov r3,r1
 299 0202 C7E91623 	 strd r2,[r7,#88]
 300              	.LBB18:
 301              	.LBB19:
 513:C:/Users/VMORAIS/Documents/DAVE_WS/1p_inverter_200V/Dave/Generated/CMSIS_DSP\arm_math.h ****       ((0x7FFFFFFF ^ ((q31_t) (x >> 63)))) : (q31_t) x;
 302              	 .loc 2 513 0 discriminator 4
 303 0206 D7E91623 	 ldrd r2,[r7,#88]
 304 020a 1900     	 movs r1,r3
 305 020c B960     	 str r1,[r7,#8]
 306 020e DB17     	 asrs r3,r3,#31
 307 0210 FB60     	 str r3,[r7,#12]
 308 0212 BA68     	 ldr r2,[r7,#8]
 309 0214 BB6D     	 ldr r3,[r7,#88]
 310 0216 DB17     	 asrs r3,r3,#31
 311              	 .loc 2 514 0 discriminator 4
 312 0218 9A42     	 cmp r2,r3
 313 021a 0AD0     	 beq .L24
 314              	 .loc 2 514 0 is_stmt 0
 315 021c D7E91623 	 ldrd r2,[r7,#88]
 316 0220 D917     	 asrs r1,r3,#31
 317 0222 3960     	 str r1,[r7]
 318 0224 DB17     	 asrs r3,r3,#31
 319 0226 7B60     	 str r3,[r7,#4]
 320 0228 3B68     	 ldr r3,[r7]
 321 022a 83F00043 	 eor r3,r3,#-2147483648
 322 022e DB43     	 mvns r3,r3
 323 0230 00E0     	 b .L40
 324              	.L24:
 325 0232 BB6D     	 ldr r3,[r7,#88]
 326              	.L40:
 327              	.LBE19:
 328              	.LBE18:
 329              	 .loc 1 116 0 is_stmt 1 discriminator 4
 330 0234 2360     	 str r3,[r4]
 117:../Dave/Generated/CMSIS_DSP/SupportFunctions/arm_float_to_q31.c **** 
 118:../Dave/Generated/CMSIS_DSP/SupportFunctions/arm_float_to_q31.c **** #else
 119:../Dave/Generated/CMSIS_DSP/SupportFunctions/arm_float_to_q31.c **** 
 120:../Dave/Generated/CMSIS_DSP/SupportFunctions/arm_float_to_q31.c ****     /* C = A * 2147483648 */
 121:../Dave/Generated/CMSIS_DSP/SupportFunctions/arm_float_to_q31.c ****     /* convert from float to Q31 and then store the results in the destination buffer */
 122:../Dave/Generated/CMSIS_DSP/SupportFunctions/arm_float_to_q31.c ****     *pDst++ = clip_q63_to_q31((q63_t) (*pIn++ * 2147483648.0f));
 123:../Dave/Generated/CMSIS_DSP/SupportFunctions/arm_float_to_q31.c ****     *pDst++ = clip_q63_to_q31((q63_t) (*pIn++ * 2147483648.0f));
 124:../Dave/Generated/CMSIS_DSP/SupportFunctions/arm_float_to_q31.c ****     *pDst++ = clip_q63_to_q31((q63_t) (*pIn++ * 2147483648.0f));
 125:../Dave/Generated/CMSIS_DSP/SupportFunctions/arm_float_to_q31.c ****     *pDst++ = clip_q63_to_q31((q63_t) (*pIn++ * 2147483648.0f));
 126:../Dave/Generated/CMSIS_DSP/SupportFunctions/arm_float_to_q31.c **** 
 127:../Dave/Generated/CMSIS_DSP/SupportFunctions/arm_float_to_q31.c **** #endif /*      #ifdef ARM_MATH_ROUNDING        */
 128:../Dave/Generated/CMSIS_DSP/SupportFunctions/arm_float_to_q31.c **** 
 129:../Dave/Generated/CMSIS_DSP/SupportFunctions/arm_float_to_q31.c ****     /* Decrement the loop counter */
 130:../Dave/Generated/CMSIS_DSP/SupportFunctions/arm_float_to_q31.c ****     blkCnt--;
 331              	 .loc 1 130 0 discriminator 4
 332 0236 D7F88030 	 ldr r3,[r7,#128]
 333 023a 013B     	 subs r3,r3,#1
 334 023c C7F88030 	 str r3,[r7,#128]
 335              	.L2:
  91:../Dave/Generated/CMSIS_DSP/SupportFunctions/arm_float_to_q31.c ****   {
 336              	 .loc 1 91 0
 337 0240 D7F88030 	 ldr r3,[r7,#128]
 338 0244 002B     	 cmp r3,#0
 339 0246 7FF4EAAE 	 bne .L27
 131:../Dave/Generated/CMSIS_DSP/SupportFunctions/arm_float_to_q31.c ****   }
 132:../Dave/Generated/CMSIS_DSP/SupportFunctions/arm_float_to_q31.c **** 
 133:../Dave/Generated/CMSIS_DSP/SupportFunctions/arm_float_to_q31.c ****   /* If the blockSize is not a multiple of 4, compute any remaining output samples here.
 134:../Dave/Generated/CMSIS_DSP/SupportFunctions/arm_float_to_q31.c ****    ** No loop unrolling is used. */
 135:../Dave/Generated/CMSIS_DSP/SupportFunctions/arm_float_to_q31.c ****   blkCnt = blockSize % 0x4u;
 340              	 .loc 1 135 0
 341 024a 7B6C     	 ldr r3,[r7,#68]
 342 024c 03F00303 	 and r3,r3,#3
 343 0250 C7F88030 	 str r3,[r7,#128]
 136:../Dave/Generated/CMSIS_DSP/SupportFunctions/arm_float_to_q31.c **** 
 137:../Dave/Generated/CMSIS_DSP/SupportFunctions/arm_float_to_q31.c ****   while (blkCnt > 0u)
 344              	 .loc 1 137 0
 345 0254 46E0     	 b .L28
 346              	.L35:
 138:../Dave/Generated/CMSIS_DSP/SupportFunctions/arm_float_to_q31.c ****   {
 139:../Dave/Generated/CMSIS_DSP/SupportFunctions/arm_float_to_q31.c **** 
 140:../Dave/Generated/CMSIS_DSP/SupportFunctions/arm_float_to_q31.c **** #ifdef ARM_MATH_ROUNDING
 141:../Dave/Generated/CMSIS_DSP/SupportFunctions/arm_float_to_q31.c **** 
 142:../Dave/Generated/CMSIS_DSP/SupportFunctions/arm_float_to_q31.c ****     /* C = A * 2147483648 */
 143:../Dave/Generated/CMSIS_DSP/SupportFunctions/arm_float_to_q31.c ****     /* convert from float to Q31 and then store the results in the destination buffer */
 144:../Dave/Generated/CMSIS_DSP/SupportFunctions/arm_float_to_q31.c ****     in = *pIn++;
 347              	 .loc 1 144 0
 348 0256 D7F88430 	 ldr r3,[r7,#132]
 349 025a 1A1D     	 adds r2,r3,#4
 350 025c C7F88420 	 str r2,[r7,#132]
 351 0260 1B68     	 ldr r3,[r3]
 352 0262 FB67     	 str r3,[r7,#124]
 145:../Dave/Generated/CMSIS_DSP/SupportFunctions/arm_float_to_q31.c ****     in = (in * 2147483648.0f);
 353              	 .loc 1 145 0
 354 0264 D7ED1F7A 	 flds s15,[r7,#124]
 355 0268 9FED227A 	 flds s14,.L48
 356 026c 67EE877A 	 fmuls s15,s15,s14
 357 0270 C7ED1F7A 	 fsts s15,[r7,#124]
 146:../Dave/Generated/CMSIS_DSP/SupportFunctions/arm_float_to_q31.c ****     in += in > 0.0f ? 0.5f : -0.5f;
 358              	 .loc 1 146 0
 359 0274 D7ED1F7A 	 flds s15,[r7,#124]
 360 0278 F5EEC07A 	 fcmpezs s15
 361 027c F1EE10FA 	 fmstat
 362 0280 02DD     	 ble .L47
 363              	 .loc 1 146 0 is_stmt 0 discriminator 1
 364 0282 F6EE007A 	 fconsts s15,#96
 365 0286 01E0     	 b .L31
 366              	.L47:
 367              	 .loc 1 146 0 discriminator 2
 368 0288 FEEE007A 	 fconsts s15,#224
 369              	.L31:
 370              	 .loc 1 146 0 discriminator 4
 371 028c 97ED1F7A 	 flds s14,[r7,#124]
 372 0290 77EE277A 	 fadds s15,s14,s15
 373 0294 C7ED1F7A 	 fsts s15,[r7,#124]
 147:../Dave/Generated/CMSIS_DSP/SupportFunctions/arm_float_to_q31.c ****     *pDst++ = clip_q63_to_q31((q63_t) (in));
 374              	 .loc 1 147 0 is_stmt 1 discriminator 4
 375 0298 BC6C     	 ldr r4,[r7,#72]
 376 029a 231D     	 adds r3,r4,#4
 377 029c BB64     	 str r3,[r7,#72]
 378 029e F86F     	 ldr r0,[r7,#124]
 379 02a0 FFF7FEFF 	 bl __aeabi_f2lz
 380 02a4 0246     	 mov r2,r0
 381 02a6 0B46     	 mov r3,r1
 382 02a8 C7E91423 	 strd r2,[r7,#80]
 383              	.LBB20:
 384              	.LBB21:
 513:C:/Users/VMORAIS/Documents/DAVE_WS/1p_inverter_200V/Dave/Generated/CMSIS_DSP\arm_math.h ****       ((0x7FFFFFFF ^ ((q31_t) (x >> 63)))) : (q31_t) x;
 385              	 .loc 2 513 0 discriminator 4
 386 02ac D7E91423 	 ldrd r2,[r7,#80]
 387 02b0 9846     	 mov r8,r3
 388 02b2 4FEAE379 	 asr r9,r3,#31
 389 02b6 4246     	 mov r2,r8
 390 02b8 3B6D     	 ldr r3,[r7,#80]
 391 02ba DB17     	 asrs r3,r3,#31
 392              	 .loc 2 514 0 discriminator 4
 393 02bc 9A42     	 cmp r2,r3
 394 02be 0AD0     	 beq .L32
 395              	 .loc 2 514 0 is_stmt 0
 396 02c0 D7E91423 	 ldrd r2,[r7,#80]
 397 02c4 4FEAE37A 	 asr r10,r3,#31
 398 02c8 4FEAE37B 	 asr fp,r3,#31
 399 02cc 5346     	 mov r3,r10
 400 02ce 83F00043 	 eor r3,r3,#-2147483648
 401 02d2 DB43     	 mvns r3,r3
 402 02d4 00E0     	 b .L42
 403              	.L32:
 404 02d6 3B6D     	 ldr r3,[r7,#80]
 405              	.L42:
 406              	.LBE21:
 407              	.LBE20:
 408              	 .loc 1 147 0 is_stmt 1 discriminator 4
 409 02d8 2360     	 str r3,[r4]
 148:../Dave/Generated/CMSIS_DSP/SupportFunctions/arm_float_to_q31.c **** 
 149:../Dave/Generated/CMSIS_DSP/SupportFunctions/arm_float_to_q31.c **** #else
 150:../Dave/Generated/CMSIS_DSP/SupportFunctions/arm_float_to_q31.c **** 
 151:../Dave/Generated/CMSIS_DSP/SupportFunctions/arm_float_to_q31.c ****     /* C = A * 2147483648 */
 152:../Dave/Generated/CMSIS_DSP/SupportFunctions/arm_float_to_q31.c ****     /* convert from float to Q31 and then store the results in the destination buffer */
 153:../Dave/Generated/CMSIS_DSP/SupportFunctions/arm_float_to_q31.c ****     *pDst++ = clip_q63_to_q31((q63_t) (*pIn++ * 2147483648.0f));
 154:../Dave/Generated/CMSIS_DSP/SupportFunctions/arm_float_to_q31.c **** 
 155:../Dave/Generated/CMSIS_DSP/SupportFunctions/arm_float_to_q31.c **** #endif /*      #ifdef ARM_MATH_ROUNDING        */
 156:../Dave/Generated/CMSIS_DSP/SupportFunctions/arm_float_to_q31.c **** 
 157:../Dave/Generated/CMSIS_DSP/SupportFunctions/arm_float_to_q31.c ****     /* Decrement the loop counter */
 158:../Dave/Generated/CMSIS_DSP/SupportFunctions/arm_float_to_q31.c ****     blkCnt--;
 410              	 .loc 1 158 0 discriminator 4
 411 02da D7F88030 	 ldr r3,[r7,#128]
 412 02de 013B     	 subs r3,r3,#1
 413 02e0 C7F88030 	 str r3,[r7,#128]
 414              	.L28:
 137:../Dave/Generated/CMSIS_DSP/SupportFunctions/arm_float_to_q31.c ****   {
 415              	 .loc 1 137 0
 416 02e4 D7F88030 	 ldr r3,[r7,#128]
 417 02e8 002B     	 cmp r3,#0
 418 02ea B4D1     	 bne .L35
 159:../Dave/Generated/CMSIS_DSP/SupportFunctions/arm_float_to_q31.c ****   }
 160:../Dave/Generated/CMSIS_DSP/SupportFunctions/arm_float_to_q31.c **** 
 161:../Dave/Generated/CMSIS_DSP/SupportFunctions/arm_float_to_q31.c **** 
 162:../Dave/Generated/CMSIS_DSP/SupportFunctions/arm_float_to_q31.c **** #else
 163:../Dave/Generated/CMSIS_DSP/SupportFunctions/arm_float_to_q31.c **** 
 164:../Dave/Generated/CMSIS_DSP/SupportFunctions/arm_float_to_q31.c ****   /* Run the below code for Cortex-M0 */
 165:../Dave/Generated/CMSIS_DSP/SupportFunctions/arm_float_to_q31.c **** 
 166:../Dave/Generated/CMSIS_DSP/SupportFunctions/arm_float_to_q31.c ****   /* Loop over blockSize number of values */
 167:../Dave/Generated/CMSIS_DSP/SupportFunctions/arm_float_to_q31.c ****   blkCnt = blockSize;
 168:../Dave/Generated/CMSIS_DSP/SupportFunctions/arm_float_to_q31.c **** 
 169:../Dave/Generated/CMSIS_DSP/SupportFunctions/arm_float_to_q31.c ****   while (blkCnt > 0u)
 170:../Dave/Generated/CMSIS_DSP/SupportFunctions/arm_float_to_q31.c ****   {
 171:../Dave/Generated/CMSIS_DSP/SupportFunctions/arm_float_to_q31.c **** 
 172:../Dave/Generated/CMSIS_DSP/SupportFunctions/arm_float_to_q31.c **** #ifdef ARM_MATH_ROUNDING
 173:../Dave/Generated/CMSIS_DSP/SupportFunctions/arm_float_to_q31.c **** 
 174:../Dave/Generated/CMSIS_DSP/SupportFunctions/arm_float_to_q31.c ****     /* C = A * 2147483648 */
 175:../Dave/Generated/CMSIS_DSP/SupportFunctions/arm_float_to_q31.c ****     /* convert from float to Q31 and then store the results in the destination buffer */
 176:../Dave/Generated/CMSIS_DSP/SupportFunctions/arm_float_to_q31.c ****     in = *pIn++;
 177:../Dave/Generated/CMSIS_DSP/SupportFunctions/arm_float_to_q31.c ****     in = (in * 2147483648.0f);
 178:../Dave/Generated/CMSIS_DSP/SupportFunctions/arm_float_to_q31.c ****     in += in > 0 ? 0.5f : -0.5f;
 179:../Dave/Generated/CMSIS_DSP/SupportFunctions/arm_float_to_q31.c ****     *pDst++ = clip_q63_to_q31((q63_t) (in));
 180:../Dave/Generated/CMSIS_DSP/SupportFunctions/arm_float_to_q31.c **** 
 181:../Dave/Generated/CMSIS_DSP/SupportFunctions/arm_float_to_q31.c **** #else
 182:../Dave/Generated/CMSIS_DSP/SupportFunctions/arm_float_to_q31.c **** 
 183:../Dave/Generated/CMSIS_DSP/SupportFunctions/arm_float_to_q31.c ****     /* C = A * 2147483648 */
 184:../Dave/Generated/CMSIS_DSP/SupportFunctions/arm_float_to_q31.c ****     /* convert from float to Q31 and then store the results in the destination buffer */
 185:../Dave/Generated/CMSIS_DSP/SupportFunctions/arm_float_to_q31.c ****     *pDst++ = clip_q63_to_q31((q63_t) (*pIn++ * 2147483648.0f));
 186:../Dave/Generated/CMSIS_DSP/SupportFunctions/arm_float_to_q31.c **** 
 187:../Dave/Generated/CMSIS_DSP/SupportFunctions/arm_float_to_q31.c **** #endif /*      #ifdef ARM_MATH_ROUNDING        */
 188:../Dave/Generated/CMSIS_DSP/SupportFunctions/arm_float_to_q31.c **** 
 189:../Dave/Generated/CMSIS_DSP/SupportFunctions/arm_float_to_q31.c ****     /* Decrement the loop counter */
 190:../Dave/Generated/CMSIS_DSP/SupportFunctions/arm_float_to_q31.c ****     blkCnt--;
 191:../Dave/Generated/CMSIS_DSP/SupportFunctions/arm_float_to_q31.c ****   }
 192:../Dave/Generated/CMSIS_DSP/SupportFunctions/arm_float_to_q31.c **** 
 193:../Dave/Generated/CMSIS_DSP/SupportFunctions/arm_float_to_q31.c **** #endif /* #if defined (ARM_MATH_DSP) */
 194:../Dave/Generated/CMSIS_DSP/SupportFunctions/arm_float_to_q31.c **** 
 195:../Dave/Generated/CMSIS_DSP/SupportFunctions/arm_float_to_q31.c **** }
 419              	 .loc 1 195 0
 420 02ec 8C37     	 adds r7,r7,#140
 421              	.LCFI3:
 422              	 .cfi_def_cfa_offset 28
 423 02ee BD46     	 mov sp,r7
 424              	.LCFI4:
 425              	 .cfi_def_cfa_register 13
 426              	 
 427 02f0 BDE8908F 	 pop {r4,r7,r8,r9,r10,fp,pc}
 428              	.L49:
 429              	 .align 2
 430              	.L48:
 431 02f4 0000004F 	 .word 1325400064
 432              	 .cfi_endproc
 433              	.LFE135:
 435              	 .text
 436              	.Letext0:
 437              	 .file 3 "c:\\program files (x86)\\dave\\eclipse\\arm-gcc-49\\arm-none-eabi\\include\\machine\\_default_types.h"
 438              	 .file 4 "c:\\program files (x86)\\dave\\eclipse\\arm-gcc-49\\arm-none-eabi\\include\\stdint.h"