   1              	 .syntax unified
   2              	 .cpu cortex-m4
   3              	 .eabi_attribute 27,3
   4              	 .fpu fpv4-sp-d16
   5              	 .eabi_attribute 20,1
   6              	 .eabi_attribute 21,1
   7              	 .eabi_attribute 23,3
   8              	 .eabi_attribute 24,1
   9              	 .eabi_attribute 25,1
  10              	 .eabi_attribute 26,1
  11              	 .eabi_attribute 30,6
  12              	 .eabi_attribute 34,1
  13              	 .eabi_attribute 18,4
  14              	 .thumb
  15              	 .file "arm_q7_to_float.c"
  16              	 .text
  17              	.Ltext0:
  18              	 .cfi_sections .debug_frame
  19              	 .section .text.arm_q7_to_float,"ax",%progbits
  20              	 .align 2
  21              	 .global arm_q7_to_float
  22              	 .thumb
  23              	 .thumb_func
  25              	arm_q7_to_float:
  26              	.LFB135:
  27              	 .file 1 "../Dave/Generated/CMSIS_DSP/SupportFunctions/arm_q7_to_float.c"
   1:../Dave/Generated/CMSIS_DSP/SupportFunctions/arm_q7_to_float.c **** /* ----------------------------------------------------------------------
   2:../Dave/Generated/CMSIS_DSP/SupportFunctions/arm_q7_to_float.c ****  * Project:      CMSIS DSP Library
   3:../Dave/Generated/CMSIS_DSP/SupportFunctions/arm_q7_to_float.c ****  * Title:        arm_q7_to_float.c
   4:../Dave/Generated/CMSIS_DSP/SupportFunctions/arm_q7_to_float.c ****  * Description:  Converts the elements of the Q7 vector to floating-point vector
   5:../Dave/Generated/CMSIS_DSP/SupportFunctions/arm_q7_to_float.c ****  *
   6:../Dave/Generated/CMSIS_DSP/SupportFunctions/arm_q7_to_float.c ****  * $Date:        27. January 2017
   7:../Dave/Generated/CMSIS_DSP/SupportFunctions/arm_q7_to_float.c ****  * $Revision:    V.1.5.1
   8:../Dave/Generated/CMSIS_DSP/SupportFunctions/arm_q7_to_float.c ****  *
   9:../Dave/Generated/CMSIS_DSP/SupportFunctions/arm_q7_to_float.c ****  * Target Processor: Cortex-M cores
  10:../Dave/Generated/CMSIS_DSP/SupportFunctions/arm_q7_to_float.c ****  * -------------------------------------------------------------------- */
  11:../Dave/Generated/CMSIS_DSP/SupportFunctions/arm_q7_to_float.c **** /*
  12:../Dave/Generated/CMSIS_DSP/SupportFunctions/arm_q7_to_float.c ****  * Copyright (C) 2010-2017 ARM Limited or its affiliates. All rights reserved.
  13:../Dave/Generated/CMSIS_DSP/SupportFunctions/arm_q7_to_float.c ****  *
  14:../Dave/Generated/CMSIS_DSP/SupportFunctions/arm_q7_to_float.c ****  * SPDX-License-Identifier: Apache-2.0
  15:../Dave/Generated/CMSIS_DSP/SupportFunctions/arm_q7_to_float.c ****  *
  16:../Dave/Generated/CMSIS_DSP/SupportFunctions/arm_q7_to_float.c ****  * Licensed under the Apache License, Version 2.0 (the License); you may
  17:../Dave/Generated/CMSIS_DSP/SupportFunctions/arm_q7_to_float.c ****  * not use this file except in compliance with the License.
  18:../Dave/Generated/CMSIS_DSP/SupportFunctions/arm_q7_to_float.c ****  * You may obtain a copy of the License at
  19:../Dave/Generated/CMSIS_DSP/SupportFunctions/arm_q7_to_float.c ****  *
  20:../Dave/Generated/CMSIS_DSP/SupportFunctions/arm_q7_to_float.c ****  * www.apache.org/licenses/LICENSE-2.0
  21:../Dave/Generated/CMSIS_DSP/SupportFunctions/arm_q7_to_float.c ****  *
  22:../Dave/Generated/CMSIS_DSP/SupportFunctions/arm_q7_to_float.c ****  * Unless required by applicable law or agreed to in writing, software
  23:../Dave/Generated/CMSIS_DSP/SupportFunctions/arm_q7_to_float.c ****  * distributed under the License is distributed on an AS IS BASIS, WITHOUT
  24:../Dave/Generated/CMSIS_DSP/SupportFunctions/arm_q7_to_float.c ****  * WARRANTIES OR CONDITIONS OF ANY KIND, either express or implied.
  25:../Dave/Generated/CMSIS_DSP/SupportFunctions/arm_q7_to_float.c ****  * See the License for the specific language governing permissions and
  26:../Dave/Generated/CMSIS_DSP/SupportFunctions/arm_q7_to_float.c ****  * limitations under the License.
  27:../Dave/Generated/CMSIS_DSP/SupportFunctions/arm_q7_to_float.c ****  */
  28:../Dave/Generated/CMSIS_DSP/SupportFunctions/arm_q7_to_float.c **** 
  29:../Dave/Generated/CMSIS_DSP/SupportFunctions/arm_q7_to_float.c **** #include "CMSIS_DSP/cmsis_dsp.h"
  30:../Dave/Generated/CMSIS_DSP/SupportFunctions/arm_q7_to_float.c **** 
  31:../Dave/Generated/CMSIS_DSP/SupportFunctions/arm_q7_to_float.c **** /**
  32:../Dave/Generated/CMSIS_DSP/SupportFunctions/arm_q7_to_float.c ****  * @ingroup groupSupport
  33:../Dave/Generated/CMSIS_DSP/SupportFunctions/arm_q7_to_float.c ****  */
  34:../Dave/Generated/CMSIS_DSP/SupportFunctions/arm_q7_to_float.c **** 
  35:../Dave/Generated/CMSIS_DSP/SupportFunctions/arm_q7_to_float.c **** /**
  36:../Dave/Generated/CMSIS_DSP/SupportFunctions/arm_q7_to_float.c ****  * @defgroup q7_to_x  Convert 8-bit Integer value
  37:../Dave/Generated/CMSIS_DSP/SupportFunctions/arm_q7_to_float.c ****  */
  38:../Dave/Generated/CMSIS_DSP/SupportFunctions/arm_q7_to_float.c **** 
  39:../Dave/Generated/CMSIS_DSP/SupportFunctions/arm_q7_to_float.c **** /**
  40:../Dave/Generated/CMSIS_DSP/SupportFunctions/arm_q7_to_float.c ****  * @addtogroup q7_to_x
  41:../Dave/Generated/CMSIS_DSP/SupportFunctions/arm_q7_to_float.c ****  * @{
  42:../Dave/Generated/CMSIS_DSP/SupportFunctions/arm_q7_to_float.c ****  */
  43:../Dave/Generated/CMSIS_DSP/SupportFunctions/arm_q7_to_float.c **** 
  44:../Dave/Generated/CMSIS_DSP/SupportFunctions/arm_q7_to_float.c **** /**
  45:../Dave/Generated/CMSIS_DSP/SupportFunctions/arm_q7_to_float.c ****  * @brief Converts the elements of the Q7 vector to floating-point vector.
  46:../Dave/Generated/CMSIS_DSP/SupportFunctions/arm_q7_to_float.c ****  * @param[in]       *pSrc points to the Q7 input vector
  47:../Dave/Generated/CMSIS_DSP/SupportFunctions/arm_q7_to_float.c ****  * @param[out]      *pDst points to the floating-point output vector
  48:../Dave/Generated/CMSIS_DSP/SupportFunctions/arm_q7_to_float.c ****  * @param[in]       blockSize length of the input vector
  49:../Dave/Generated/CMSIS_DSP/SupportFunctions/arm_q7_to_float.c ****  * @return none.
  50:../Dave/Generated/CMSIS_DSP/SupportFunctions/arm_q7_to_float.c ****  *
  51:../Dave/Generated/CMSIS_DSP/SupportFunctions/arm_q7_to_float.c ****  * \par Description:
  52:../Dave/Generated/CMSIS_DSP/SupportFunctions/arm_q7_to_float.c ****  *
  53:../Dave/Generated/CMSIS_DSP/SupportFunctions/arm_q7_to_float.c ****  * The equation used for the conversion process is:
  54:../Dave/Generated/CMSIS_DSP/SupportFunctions/arm_q7_to_float.c ****  *
  55:../Dave/Generated/CMSIS_DSP/SupportFunctions/arm_q7_to_float.c ****  * <pre>
  56:../Dave/Generated/CMSIS_DSP/SupportFunctions/arm_q7_to_float.c ****  * 	pDst[n] = (float32_t) pSrc[n] / 128;   0 <= n < blockSize.
  57:../Dave/Generated/CMSIS_DSP/SupportFunctions/arm_q7_to_float.c ****  * </pre>
  58:../Dave/Generated/CMSIS_DSP/SupportFunctions/arm_q7_to_float.c ****  *
  59:../Dave/Generated/CMSIS_DSP/SupportFunctions/arm_q7_to_float.c ****  */
  60:../Dave/Generated/CMSIS_DSP/SupportFunctions/arm_q7_to_float.c **** 
  61:../Dave/Generated/CMSIS_DSP/SupportFunctions/arm_q7_to_float.c **** 
  62:../Dave/Generated/CMSIS_DSP/SupportFunctions/arm_q7_to_float.c **** void arm_q7_to_float(
  63:../Dave/Generated/CMSIS_DSP/SupportFunctions/arm_q7_to_float.c ****   q7_t * pSrc,
  64:../Dave/Generated/CMSIS_DSP/SupportFunctions/arm_q7_to_float.c ****   float32_t * pDst,
  65:../Dave/Generated/CMSIS_DSP/SupportFunctions/arm_q7_to_float.c ****   uint32_t blockSize)
  66:../Dave/Generated/CMSIS_DSP/SupportFunctions/arm_q7_to_float.c **** {
  28              	 .loc 1 66 0
  29              	 .cfi_startproc
  30              	 
  31              	 
  32              	 
  33 0000 80B4     	 push {r7}
  34              	.LCFI0:
  35              	 .cfi_def_cfa_offset 4
  36              	 .cfi_offset 7,-4
  37 0002 87B0     	 sub sp,sp,#28
  38              	.LCFI1:
  39              	 .cfi_def_cfa_offset 32
  40 0004 00AF     	 add r7,sp,#0
  41              	.LCFI2:
  42              	 .cfi_def_cfa_register 7
  43 0006 F860     	 str r0,[r7,#12]
  44 0008 B960     	 str r1,[r7,#8]
  45 000a 7A60     	 str r2,[r7,#4]
  67:../Dave/Generated/CMSIS_DSP/SupportFunctions/arm_q7_to_float.c ****   q7_t *pIn = pSrc;                              /* Src pointer */
  46              	 .loc 1 67 0
  47 000c FB68     	 ldr r3,[r7,#12]
  48 000e 7B61     	 str r3,[r7,#20]
  68:../Dave/Generated/CMSIS_DSP/SupportFunctions/arm_q7_to_float.c ****   uint32_t blkCnt;                               /* loop counter */
  69:../Dave/Generated/CMSIS_DSP/SupportFunctions/arm_q7_to_float.c **** 
  70:../Dave/Generated/CMSIS_DSP/SupportFunctions/arm_q7_to_float.c **** 
  71:../Dave/Generated/CMSIS_DSP/SupportFunctions/arm_q7_to_float.c **** #if defined (ARM_MATH_DSP)
  72:../Dave/Generated/CMSIS_DSP/SupportFunctions/arm_q7_to_float.c **** 
  73:../Dave/Generated/CMSIS_DSP/SupportFunctions/arm_q7_to_float.c ****   /* Run the below code for Cortex-M4 and Cortex-M3 */
  74:../Dave/Generated/CMSIS_DSP/SupportFunctions/arm_q7_to_float.c **** 
  75:../Dave/Generated/CMSIS_DSP/SupportFunctions/arm_q7_to_float.c ****   /*loop Unrolling */
  76:../Dave/Generated/CMSIS_DSP/SupportFunctions/arm_q7_to_float.c ****   blkCnt = blockSize >> 2u;
  49              	 .loc 1 76 0
  50 0010 7B68     	 ldr r3,[r7,#4]
  51 0012 9B08     	 lsrs r3,r3,#2
  52 0014 3B61     	 str r3,[r7,#16]
  77:../Dave/Generated/CMSIS_DSP/SupportFunctions/arm_q7_to_float.c **** 
  78:../Dave/Generated/CMSIS_DSP/SupportFunctions/arm_q7_to_float.c ****   /* First part of the processing with loop unrolling.  Compute 4 outputs at a time.
  79:../Dave/Generated/CMSIS_DSP/SupportFunctions/arm_q7_to_float.c ****    ** a second loop below computes the remaining 1 to 3 samples. */
  80:../Dave/Generated/CMSIS_DSP/SupportFunctions/arm_q7_to_float.c ****   while (blkCnt > 0u)
  53              	 .loc 1 80 0
  54 0016 4AE0     	 b .L2
  55              	.L3:
  81:../Dave/Generated/CMSIS_DSP/SupportFunctions/arm_q7_to_float.c ****   {
  82:../Dave/Generated/CMSIS_DSP/SupportFunctions/arm_q7_to_float.c ****     /* C = (float32_t) A / 128 */
  83:../Dave/Generated/CMSIS_DSP/SupportFunctions/arm_q7_to_float.c ****     /* convert from q7 to float and then store the results in the destination buffer */
  84:../Dave/Generated/CMSIS_DSP/SupportFunctions/arm_q7_to_float.c ****     *pDst++ = ((float32_t) * pIn++ / 128.0f);
  56              	 .loc 1 84 0
  57 0018 BB68     	 ldr r3,[r7,#8]
  58 001a 1A1D     	 adds r2,r3,#4
  59 001c BA60     	 str r2,[r7,#8]
  60 001e 7A69     	 ldr r2,[r7,#20]
  61 0020 511C     	 adds r1,r2,#1
  62 0022 7961     	 str r1,[r7,#20]
  63 0024 1278     	 ldrb r2,[r2]
  64 0026 52B2     	 sxtb r2,r2
  65 0028 07EE902A 	 fmsr s15,r2
  66 002c F8EEE77A 	 fsitos s15,s15
  67 0030 9FED317A 	 flds s14,.L6
  68 0034 C7EE877A 	 fdivs s15,s15,s14
  69 0038 C3ED007A 	 fsts s15,[r3]
  85:../Dave/Generated/CMSIS_DSP/SupportFunctions/arm_q7_to_float.c ****     *pDst++ = ((float32_t) * pIn++ / 128.0f);
  70              	 .loc 1 85 0
  71 003c BB68     	 ldr r3,[r7,#8]
  72 003e 1A1D     	 adds r2,r3,#4
  73 0040 BA60     	 str r2,[r7,#8]
  74 0042 7A69     	 ldr r2,[r7,#20]
  75 0044 511C     	 adds r1,r2,#1
  76 0046 7961     	 str r1,[r7,#20]
  77 0048 1278     	 ldrb r2,[r2]
  78 004a 52B2     	 sxtb r2,r2
  79 004c 07EE902A 	 fmsr s15,r2
  80 0050 F8EEE77A 	 fsitos s15,s15
  81 0054 9FED287A 	 flds s14,.L6
  82 0058 C7EE877A 	 fdivs s15,s15,s14
  83 005c C3ED007A 	 fsts s15,[r3]
  86:../Dave/Generated/CMSIS_DSP/SupportFunctions/arm_q7_to_float.c ****     *pDst++ = ((float32_t) * pIn++ / 128.0f);
  84              	 .loc 1 86 0
  85 0060 BB68     	 ldr r3,[r7,#8]
  86 0062 1A1D     	 adds r2,r3,#4
  87 0064 BA60     	 str r2,[r7,#8]
  88 0066 7A69     	 ldr r2,[r7,#20]
  89 0068 511C     	 adds r1,r2,#1
  90 006a 7961     	 str r1,[r7,#20]
  91 006c 1278     	 ldrb r2,[r2]
  92 006e 52B2     	 sxtb r2,r2
  93 0070 07EE902A 	 fmsr s15,r2
  94 0074 F8EEE77A 	 fsitos s15,s15
  95 0078 9FED1F7A 	 flds s14,.L6
  96 007c C7EE877A 	 fdivs s15,s15,s14
  97 0080 C3ED007A 	 fsts s15,[r3]
  87:../Dave/Generated/CMSIS_DSP/SupportFunctions/arm_q7_to_float.c ****     *pDst++ = ((float32_t) * pIn++ / 128.0f);
  98              	 .loc 1 87 0
  99 0084 BB68     	 ldr r3,[r7,#8]
 100 0086 1A1D     	 adds r2,r3,#4
 101 0088 BA60     	 str r2,[r7,#8]
 102 008a 7A69     	 ldr r2,[r7,#20]
 103 008c 511C     	 adds r1,r2,#1
 104 008e 7961     	 str r1,[r7,#20]
 105 0090 1278     	 ldrb r2,[r2]
 106 0092 52B2     	 sxtb r2,r2
 107 0094 07EE902A 	 fmsr s15,r2
 108 0098 F8EEE77A 	 fsitos s15,s15
 109 009c 9FED167A 	 flds s14,.L6
 110 00a0 C7EE877A 	 fdivs s15,s15,s14
 111 00a4 C3ED007A 	 fsts s15,[r3]
  88:../Dave/Generated/CMSIS_DSP/SupportFunctions/arm_q7_to_float.c **** 
  89:../Dave/Generated/CMSIS_DSP/SupportFunctions/arm_q7_to_float.c ****     /* Decrement the loop counter */
  90:../Dave/Generated/CMSIS_DSP/SupportFunctions/arm_q7_to_float.c ****     blkCnt--;
 112              	 .loc 1 90 0
 113 00a8 3B69     	 ldr r3,[r7,#16]
 114 00aa 013B     	 subs r3,r3,#1
 115 00ac 3B61     	 str r3,[r7,#16]
 116              	.L2:
  80:../Dave/Generated/CMSIS_DSP/SupportFunctions/arm_q7_to_float.c ****   {
 117              	 .loc 1 80 0
 118 00ae 3B69     	 ldr r3,[r7,#16]
 119 00b0 002B     	 cmp r3,#0
 120 00b2 B1D1     	 bne .L3
  91:../Dave/Generated/CMSIS_DSP/SupportFunctions/arm_q7_to_float.c ****   }
  92:../Dave/Generated/CMSIS_DSP/SupportFunctions/arm_q7_to_float.c **** 
  93:../Dave/Generated/CMSIS_DSP/SupportFunctions/arm_q7_to_float.c ****   /* If the blockSize is not a multiple of 4, compute any remaining output samples here.
  94:../Dave/Generated/CMSIS_DSP/SupportFunctions/arm_q7_to_float.c ****    ** No loop unrolling is used. */
  95:../Dave/Generated/CMSIS_DSP/SupportFunctions/arm_q7_to_float.c ****   blkCnt = blockSize % 0x4u;
 121              	 .loc 1 95 0
 122 00b4 7B68     	 ldr r3,[r7,#4]
 123 00b6 03F00303 	 and r3,r3,#3
 124 00ba 3B61     	 str r3,[r7,#16]
  96:../Dave/Generated/CMSIS_DSP/SupportFunctions/arm_q7_to_float.c **** 
  97:../Dave/Generated/CMSIS_DSP/SupportFunctions/arm_q7_to_float.c **** #else
  98:../Dave/Generated/CMSIS_DSP/SupportFunctions/arm_q7_to_float.c **** 
  99:../Dave/Generated/CMSIS_DSP/SupportFunctions/arm_q7_to_float.c ****   /* Run the below code for Cortex-M0 */
 100:../Dave/Generated/CMSIS_DSP/SupportFunctions/arm_q7_to_float.c **** 
 101:../Dave/Generated/CMSIS_DSP/SupportFunctions/arm_q7_to_float.c ****   /* Loop over blockSize number of values */
 102:../Dave/Generated/CMSIS_DSP/SupportFunctions/arm_q7_to_float.c ****   blkCnt = blockSize;
 103:../Dave/Generated/CMSIS_DSP/SupportFunctions/arm_q7_to_float.c **** 
 104:../Dave/Generated/CMSIS_DSP/SupportFunctions/arm_q7_to_float.c **** #endif /* #if defined (ARM_MATH_DSP) */
 105:../Dave/Generated/CMSIS_DSP/SupportFunctions/arm_q7_to_float.c **** 
 106:../Dave/Generated/CMSIS_DSP/SupportFunctions/arm_q7_to_float.c ****   while (blkCnt > 0u)
 125              	 .loc 1 106 0
 126 00bc 14E0     	 b .L4
 127              	.L5:
 107:../Dave/Generated/CMSIS_DSP/SupportFunctions/arm_q7_to_float.c ****   {
 108:../Dave/Generated/CMSIS_DSP/SupportFunctions/arm_q7_to_float.c ****     /* C = (float32_t) A / 128 */
 109:../Dave/Generated/CMSIS_DSP/SupportFunctions/arm_q7_to_float.c ****     /* convert from q7 to float and then store the results in the destination buffer */
 110:../Dave/Generated/CMSIS_DSP/SupportFunctions/arm_q7_to_float.c ****     *pDst++ = ((float32_t) * pIn++ / 128.0f);
 128              	 .loc 1 110 0
 129 00be BB68     	 ldr r3,[r7,#8]
 130 00c0 1A1D     	 adds r2,r3,#4
 131 00c2 BA60     	 str r2,[r7,#8]
 132 00c4 7A69     	 ldr r2,[r7,#20]
 133 00c6 511C     	 adds r1,r2,#1
 134 00c8 7961     	 str r1,[r7,#20]
 135 00ca 1278     	 ldrb r2,[r2]
 136 00cc 52B2     	 sxtb r2,r2
 137 00ce 07EE902A 	 fmsr s15,r2
 138 00d2 F8EEE77A 	 fsitos s15,s15
 139 00d6 9FED087A 	 flds s14,.L6
 140 00da C7EE877A 	 fdivs s15,s15,s14
 141 00de C3ED007A 	 fsts s15,[r3]
 111:../Dave/Generated/CMSIS_DSP/SupportFunctions/arm_q7_to_float.c **** 
 112:../Dave/Generated/CMSIS_DSP/SupportFunctions/arm_q7_to_float.c ****     /* Decrement the loop counter */
 113:../Dave/Generated/CMSIS_DSP/SupportFunctions/arm_q7_to_float.c ****     blkCnt--;
 142              	 .loc 1 113 0
 143 00e2 3B69     	 ldr r3,[r7,#16]
 144 00e4 013B     	 subs r3,r3,#1
 145 00e6 3B61     	 str r3,[r7,#16]
 146              	.L4:
 106:../Dave/Generated/CMSIS_DSP/SupportFunctions/arm_q7_to_float.c ****   {
 147              	 .loc 1 106 0
 148 00e8 3B69     	 ldr r3,[r7,#16]
 149 00ea 002B     	 cmp r3,#0
 150 00ec E7D1     	 bne .L5
 114:../Dave/Generated/CMSIS_DSP/SupportFunctions/arm_q7_to_float.c ****   }
 115:../Dave/Generated/CMSIS_DSP/SupportFunctions/arm_q7_to_float.c **** }
 151              	 .loc 1 115 0
 152 00ee 1C37     	 adds r7,r7,#28
 153              	.LCFI3:
 154              	 .cfi_def_cfa_offset 4
 155 00f0 BD46     	 mov sp,r7
 156              	.LCFI4:
 157              	 .cfi_def_cfa_register 13
 158              	 
 159 00f2 5DF8047B 	 ldr r7,[sp],#4
 160              	.LCFI5:
 161              	 .cfi_restore 7
 162              	 .cfi_def_cfa_offset 0
 163 00f6 7047     	 bx lr
 164              	.L7:
 165              	 .align 2
 166              	.L6:
 167 00f8 00000043 	 .word 1124073472
 168              	 .cfi_endproc
 169              	.LFE135:
 171              	 .text
 172              	.Letext0:
 173              	 .file 2 "c:\\program files (x86)\\dave\\eclipse\\arm-gcc-49\\arm-none-eabi\\include\\machine\\_default_types.h"
 174              	 .file 3 "c:\\program files (x86)\\dave\\eclipse\\arm-gcc-49\\arm-none-eabi\\include\\stdint.h"
 175              	 .file 4 "C:/Users/VMORAIS/Documents/DAVE_WS/1p_inverter_200V/Dave/Generated/CMSIS_DSP/arm_math.h"