   1              	 .syntax unified
   2              	 .cpu cortex-m4
   3              	 .eabi_attribute 27,3
   4              	 .fpu fpv4-sp-d16
   5              	 .eabi_attribute 20,1
   6              	 .eabi_attribute 21,1
   7              	 .eabi_attribute 23,3
   8              	 .eabi_attribute 24,1
   9              	 .eabi_attribute 25,1
  10              	 .eabi_attribute 26,1
  11              	 .eabi_attribute 30,4
  12              	 .eabi_attribute 34,1
  13              	 .eabi_attribute 18,4
  14              	 .thumb
  15              	 .file "arm_mat_cmplx_mult_q15.c"
  16              	 .section .text.arm_mat_cmplx_mult_q15,"ax",%progbits
  17              	 .align 1
  18              	 .global arm_mat_cmplx_mult_q15
  19              	 .thumb
  20              	 .thumb_func
  22              	arm_mat_cmplx_mult_q15:
  23              	 
  24              	 
  25 0000 2DE9F04F 	 push {r4,r5,r6,r7,r8,r9,r10,fp,lr}
  26 0004 8FB0     	 sub sp,sp,#60
  27 0006 4488     	 ldrh r4,[r0,#2]
  28 0008 0893     	 str r3,[sp,#32]
  29 000a 4368     	 ldr r3,[r0,#4]
  30 000c 0C93     	 str r3,[sp,#48]
  31 000e 0388     	 ldrh r3,[r0]
  32 0010 0093     	 str r3,[sp]
  33 0012 4B88     	 ldrh r3,[r1,#2]
  34 0014 0193     	 str r3,[sp,#4]
  35 0016 0B88     	 ldrh r3,[r1]
  36 0018 D1F804A0 	 ldr r10,[r1,#4]
  37 001c A342     	 cmp r3,r4
  38 001e 40F0FD80 	 bne .L15
  39 0022 1388     	 ldrh r3,[r2]
  40 0024 0099     	 ldr r1,[sp]
  41 0026 8B42     	 cmp r3,r1
  42 0028 40F0F880 	 bne .L15
  43 002c 5388     	 ldrh r3,[r2,#2]
  44 002e 0199     	 ldr r1,[sp,#4]
  45 0030 8B42     	 cmp r3,r1
  46 0032 40F0F380 	 bne .L15
  47 0036 A000     	 lsls r0,r4,#2
  48 0038 6FF00303 	 mvn r3,#3
  49 003c 4343     	 muls r3,r0,r3
  50 003e 0693     	 str r3,[sp,#24]
  51 0040 A0EB0413 	 sub r3,r0,r4,lsl#4
  52 0044 0793     	 str r3,[sp,#28]
  53 0046 00EBC40C 	 add ip,r0,r4,lsl#3
  54 004a 6FF00103 	 mvn r3,#1
  55 004e 4FEA9108 	 lsr r8,r1,#2
  56 0052 4343     	 muls r3,r0,r3
  57 0054 8444     	 add ip,ip,r0
  58 0056 0993     	 str r3,[sp,#36]
  59 0058 08FB0CF3 	 mul r3,r8,ip
  60 005c 0493     	 str r3,[sp,#16]
  61 005e 01F00309 	 and r9,r1,#3
  62 0062 4FEA0813 	 lsl r3,r8,#4
  63 0066 0593     	 str r3,[sp,#20]
  64 0068 4FEA8903 	 lsl r3,r9,#2
  65 006c 0293     	 str r3,[sp,#8]
  66 006e 4FF0000E 	 mov lr,#0
  67              	.L7:
  68 0072 089B     	 ldr r3,[sp,#32]
  69 0074 4FEA4E01 	 lsl r1,lr,#1
  70 0078 89B2     	 uxth r1,r1
  71 007a 03EB4101 	 add r1,r3,r1,lsl#1
  72 007e 0AF11005 	 add r5,r10,#16
  73 0082 0B46     	 mov r3,r1
  74 0084 4746     	 mov r7,r8
  75              	.L3:
  76 0086 1035     	 adds r5,r5,#16
  77 0088 6344     	 add r3,r3,ip
  78 008a D7B1     	 cbz r7,.L23
  79 008c 069E     	 ldr r6,[sp,#24]
  80 008e B346     	 mov fp,r6
  81 0090 55F8206C 	 ldr r6,[r5,#-32]
  82 0094 43F80B60 	 str r6,[r3,fp]
  83 0098 079E     	 ldr r6,[sp,#28]
  84 009a B346     	 mov fp,r6
  85 009c 55F81C6C 	 ldr r6,[r5,#-28]
  86 00a0 43F80B60 	 str r6,[r3,fp]
  87 00a4 099E     	 ldr r6,[sp,#36]
  88 00a6 B346     	 mov fp,r6
  89 00a8 55F8186C 	 ldr r6,[r5,#-24]
  90 00ac 43F80B60 	 str r6,[r3,fp]
  91 00b0 C0F1000B 	 rsb fp,r0,#0
  92 00b4 55F8146C 	 ldr r6,[r5,#-20]
  93 00b8 43F80B60 	 str r6,[r3,fp]
  94 00bc 013F     	 subs r7,r7,#1
  95 00be BFB2     	 uxth r7,r7
  96 00c0 E1E7     	 b .L3
  97              	.L23:
  98 00c2 059B     	 ldr r3,[sp,#20]
  99 00c4 9A44     	 add r10,r10,r3
 100 00c6 049B     	 ldr r3,[sp,#16]
 101 00c8 5546     	 mov r5,r10
 102 00ca 1944     	 add r1,r1,r3
 103 00cc 4B46     	 mov r3,r9
 104              	.L5:
 105 00ce 0144     	 add r1,r1,r0
 106 00d0 3BB1     	 cbz r3,.L24
 107 00d2 4742     	 negs r7,r0
 108 00d4 55F804BB 	 ldr fp,[r5],#4
 109 00d8 41F807B0 	 str fp,[r1,r7]
 110 00dc 013B     	 subs r3,r3,#1
 111 00de 9BB2     	 uxth r3,r3
 112 00e0 F5E7     	 b .L5
 113              	.L24:
 114 00e2 0299     	 ldr r1,[sp,#8]
 115 00e4 0EF1010E 	 add lr,lr,#1
 116 00e8 8A44     	 add r10,r10,r1
 117 00ea 1FFA8EF1 	 uxth r1,lr
 118 00ee 8C42     	 cmp r4,r1
 119 00f0 BFD1     	 bne .L7
 120 00f2 6108     	 lsrs r1,r4,#1
 121 00f4 0591     	 str r1,[sp,#20]
 122 00f6 0199     	 ldr r1,[sp,#4]
 123 00f8 0139     	 subs r1,r1,#1
 124 00fa 89B2     	 uxth r1,r1
 125 00fc 0131     	 adds r1,r1,#1
 126 00fe 8900     	 lsls r1,r1,#2
 127 0100 0D91     	 str r1,[sp,#52]
 128 0102 5168     	 ldr r1,[r2,#4]
 129 0104 059A     	 ldr r2,[sp,#20]
 130 0106 D200     	 lsls r2,r2,#3
 131 0108 0431     	 adds r1,r1,#4
 132 010a 0792     	 str r2,[sp,#28]
 133              	.L12:
 134 010c 0C9A     	 ldr r2,[sp,#48]
 135 010e 0798     	 ldr r0,[sp,#28]
 136 0110 0491     	 str r1,[sp,#16]
 137 0112 02EB8302 	 add r2,r2,r3,lsl#2
 138 0116 0692     	 str r2,[sp,#24]
 139 0118 0244     	 add r2,r2,r0
 140 011a 0992     	 str r2,[sp,#36]
 141 011c 0198     	 ldr r0,[sp,#4]
 142 011e 089A     	 ldr r2,[sp,#32]
 143              	.L11:
 144 0120 069D     	 ldr r5,[sp,#24]
 145 0122 4FF0000A 	 mov r10,#0
 146 0126 4FF0000B 	 mov fp,#0
 147 012a CDE902AB 	 strd r10,[sp,#8]
 148 012e 05F1080E 	 add lr,r5,#8
 149 0132 059D     	 ldr r5,[sp,#20]
 150 0134 02F1080C 	 add ip,r2,#8
 151              	.L8:
 152 0138 95B3     	 cbz r5,.L25
 153 013a 5EF8088C 	 ldr r8,[lr,#-8]
 154 013e 5CF8086C 	 ldr r6,[ip,#-8]
 155              	
 156 0142 48FB06F9 	 smusd r9,r8,r6
 157              	
 158              	
 159 0146 28FB16F8 	 smuadx r8,r8,r6
 160              	
 161              	 .thumb
 162 014a DDE90267 	 ldrd r6,[sp,#8]
 163 014e 16EB0906 	 adds r6,r6,r9
 164 0152 47EBE977 	 adc r7,r7,r9,asr#31
 165 0156 CDE90267 	 strd r6,[sp,#8]
 166 015a 1AEB0806 	 adds r6,r10,r8
 167 015e 4BEBE877 	 adc r7,fp,r8,asr#31
 168 0162 CDE90A67 	 strd r6,[sp,#40]
 169 0166 5EF8048C 	 ldr r8,[lr,#-4]
 170 016a 5CF8049C 	 ldr r9,[ip,#-4]
 171              	
 172 016e 48FB09FA 	 smusd r10,r8,r9
 173              	
 174              	
 175 0172 28FB19F8 	 smuadx r8,r8,r9
 176              	
 177              	 .thumb
 178 0176 DDE90267 	 ldrd r6,[sp,#8]
 179 017a 16EB0A06 	 adds r6,r6,r10
 180 017e 47EBEA77 	 adc r7,r7,r10,asr#31
 181 0182 DDE90AAB 	 ldrd r10,[sp,#40]
 182 0186 013D     	 subs r5,r5,#1
 183 0188 1AEB080A 	 adds r10,r10,r8
 184 018c CDE90267 	 strd r6,[sp,#8]
 185 0190 4BEBE87B 	 adc fp,fp,r8,asr#31
 186 0194 ADB2     	 uxth r5,r5
 187 0196 0EF1080E 	 add lr,lr,#8
 188 019a 0CF1080C 	 add ip,ip,#8
 189 019e CBE7     	 b .L8
 190              	.L25:
 191 01a0 079D     	 ldr r5,[sp,#28]
 192 01a2 2A44     	 add r2,r2,r5
 193 01a4 E507     	 lsls r5,r4,#31
 194 01a6 DDE90289 	 ldrd r8,[sp,#8]
 195 01aa 11D5     	 bpl .L10
 196 01ac 099D     	 ldr r5,[sp,#36]
 197 01ae 02F1040E 	 add lr,r2,#4
 198 01b2 2D68     	 ldr r5,[r5]
 199 01b4 1268     	 ldr r2,[r2]
 200              	
 201 01b6 45FB02FC 	 smusd ip,r5,r2
 202              	
 203              	
 204 01ba 25FB12F5 	 smuadx r5,r5,r2
 205              	
 206              	 .thumb
 207 01be 18EB0C08 	 adds r8,r8,ip
 208 01c2 49EBEC79 	 adc r9,r9,ip,asr#31
 209 01c6 1AEB050A 	 adds r10,r10,r5
 210 01ca 4BEBE57B 	 adc fp,fp,r5,asr#31
 211 01ce 7246     	 mov r2,lr
 212              	.L10:
 213 01d0 049E     	 ldr r6,[sp,#16]
 214 01d2 4FEAD835 	 lsr r5,r8,#15
 215 01d6 45EA4945 	 orr r5,r5,r9,lsl#17
 216              	
 217 01da 05F30F05 	 ssat r5,#16,r5
 218              	
 219              	 .thumb
 220 01de 26F8045C 	 strh r5,[r6,#-4]
 221 01e2 4FEADA35 	 lsr r5,r10,#15
 222 01e6 45EA4B45 	 orr r5,r5,fp,lsl#17
 223 01ea 0138     	 subs r0,r0,#1
 224              	
 225 01ec 05F30F05 	 ssat r5,#16,r5
 226              	
 227              	 .thumb
 228 01f0 26F8025C 	 strh r5,[r6,#-2]
 229 01f4 3546     	 mov r5,r6
 230 01f6 0435     	 adds r5,r5,#4
 231 01f8 80B2     	 uxth r0,r0
 232 01fa 0495     	 str r5,[sp,#16]
 233 01fc 0028     	 cmp r0,#0
 234 01fe 8FD1     	 bne .L11
 235 0200 009A     	 ldr r2,[sp]
 236 0202 501E     	 subs r0,r2,#1
 237 0204 82B2     	 uxth r2,r0
 238 0206 0092     	 str r2,[sp]
 239 0208 0D9A     	 ldr r2,[sp,#52]
 240 020a 1144     	 add r1,r1,r2
 241 020c 009A     	 ldr r2,[sp]
 242 020e 2344     	 add r3,r3,r4
 243 0210 9BB2     	 uxth r3,r3
 244 0212 002A     	 cmp r2,#0
 245 0214 7FF47AAF 	 bne .L12
 246 0218 1046     	 mov r0,r2
 247 021a 00E0     	 b .L2
 248              	.L15:
 249 021c FD20     	 movs r0,#253
 250              	.L2:
 251 021e 40B2     	 sxtb r0,r0
 252 0220 0FB0     	 add sp,sp,#60
 253              	 
 254 0222 BDE8F08F 	 pop {r4,r5,r6,r7,r8,r9,r10,fp,pc}
 256              	 .ident "GCC: (GNU Tools for ARM Embedded Processors) 4.9.3 20141119 (release) [ARM/embedded-4_9-branch revision 218278]"
DEFINED SYMBOLS
                            *ABS*:00000000 arm_mat_cmplx_mult_q15.c
    {standard input}:17     .text.arm_mat_cmplx_mult_q15:00000000 $t
    {standard input}:22     .text.arm_mat_cmplx_mult_q15:00000000 arm_mat_cmplx_mult_q15

NO UNDEFINED SYMBOLS
