   1              	 .syntax unified
   2              	 .cpu cortex-m4
   3              	 .eabi_attribute 27,3
   4              	 .fpu fpv4-sp-d16
   5              	 .eabi_attribute 20,1
   6              	 .eabi_attribute 21,1
   7              	 .eabi_attribute 23,3
   8              	 .eabi_attribute 24,1
   9              	 .eabi_attribute 25,1
  10              	 .eabi_attribute 26,1
  11              	 .eabi_attribute 30,6
  12              	 .eabi_attribute 34,1
  13              	 .eabi_attribute 18,4
  14              	 .thumb
  15              	 .file "arm_copy_q7.c"
  16              	 .text
  17              	.Ltext0:
  18              	 .cfi_sections .debug_frame
  19              	 .section .text.arm_copy_q7,"ax",%progbits
  20              	 .align 2
  21              	 .global arm_copy_q7
  22              	 .thumb
  23              	 .thumb_func
  25              	arm_copy_q7:
  26              	.LFB135:
  27              	 .file 1 "../Dave/Generated/CMSIS_DSP/SupportFunctions/arm_copy_q7.c"
   1:../Dave/Generated/CMSIS_DSP/SupportFunctions/arm_copy_q7.c **** /* ----------------------------------------------------------------------
   2:../Dave/Generated/CMSIS_DSP/SupportFunctions/arm_copy_q7.c ****  * Project:      CMSIS DSP Library
   3:../Dave/Generated/CMSIS_DSP/SupportFunctions/arm_copy_q7.c ****  * Title:        arm_copy_q7.c
   4:../Dave/Generated/CMSIS_DSP/SupportFunctions/arm_copy_q7.c ****  * Description:  Copies the elements of a Q7 vector
   5:../Dave/Generated/CMSIS_DSP/SupportFunctions/arm_copy_q7.c ****  *
   6:../Dave/Generated/CMSIS_DSP/SupportFunctions/arm_copy_q7.c ****  * $Date:        27. January 2017
   7:../Dave/Generated/CMSIS_DSP/SupportFunctions/arm_copy_q7.c ****  * $Revision:    V.1.5.1
   8:../Dave/Generated/CMSIS_DSP/SupportFunctions/arm_copy_q7.c ****  *
   9:../Dave/Generated/CMSIS_DSP/SupportFunctions/arm_copy_q7.c ****  * Target Processor: Cortex-M cores
  10:../Dave/Generated/CMSIS_DSP/SupportFunctions/arm_copy_q7.c ****  * -------------------------------------------------------------------- */
  11:../Dave/Generated/CMSIS_DSP/SupportFunctions/arm_copy_q7.c **** /*
  12:../Dave/Generated/CMSIS_DSP/SupportFunctions/arm_copy_q7.c ****  * Copyright (C) 2010-2017 ARM Limited or its affiliates. All rights reserved.
  13:../Dave/Generated/CMSIS_DSP/SupportFunctions/arm_copy_q7.c ****  *
  14:../Dave/Generated/CMSIS_DSP/SupportFunctions/arm_copy_q7.c ****  * SPDX-License-Identifier: Apache-2.0
  15:../Dave/Generated/CMSIS_DSP/SupportFunctions/arm_copy_q7.c ****  *
  16:../Dave/Generated/CMSIS_DSP/SupportFunctions/arm_copy_q7.c ****  * Licensed under the Apache License, Version 2.0 (the License); you may
  17:../Dave/Generated/CMSIS_DSP/SupportFunctions/arm_copy_q7.c ****  * not use this file except in compliance with the License.
  18:../Dave/Generated/CMSIS_DSP/SupportFunctions/arm_copy_q7.c ****  * You may obtain a copy of the License at
  19:../Dave/Generated/CMSIS_DSP/SupportFunctions/arm_copy_q7.c ****  *
  20:../Dave/Generated/CMSIS_DSP/SupportFunctions/arm_copy_q7.c ****  * www.apache.org/licenses/LICENSE-2.0
  21:../Dave/Generated/CMSIS_DSP/SupportFunctions/arm_copy_q7.c ****  *
  22:../Dave/Generated/CMSIS_DSP/SupportFunctions/arm_copy_q7.c ****  * Unless required by applicable law or agreed to in writing, software
  23:../Dave/Generated/CMSIS_DSP/SupportFunctions/arm_copy_q7.c ****  * distributed under the License is distributed on an AS IS BASIS, WITHOUT
  24:../Dave/Generated/CMSIS_DSP/SupportFunctions/arm_copy_q7.c ****  * WARRANTIES OR CONDITIONS OF ANY KIND, either express or implied.
  25:../Dave/Generated/CMSIS_DSP/SupportFunctions/arm_copy_q7.c ****  * See the License for the specific language governing permissions and
  26:../Dave/Generated/CMSIS_DSP/SupportFunctions/arm_copy_q7.c ****  * limitations under the License.
  27:../Dave/Generated/CMSIS_DSP/SupportFunctions/arm_copy_q7.c ****  */
  28:../Dave/Generated/CMSIS_DSP/SupportFunctions/arm_copy_q7.c **** 
  29:../Dave/Generated/CMSIS_DSP/SupportFunctions/arm_copy_q7.c **** #include "CMSIS_DSP/cmsis_dsp.h"
  30:../Dave/Generated/CMSIS_DSP/SupportFunctions/arm_copy_q7.c **** 
  31:../Dave/Generated/CMSIS_DSP/SupportFunctions/arm_copy_q7.c **** /**
  32:../Dave/Generated/CMSIS_DSP/SupportFunctions/arm_copy_q7.c ****  * @ingroup groupSupport
  33:../Dave/Generated/CMSIS_DSP/SupportFunctions/arm_copy_q7.c ****  */
  34:../Dave/Generated/CMSIS_DSP/SupportFunctions/arm_copy_q7.c **** 
  35:../Dave/Generated/CMSIS_DSP/SupportFunctions/arm_copy_q7.c **** /**
  36:../Dave/Generated/CMSIS_DSP/SupportFunctions/arm_copy_q7.c ****  * @addtogroup copy
  37:../Dave/Generated/CMSIS_DSP/SupportFunctions/arm_copy_q7.c ****  * @{
  38:../Dave/Generated/CMSIS_DSP/SupportFunctions/arm_copy_q7.c ****  */
  39:../Dave/Generated/CMSIS_DSP/SupportFunctions/arm_copy_q7.c **** 
  40:../Dave/Generated/CMSIS_DSP/SupportFunctions/arm_copy_q7.c **** /**
  41:../Dave/Generated/CMSIS_DSP/SupportFunctions/arm_copy_q7.c ****  * @brief Copies the elements of a Q7 vector.
  42:../Dave/Generated/CMSIS_DSP/SupportFunctions/arm_copy_q7.c ****  * @param[in]       *pSrc points to input vector
  43:../Dave/Generated/CMSIS_DSP/SupportFunctions/arm_copy_q7.c ****  * @param[out]      *pDst points to output vector
  44:../Dave/Generated/CMSIS_DSP/SupportFunctions/arm_copy_q7.c ****  * @param[in]       blockSize length of the input vector
  45:../Dave/Generated/CMSIS_DSP/SupportFunctions/arm_copy_q7.c ****  * @return none.
  46:../Dave/Generated/CMSIS_DSP/SupportFunctions/arm_copy_q7.c ****  *
  47:../Dave/Generated/CMSIS_DSP/SupportFunctions/arm_copy_q7.c ****  */
  48:../Dave/Generated/CMSIS_DSP/SupportFunctions/arm_copy_q7.c **** 
  49:../Dave/Generated/CMSIS_DSP/SupportFunctions/arm_copy_q7.c **** void arm_copy_q7(
  50:../Dave/Generated/CMSIS_DSP/SupportFunctions/arm_copy_q7.c ****   q7_t * pSrc,
  51:../Dave/Generated/CMSIS_DSP/SupportFunctions/arm_copy_q7.c ****   q7_t * pDst,
  52:../Dave/Generated/CMSIS_DSP/SupportFunctions/arm_copy_q7.c ****   uint32_t blockSize)
  53:../Dave/Generated/CMSIS_DSP/SupportFunctions/arm_copy_q7.c **** {
  28              	 .loc 1 53 0
  29              	 .cfi_startproc
  30              	 
  31              	 
  32              	 
  33 0000 80B4     	 push {r7}
  34              	.LCFI0:
  35              	 .cfi_def_cfa_offset 4
  36              	 .cfi_offset 7,-4
  37 0002 87B0     	 sub sp,sp,#28
  38              	.LCFI1:
  39              	 .cfi_def_cfa_offset 32
  40 0004 00AF     	 add r7,sp,#0
  41              	.LCFI2:
  42              	 .cfi_def_cfa_register 7
  43 0006 F860     	 str r0,[r7,#12]
  44 0008 B960     	 str r1,[r7,#8]
  45 000a 7A60     	 str r2,[r7,#4]
  54:../Dave/Generated/CMSIS_DSP/SupportFunctions/arm_copy_q7.c ****   uint32_t blkCnt;                               /* loop counter */
  55:../Dave/Generated/CMSIS_DSP/SupportFunctions/arm_copy_q7.c **** 
  56:../Dave/Generated/CMSIS_DSP/SupportFunctions/arm_copy_q7.c **** #if defined (ARM_MATH_DSP)
  57:../Dave/Generated/CMSIS_DSP/SupportFunctions/arm_copy_q7.c **** 
  58:../Dave/Generated/CMSIS_DSP/SupportFunctions/arm_copy_q7.c ****   /* Run the below code for Cortex-M4 and Cortex-M3 */
  59:../Dave/Generated/CMSIS_DSP/SupportFunctions/arm_copy_q7.c **** 
  60:../Dave/Generated/CMSIS_DSP/SupportFunctions/arm_copy_q7.c ****   /*loop Unrolling */
  61:../Dave/Generated/CMSIS_DSP/SupportFunctions/arm_copy_q7.c ****   blkCnt = blockSize >> 2u;
  46              	 .loc 1 61 0
  47 000c 7B68     	 ldr r3,[r7,#4]
  48 000e 9B08     	 lsrs r3,r3,#2
  49 0010 7B61     	 str r3,[r7,#20]
  62:../Dave/Generated/CMSIS_DSP/SupportFunctions/arm_copy_q7.c **** 
  63:../Dave/Generated/CMSIS_DSP/SupportFunctions/arm_copy_q7.c ****   /* First part of the processing with loop unrolling.  Compute 4 outputs at a time.
  64:../Dave/Generated/CMSIS_DSP/SupportFunctions/arm_copy_q7.c ****    ** a second loop below computes the remaining 1 to 3 samples. */
  65:../Dave/Generated/CMSIS_DSP/SupportFunctions/arm_copy_q7.c ****   while (blkCnt > 0u)
  50              	 .loc 1 65 0
  51 0012 0EE0     	 b .L2
  52              	.L3:
  66:../Dave/Generated/CMSIS_DSP/SupportFunctions/arm_copy_q7.c ****   {
  67:../Dave/Generated/CMSIS_DSP/SupportFunctions/arm_copy_q7.c ****     /* C = A */
  68:../Dave/Generated/CMSIS_DSP/SupportFunctions/arm_copy_q7.c ****     /* Copy and then store the results in the destination buffer */
  69:../Dave/Generated/CMSIS_DSP/SupportFunctions/arm_copy_q7.c ****     /* 4 samples are copied and stored at a time using SIMD */
  70:../Dave/Generated/CMSIS_DSP/SupportFunctions/arm_copy_q7.c ****     *__SIMD32(pDst)++ = *__SIMD32(pSrc)++;
  53              	 .loc 1 70 0
  54 0014 07F10802 	 add r2,r7,#8
  55 0018 1368     	 ldr r3,[r2]
  56 001a 191D     	 adds r1,r3,#4
  57 001c 1160     	 str r1,[r2]
  58 001e 07F10C01 	 add r1,r7,#12
  59 0022 0A68     	 ldr r2,[r1]
  60 0024 101D     	 adds r0,r2,#4
  61 0026 0860     	 str r0,[r1]
  62 0028 1268     	 ldr r2,[r2]
  63 002a 1A60     	 str r2,[r3]
  71:../Dave/Generated/CMSIS_DSP/SupportFunctions/arm_copy_q7.c **** 
  72:../Dave/Generated/CMSIS_DSP/SupportFunctions/arm_copy_q7.c ****     /* Decrement the loop counter */
  73:../Dave/Generated/CMSIS_DSP/SupportFunctions/arm_copy_q7.c ****     blkCnt--;
  64              	 .loc 1 73 0
  65 002c 7B69     	 ldr r3,[r7,#20]
  66 002e 013B     	 subs r3,r3,#1
  67 0030 7B61     	 str r3,[r7,#20]
  68              	.L2:
  65:../Dave/Generated/CMSIS_DSP/SupportFunctions/arm_copy_q7.c ****   {
  69              	 .loc 1 65 0
  70 0032 7B69     	 ldr r3,[r7,#20]
  71 0034 002B     	 cmp r3,#0
  72 0036 EDD1     	 bne .L3
  74:../Dave/Generated/CMSIS_DSP/SupportFunctions/arm_copy_q7.c ****   }
  75:../Dave/Generated/CMSIS_DSP/SupportFunctions/arm_copy_q7.c **** 
  76:../Dave/Generated/CMSIS_DSP/SupportFunctions/arm_copy_q7.c ****   /* If the blockSize is not a multiple of 4, compute any remaining output samples here.
  77:../Dave/Generated/CMSIS_DSP/SupportFunctions/arm_copy_q7.c ****    ** No loop unrolling is used. */
  78:../Dave/Generated/CMSIS_DSP/SupportFunctions/arm_copy_q7.c ****   blkCnt = blockSize % 0x4u;
  73              	 .loc 1 78 0
  74 0038 7B68     	 ldr r3,[r7,#4]
  75 003a 03F00303 	 and r3,r3,#3
  76 003e 7B61     	 str r3,[r7,#20]
  79:../Dave/Generated/CMSIS_DSP/SupportFunctions/arm_copy_q7.c **** 
  80:../Dave/Generated/CMSIS_DSP/SupportFunctions/arm_copy_q7.c **** #else
  81:../Dave/Generated/CMSIS_DSP/SupportFunctions/arm_copy_q7.c **** 
  82:../Dave/Generated/CMSIS_DSP/SupportFunctions/arm_copy_q7.c ****   /* Run the below code for Cortex-M0 */
  83:../Dave/Generated/CMSIS_DSP/SupportFunctions/arm_copy_q7.c **** 
  84:../Dave/Generated/CMSIS_DSP/SupportFunctions/arm_copy_q7.c ****   /* Loop over blockSize number of values */
  85:../Dave/Generated/CMSIS_DSP/SupportFunctions/arm_copy_q7.c ****   blkCnt = blockSize;
  86:../Dave/Generated/CMSIS_DSP/SupportFunctions/arm_copy_q7.c **** 
  87:../Dave/Generated/CMSIS_DSP/SupportFunctions/arm_copy_q7.c **** #endif /* #if defined (ARM_MATH_DSP) */
  88:../Dave/Generated/CMSIS_DSP/SupportFunctions/arm_copy_q7.c **** 
  89:../Dave/Generated/CMSIS_DSP/SupportFunctions/arm_copy_q7.c **** 
  90:../Dave/Generated/CMSIS_DSP/SupportFunctions/arm_copy_q7.c ****   while (blkCnt > 0u)
  77              	 .loc 1 90 0
  78 0040 0AE0     	 b .L4
  79              	.L5:
  91:../Dave/Generated/CMSIS_DSP/SupportFunctions/arm_copy_q7.c ****   {
  92:../Dave/Generated/CMSIS_DSP/SupportFunctions/arm_copy_q7.c ****     /* C = A */
  93:../Dave/Generated/CMSIS_DSP/SupportFunctions/arm_copy_q7.c ****     /* Copy and then store the results in the destination buffer */
  94:../Dave/Generated/CMSIS_DSP/SupportFunctions/arm_copy_q7.c ****     *pDst++ = *pSrc++;
  80              	 .loc 1 94 0
  81 0042 BB68     	 ldr r3,[r7,#8]
  82 0044 5A1C     	 adds r2,r3,#1
  83 0046 BA60     	 str r2,[r7,#8]
  84 0048 FA68     	 ldr r2,[r7,#12]
  85 004a 511C     	 adds r1,r2,#1
  86 004c F960     	 str r1,[r7,#12]
  87 004e 1278     	 ldrb r2,[r2]
  88 0050 1A70     	 strb r2,[r3]
  95:../Dave/Generated/CMSIS_DSP/SupportFunctions/arm_copy_q7.c **** 
  96:../Dave/Generated/CMSIS_DSP/SupportFunctions/arm_copy_q7.c ****     /* Decrement the loop counter */
  97:../Dave/Generated/CMSIS_DSP/SupportFunctions/arm_copy_q7.c ****     blkCnt--;
  89              	 .loc 1 97 0
  90 0052 7B69     	 ldr r3,[r7,#20]
  91 0054 013B     	 subs r3,r3,#1
  92 0056 7B61     	 str r3,[r7,#20]
  93              	.L4:
  90:../Dave/Generated/CMSIS_DSP/SupportFunctions/arm_copy_q7.c ****   {
  94              	 .loc 1 90 0
  95 0058 7B69     	 ldr r3,[r7,#20]
  96 005a 002B     	 cmp r3,#0
  97 005c F1D1     	 bne .L5
  98:../Dave/Generated/CMSIS_DSP/SupportFunctions/arm_copy_q7.c ****   }
  99:../Dave/Generated/CMSIS_DSP/SupportFunctions/arm_copy_q7.c **** }
  98              	 .loc 1 99 0
  99 005e 1C37     	 adds r7,r7,#28
 100              	.LCFI3:
 101              	 .cfi_def_cfa_offset 4
 102 0060 BD46     	 mov sp,r7
 103              	.LCFI4:
 104              	 .cfi_def_cfa_register 13
 105              	 
 106 0062 5DF8047B 	 ldr r7,[sp],#4
 107              	.LCFI5:
 108              	 .cfi_restore 7
 109              	 .cfi_def_cfa_offset 0
 110 0066 7047     	 bx lr
 111              	 .cfi_endproc
 112              	.LFE135:
 114              	 .text
 115              	.Letext0:
 116              	 .file 2 "c:\\program files (x86)\\dave\\eclipse\\arm-gcc-49\\arm-none-eabi\\include\\machine\\_default_types.h"
 117              	 .file 3 "c:\\program files (x86)\\dave\\eclipse\\arm-gcc-49\\arm-none-eabi\\include\\stdint.h"
 118              	 .file 4 "F:/Projects/20190909 - 3phase_inverter/3phase_inverter/4. Software_WS/OL_VSC_vitor/Dave/Generated/CMSIS_DSP/arm_math.h"