   1              	 .syntax unified
   2              	 .cpu cortex-m4
   3              	 .eabi_attribute 27,3
   4              	 .fpu fpv4-sp-d16
   5              	 .eabi_attribute 20,1
   6              	 .eabi_attribute 21,1
   7              	 .eabi_attribute 23,3
   8              	 .eabi_attribute 24,1
   9              	 .eabi_attribute 25,1
  10              	 .eabi_attribute 26,1
  11              	 .eabi_attribute 30,6
  12              	 .eabi_attribute 34,1
  13              	 .eabi_attribute 18,4
  14              	 .thumb
  15              	 .file "arm_q31_to_q15.c"
  16              	 .text
  17              	.Ltext0:
  18              	 .cfi_sections .debug_frame
  19              	 .section .text.arm_q31_to_q15,"ax",%progbits
  20              	 .align 2
  21              	 .global arm_q31_to_q15
  22              	 .thumb
  23              	 .thumb_func
  25              	arm_q31_to_q15:
  26              	.LFB135:
  27              	 .file 1 "../Dave/Generated/CMSIS_DSP/SupportFunctions/arm_q31_to_q15.c"
   1:../Dave/Generated/CMSIS_DSP/SupportFunctions/arm_q31_to_q15.c **** /* ----------------------------------------------------------------------
   2:../Dave/Generated/CMSIS_DSP/SupportFunctions/arm_q31_to_q15.c ****  * Project:      CMSIS DSP Library
   3:../Dave/Generated/CMSIS_DSP/SupportFunctions/arm_q31_to_q15.c ****  * Title:        arm_q31_to_q15.c
   4:../Dave/Generated/CMSIS_DSP/SupportFunctions/arm_q31_to_q15.c ****  * Description:  Converts the elements of the Q31 vector to Q15 vector
   5:../Dave/Generated/CMSIS_DSP/SupportFunctions/arm_q31_to_q15.c ****  *
   6:../Dave/Generated/CMSIS_DSP/SupportFunctions/arm_q31_to_q15.c ****  * $Date:        27. January 2017
   7:../Dave/Generated/CMSIS_DSP/SupportFunctions/arm_q31_to_q15.c ****  * $Revision:    V.1.5.1
   8:../Dave/Generated/CMSIS_DSP/SupportFunctions/arm_q31_to_q15.c ****  *
   9:../Dave/Generated/CMSIS_DSP/SupportFunctions/arm_q31_to_q15.c ****  * Target Processor: Cortex-M cores
  10:../Dave/Generated/CMSIS_DSP/SupportFunctions/arm_q31_to_q15.c ****  * -------------------------------------------------------------------- */
  11:../Dave/Generated/CMSIS_DSP/SupportFunctions/arm_q31_to_q15.c **** /*
  12:../Dave/Generated/CMSIS_DSP/SupportFunctions/arm_q31_to_q15.c ****  * Copyright (C) 2010-2017 ARM Limited or its affiliates. All rights reserved.
  13:../Dave/Generated/CMSIS_DSP/SupportFunctions/arm_q31_to_q15.c ****  *
  14:../Dave/Generated/CMSIS_DSP/SupportFunctions/arm_q31_to_q15.c ****  * SPDX-License-Identifier: Apache-2.0
  15:../Dave/Generated/CMSIS_DSP/SupportFunctions/arm_q31_to_q15.c ****  *
  16:../Dave/Generated/CMSIS_DSP/SupportFunctions/arm_q31_to_q15.c ****  * Licensed under the Apache License, Version 2.0 (the License); you may
  17:../Dave/Generated/CMSIS_DSP/SupportFunctions/arm_q31_to_q15.c ****  * not use this file except in compliance with the License.
  18:../Dave/Generated/CMSIS_DSP/SupportFunctions/arm_q31_to_q15.c ****  * You may obtain a copy of the License at
  19:../Dave/Generated/CMSIS_DSP/SupportFunctions/arm_q31_to_q15.c ****  *
  20:../Dave/Generated/CMSIS_DSP/SupportFunctions/arm_q31_to_q15.c ****  * www.apache.org/licenses/LICENSE-2.0
  21:../Dave/Generated/CMSIS_DSP/SupportFunctions/arm_q31_to_q15.c ****  *
  22:../Dave/Generated/CMSIS_DSP/SupportFunctions/arm_q31_to_q15.c ****  * Unless required by applicable law or agreed to in writing, software
  23:../Dave/Generated/CMSIS_DSP/SupportFunctions/arm_q31_to_q15.c ****  * distributed under the License is distributed on an AS IS BASIS, WITHOUT
  24:../Dave/Generated/CMSIS_DSP/SupportFunctions/arm_q31_to_q15.c ****  * WARRANTIES OR CONDITIONS OF ANY KIND, either express or implied.
  25:../Dave/Generated/CMSIS_DSP/SupportFunctions/arm_q31_to_q15.c ****  * See the License for the specific language governing permissions and
  26:../Dave/Generated/CMSIS_DSP/SupportFunctions/arm_q31_to_q15.c ****  * limitations under the License.
  27:../Dave/Generated/CMSIS_DSP/SupportFunctions/arm_q31_to_q15.c ****  */
  28:../Dave/Generated/CMSIS_DSP/SupportFunctions/arm_q31_to_q15.c **** 
  29:../Dave/Generated/CMSIS_DSP/SupportFunctions/arm_q31_to_q15.c **** #include "CMSIS_DSP/cmsis_dsp.h"
  30:../Dave/Generated/CMSIS_DSP/SupportFunctions/arm_q31_to_q15.c **** 
  31:../Dave/Generated/CMSIS_DSP/SupportFunctions/arm_q31_to_q15.c **** /**
  32:../Dave/Generated/CMSIS_DSP/SupportFunctions/arm_q31_to_q15.c ****  * @ingroup groupSupport
  33:../Dave/Generated/CMSIS_DSP/SupportFunctions/arm_q31_to_q15.c ****  */
  34:../Dave/Generated/CMSIS_DSP/SupportFunctions/arm_q31_to_q15.c **** 
  35:../Dave/Generated/CMSIS_DSP/SupportFunctions/arm_q31_to_q15.c **** /**
  36:../Dave/Generated/CMSIS_DSP/SupportFunctions/arm_q31_to_q15.c ****  * @addtogroup q31_to_x
  37:../Dave/Generated/CMSIS_DSP/SupportFunctions/arm_q31_to_q15.c ****  * @{
  38:../Dave/Generated/CMSIS_DSP/SupportFunctions/arm_q31_to_q15.c ****  */
  39:../Dave/Generated/CMSIS_DSP/SupportFunctions/arm_q31_to_q15.c **** 
  40:../Dave/Generated/CMSIS_DSP/SupportFunctions/arm_q31_to_q15.c **** /**
  41:../Dave/Generated/CMSIS_DSP/SupportFunctions/arm_q31_to_q15.c ****  * @brief Converts the elements of the Q31 vector to Q15 vector.
  42:../Dave/Generated/CMSIS_DSP/SupportFunctions/arm_q31_to_q15.c ****  * @param[in]       *pSrc points to the Q31 input vector
  43:../Dave/Generated/CMSIS_DSP/SupportFunctions/arm_q31_to_q15.c ****  * @param[out]      *pDst points to the Q15 output vector
  44:../Dave/Generated/CMSIS_DSP/SupportFunctions/arm_q31_to_q15.c ****  * @param[in]       blockSize length of the input vector
  45:../Dave/Generated/CMSIS_DSP/SupportFunctions/arm_q31_to_q15.c ****  * @return none.
  46:../Dave/Generated/CMSIS_DSP/SupportFunctions/arm_q31_to_q15.c ****  *
  47:../Dave/Generated/CMSIS_DSP/SupportFunctions/arm_q31_to_q15.c ****  * \par Description:
  48:../Dave/Generated/CMSIS_DSP/SupportFunctions/arm_q31_to_q15.c ****  *
  49:../Dave/Generated/CMSIS_DSP/SupportFunctions/arm_q31_to_q15.c ****  * The equation used for the conversion process is:
  50:../Dave/Generated/CMSIS_DSP/SupportFunctions/arm_q31_to_q15.c ****  *
  51:../Dave/Generated/CMSIS_DSP/SupportFunctions/arm_q31_to_q15.c ****  * <pre>
  52:../Dave/Generated/CMSIS_DSP/SupportFunctions/arm_q31_to_q15.c ****  * 	pDst[n] = (q15_t) pSrc[n] >> 16;   0 <= n < blockSize.
  53:../Dave/Generated/CMSIS_DSP/SupportFunctions/arm_q31_to_q15.c ****  * </pre>
  54:../Dave/Generated/CMSIS_DSP/SupportFunctions/arm_q31_to_q15.c ****  *
  55:../Dave/Generated/CMSIS_DSP/SupportFunctions/arm_q31_to_q15.c ****  */
  56:../Dave/Generated/CMSIS_DSP/SupportFunctions/arm_q31_to_q15.c **** 
  57:../Dave/Generated/CMSIS_DSP/SupportFunctions/arm_q31_to_q15.c **** 
  58:../Dave/Generated/CMSIS_DSP/SupportFunctions/arm_q31_to_q15.c **** void arm_q31_to_q15(
  59:../Dave/Generated/CMSIS_DSP/SupportFunctions/arm_q31_to_q15.c ****   q31_t * pSrc,
  60:../Dave/Generated/CMSIS_DSP/SupportFunctions/arm_q31_to_q15.c ****   q15_t * pDst,
  61:../Dave/Generated/CMSIS_DSP/SupportFunctions/arm_q31_to_q15.c ****   uint32_t blockSize)
  62:../Dave/Generated/CMSIS_DSP/SupportFunctions/arm_q31_to_q15.c **** {
  28              	 .loc 1 62 0
  29              	 .cfi_startproc
  30              	 
  31              	 
  32              	 
  33 0000 80B4     	 push {r7}
  34              	.LCFI0:
  35              	 .cfi_def_cfa_offset 4
  36              	 .cfi_offset 7,-4
  37 0002 8DB0     	 sub sp,sp,#52
  38              	.LCFI1:
  39              	 .cfi_def_cfa_offset 56
  40 0004 00AF     	 add r7,sp,#0
  41              	.LCFI2:
  42              	 .cfi_def_cfa_register 7
  43 0006 F860     	 str r0,[r7,#12]
  44 0008 B960     	 str r1,[r7,#8]
  45 000a 7A60     	 str r2,[r7,#4]
  63:../Dave/Generated/CMSIS_DSP/SupportFunctions/arm_q31_to_q15.c ****   q31_t *pIn = pSrc;                             /* Src pointer */
  46              	 .loc 1 63 0
  47 000c FB68     	 ldr r3,[r7,#12]
  48 000e FB62     	 str r3,[r7,#44]
  64:../Dave/Generated/CMSIS_DSP/SupportFunctions/arm_q31_to_q15.c ****   uint32_t blkCnt;                               /* loop counter */
  65:../Dave/Generated/CMSIS_DSP/SupportFunctions/arm_q31_to_q15.c **** 
  66:../Dave/Generated/CMSIS_DSP/SupportFunctions/arm_q31_to_q15.c **** #if defined (ARM_MATH_DSP)
  67:../Dave/Generated/CMSIS_DSP/SupportFunctions/arm_q31_to_q15.c **** 
  68:../Dave/Generated/CMSIS_DSP/SupportFunctions/arm_q31_to_q15.c ****   /* Run the below code for Cortex-M4 and Cortex-M3 */
  69:../Dave/Generated/CMSIS_DSP/SupportFunctions/arm_q31_to_q15.c ****   q31_t in1, in2, in3, in4;
  70:../Dave/Generated/CMSIS_DSP/SupportFunctions/arm_q31_to_q15.c ****   q31_t out1, out2;
  71:../Dave/Generated/CMSIS_DSP/SupportFunctions/arm_q31_to_q15.c **** 
  72:../Dave/Generated/CMSIS_DSP/SupportFunctions/arm_q31_to_q15.c ****   /*loop Unrolling */
  73:../Dave/Generated/CMSIS_DSP/SupportFunctions/arm_q31_to_q15.c ****   blkCnt = blockSize >> 2u;
  49              	 .loc 1 73 0
  50 0010 7B68     	 ldr r3,[r7,#4]
  51 0012 9B08     	 lsrs r3,r3,#2
  52 0014 BB62     	 str r3,[r7,#40]
  74:../Dave/Generated/CMSIS_DSP/SupportFunctions/arm_q31_to_q15.c **** 
  75:../Dave/Generated/CMSIS_DSP/SupportFunctions/arm_q31_to_q15.c ****   /* First part of the processing with loop unrolling.  Compute 4 outputs at a time.
  76:../Dave/Generated/CMSIS_DSP/SupportFunctions/arm_q31_to_q15.c ****    ** a second loop below computes the remaining 1 to 3 samples. */
  77:../Dave/Generated/CMSIS_DSP/SupportFunctions/arm_q31_to_q15.c ****   while (blkCnt > 0u)
  53              	 .loc 1 77 0
  54 0016 32E0     	 b .L2
  55              	.L3:
  78:../Dave/Generated/CMSIS_DSP/SupportFunctions/arm_q31_to_q15.c ****   {
  79:../Dave/Generated/CMSIS_DSP/SupportFunctions/arm_q31_to_q15.c ****     /* C = (q15_t) A >> 16 */
  80:../Dave/Generated/CMSIS_DSP/SupportFunctions/arm_q31_to_q15.c ****     /* convert from q31 to q15 and then store the results in the destination buffer */
  81:../Dave/Generated/CMSIS_DSP/SupportFunctions/arm_q31_to_q15.c ****     in1 = *pIn++;
  56              	 .loc 1 81 0
  57 0018 FB6A     	 ldr r3,[r7,#44]
  58 001a 1A1D     	 adds r2,r3,#4
  59 001c FA62     	 str r2,[r7,#44]
  60 001e 1B68     	 ldr r3,[r3]
  61 0020 7B62     	 str r3,[r7,#36]
  82:../Dave/Generated/CMSIS_DSP/SupportFunctions/arm_q31_to_q15.c ****     in2 = *pIn++;
  62              	 .loc 1 82 0
  63 0022 FB6A     	 ldr r3,[r7,#44]
  64 0024 1A1D     	 adds r2,r3,#4
  65 0026 FA62     	 str r2,[r7,#44]
  66 0028 1B68     	 ldr r3,[r3]
  67 002a 3B62     	 str r3,[r7,#32]
  83:../Dave/Generated/CMSIS_DSP/SupportFunctions/arm_q31_to_q15.c ****     in3 = *pIn++;
  68              	 .loc 1 83 0
  69 002c FB6A     	 ldr r3,[r7,#44]
  70 002e 1A1D     	 adds r2,r3,#4
  71 0030 FA62     	 str r2,[r7,#44]
  72 0032 1B68     	 ldr r3,[r3]
  73 0034 FB61     	 str r3,[r7,#28]
  84:../Dave/Generated/CMSIS_DSP/SupportFunctions/arm_q31_to_q15.c ****     in4 = *pIn++;
  74              	 .loc 1 84 0
  75 0036 FB6A     	 ldr r3,[r7,#44]
  76 0038 1A1D     	 adds r2,r3,#4
  77 003a FA62     	 str r2,[r7,#44]
  78 003c 1B68     	 ldr r3,[r3]
  79 003e BB61     	 str r3,[r7,#24]
  85:../Dave/Generated/CMSIS_DSP/SupportFunctions/arm_q31_to_q15.c **** 
  86:../Dave/Generated/CMSIS_DSP/SupportFunctions/arm_q31_to_q15.c ****     /* pack two higher 16-bit values from two 32-bit values */
  87:../Dave/Generated/CMSIS_DSP/SupportFunctions/arm_q31_to_q15.c **** #ifndef ARM_MATH_BIG_ENDIAN
  88:../Dave/Generated/CMSIS_DSP/SupportFunctions/arm_q31_to_q15.c **** 
  89:../Dave/Generated/CMSIS_DSP/SupportFunctions/arm_q31_to_q15.c ****     out1 = __PKHTB(in2, in1, 16);
  80              	 .loc 1 89 0
  81 0040 3B6A     	 ldr r3,[r7,#32]
  82 0042 1B0C     	 lsrs r3,r3,#16
  83 0044 1B04     	 lsls r3,r3,#16
  84 0046 7A6A     	 ldr r2,[r7,#36]
  85 0048 120C     	 lsrs r2,r2,#16
  86 004a 1343     	 orrs r3,r3,r2
  87 004c 7B61     	 str r3,[r7,#20]
  90:../Dave/Generated/CMSIS_DSP/SupportFunctions/arm_q31_to_q15.c ****     out2 = __PKHTB(in4, in3, 16);
  88              	 .loc 1 90 0
  89 004e BB69     	 ldr r3,[r7,#24]
  90 0050 1B0C     	 lsrs r3,r3,#16
  91 0052 1B04     	 lsls r3,r3,#16
  92 0054 FA69     	 ldr r2,[r7,#28]
  93 0056 120C     	 lsrs r2,r2,#16
  94 0058 1343     	 orrs r3,r3,r2
  95 005a 3B61     	 str r3,[r7,#16]
  91:../Dave/Generated/CMSIS_DSP/SupportFunctions/arm_q31_to_q15.c **** 
  92:../Dave/Generated/CMSIS_DSP/SupportFunctions/arm_q31_to_q15.c **** #else
  93:../Dave/Generated/CMSIS_DSP/SupportFunctions/arm_q31_to_q15.c **** 
  94:../Dave/Generated/CMSIS_DSP/SupportFunctions/arm_q31_to_q15.c ****     out1 = __PKHTB(in1, in2, 16);
  95:../Dave/Generated/CMSIS_DSP/SupportFunctions/arm_q31_to_q15.c ****     out2 = __PKHTB(in3, in4, 16);
  96:../Dave/Generated/CMSIS_DSP/SupportFunctions/arm_q31_to_q15.c **** 
  97:../Dave/Generated/CMSIS_DSP/SupportFunctions/arm_q31_to_q15.c **** #endif //      #ifdef ARM_MATH_BIG_ENDIAN
  98:../Dave/Generated/CMSIS_DSP/SupportFunctions/arm_q31_to_q15.c **** 
  99:../Dave/Generated/CMSIS_DSP/SupportFunctions/arm_q31_to_q15.c ****     *__SIMD32(pDst)++ = out1;
  96              	 .loc 1 99 0
  97 005c 07F10802 	 add r2,r7,#8
  98 0060 1368     	 ldr r3,[r2]
  99 0062 191D     	 adds r1,r3,#4
 100 0064 1160     	 str r1,[r2]
 101 0066 7A69     	 ldr r2,[r7,#20]
 102 0068 1A60     	 str r2,[r3]
 100:../Dave/Generated/CMSIS_DSP/SupportFunctions/arm_q31_to_q15.c ****     *__SIMD32(pDst)++ = out2;
 103              	 .loc 1 100 0
 104 006a 07F10802 	 add r2,r7,#8
 105 006e 1368     	 ldr r3,[r2]
 106 0070 191D     	 adds r1,r3,#4
 107 0072 1160     	 str r1,[r2]
 108 0074 3A69     	 ldr r2,[r7,#16]
 109 0076 1A60     	 str r2,[r3]
 101:../Dave/Generated/CMSIS_DSP/SupportFunctions/arm_q31_to_q15.c **** 
 102:../Dave/Generated/CMSIS_DSP/SupportFunctions/arm_q31_to_q15.c ****     /* Decrement the loop counter */
 103:../Dave/Generated/CMSIS_DSP/SupportFunctions/arm_q31_to_q15.c ****     blkCnt--;
 110              	 .loc 1 103 0
 111 0078 BB6A     	 ldr r3,[r7,#40]
 112 007a 013B     	 subs r3,r3,#1
 113 007c BB62     	 str r3,[r7,#40]
 114              	.L2:
  77:../Dave/Generated/CMSIS_DSP/SupportFunctions/arm_q31_to_q15.c ****   {
 115              	 .loc 1 77 0
 116 007e BB6A     	 ldr r3,[r7,#40]
 117 0080 002B     	 cmp r3,#0
 118 0082 C9D1     	 bne .L3
 104:../Dave/Generated/CMSIS_DSP/SupportFunctions/arm_q31_to_q15.c ****   }
 105:../Dave/Generated/CMSIS_DSP/SupportFunctions/arm_q31_to_q15.c **** 
 106:../Dave/Generated/CMSIS_DSP/SupportFunctions/arm_q31_to_q15.c ****   /* If the blockSize is not a multiple of 4, compute any remaining output samples here.
 107:../Dave/Generated/CMSIS_DSP/SupportFunctions/arm_q31_to_q15.c ****    ** No loop unrolling is used. */
 108:../Dave/Generated/CMSIS_DSP/SupportFunctions/arm_q31_to_q15.c ****   blkCnt = blockSize % 0x4u;
 119              	 .loc 1 108 0
 120 0084 7B68     	 ldr r3,[r7,#4]
 121 0086 03F00303 	 and r3,r3,#3
 122 008a BB62     	 str r3,[r7,#40]
 109:../Dave/Generated/CMSIS_DSP/SupportFunctions/arm_q31_to_q15.c **** 
 110:../Dave/Generated/CMSIS_DSP/SupportFunctions/arm_q31_to_q15.c **** #else
 111:../Dave/Generated/CMSIS_DSP/SupportFunctions/arm_q31_to_q15.c **** 
 112:../Dave/Generated/CMSIS_DSP/SupportFunctions/arm_q31_to_q15.c ****   /* Run the below code for Cortex-M0 */
 113:../Dave/Generated/CMSIS_DSP/SupportFunctions/arm_q31_to_q15.c **** 
 114:../Dave/Generated/CMSIS_DSP/SupportFunctions/arm_q31_to_q15.c ****   /* Loop over blockSize number of values */
 115:../Dave/Generated/CMSIS_DSP/SupportFunctions/arm_q31_to_q15.c ****   blkCnt = blockSize;
 116:../Dave/Generated/CMSIS_DSP/SupportFunctions/arm_q31_to_q15.c **** 
 117:../Dave/Generated/CMSIS_DSP/SupportFunctions/arm_q31_to_q15.c **** #endif /* #if defined (ARM_MATH_DSP) */
 118:../Dave/Generated/CMSIS_DSP/SupportFunctions/arm_q31_to_q15.c **** 
 119:../Dave/Generated/CMSIS_DSP/SupportFunctions/arm_q31_to_q15.c ****   while (blkCnt > 0u)
 123              	 .loc 1 119 0
 124 008c 0CE0     	 b .L4
 125              	.L5:
 120:../Dave/Generated/CMSIS_DSP/SupportFunctions/arm_q31_to_q15.c ****   {
 121:../Dave/Generated/CMSIS_DSP/SupportFunctions/arm_q31_to_q15.c ****     /* C = (q15_t) A >> 16 */
 122:../Dave/Generated/CMSIS_DSP/SupportFunctions/arm_q31_to_q15.c ****     /* convert from q31 to q15 and then store the results in the destination buffer */
 123:../Dave/Generated/CMSIS_DSP/SupportFunctions/arm_q31_to_q15.c ****     *pDst++ = (q15_t) (*pIn++ >> 16);
 126              	 .loc 1 123 0
 127 008e BB68     	 ldr r3,[r7,#8]
 128 0090 9A1C     	 adds r2,r3,#2
 129 0092 BA60     	 str r2,[r7,#8]
 130 0094 FA6A     	 ldr r2,[r7,#44]
 131 0096 111D     	 adds r1,r2,#4
 132 0098 F962     	 str r1,[r7,#44]
 133 009a 1268     	 ldr r2,[r2]
 134 009c 1214     	 asrs r2,r2,#16
 135 009e 92B2     	 uxth r2,r2
 136 00a0 1A80     	 strh r2,[r3]
 124:../Dave/Generated/CMSIS_DSP/SupportFunctions/arm_q31_to_q15.c **** 
 125:../Dave/Generated/CMSIS_DSP/SupportFunctions/arm_q31_to_q15.c ****     /* Decrement the loop counter */
 126:../Dave/Generated/CMSIS_DSP/SupportFunctions/arm_q31_to_q15.c ****     blkCnt--;
 137              	 .loc 1 126 0
 138 00a2 BB6A     	 ldr r3,[r7,#40]
 139 00a4 013B     	 subs r3,r3,#1
 140 00a6 BB62     	 str r3,[r7,#40]
 141              	.L4:
 119:../Dave/Generated/CMSIS_DSP/SupportFunctions/arm_q31_to_q15.c ****   {
 142              	 .loc 1 119 0
 143 00a8 BB6A     	 ldr r3,[r7,#40]
 144 00aa 002B     	 cmp r3,#0
 145 00ac EFD1     	 bne .L5
 127:../Dave/Generated/CMSIS_DSP/SupportFunctions/arm_q31_to_q15.c ****   }
 128:../Dave/Generated/CMSIS_DSP/SupportFunctions/arm_q31_to_q15.c **** 
 129:../Dave/Generated/CMSIS_DSP/SupportFunctions/arm_q31_to_q15.c **** }
 146              	 .loc 1 129 0
 147 00ae 3437     	 adds r7,r7,#52
 148              	.LCFI3:
 149              	 .cfi_def_cfa_offset 4
 150 00b0 BD46     	 mov sp,r7
 151              	.LCFI4:
 152              	 .cfi_def_cfa_register 13
 153              	 
 154 00b2 5DF8047B 	 ldr r7,[sp],#4
 155              	.LCFI5:
 156              	 .cfi_restore 7
 157              	 .cfi_def_cfa_offset 0
 158 00b6 7047     	 bx lr
 159              	 .cfi_endproc
 160              	.LFE135:
 162              	 .text
 163              	.Letext0:
 164              	 .file 2 "c:\\program files (x86)\\dave\\eclipse\\arm-gcc-49\\arm-none-eabi\\include\\machine\\_default_types.h"
 165              	 .file 3 "c:\\program files (x86)\\dave\\eclipse\\arm-gcc-49\\arm-none-eabi\\include\\stdint.h"
 166              	 .file 4 "F:/Projects/20190909 - 3phase_inverter/3phase_inverter/4. Software_WS/OL_VSC_vitor/Dave/Generated/CMSIS_DSP/arm_math.h"