   1              	 .syntax unified
   2              	 .cpu cortex-m4
   3              	 .eabi_attribute 27,3
   4              	 .fpu fpv4-sp-d16
   5              	 .eabi_attribute 20,1
   6              	 .eabi_attribute 21,1
   7              	 .eabi_attribute 23,3
   8              	 .eabi_attribute 24,1
   9              	 .eabi_attribute 25,1
  10              	 .eabi_attribute 26,1
  11              	 .eabi_attribute 30,6
  12              	 .eabi_attribute 34,1
  13              	 .eabi_attribute 18,4
  14              	 .thumb
  15              	 .file "xmc_eth_mac.c"
  16              	 .text
  17              	.Ltext0:
  18              	 .cfi_sections .debug_frame
  19              	 .section .text.XMC_ETH_MAC_Reset,"ax",%progbits
  20              	 .align 2
  21              	 .thumb
  22              	 .thumb_func
  24              	XMC_ETH_MAC_Reset:
  25              	.LFB128:
  26              	 .file 1 "F:/Projects/20190909 - 3phase_inverter/3phase_inverter/4. Software_WS/OL_VSC_vitor/Libraries/XMCLib/inc/xmc_eth_mac.h"
   1:F:/Projects/20190909 - 3phase_inverter/3phase_inverter/4. Software_WS/OL_VSC_vitor/Libraries/XMCLib/inc\xmc_eth_mac.h **** 
   2:F:/Projects/20190909 - 3phase_inverter/3phase_inverter/4. Software_WS/OL_VSC_vitor/Libraries/XMCLib/inc\xmc_eth_mac.h **** /**
   3:F:/Projects/20190909 - 3phase_inverter/3phase_inverter/4. Software_WS/OL_VSC_vitor/Libraries/XMCLib/inc\xmc_eth_mac.h ****  * @file xmc_eth_mac.h
   4:F:/Projects/20190909 - 3phase_inverter/3phase_inverter/4. Software_WS/OL_VSC_vitor/Libraries/XMCLib/inc\xmc_eth_mac.h ****  * @date 2017-04-17
   5:F:/Projects/20190909 - 3phase_inverter/3phase_inverter/4. Software_WS/OL_VSC_vitor/Libraries/XMCLib/inc\xmc_eth_mac.h ****  *
   6:F:/Projects/20190909 - 3phase_inverter/3phase_inverter/4. Software_WS/OL_VSC_vitor/Libraries/XMCLib/inc\xmc_eth_mac.h ****  * @cond
   7:F:/Projects/20190909 - 3phase_inverter/3phase_inverter/4. Software_WS/OL_VSC_vitor/Libraries/XMCLib/inc\xmc_eth_mac.h ****  **************************************************************************************************
   8:F:/Projects/20190909 - 3phase_inverter/3phase_inverter/4. Software_WS/OL_VSC_vitor/Libraries/XMCLib/inc\xmc_eth_mac.h ****  * XMClib v2.1.12 - XMC Peripheral Driver Library 
   9:F:/Projects/20190909 - 3phase_inverter/3phase_inverter/4. Software_WS/OL_VSC_vitor/Libraries/XMCLib/inc\xmc_eth_mac.h ****  *
  10:F:/Projects/20190909 - 3phase_inverter/3phase_inverter/4. Software_WS/OL_VSC_vitor/Libraries/XMCLib/inc\xmc_eth_mac.h ****  * Copyright (c) 2015-2017, Infineon Technologies AG
  11:F:/Projects/20190909 - 3phase_inverter/3phase_inverter/4. Software_WS/OL_VSC_vitor/Libraries/XMCLib/inc\xmc_eth_mac.h ****  * All rights reserved.                        
  12:F:/Projects/20190909 - 3phase_inverter/3phase_inverter/4. Software_WS/OL_VSC_vitor/Libraries/XMCLib/inc\xmc_eth_mac.h ****  *                                             
  13:F:/Projects/20190909 - 3phase_inverter/3phase_inverter/4. Software_WS/OL_VSC_vitor/Libraries/XMCLib/inc\xmc_eth_mac.h ****  * Redistribution and use in source and binary forms, with or without modification,are permitted pr
  14:F:/Projects/20190909 - 3phase_inverter/3phase_inverter/4. Software_WS/OL_VSC_vitor/Libraries/XMCLib/inc\xmc_eth_mac.h ****  * following conditions are met:   
  15:F:/Projects/20190909 - 3phase_inverter/3phase_inverter/4. Software_WS/OL_VSC_vitor/Libraries/XMCLib/inc\xmc_eth_mac.h ****  *                                                                              
  16:F:/Projects/20190909 - 3phase_inverter/3phase_inverter/4. Software_WS/OL_VSC_vitor/Libraries/XMCLib/inc\xmc_eth_mac.h ****  * Redistributions of source code must retain the above copyright notice, this list of conditions a
  17:F:/Projects/20190909 - 3phase_inverter/3phase_inverter/4. Software_WS/OL_VSC_vitor/Libraries/XMCLib/inc\xmc_eth_mac.h ****  * disclaimer.                        
  18:F:/Projects/20190909 - 3phase_inverter/3phase_inverter/4. Software_WS/OL_VSC_vitor/Libraries/XMCLib/inc\xmc_eth_mac.h ****  * 
  19:F:/Projects/20190909 - 3phase_inverter/3phase_inverter/4. Software_WS/OL_VSC_vitor/Libraries/XMCLib/inc\xmc_eth_mac.h ****  * Redistributions in binary form must reproduce the above copyright notice, this list of condition
  20:F:/Projects/20190909 - 3phase_inverter/3phase_inverter/4. Software_WS/OL_VSC_vitor/Libraries/XMCLib/inc\xmc_eth_mac.h ****  * disclaimer in the documentation and/or other materials provided with the distribution.          
  21:F:/Projects/20190909 - 3phase_inverter/3phase_inverter/4. Software_WS/OL_VSC_vitor/Libraries/XMCLib/inc\xmc_eth_mac.h ****  * 
  22:F:/Projects/20190909 - 3phase_inverter/3phase_inverter/4. Software_WS/OL_VSC_vitor/Libraries/XMCLib/inc\xmc_eth_mac.h ****  * Neither the name of the copyright holders nor the names of its contributors may be used to endor
  23:F:/Projects/20190909 - 3phase_inverter/3phase_inverter/4. Software_WS/OL_VSC_vitor/Libraries/XMCLib/inc\xmc_eth_mac.h ****  * products derived from this software without specific prior written permission.                  
  24:F:/Projects/20190909 - 3phase_inverter/3phase_inverter/4. Software_WS/OL_VSC_vitor/Libraries/XMCLib/inc\xmc_eth_mac.h ****  *                                                                              
  25:F:/Projects/20190909 - 3phase_inverter/3phase_inverter/4. Software_WS/OL_VSC_vitor/Libraries/XMCLib/inc\xmc_eth_mac.h ****  * THIS SOFTWARE IS PROVIDED BY THE COPYRIGHT HOLDERS AND CONTRIBUTORS "AS IS" AND ANY EXPRESS OR I
  26:F:/Projects/20190909 - 3phase_inverter/3phase_inverter/4. Software_WS/OL_VSC_vitor/Libraries/XMCLib/inc\xmc_eth_mac.h ****  * INCLUDING, BUT NOT LIMITED TO, THE IMPLIED WARRANTIES OF MERCHANTABILITY AND FITNESS FOR A PARTI
  27:F:/Projects/20190909 - 3phase_inverter/3phase_inverter/4. Software_WS/OL_VSC_vitor/Libraries/XMCLib/inc\xmc_eth_mac.h ****  * DISCLAIMED. IN NO EVENT SHALL THE COPYRIGHT HOLDER OR CONTRIBUTORS BE LIABLE  FOR ANY DIRECT, IN
  28:F:/Projects/20190909 - 3phase_inverter/3phase_inverter/4. Software_WS/OL_VSC_vitor/Libraries/XMCLib/inc\xmc_eth_mac.h ****  * SPECIAL, EXEMPLARY, OR CONSEQUENTIAL DAMAGES (INCLUDING, BUT NOT LIMITED TO, PROCUREMENT OF SUBS
  29:F:/Projects/20190909 - 3phase_inverter/3phase_inverter/4. Software_WS/OL_VSC_vitor/Libraries/XMCLib/inc\xmc_eth_mac.h ****  * SERVICES; LOSS OF USE, DATA, OR PROFITS; OR BUSINESS INTERRUPTION) HOWEVER CAUSED AND ON ANY THE
  30:F:/Projects/20190909 - 3phase_inverter/3phase_inverter/4. Software_WS/OL_VSC_vitor/Libraries/XMCLib/inc\xmc_eth_mac.h ****  * WHETHER IN CONTRACT, STRICT LIABILITY,OR TORT (INCLUDING NEGLIGENCE OR OTHERWISE) ARISING IN ANY
  31:F:/Projects/20190909 - 3phase_inverter/3phase_inverter/4. Software_WS/OL_VSC_vitor/Libraries/XMCLib/inc\xmc_eth_mac.h ****  * OF THIS SOFTWARE, EVEN IF ADVISED OF THE POSSIBILITY OF SUCH DAMAGE.                            
  32:F:/Projects/20190909 - 3phase_inverter/3phase_inverter/4. Software_WS/OL_VSC_vitor/Libraries/XMCLib/inc\xmc_eth_mac.h ****  *                                                                              
  33:F:/Projects/20190909 - 3phase_inverter/3phase_inverter/4. Software_WS/OL_VSC_vitor/Libraries/XMCLib/inc\xmc_eth_mac.h ****  * To improve the quality of the software, users are encouraged to share modifications, enhancement
  34:F:/Projects/20190909 - 3phase_inverter/3phase_inverter/4. Software_WS/OL_VSC_vitor/Libraries/XMCLib/inc\xmc_eth_mac.h ****  * Infineon Technologies AG dave@infineon.com).                                                    
  35:F:/Projects/20190909 - 3phase_inverter/3phase_inverter/4. Software_WS/OL_VSC_vitor/Libraries/XMCLib/inc\xmc_eth_mac.h ****  **************************************************************************************************
  36:F:/Projects/20190909 - 3phase_inverter/3phase_inverter/4. Software_WS/OL_VSC_vitor/Libraries/XMCLib/inc\xmc_eth_mac.h ****  *
  37:F:/Projects/20190909 - 3phase_inverter/3phase_inverter/4. Software_WS/OL_VSC_vitor/Libraries/XMCLib/inc\xmc_eth_mac.h ****  * Change History
  38:F:/Projects/20190909 - 3phase_inverter/3phase_inverter/4. Software_WS/OL_VSC_vitor/Libraries/XMCLib/inc\xmc_eth_mac.h ****  * --------------
  39:F:/Projects/20190909 - 3phase_inverter/3phase_inverter/4. Software_WS/OL_VSC_vitor/Libraries/XMCLib/inc\xmc_eth_mac.h ****  *
  40:F:/Projects/20190909 - 3phase_inverter/3phase_inverter/4. Software_WS/OL_VSC_vitor/Libraries/XMCLib/inc\xmc_eth_mac.h ****  * 2015-06-20:
  41:F:/Projects/20190909 - 3phase_inverter/3phase_inverter/4. Software_WS/OL_VSC_vitor/Libraries/XMCLib/inc\xmc_eth_mac.h ****  *     - Initial
  42:F:/Projects/20190909 - 3phase_inverter/3phase_inverter/4. Software_WS/OL_VSC_vitor/Libraries/XMCLib/inc\xmc_eth_mac.h ****  *
  43:F:/Projects/20190909 - 3phase_inverter/3phase_inverter/4. Software_WS/OL_VSC_vitor/Libraries/XMCLib/inc\xmc_eth_mac.h ****  * 2016-04-25:
  44:F:/Projects/20190909 - 3phase_inverter/3phase_inverter/4. Software_WS/OL_VSC_vitor/Libraries/XMCLib/inc\xmc_eth_mac.h ****  *     - Change XMC_ETH_MAC_BUF_SIZE to 1524 to allow for Tagged MAC frame format
  45:F:/Projects/20190909 - 3phase_inverter/3phase_inverter/4. Software_WS/OL_VSC_vitor/Libraries/XMCLib/inc\xmc_eth_mac.h ****  *  
  46:F:/Projects/20190909 - 3phase_inverter/3phase_inverter/4. Software_WS/OL_VSC_vitor/Libraries/XMCLib/inc\xmc_eth_mac.h ****  * 2016-05-19:
  47:F:/Projects/20190909 - 3phase_inverter/3phase_inverter/4. Software_WS/OL_VSC_vitor/Libraries/XMCLib/inc\xmc_eth_mac.h ****  *      - Added XMC_ETH_MAC_GetTxBuffer() and XMC_ETH_MAC_GetRxBuffer()
  48:F:/Projects/20190909 - 3phase_inverter/3phase_inverter/4. Software_WS/OL_VSC_vitor/Libraries/XMCLib/inc\xmc_eth_mac.h ****  *      - Added XMC_ETH_MAC_SetTxBufferSize()
  49:F:/Projects/20190909 - 3phase_inverter/3phase_inverter/4. Software_WS/OL_VSC_vitor/Libraries/XMCLib/inc\xmc_eth_mac.h ****  *
  50:F:/Projects/20190909 - 3phase_inverter/3phase_inverter/4. Software_WS/OL_VSC_vitor/Libraries/XMCLib/inc\xmc_eth_mac.h ****  * 2016-06-08:
  51:F:/Projects/20190909 - 3phase_inverter/3phase_inverter/4. Software_WS/OL_VSC_vitor/Libraries/XMCLib/inc\xmc_eth_mac.h ****  *      - Added XMC_ETH_MAC_IsRxDescriptorOwnedByDma()
  52:F:/Projects/20190909 - 3phase_inverter/3phase_inverter/4. Software_WS/OL_VSC_vitor/Libraries/XMCLib/inc\xmc_eth_mac.h ****  * 
  53:F:/Projects/20190909 - 3phase_inverter/3phase_inverter/4. Software_WS/OL_VSC_vitor/Libraries/XMCLib/inc\xmc_eth_mac.h ****  * 2017-02-25:
  54:F:/Projects/20190909 - 3phase_inverter/3phase_inverter/4. Software_WS/OL_VSC_vitor/Libraries/XMCLib/inc\xmc_eth_mac.h ****  *      - XMC_ETH_MAC_SetPortControl() fixed compilation warning
  55:F:/Projects/20190909 - 3phase_inverter/3phase_inverter/4. Software_WS/OL_VSC_vitor/Libraries/XMCLib/inc\xmc_eth_mac.h ****  *
  56:F:/Projects/20190909 - 3phase_inverter/3phase_inverter/4. Software_WS/OL_VSC_vitor/Libraries/XMCLib/inc\xmc_eth_mac.h ****  * 2017-04-02:
  57:F:/Projects/20190909 - 3phase_inverter/3phase_inverter/4. Software_WS/OL_VSC_vitor/Libraries/XMCLib/inc\xmc_eth_mac.h ****  *     - Added XMC_ETH_MAC_InitPTPEx()
  58:F:/Projects/20190909 - 3phase_inverter/3phase_inverter/4. Software_WS/OL_VSC_vitor/Libraries/XMCLib/inc\xmc_eth_mac.h ****  *     - Added XMC_ETH_MAC_SetPTPTime()
  59:F:/Projects/20190909 - 3phase_inverter/3phase_inverter/4. Software_WS/OL_VSC_vitor/Libraries/XMCLib/inc\xmc_eth_mac.h ****  *     - Added XMC_ETH_MAC_UpdateAddend()
  60:F:/Projects/20190909 - 3phase_inverter/3phase_inverter/4. Software_WS/OL_VSC_vitor/Libraries/XMCLib/inc\xmc_eth_mac.h ****  *
  61:F:/Projects/20190909 - 3phase_inverter/3phase_inverter/4. Software_WS/OL_VSC_vitor/Libraries/XMCLib/inc\xmc_eth_mac.h ****  * 2017-04-11:
  62:F:/Projects/20190909 - 3phase_inverter/3phase_inverter/4. Software_WS/OL_VSC_vitor/Libraries/XMCLib/inc\xmc_eth_mac.h ****  *     - Added XMC_ETH_MAC_EnablePTPAlarm() and XMC_ETH_MAC_DisablePTPAlarm
  63:F:/Projects/20190909 - 3phase_inverter/3phase_inverter/4. Software_WS/OL_VSC_vitor/Libraries/XMCLib/inc\xmc_eth_mac.h ****  *
  64:F:/Projects/20190909 - 3phase_inverter/3phase_inverter/4. Software_WS/OL_VSC_vitor/Libraries/XMCLib/inc\xmc_eth_mac.h ****  * 2017-04-17:
  65:F:/Projects/20190909 - 3phase_inverter/3phase_inverter/4. Software_WS/OL_VSC_vitor/Libraries/XMCLib/inc\xmc_eth_mac.h ****  *     - Fixed ordering of PTP nanoseconds and seconds in XMC_ETH_MAC_DMA_DESC_t
  66:F:/Projects/20190909 - 3phase_inverter/3phase_inverter/4. Software_WS/OL_VSC_vitor/Libraries/XMCLib/inc\xmc_eth_mac.h ****  *
  67:F:/Projects/20190909 - 3phase_inverter/3phase_inverter/4. Software_WS/OL_VSC_vitor/Libraries/XMCLib/inc\xmc_eth_mac.h ****  * @endcond
  68:F:/Projects/20190909 - 3phase_inverter/3phase_inverter/4. Software_WS/OL_VSC_vitor/Libraries/XMCLib/inc\xmc_eth_mac.h ****  */
  69:F:/Projects/20190909 - 3phase_inverter/3phase_inverter/4. Software_WS/OL_VSC_vitor/Libraries/XMCLib/inc\xmc_eth_mac.h **** 
  70:F:/Projects/20190909 - 3phase_inverter/3phase_inverter/4. Software_WS/OL_VSC_vitor/Libraries/XMCLib/inc\xmc_eth_mac.h **** /**
  71:F:/Projects/20190909 - 3phase_inverter/3phase_inverter/4. Software_WS/OL_VSC_vitor/Libraries/XMCLib/inc\xmc_eth_mac.h ****  * @addtogroup XMClib XMC Peripheral Library
  72:F:/Projects/20190909 - 3phase_inverter/3phase_inverter/4. Software_WS/OL_VSC_vitor/Libraries/XMCLib/inc\xmc_eth_mac.h ****  * @{
  73:F:/Projects/20190909 - 3phase_inverter/3phase_inverter/4. Software_WS/OL_VSC_vitor/Libraries/XMCLib/inc\xmc_eth_mac.h ****  */
  74:F:/Projects/20190909 - 3phase_inverter/3phase_inverter/4. Software_WS/OL_VSC_vitor/Libraries/XMCLib/inc\xmc_eth_mac.h **** 
  75:F:/Projects/20190909 - 3phase_inverter/3phase_inverter/4. Software_WS/OL_VSC_vitor/Libraries/XMCLib/inc\xmc_eth_mac.h **** /**
  76:F:/Projects/20190909 - 3phase_inverter/3phase_inverter/4. Software_WS/OL_VSC_vitor/Libraries/XMCLib/inc\xmc_eth_mac.h ****  * @addtogroup ETH_MAC
  77:F:/Projects/20190909 - 3phase_inverter/3phase_inverter/4. Software_WS/OL_VSC_vitor/Libraries/XMCLib/inc\xmc_eth_mac.h ****  * @brief Ethernet Low level driver for XMC4000 microcontroller family.
  78:F:/Projects/20190909 - 3phase_inverter/3phase_inverter/4. Software_WS/OL_VSC_vitor/Libraries/XMCLib/inc\xmc_eth_mac.h ****  *
  79:F:/Projects/20190909 - 3phase_inverter/3phase_inverter/4. Software_WS/OL_VSC_vitor/Libraries/XMCLib/inc\xmc_eth_mac.h ****  * The Ethernet MAC (ETH) is a major communication peripheral that supports 10/100
  80:F:/Projects/20190909 - 3phase_inverter/3phase_inverter/4. Software_WS/OL_VSC_vitor/Libraries/XMCLib/inc\xmc_eth_mac.h ****  * MBit/s data transfer rates in compliance with the IEEE 802.3-2002 standard. The ETH
  81:F:/Projects/20190909 - 3phase_inverter/3phase_inverter/4. Software_WS/OL_VSC_vitor/Libraries/XMCLib/inc\xmc_eth_mac.h ****  * may be used to implement internet connected applications using IPv4 and IPv6. The
  82:F:/Projects/20190909 - 3phase_inverter/3phase_inverter/4. Software_WS/OL_VSC_vitor/Libraries/XMCLib/inc\xmc_eth_mac.h ****  * ETH also includes support for IEEE1588 time synchronisation to allow implementation
  83:F:/Projects/20190909 - 3phase_inverter/3phase_inverter/4. Software_WS/OL_VSC_vitor/Libraries/XMCLib/inc\xmc_eth_mac.h ****  * of Real Time Ethernet protocols.
  84:F:/Projects/20190909 - 3phase_inverter/3phase_inverter/4. Software_WS/OL_VSC_vitor/Libraries/XMCLib/inc\xmc_eth_mac.h ****  *
  85:F:/Projects/20190909 - 3phase_inverter/3phase_inverter/4. Software_WS/OL_VSC_vitor/Libraries/XMCLib/inc\xmc_eth_mac.h ****  * The XMC_ETH_MAC low level driver provides functions to configure and initialize
  86:F:/Projects/20190909 - 3phase_inverter/3phase_inverter/4. Software_WS/OL_VSC_vitor/Libraries/XMCLib/inc\xmc_eth_mac.h ****  * the ETH_MAC hardware peripheral.
  87:F:/Projects/20190909 - 3phase_inverter/3phase_inverter/4. Software_WS/OL_VSC_vitor/Libraries/XMCLib/inc\xmc_eth_mac.h ****  * @{
  88:F:/Projects/20190909 - 3phase_inverter/3phase_inverter/4. Software_WS/OL_VSC_vitor/Libraries/XMCLib/inc\xmc_eth_mac.h ****  */
  89:F:/Projects/20190909 - 3phase_inverter/3phase_inverter/4. Software_WS/OL_VSC_vitor/Libraries/XMCLib/inc\xmc_eth_mac.h **** 
  90:F:/Projects/20190909 - 3phase_inverter/3phase_inverter/4. Software_WS/OL_VSC_vitor/Libraries/XMCLib/inc\xmc_eth_mac.h **** #ifndef XMC_ETH_MAC_H
  91:F:/Projects/20190909 - 3phase_inverter/3phase_inverter/4. Software_WS/OL_VSC_vitor/Libraries/XMCLib/inc\xmc_eth_mac.h **** #define XMC_ETH_MAC_H
  92:F:/Projects/20190909 - 3phase_inverter/3phase_inverter/4. Software_WS/OL_VSC_vitor/Libraries/XMCLib/inc\xmc_eth_mac.h **** 
  93:F:/Projects/20190909 - 3phase_inverter/3phase_inverter/4. Software_WS/OL_VSC_vitor/Libraries/XMCLib/inc\xmc_eth_mac.h **** /**************************************************************************************************
  94:F:/Projects/20190909 - 3phase_inverter/3phase_inverter/4. Software_WS/OL_VSC_vitor/Libraries/XMCLib/inc\xmc_eth_mac.h ****  * HEADER FILES
  95:F:/Projects/20190909 - 3phase_inverter/3phase_inverter/4. Software_WS/OL_VSC_vitor/Libraries/XMCLib/inc\xmc_eth_mac.h ****  **************************************************************************************************
  96:F:/Projects/20190909 - 3phase_inverter/3phase_inverter/4. Software_WS/OL_VSC_vitor/Libraries/XMCLib/inc\xmc_eth_mac.h **** 
  97:F:/Projects/20190909 - 3phase_inverter/3phase_inverter/4. Software_WS/OL_VSC_vitor/Libraries/XMCLib/inc\xmc_eth_mac.h **** #include "xmc_common.h"
  98:F:/Projects/20190909 - 3phase_inverter/3phase_inverter/4. Software_WS/OL_VSC_vitor/Libraries/XMCLib/inc\xmc_eth_mac.h **** 
  99:F:/Projects/20190909 - 3phase_inverter/3phase_inverter/4. Software_WS/OL_VSC_vitor/Libraries/XMCLib/inc\xmc_eth_mac.h **** #if defined (ETH0)
 100:F:/Projects/20190909 - 3phase_inverter/3phase_inverter/4. Software_WS/OL_VSC_vitor/Libraries/XMCLib/inc\xmc_eth_mac.h **** 
 101:F:/Projects/20190909 - 3phase_inverter/3phase_inverter/4. Software_WS/OL_VSC_vitor/Libraries/XMCLib/inc\xmc_eth_mac.h **** #include "xmc_eth_mac_map.h"
 102:F:/Projects/20190909 - 3phase_inverter/3phase_inverter/4. Software_WS/OL_VSC_vitor/Libraries/XMCLib/inc\xmc_eth_mac.h **** 
 103:F:/Projects/20190909 - 3phase_inverter/3phase_inverter/4. Software_WS/OL_VSC_vitor/Libraries/XMCLib/inc\xmc_eth_mac.h **** /**************************************************************************************************
 104:F:/Projects/20190909 - 3phase_inverter/3phase_inverter/4. Software_WS/OL_VSC_vitor/Libraries/XMCLib/inc\xmc_eth_mac.h ****  * MACROS
 105:F:/Projects/20190909 - 3phase_inverter/3phase_inverter/4. Software_WS/OL_VSC_vitor/Libraries/XMCLib/inc\xmc_eth_mac.h ****  **************************************************************************************************
 106:F:/Projects/20190909 - 3phase_inverter/3phase_inverter/4. Software_WS/OL_VSC_vitor/Libraries/XMCLib/inc\xmc_eth_mac.h **** 
 107:F:/Projects/20190909 - 3phase_inverter/3phase_inverter/4. Software_WS/OL_VSC_vitor/Libraries/XMCLib/inc\xmc_eth_mac.h **** #define XMC_ETH_MAC_BUF_SIZE           (1524)     /**< ETH MAC buffer size */
 108:F:/Projects/20190909 - 3phase_inverter/3phase_inverter/4. Software_WS/OL_VSC_vitor/Libraries/XMCLib/inc\xmc_eth_mac.h **** #define XMC_ETH_MAC_PHY_MAX_RETRIES    (0xffffUL) /**< Maximum retries */
 109:F:/Projects/20190909 - 3phase_inverter/3phase_inverter/4. Software_WS/OL_VSC_vitor/Libraries/XMCLib/inc\xmc_eth_mac.h **** #define XMC_ETH_WAKEUP_REGISTER_LENGTH (8U)       /**< Remote wakeup frame reg length */
 110:F:/Projects/20190909 - 3phase_inverter/3phase_inverter/4. Software_WS/OL_VSC_vitor/Libraries/XMCLib/inc\xmc_eth_mac.h **** 
 111:F:/Projects/20190909 - 3phase_inverter/3phase_inverter/4. Software_WS/OL_VSC_vitor/Libraries/XMCLib/inc\xmc_eth_mac.h **** /**
 112:F:/Projects/20190909 - 3phase_inverter/3phase_inverter/4. Software_WS/OL_VSC_vitor/Libraries/XMCLib/inc\xmc_eth_mac.h ****  * TDES0 Descriptor TX Packet Control/Status
 113:F:/Projects/20190909 - 3phase_inverter/3phase_inverter/4. Software_WS/OL_VSC_vitor/Libraries/XMCLib/inc\xmc_eth_mac.h ****  */
 114:F:/Projects/20190909 - 3phase_inverter/3phase_inverter/4. Software_WS/OL_VSC_vitor/Libraries/XMCLib/inc\xmc_eth_mac.h **** #define ETH_MAC_DMA_TDES0_OWN  (0x80000000U) /**< Own bit 1=DMA, 0=CPU */
 115:F:/Projects/20190909 - 3phase_inverter/3phase_inverter/4. Software_WS/OL_VSC_vitor/Libraries/XMCLib/inc\xmc_eth_mac.h **** #define ETH_MAC_DMA_TDES0_IC   (0x40000000U) /**< Interrupt on competition */
 116:F:/Projects/20190909 - 3phase_inverter/3phase_inverter/4. Software_WS/OL_VSC_vitor/Libraries/XMCLib/inc\xmc_eth_mac.h **** #define ETH_MAC_DMA_TDES0_LS   (0x20000000U) /**< Last segment */
 117:F:/Projects/20190909 - 3phase_inverter/3phase_inverter/4. Software_WS/OL_VSC_vitor/Libraries/XMCLib/inc\xmc_eth_mac.h **** #define ETH_MAC_DMA_TDES0_FS   (0x10000000U) /**< First segment */
 118:F:/Projects/20190909 - 3phase_inverter/3phase_inverter/4. Software_WS/OL_VSC_vitor/Libraries/XMCLib/inc\xmc_eth_mac.h **** #define ETH_MAC_DMA_TDES0_DC   (0x08000000U) /**< Disable CRC */
 119:F:/Projects/20190909 - 3phase_inverter/3phase_inverter/4. Software_WS/OL_VSC_vitor/Libraries/XMCLib/inc\xmc_eth_mac.h **** #define ETH_MAC_DMA_TDES0_DP   (0x04000000U) /**< Disable pad */
 120:F:/Projects/20190909 - 3phase_inverter/3phase_inverter/4. Software_WS/OL_VSC_vitor/Libraries/XMCLib/inc\xmc_eth_mac.h **** #define ETH_MAC_DMA_TDES0_TTSE (0x02000000U) /**< Transmit time stamp enable */
 121:F:/Projects/20190909 - 3phase_inverter/3phase_inverter/4. Software_WS/OL_VSC_vitor/Libraries/XMCLib/inc\xmc_eth_mac.h **** #define ETH_MAC_DMA_TDES0_CIC  (0x00C00000U) /**< Checksum insertion control */
 122:F:/Projects/20190909 - 3phase_inverter/3phase_inverter/4. Software_WS/OL_VSC_vitor/Libraries/XMCLib/inc\xmc_eth_mac.h **** #define ETH_MAC_DMA_TDES0_TER  (0x00200000U) /**< Transmit end of ring */
 123:F:/Projects/20190909 - 3phase_inverter/3phase_inverter/4. Software_WS/OL_VSC_vitor/Libraries/XMCLib/inc\xmc_eth_mac.h **** #define ETH_MAC_DMA_TDES0_TCH  (0x00100000U) /**< Second address chained */
 124:F:/Projects/20190909 - 3phase_inverter/3phase_inverter/4. Software_WS/OL_VSC_vitor/Libraries/XMCLib/inc\xmc_eth_mac.h **** #define ETH_MAC_DMA_TDES0_TTSS (0x00020000U) /**< Transmit time stamp status */
 125:F:/Projects/20190909 - 3phase_inverter/3phase_inverter/4. Software_WS/OL_VSC_vitor/Libraries/XMCLib/inc\xmc_eth_mac.h **** #define ETH_MAC_DMA_TDES0_IHE  (0x00010000U) /**< IP header error */
 126:F:/Projects/20190909 - 3phase_inverter/3phase_inverter/4. Software_WS/OL_VSC_vitor/Libraries/XMCLib/inc\xmc_eth_mac.h **** #define ETH_MAC_DMA_TDES0_ES   (0x00008000U) /**< Error summary */
 127:F:/Projects/20190909 - 3phase_inverter/3phase_inverter/4. Software_WS/OL_VSC_vitor/Libraries/XMCLib/inc\xmc_eth_mac.h **** #define ETH_MAC_DMA_TDES0_JT   (0x00004000U) /**< Jabber timeout */
 128:F:/Projects/20190909 - 3phase_inverter/3phase_inverter/4. Software_WS/OL_VSC_vitor/Libraries/XMCLib/inc\xmc_eth_mac.h **** #define ETH_MAC_DMA_TDES0_FF   (0x00002000U) /**< Frame flushed */
 129:F:/Projects/20190909 - 3phase_inverter/3phase_inverter/4. Software_WS/OL_VSC_vitor/Libraries/XMCLib/inc\xmc_eth_mac.h **** #define ETH_MAC_DMA_TDES0_IPE  (0x00001000U) /**< IP payload error */
 130:F:/Projects/20190909 - 3phase_inverter/3phase_inverter/4. Software_WS/OL_VSC_vitor/Libraries/XMCLib/inc\xmc_eth_mac.h **** #define ETH_MAC_DMA_TDES0_LOC  (0x00000800U) /**< Loss of carrier */
 131:F:/Projects/20190909 - 3phase_inverter/3phase_inverter/4. Software_WS/OL_VSC_vitor/Libraries/XMCLib/inc\xmc_eth_mac.h **** #define ETH_MAC_DMA_TDES0_NC   (0x00000400U) /**< No carrier */
 132:F:/Projects/20190909 - 3phase_inverter/3phase_inverter/4. Software_WS/OL_VSC_vitor/Libraries/XMCLib/inc\xmc_eth_mac.h **** #define ETH_MAC_DMA_TDES0_LC   (0x00000200U) /**< Late collision */
 133:F:/Projects/20190909 - 3phase_inverter/3phase_inverter/4. Software_WS/OL_VSC_vitor/Libraries/XMCLib/inc\xmc_eth_mac.h **** #define ETH_MAC_DMA_TDES0_EC   (0x00000100U) /**< Excessive collision */
 134:F:/Projects/20190909 - 3phase_inverter/3phase_inverter/4. Software_WS/OL_VSC_vitor/Libraries/XMCLib/inc\xmc_eth_mac.h **** #define ETH_MAC_DMA_TDES0_VF   (0x00000080U) /**< VLAN frame */
 135:F:/Projects/20190909 - 3phase_inverter/3phase_inverter/4. Software_WS/OL_VSC_vitor/Libraries/XMCLib/inc\xmc_eth_mac.h **** #define ETH_MAC_DMA_TDES0_CC   (0x00000078U) /**< Collision count */
 136:F:/Projects/20190909 - 3phase_inverter/3phase_inverter/4. Software_WS/OL_VSC_vitor/Libraries/XMCLib/inc\xmc_eth_mac.h **** #define ETH_MAC_DMA_TDES0_ED   (0x00000004U) /**< Excessive deferral */
 137:F:/Projects/20190909 - 3phase_inverter/3phase_inverter/4. Software_WS/OL_VSC_vitor/Libraries/XMCLib/inc\xmc_eth_mac.h **** #define ETH_MAC_DMA_TDES0_UF   (0x00000002U) /**< Underflow error */
 138:F:/Projects/20190909 - 3phase_inverter/3phase_inverter/4. Software_WS/OL_VSC_vitor/Libraries/XMCLib/inc\xmc_eth_mac.h **** #define ETH_MAC_DMA_TDES0_DB   (0x00000001U) /**< Deferred bit */
 139:F:/Projects/20190909 - 3phase_inverter/3phase_inverter/4. Software_WS/OL_VSC_vitor/Libraries/XMCLib/inc\xmc_eth_mac.h **** 
 140:F:/Projects/20190909 - 3phase_inverter/3phase_inverter/4. Software_WS/OL_VSC_vitor/Libraries/XMCLib/inc\xmc_eth_mac.h **** /**
 141:F:/Projects/20190909 - 3phase_inverter/3phase_inverter/4. Software_WS/OL_VSC_vitor/Libraries/XMCLib/inc\xmc_eth_mac.h ****  * RDES0 Descriptor RX Packet Status
 142:F:/Projects/20190909 - 3phase_inverter/3phase_inverter/4. Software_WS/OL_VSC_vitor/Libraries/XMCLib/inc\xmc_eth_mac.h ****  */
 143:F:/Projects/20190909 - 3phase_inverter/3phase_inverter/4. Software_WS/OL_VSC_vitor/Libraries/XMCLib/inc\xmc_eth_mac.h **** #define ETH_MAC_DMA_RDES0_OWN  (0x80000000U) /**< Own bit 1=DMA, 0=CPU */
 144:F:/Projects/20190909 - 3phase_inverter/3phase_inverter/4. Software_WS/OL_VSC_vitor/Libraries/XMCLib/inc\xmc_eth_mac.h **** #define ETH_MAC_DMA_RDES0_AFM  (0x40000000U) /**< Destination address filter fail */
 145:F:/Projects/20190909 - 3phase_inverter/3phase_inverter/4. Software_WS/OL_VSC_vitor/Libraries/XMCLib/inc\xmc_eth_mac.h **** #define ETH_MAC_DMA_RDES0_FL   (0x3FFF0000U) /**< Frame length mask */
 146:F:/Projects/20190909 - 3phase_inverter/3phase_inverter/4. Software_WS/OL_VSC_vitor/Libraries/XMCLib/inc\xmc_eth_mac.h **** #define ETH_MAC_DMA_RDES0_ES   (0x00008000U) /**< Error summary */
 147:F:/Projects/20190909 - 3phase_inverter/3phase_inverter/4. Software_WS/OL_VSC_vitor/Libraries/XMCLib/inc\xmc_eth_mac.h **** #define ETH_MAC_DMA_RDES0_DE   (0x00004000U) /**< Descriptor error */
 148:F:/Projects/20190909 - 3phase_inverter/3phase_inverter/4. Software_WS/OL_VSC_vitor/Libraries/XMCLib/inc\xmc_eth_mac.h **** #define ETH_MAC_DMA_RDES0_SAF  (0x00002000U) /**< Source address filter fail */
 149:F:/Projects/20190909 - 3phase_inverter/3phase_inverter/4. Software_WS/OL_VSC_vitor/Libraries/XMCLib/inc\xmc_eth_mac.h **** #define ETH_MAC_DMA_RDES0_LE   (0x00001000U) /**< Length error */
 150:F:/Projects/20190909 - 3phase_inverter/3phase_inverter/4. Software_WS/OL_VSC_vitor/Libraries/XMCLib/inc\xmc_eth_mac.h **** #define ETH_MAC_DMA_RDES0_OE   (0x00000800U) /**< Overflow error */
 151:F:/Projects/20190909 - 3phase_inverter/3phase_inverter/4. Software_WS/OL_VSC_vitor/Libraries/XMCLib/inc\xmc_eth_mac.h **** #define ETH_MAC_DMA_RDES0_VLAN (0x00000400U) /**< VLAN tag */
 152:F:/Projects/20190909 - 3phase_inverter/3phase_inverter/4. Software_WS/OL_VSC_vitor/Libraries/XMCLib/inc\xmc_eth_mac.h **** #define ETH_MAC_DMA_RDES0_FS   (0x00000200U) /**< First descriptor */
 153:F:/Projects/20190909 - 3phase_inverter/3phase_inverter/4. Software_WS/OL_VSC_vitor/Libraries/XMCLib/inc\xmc_eth_mac.h **** #define ETH_MAC_DMA_RDES0_LS   (0x00000100U) /**< Last descriptor */
 154:F:/Projects/20190909 - 3phase_inverter/3phase_inverter/4. Software_WS/OL_VSC_vitor/Libraries/XMCLib/inc\xmc_eth_mac.h **** #define ETH_MAC_DMA_RDES0_TSA  (0x00000080U) /**< Timestamp available */
 155:F:/Projects/20190909 - 3phase_inverter/3phase_inverter/4. Software_WS/OL_VSC_vitor/Libraries/XMCLib/inc\xmc_eth_mac.h **** #define ETH_MAC_DMA_RDES0_LC   (0x00000040U) /**< Late collision */
 156:F:/Projects/20190909 - 3phase_inverter/3phase_inverter/4. Software_WS/OL_VSC_vitor/Libraries/XMCLib/inc\xmc_eth_mac.h **** #define ETH_MAC_DMA_RDES0_FT   (0x00000020U) /**< Frame type */
 157:F:/Projects/20190909 - 3phase_inverter/3phase_inverter/4. Software_WS/OL_VSC_vitor/Libraries/XMCLib/inc\xmc_eth_mac.h **** #define ETH_MAC_DMA_RDES0_RWT  (0x00000010U) /**< Receive watchdog timeout */
 158:F:/Projects/20190909 - 3phase_inverter/3phase_inverter/4. Software_WS/OL_VSC_vitor/Libraries/XMCLib/inc\xmc_eth_mac.h **** #define ETH_MAC_DMA_RDES0_RE   (0x00000008U) /**< Receive error */
 159:F:/Projects/20190909 - 3phase_inverter/3phase_inverter/4. Software_WS/OL_VSC_vitor/Libraries/XMCLib/inc\xmc_eth_mac.h **** #define ETH_MAC_DMA_RDES0_DBE  (0x00000004U) /**< Dribble bit error */
 160:F:/Projects/20190909 - 3phase_inverter/3phase_inverter/4. Software_WS/OL_VSC_vitor/Libraries/XMCLib/inc\xmc_eth_mac.h **** #define ETH_MAC_DMA_RDES0_CE   (0x00000002U) /**< CRC error */
 161:F:/Projects/20190909 - 3phase_inverter/3phase_inverter/4. Software_WS/OL_VSC_vitor/Libraries/XMCLib/inc\xmc_eth_mac.h **** #define ETH_MAC_DMA_RDES0_ESA  (0x00000001U) /**< Extended Status/Rx MAC address */
 162:F:/Projects/20190909 - 3phase_inverter/3phase_inverter/4. Software_WS/OL_VSC_vitor/Libraries/XMCLib/inc\xmc_eth_mac.h **** 
 163:F:/Projects/20190909 - 3phase_inverter/3phase_inverter/4. Software_WS/OL_VSC_vitor/Libraries/XMCLib/inc\xmc_eth_mac.h **** /**************************************************************************************************
 164:F:/Projects/20190909 - 3phase_inverter/3phase_inverter/4. Software_WS/OL_VSC_vitor/Libraries/XMCLib/inc\xmc_eth_mac.h ****  * ENUMS
 165:F:/Projects/20190909 - 3phase_inverter/3phase_inverter/4. Software_WS/OL_VSC_vitor/Libraries/XMCLib/inc\xmc_eth_mac.h ****  **************************************************************************************************
 166:F:/Projects/20190909 - 3phase_inverter/3phase_inverter/4. Software_WS/OL_VSC_vitor/Libraries/XMCLib/inc\xmc_eth_mac.h **** 
 167:F:/Projects/20190909 - 3phase_inverter/3phase_inverter/4. Software_WS/OL_VSC_vitor/Libraries/XMCLib/inc\xmc_eth_mac.h **** /**
 168:F:/Projects/20190909 - 3phase_inverter/3phase_inverter/4. Software_WS/OL_VSC_vitor/Libraries/XMCLib/inc\xmc_eth_mac.h ****  * Ethernet MAC status return values
 169:F:/Projects/20190909 - 3phase_inverter/3phase_inverter/4. Software_WS/OL_VSC_vitor/Libraries/XMCLib/inc\xmc_eth_mac.h ****  */
 170:F:/Projects/20190909 - 3phase_inverter/3phase_inverter/4. Software_WS/OL_VSC_vitor/Libraries/XMCLib/inc\xmc_eth_mac.h **** typedef enum XMC_ETH_MAC_STATUS
 171:F:/Projects/20190909 - 3phase_inverter/3phase_inverter/4. Software_WS/OL_VSC_vitor/Libraries/XMCLib/inc\xmc_eth_mac.h **** {
 172:F:/Projects/20190909 - 3phase_inverter/3phase_inverter/4. Software_WS/OL_VSC_vitor/Libraries/XMCLib/inc\xmc_eth_mac.h ****   XMC_ETH_MAC_STATUS_OK    = 0U, /**< Driver accepted application request */
 173:F:/Projects/20190909 - 3phase_inverter/3phase_inverter/4. Software_WS/OL_VSC_vitor/Libraries/XMCLib/inc\xmc_eth_mac.h ****   XMC_ETH_MAC_STATUS_BUSY  = 1U, /**< Driver is busy and cannot handle request */
 174:F:/Projects/20190909 - 3phase_inverter/3phase_inverter/4. Software_WS/OL_VSC_vitor/Libraries/XMCLib/inc\xmc_eth_mac.h ****   XMC_ETH_MAC_STATUS_ERROR = 2U  /**< Driver could not fulfil application request */
 175:F:/Projects/20190909 - 3phase_inverter/3phase_inverter/4. Software_WS/OL_VSC_vitor/Libraries/XMCLib/inc\xmc_eth_mac.h **** } XMC_ETH_MAC_STATUS_t;
 176:F:/Projects/20190909 - 3phase_inverter/3phase_inverter/4. Software_WS/OL_VSC_vitor/Libraries/XMCLib/inc\xmc_eth_mac.h **** 
 177:F:/Projects/20190909 - 3phase_inverter/3phase_inverter/4. Software_WS/OL_VSC_vitor/Libraries/XMCLib/inc\xmc_eth_mac.h **** /**
 178:F:/Projects/20190909 - 3phase_inverter/3phase_inverter/4. Software_WS/OL_VSC_vitor/Libraries/XMCLib/inc\xmc_eth_mac.h ****  * Transmission frame
 179:F:/Projects/20190909 - 3phase_inverter/3phase_inverter/4. Software_WS/OL_VSC_vitor/Libraries/XMCLib/inc\xmc_eth_mac.h ****  */
 180:F:/Projects/20190909 - 3phase_inverter/3phase_inverter/4. Software_WS/OL_VSC_vitor/Libraries/XMCLib/inc\xmc_eth_mac.h **** typedef enum XMC_ETH_MAC_TX_FRAME
 181:F:/Projects/20190909 - 3phase_inverter/3phase_inverter/4. Software_WS/OL_VSC_vitor/Libraries/XMCLib/inc\xmc_eth_mac.h **** {
 182:F:/Projects/20190909 - 3phase_inverter/3phase_inverter/4. Software_WS/OL_VSC_vitor/Libraries/XMCLib/inc\xmc_eth_mac.h ****   XMC_ETH_MAC_TX_FRAME_FRAGMENT  = 0x1U, /**< Indicate frame fragment */
 183:F:/Projects/20190909 - 3phase_inverter/3phase_inverter/4. Software_WS/OL_VSC_vitor/Libraries/XMCLib/inc\xmc_eth_mac.h ****   XMC_ETH_MAC_TX_FRAME_EVENT     = 0x2U, /**< Generate event when frame is transmitted */
 184:F:/Projects/20190909 - 3phase_inverter/3phase_inverter/4. Software_WS/OL_VSC_vitor/Libraries/XMCLib/inc\xmc_eth_mac.h ****   XMC_ETH_MAC_TX_FRAME_TIMESTAMP = 0x4U  /**< Capture frame time stamp */
 185:F:/Projects/20190909 - 3phase_inverter/3phase_inverter/4. Software_WS/OL_VSC_vitor/Libraries/XMCLib/inc\xmc_eth_mac.h **** } XMC_ETH_MAC_TX_FRAME_t;
 186:F:/Projects/20190909 - 3phase_inverter/3phase_inverter/4. Software_WS/OL_VSC_vitor/Libraries/XMCLib/inc\xmc_eth_mac.h **** 
 187:F:/Projects/20190909 - 3phase_inverter/3phase_inverter/4. Software_WS/OL_VSC_vitor/Libraries/XMCLib/inc\xmc_eth_mac.h **** /**
 188:F:/Projects/20190909 - 3phase_inverter/3phase_inverter/4. Software_WS/OL_VSC_vitor/Libraries/XMCLib/inc\xmc_eth_mac.h ****  * ETH MAC event
 189:F:/Projects/20190909 - 3phase_inverter/3phase_inverter/4. Software_WS/OL_VSC_vitor/Libraries/XMCLib/inc\xmc_eth_mac.h ****  */
 190:F:/Projects/20190909 - 3phase_inverter/3phase_inverter/4. Software_WS/OL_VSC_vitor/Libraries/XMCLib/inc\xmc_eth_mac.h **** typedef enum XMC_ETH_MAC_EVENT
 191:F:/Projects/20190909 - 3phase_inverter/3phase_inverter/4. Software_WS/OL_VSC_vitor/Libraries/XMCLib/inc\xmc_eth_mac.h **** {
 192:F:/Projects/20190909 - 3phase_inverter/3phase_inverter/4. Software_WS/OL_VSC_vitor/Libraries/XMCLib/inc\xmc_eth_mac.h ****   XMC_ETH_MAC_EVENT_PMT = ETH_INTERRUPT_MASK_PMTIM_Msk << 16,        /**< Power management event */
 193:F:/Projects/20190909 - 3phase_inverter/3phase_inverter/4. Software_WS/OL_VSC_vitor/Libraries/XMCLib/inc\xmc_eth_mac.h ****   XMC_ETH_MAC_EVENT_TIMESTAMP = ETH_INTERRUPT_MASK_TSIM_Msk << 16,   /**< Time stamp event */
 194:F:/Projects/20190909 - 3phase_inverter/3phase_inverter/4. Software_WS/OL_VSC_vitor/Libraries/XMCLib/inc\xmc_eth_mac.h ****   XMC_ETH_MAC_EVENT_EARLY_RECEIVE = ETH_STATUS_ERI_Msk,              /**< Early receive */
 195:F:/Projects/20190909 - 3phase_inverter/3phase_inverter/4. Software_WS/OL_VSC_vitor/Libraries/XMCLib/inc\xmc_eth_mac.h ****   XMC_ETH_MAC_EVENT_BUS_ERROR = ETH_STATUS_FBI_Msk,                  /**< Bus error */
 196:F:/Projects/20190909 - 3phase_inverter/3phase_inverter/4. Software_WS/OL_VSC_vitor/Libraries/XMCLib/inc\xmc_eth_mac.h ****   XMC_ETH_MAC_EVENT_EARLY_TRANSMIT = ETH_STATUS_ETI_Msk,             /**< Early transmit */
 197:F:/Projects/20190909 - 3phase_inverter/3phase_inverter/4. Software_WS/OL_VSC_vitor/Libraries/XMCLib/inc\xmc_eth_mac.h ****   XMC_ETH_MAC_EVENT_RECEIVE_WATCHDOG_TIMEOUT = ETH_STATUS_RWT_Msk,   /**< Receive watchdog time-out
 198:F:/Projects/20190909 - 3phase_inverter/3phase_inverter/4. Software_WS/OL_VSC_vitor/Libraries/XMCLib/inc\xmc_eth_mac.h ****   XMC_ETH_MAC_EVENT_RECEIVE_PROCESS_STOPPED = ETH_STATUS_RPS_Msk,    /**< Receive process stopped *
 199:F:/Projects/20190909 - 3phase_inverter/3phase_inverter/4. Software_WS/OL_VSC_vitor/Libraries/XMCLib/inc\xmc_eth_mac.h ****   XMC_ETH_MAC_EVENT_RECEIVE_BUFFER_UNAVAILABLE = ETH_STATUS_RU_Msk,  /**< Receive buffer unavailabl
 200:F:/Projects/20190909 - 3phase_inverter/3phase_inverter/4. Software_WS/OL_VSC_vitor/Libraries/XMCLib/inc\xmc_eth_mac.h ****   XMC_ETH_MAC_EVENT_RECEIVE = ETH_STATUS_RI_Msk,                     /**< Receive event */
 201:F:/Projects/20190909 - 3phase_inverter/3phase_inverter/4. Software_WS/OL_VSC_vitor/Libraries/XMCLib/inc\xmc_eth_mac.h ****   XMC_ETH_MAC_EVENT_TRANSMIT_UNDERFLOW = ETH_STATUS_UNF_Msk,         /**< Transmit underflow */
 202:F:/Projects/20190909 - 3phase_inverter/3phase_inverter/4. Software_WS/OL_VSC_vitor/Libraries/XMCLib/inc\xmc_eth_mac.h ****   XMC_ETH_MAC_EVENT_RECEIVE_OVERFLOW = ETH_STATUS_OVF_Msk,           /**< Receive overflow */
 203:F:/Projects/20190909 - 3phase_inverter/3phase_inverter/4. Software_WS/OL_VSC_vitor/Libraries/XMCLib/inc\xmc_eth_mac.h ****   XMC_ETH_MAC_EVENT_TRANSMIT_JABBER_TIMEOUT = ETH_STATUS_TJT_Msk,    /**< Transmit jabber time-out 
 204:F:/Projects/20190909 - 3phase_inverter/3phase_inverter/4. Software_WS/OL_VSC_vitor/Libraries/XMCLib/inc\xmc_eth_mac.h ****   XMC_ETH_MAC_EVENT_TRANSMIT_BUFFER_UNAVAILABLE = ETH_STATUS_TU_Msk, /**< Transmit buffer unavailab
 205:F:/Projects/20190909 - 3phase_inverter/3phase_inverter/4. Software_WS/OL_VSC_vitor/Libraries/XMCLib/inc\xmc_eth_mac.h ****   XMC_ETH_MAC_EVENT_TRANSMIT_PROCESS_STOPPED = ETH_STATUS_TPS_Msk,   /**< Transmit process stopped 
 206:F:/Projects/20190909 - 3phase_inverter/3phase_inverter/4. Software_WS/OL_VSC_vitor/Libraries/XMCLib/inc\xmc_eth_mac.h ****   XMC_ETH_MAC_EVENT_TRANSMIT = ETH_STATUS_TI_Msk                     /**< Transmit event */
 207:F:/Projects/20190909 - 3phase_inverter/3phase_inverter/4. Software_WS/OL_VSC_vitor/Libraries/XMCLib/inc\xmc_eth_mac.h **** } XMC_ETH_MAC_EVENT_t;
 208:F:/Projects/20190909 - 3phase_inverter/3phase_inverter/4. Software_WS/OL_VSC_vitor/Libraries/XMCLib/inc\xmc_eth_mac.h **** 
 209:F:/Projects/20190909 - 3phase_inverter/3phase_inverter/4. Software_WS/OL_VSC_vitor/Libraries/XMCLib/inc\xmc_eth_mac.h **** /**
 210:F:/Projects/20190909 - 3phase_inverter/3phase_inverter/4. Software_WS/OL_VSC_vitor/Libraries/XMCLib/inc\xmc_eth_mac.h ****  * Link interface
 211:F:/Projects/20190909 - 3phase_inverter/3phase_inverter/4. Software_WS/OL_VSC_vitor/Libraries/XMCLib/inc\xmc_eth_mac.h ****  */
 212:F:/Projects/20190909 - 3phase_inverter/3phase_inverter/4. Software_WS/OL_VSC_vitor/Libraries/XMCLib/inc\xmc_eth_mac.h **** typedef enum XMC_ETH_LINK_INTERFACE
 213:F:/Projects/20190909 - 3phase_inverter/3phase_inverter/4. Software_WS/OL_VSC_vitor/Libraries/XMCLib/inc\xmc_eth_mac.h **** {
 214:F:/Projects/20190909 - 3phase_inverter/3phase_inverter/4. Software_WS/OL_VSC_vitor/Libraries/XMCLib/inc\xmc_eth_mac.h ****   XMC_ETH_LINK_INTERFACE_MII, /**< Link interface: Media independent interface */
 215:F:/Projects/20190909 - 3phase_inverter/3phase_inverter/4. Software_WS/OL_VSC_vitor/Libraries/XMCLib/inc\xmc_eth_mac.h ****   XMC_ETH_LINK_INTERFACE_RMII /**< Link interface: Reduced media independent interface */
 216:F:/Projects/20190909 - 3phase_inverter/3phase_inverter/4. Software_WS/OL_VSC_vitor/Libraries/XMCLib/inc\xmc_eth_mac.h **** } XMC_ETH_LINK_INTERFACE_t;
 217:F:/Projects/20190909 - 3phase_inverter/3phase_inverter/4. Software_WS/OL_VSC_vitor/Libraries/XMCLib/inc\xmc_eth_mac.h **** 
 218:F:/Projects/20190909 - 3phase_inverter/3phase_inverter/4. Software_WS/OL_VSC_vitor/Libraries/XMCLib/inc\xmc_eth_mac.h **** /**
 219:F:/Projects/20190909 - 3phase_inverter/3phase_inverter/4. Software_WS/OL_VSC_vitor/Libraries/XMCLib/inc\xmc_eth_mac.h ****  * ETH link status
 220:F:/Projects/20190909 - 3phase_inverter/3phase_inverter/4. Software_WS/OL_VSC_vitor/Libraries/XMCLib/inc\xmc_eth_mac.h ****  */
 221:F:/Projects/20190909 - 3phase_inverter/3phase_inverter/4. Software_WS/OL_VSC_vitor/Libraries/XMCLib/inc\xmc_eth_mac.h **** typedef enum XMC_ETH_LINK_STATUS
 222:F:/Projects/20190909 - 3phase_inverter/3phase_inverter/4. Software_WS/OL_VSC_vitor/Libraries/XMCLib/inc\xmc_eth_mac.h **** {
 223:F:/Projects/20190909 - 3phase_inverter/3phase_inverter/4. Software_WS/OL_VSC_vitor/Libraries/XMCLib/inc\xmc_eth_mac.h ****   XMC_ETH_LINK_STATUS_DOWN, /**< Link status down */
 224:F:/Projects/20190909 - 3phase_inverter/3phase_inverter/4. Software_WS/OL_VSC_vitor/Libraries/XMCLib/inc\xmc_eth_mac.h ****   XMC_ETH_LINK_STATUS_UP    /**< Link status up */
 225:F:/Projects/20190909 - 3phase_inverter/3phase_inverter/4. Software_WS/OL_VSC_vitor/Libraries/XMCLib/inc\xmc_eth_mac.h **** } XMC_ETH_LINK_STATUS_t;
 226:F:/Projects/20190909 - 3phase_inverter/3phase_inverter/4. Software_WS/OL_VSC_vitor/Libraries/XMCLib/inc\xmc_eth_mac.h **** 
 227:F:/Projects/20190909 - 3phase_inverter/3phase_inverter/4. Software_WS/OL_VSC_vitor/Libraries/XMCLib/inc\xmc_eth_mac.h **** /**
 228:F:/Projects/20190909 - 3phase_inverter/3phase_inverter/4. Software_WS/OL_VSC_vitor/Libraries/XMCLib/inc\xmc_eth_mac.h ****  * ETH link speed
 229:F:/Projects/20190909 - 3phase_inverter/3phase_inverter/4. Software_WS/OL_VSC_vitor/Libraries/XMCLib/inc\xmc_eth_mac.h ****  */
 230:F:/Projects/20190909 - 3phase_inverter/3phase_inverter/4. Software_WS/OL_VSC_vitor/Libraries/XMCLib/inc\xmc_eth_mac.h **** typedef enum XMC_ETH_LINK_SPEED
 231:F:/Projects/20190909 - 3phase_inverter/3phase_inverter/4. Software_WS/OL_VSC_vitor/Libraries/XMCLib/inc\xmc_eth_mac.h **** {
 232:F:/Projects/20190909 - 3phase_inverter/3phase_inverter/4. Software_WS/OL_VSC_vitor/Libraries/XMCLib/inc\xmc_eth_mac.h ****   XMC_ETH_LINK_SPEED_10M  = 0UL << ETH_MAC_CONFIGURATION_FES_Pos, /**< Link speed: 10M */
 233:F:/Projects/20190909 - 3phase_inverter/3phase_inverter/4. Software_WS/OL_VSC_vitor/Libraries/XMCLib/inc\xmc_eth_mac.h ****   XMC_ETH_LINK_SPEED_100M = 1UL << ETH_MAC_CONFIGURATION_FES_Pos  /**< Link speed: 100M */
 234:F:/Projects/20190909 - 3phase_inverter/3phase_inverter/4. Software_WS/OL_VSC_vitor/Libraries/XMCLib/inc\xmc_eth_mac.h **** } XMC_ETH_LINK_SPEED_t;
 235:F:/Projects/20190909 - 3phase_inverter/3phase_inverter/4. Software_WS/OL_VSC_vitor/Libraries/XMCLib/inc\xmc_eth_mac.h **** 
 236:F:/Projects/20190909 - 3phase_inverter/3phase_inverter/4. Software_WS/OL_VSC_vitor/Libraries/XMCLib/inc\xmc_eth_mac.h **** /**
 237:F:/Projects/20190909 - 3phase_inverter/3phase_inverter/4. Software_WS/OL_VSC_vitor/Libraries/XMCLib/inc\xmc_eth_mac.h ****  * ETH duplex settings (full/half?)
 238:F:/Projects/20190909 - 3phase_inverter/3phase_inverter/4. Software_WS/OL_VSC_vitor/Libraries/XMCLib/inc\xmc_eth_mac.h ****  */
 239:F:/Projects/20190909 - 3phase_inverter/3phase_inverter/4. Software_WS/OL_VSC_vitor/Libraries/XMCLib/inc\xmc_eth_mac.h **** typedef enum XMC_ETH_LINK_DUPLEX
 240:F:/Projects/20190909 - 3phase_inverter/3phase_inverter/4. Software_WS/OL_VSC_vitor/Libraries/XMCLib/inc\xmc_eth_mac.h **** {
 241:F:/Projects/20190909 - 3phase_inverter/3phase_inverter/4. Software_WS/OL_VSC_vitor/Libraries/XMCLib/inc\xmc_eth_mac.h ****   XMC_ETH_LINK_DUPLEX_HALF = 0UL << ETH_MAC_CONFIGURATION_DM_Pos, /**< Half duplex */
 242:F:/Projects/20190909 - 3phase_inverter/3phase_inverter/4. Software_WS/OL_VSC_vitor/Libraries/XMCLib/inc\xmc_eth_mac.h ****   XMC_ETH_LINK_DUPLEX_FULL = 1UL << ETH_MAC_CONFIGURATION_DM_Pos  /**< Full duplex */
 243:F:/Projects/20190909 - 3phase_inverter/3phase_inverter/4. Software_WS/OL_VSC_vitor/Libraries/XMCLib/inc\xmc_eth_mac.h **** } XMC_ETH_LINK_DUPLEX_t;
 244:F:/Projects/20190909 - 3phase_inverter/3phase_inverter/4. Software_WS/OL_VSC_vitor/Libraries/XMCLib/inc\xmc_eth_mac.h **** 
 245:F:/Projects/20190909 - 3phase_inverter/3phase_inverter/4. Software_WS/OL_VSC_vitor/Libraries/XMCLib/inc\xmc_eth_mac.h **** /**
 246:F:/Projects/20190909 - 3phase_inverter/3phase_inverter/4. Software_WS/OL_VSC_vitor/Libraries/XMCLib/inc\xmc_eth_mac.h ****  * MAC address filter
 247:F:/Projects/20190909 - 3phase_inverter/3phase_inverter/4. Software_WS/OL_VSC_vitor/Libraries/XMCLib/inc\xmc_eth_mac.h ****  */
 248:F:/Projects/20190909 - 3phase_inverter/3phase_inverter/4. Software_WS/OL_VSC_vitor/Libraries/XMCLib/inc\xmc_eth_mac.h **** typedef enum XMC_ETH_MAC_ADDR_FILTER
 249:F:/Projects/20190909 - 3phase_inverter/3phase_inverter/4. Software_WS/OL_VSC_vitor/Libraries/XMCLib/inc\xmc_eth_mac.h **** {
 250:F:/Projects/20190909 - 3phase_inverter/3phase_inverter/4. Software_WS/OL_VSC_vitor/Libraries/XMCLib/inc\xmc_eth_mac.h ****   XMC_ETH_MAC_ADDR_FILTER_MASK_BYTE0 = 0x01000000UL, /**< Address filter mask: byte 0 */
 251:F:/Projects/20190909 - 3phase_inverter/3phase_inverter/4. Software_WS/OL_VSC_vitor/Libraries/XMCLib/inc\xmc_eth_mac.h ****   XMC_ETH_MAC_ADDR_FILTER_MASK_BYTE1 = 0x02000000UL, /**< Address filter mask: byte 1 */
 252:F:/Projects/20190909 - 3phase_inverter/3phase_inverter/4. Software_WS/OL_VSC_vitor/Libraries/XMCLib/inc\xmc_eth_mac.h ****   XMC_ETH_MAC_ADDR_FILTER_MASK_BYTE2 = 0x04000000UL, /**< Address filter mask: byte 2 */
 253:F:/Projects/20190909 - 3phase_inverter/3phase_inverter/4. Software_WS/OL_VSC_vitor/Libraries/XMCLib/inc\xmc_eth_mac.h ****   XMC_ETH_MAC_ADDR_FILTER_MASK_BYTE3 = 0x08000000UL, /**< Address filter mask: byte 3 */
 254:F:/Projects/20190909 - 3phase_inverter/3phase_inverter/4. Software_WS/OL_VSC_vitor/Libraries/XMCLib/inc\xmc_eth_mac.h ****   XMC_ETH_MAC_ADDR_FILTER_MASK_BYTE4 = 0x10000000UL, /**< Address filter mask: byte 4 */
 255:F:/Projects/20190909 - 3phase_inverter/3phase_inverter/4. Software_WS/OL_VSC_vitor/Libraries/XMCLib/inc\xmc_eth_mac.h ****   XMC_ETH_MAC_ADDR_FILTER_MASK_BYTE5 = 0x20000000UL, /**< Address filter mask: byte 5 */
 256:F:/Projects/20190909 - 3phase_inverter/3phase_inverter/4. Software_WS/OL_VSC_vitor/Libraries/XMCLib/inc\xmc_eth_mac.h ****   XMC_ETH_MAC_ADDR_FILTER_SA         = 0x40000000UL  /**< Address filter SA */
 257:F:/Projects/20190909 - 3phase_inverter/3phase_inverter/4. Software_WS/OL_VSC_vitor/Libraries/XMCLib/inc\xmc_eth_mac.h **** } XMC_ETH_MAC_ADDR_FILTER_t;
 258:F:/Projects/20190909 - 3phase_inverter/3phase_inverter/4. Software_WS/OL_VSC_vitor/Libraries/XMCLib/inc\xmc_eth_mac.h **** 
 259:F:/Projects/20190909 - 3phase_inverter/3phase_inverter/4. Software_WS/OL_VSC_vitor/Libraries/XMCLib/inc\xmc_eth_mac.h **** /**
 260:F:/Projects/20190909 - 3phase_inverter/3phase_inverter/4. Software_WS/OL_VSC_vitor/Libraries/XMCLib/inc\xmc_eth_mac.h ****  * Power management events that triggers a PMT interrupt
 261:F:/Projects/20190909 - 3phase_inverter/3phase_inverter/4. Software_WS/OL_VSC_vitor/Libraries/XMCLib/inc\xmc_eth_mac.h ****  */
 262:F:/Projects/20190909 - 3phase_inverter/3phase_inverter/4. Software_WS/OL_VSC_vitor/Libraries/XMCLib/inc\xmc_eth_mac.h **** typedef enum XMC_ETH_MAC_PMT_EVENT
 263:F:/Projects/20190909 - 3phase_inverter/3phase_inverter/4. Software_WS/OL_VSC_vitor/Libraries/XMCLib/inc\xmc_eth_mac.h **** {
 264:F:/Projects/20190909 - 3phase_inverter/3phase_inverter/4. Software_WS/OL_VSC_vitor/Libraries/XMCLib/inc\xmc_eth_mac.h ****   XMC_ETH_MAC_PMT_EVENT_ON_WAKEUP_FRAME         = ETH_PMT_CONTROL_STATUS_RWKPKTEN_Msk,  /**< Wakeup
 265:F:/Projects/20190909 - 3phase_inverter/3phase_inverter/4. Software_WS/OL_VSC_vitor/Libraries/XMCLib/inc\xmc_eth_mac.h ****   XMC_ETH_MAC_PMT_EVENT_ON_MAGIC_PACKET         = ETH_PMT_CONTROL_STATUS_MGKPKTEN_Msk,  /**< Magic 
 266:F:/Projects/20190909 - 3phase_inverter/3phase_inverter/4. Software_WS/OL_VSC_vitor/Libraries/XMCLib/inc\xmc_eth_mac.h ****   XMC_ETH_MAC_PMT_EVENT_ON_UNICAST_FRAME_FILTER = ETH_PMT_CONTROL_STATUS_GLBLUCAST_Msk  /**< Unicas
 267:F:/Projects/20190909 - 3phase_inverter/3phase_inverter/4. Software_WS/OL_VSC_vitor/Libraries/XMCLib/inc\xmc_eth_mac.h **** } XMC_ETH_MAC_PMT_EVENT_t;
 268:F:/Projects/20190909 - 3phase_inverter/3phase_inverter/4. Software_WS/OL_VSC_vitor/Libraries/XMCLib/inc\xmc_eth_mac.h **** 
 269:F:/Projects/20190909 - 3phase_inverter/3phase_inverter/4. Software_WS/OL_VSC_vitor/Libraries/XMCLib/inc\xmc_eth_mac.h **** 
 270:F:/Projects/20190909 - 3phase_inverter/3phase_inverter/4. Software_WS/OL_VSC_vitor/Libraries/XMCLib/inc\xmc_eth_mac.h **** /**
 271:F:/Projects/20190909 - 3phase_inverter/3phase_inverter/4. Software_WS/OL_VSC_vitor/Libraries/XMCLib/inc\xmc_eth_mac.h ****  * ETH MAC time-stamp configuration enable
 272:F:/Projects/20190909 - 3phase_inverter/3phase_inverter/4. Software_WS/OL_VSC_vitor/Libraries/XMCLib/inc\xmc_eth_mac.h ****  */
 273:F:/Projects/20190909 - 3phase_inverter/3phase_inverter/4. Software_WS/OL_VSC_vitor/Libraries/XMCLib/inc\xmc_eth_mac.h **** typedef enum XMC_ETH_MAC_TIMESTAMP_CONFIG
 274:F:/Projects/20190909 - 3phase_inverter/3phase_inverter/4. Software_WS/OL_VSC_vitor/Libraries/XMCLib/inc\xmc_eth_mac.h **** {
 275:F:/Projects/20190909 - 3phase_inverter/3phase_inverter/4. Software_WS/OL_VSC_vitor/Libraries/XMCLib/inc\xmc_eth_mac.h ****   XMC_ETH_MAC_TIMESTAMP_CONFIG_FINE_UPDATE = ETH_TIMESTAMP_CONTROL_TSCFUPDT_Msk,             /**< F
 276:F:/Projects/20190909 - 3phase_inverter/3phase_inverter/4. Software_WS/OL_VSC_vitor/Libraries/XMCLib/inc\xmc_eth_mac.h ****   XMC_ETH_MAC_TIMESTAMP_CONFIG_ENABLE_TS_INTERRUPT = ETH_TIMESTAMP_CONTROL_TSTRIG_Msk,       /**< T
 277:F:/Projects/20190909 - 3phase_inverter/3phase_inverter/4. Software_WS/OL_VSC_vitor/Libraries/XMCLib/inc\xmc_eth_mac.h ****   XMC_ETH_MAC_TIMESTAMP_CONFIG_ENABLE_ALL_FRAMES = ETH_TIMESTAMP_CONTROL_TSENALL_Msk,        /**< E
 278:F:/Projects/20190909 - 3phase_inverter/3phase_inverter/4. Software_WS/OL_VSC_vitor/Libraries/XMCLib/inc\xmc_eth_mac.h ****   XMC_ETH_MAC_TIMESTAMP_CONFIG_ENABLE_PTPV2 = ETH_TIMESTAMP_CONTROL_TSVER2ENA_Msk,           /**< P
 279:F:/Projects/20190909 - 3phase_inverter/3phase_inverter/4. Software_WS/OL_VSC_vitor/Libraries/XMCLib/inc\xmc_eth_mac.h ****   XMC_ETH_MAC_TIMESTAMP_CONFIG_ENABLE_PTP_OVER_ETHERNET = ETH_TIMESTAMP_CONTROL_TSIPENA_Msk, /**< P
 280:F:/Projects/20190909 - 3phase_inverter/3phase_inverter/4. Software_WS/OL_VSC_vitor/Libraries/XMCLib/inc\xmc_eth_mac.h ****   XMC_ETH_MAC_TIMESTAMP_CONFIG_ENABLE_PTP_OVER_IPV6 = ETH_TIMESTAMP_CONTROL_TSIPV6ENA_Msk,   /**< P
 281:F:/Projects/20190909 - 3phase_inverter/3phase_inverter/4. Software_WS/OL_VSC_vitor/Libraries/XMCLib/inc\xmc_eth_mac.h ****   XMC_ETH_MAC_TIMESTAMP_CONFIG_ENABLE_PTP_OVER_IPV4 = ETH_TIMESTAMP_CONTROL_TSIPV4ENA_Msk,   /**< P
 282:F:/Projects/20190909 - 3phase_inverter/3phase_inverter/4. Software_WS/OL_VSC_vitor/Libraries/XMCLib/inc\xmc_eth_mac.h ****   XMC_ETH_MAC_TIMESTAMP_CONFIG_ENABLE_MAC_ADDRESS_FILTER = ETH_TIMESTAMP_CONTROL_TSENMACADDR_Msk /*
 283:F:/Projects/20190909 - 3phase_inverter/3phase_inverter/4. Software_WS/OL_VSC_vitor/Libraries/XMCLib/inc\xmc_eth_mac.h **** } XMC_ETH_MAC_TIMESTAMP_CONFIG_t;
 284:F:/Projects/20190909 - 3phase_inverter/3phase_inverter/4. Software_WS/OL_VSC_vitor/Libraries/XMCLib/inc\xmc_eth_mac.h **** 
 285:F:/Projects/20190909 - 3phase_inverter/3phase_inverter/4. Software_WS/OL_VSC_vitor/Libraries/XMCLib/inc\xmc_eth_mac.h **** /**************************************************************************************************
 286:F:/Projects/20190909 - 3phase_inverter/3phase_inverter/4. Software_WS/OL_VSC_vitor/Libraries/XMCLib/inc\xmc_eth_mac.h ****  * DATA STRUCTURES
 287:F:/Projects/20190909 - 3phase_inverter/3phase_inverter/4. Software_WS/OL_VSC_vitor/Libraries/XMCLib/inc\xmc_eth_mac.h ****  **************************************************************************************************
 288:F:/Projects/20190909 - 3phase_inverter/3phase_inverter/4. Software_WS/OL_VSC_vitor/Libraries/XMCLib/inc\xmc_eth_mac.h **** 
 289:F:/Projects/20190909 - 3phase_inverter/3phase_inverter/4. Software_WS/OL_VSC_vitor/Libraries/XMCLib/inc\xmc_eth_mac.h **** /* Anonymous structure/union guard start */
 290:F:/Projects/20190909 - 3phase_inverter/3phase_inverter/4. Software_WS/OL_VSC_vitor/Libraries/XMCLib/inc\xmc_eth_mac.h **** #if defined (__CC_ARM)
 291:F:/Projects/20190909 - 3phase_inverter/3phase_inverter/4. Software_WS/OL_VSC_vitor/Libraries/XMCLib/inc\xmc_eth_mac.h **** #pragma push
 292:F:/Projects/20190909 - 3phase_inverter/3phase_inverter/4. Software_WS/OL_VSC_vitor/Libraries/XMCLib/inc\xmc_eth_mac.h **** #pragma anon_unions
 293:F:/Projects/20190909 - 3phase_inverter/3phase_inverter/4. Software_WS/OL_VSC_vitor/Libraries/XMCLib/inc\xmc_eth_mac.h **** #elif defined (__TASKING__)
 294:F:/Projects/20190909 - 3phase_inverter/3phase_inverter/4. Software_WS/OL_VSC_vitor/Libraries/XMCLib/inc\xmc_eth_mac.h **** #pragma warning 586
 295:F:/Projects/20190909 - 3phase_inverter/3phase_inverter/4. Software_WS/OL_VSC_vitor/Libraries/XMCLib/inc\xmc_eth_mac.h **** #endif
 296:F:/Projects/20190909 - 3phase_inverter/3phase_inverter/4. Software_WS/OL_VSC_vitor/Libraries/XMCLib/inc\xmc_eth_mac.h **** 
 297:F:/Projects/20190909 - 3phase_inverter/3phase_inverter/4. Software_WS/OL_VSC_vitor/Libraries/XMCLib/inc\xmc_eth_mac.h **** /**
 298:F:/Projects/20190909 - 3phase_inverter/3phase_inverter/4. Software_WS/OL_VSC_vitor/Libraries/XMCLib/inc\xmc_eth_mac.h ****  * ETH MAC port control
 299:F:/Projects/20190909 - 3phase_inverter/3phase_inverter/4. Software_WS/OL_VSC_vitor/Libraries/XMCLib/inc\xmc_eth_mac.h ****  */
 300:F:/Projects/20190909 - 3phase_inverter/3phase_inverter/4. Software_WS/OL_VSC_vitor/Libraries/XMCLib/inc\xmc_eth_mac.h **** typedef union XMC_ETH_MAC_PORT_CTRL
 301:F:/Projects/20190909 - 3phase_inverter/3phase_inverter/4. Software_WS/OL_VSC_vitor/Libraries/XMCLib/inc\xmc_eth_mac.h **** {
 302:F:/Projects/20190909 - 3phase_inverter/3phase_inverter/4. Software_WS/OL_VSC_vitor/Libraries/XMCLib/inc\xmc_eth_mac.h ****   struct
 303:F:/Projects/20190909 - 3phase_inverter/3phase_inverter/4. Software_WS/OL_VSC_vitor/Libraries/XMCLib/inc\xmc_eth_mac.h ****   {
 304:F:/Projects/20190909 - 3phase_inverter/3phase_inverter/4. Software_WS/OL_VSC_vitor/Libraries/XMCLib/inc\xmc_eth_mac.h ****     uint32_t rxd0: 2;     /**< Receive data bit 0 (::XMC_ETH_MAC_PORT_CTRL_RXD0_t) */
 305:F:/Projects/20190909 - 3phase_inverter/3phase_inverter/4. Software_WS/OL_VSC_vitor/Libraries/XMCLib/inc\xmc_eth_mac.h ****     uint32_t rxd1: 2;     /**< Receive data bit 1 (::XMC_ETH_MAC_PORT_CTRL_RXD1_t) */
 306:F:/Projects/20190909 - 3phase_inverter/3phase_inverter/4. Software_WS/OL_VSC_vitor/Libraries/XMCLib/inc\xmc_eth_mac.h ****     uint32_t rxd2: 2;     /**< Receive data bit 2 (only MII) (::XMC_ETH_MAC_PORT_CTRL_RXD2_t) */
 307:F:/Projects/20190909 - 3phase_inverter/3phase_inverter/4. Software_WS/OL_VSC_vitor/Libraries/XMCLib/inc\xmc_eth_mac.h ****     uint32_t rxd3: 2;     /**< Receive data bit 3 (only MII) (::XMC_ETH_MAC_PORT_CTRL_RXD3_t) */
 308:F:/Projects/20190909 - 3phase_inverter/3phase_inverter/4. Software_WS/OL_VSC_vitor/Libraries/XMCLib/inc\xmc_eth_mac.h ****     uint32_t clk_rmii: 2; /**< RMII: Continuous 50 MHz reference clock.
 309:F:/Projects/20190909 - 3phase_inverter/3phase_inverter/4. Software_WS/OL_VSC_vitor/Libraries/XMCLib/inc\xmc_eth_mac.h ****                                MII: Receive clock, 25 MHz for 100Mbit/s, 2.5 MHz for 10Mbit/s
 310:F:/Projects/20190909 - 3phase_inverter/3phase_inverter/4. Software_WS/OL_VSC_vitor/Libraries/XMCLib/inc\xmc_eth_mac.h ****                                (::XMC_ETH_MAC_PORT_CTRL_CLK_RMII_t) */
 311:F:/Projects/20190909 - 3phase_inverter/3phase_inverter/4. Software_WS/OL_VSC_vitor/Libraries/XMCLib/inc\xmc_eth_mac.h ****     uint32_t crs_dv: 2;   /**< RMII: carrier sense/RX_Data valid. MII: RX_Data valid (::XMC_ETH_MAC
 312:F:/Projects/20190909 - 3phase_inverter/3phase_inverter/4. Software_WS/OL_VSC_vitor/Libraries/XMCLib/inc\xmc_eth_mac.h ****     uint32_t crs: 2;      /**< Carrier sense for only MII (::XMC_ETH_MAC_PORT_CTRL_CRS_t) */
 313:F:/Projects/20190909 - 3phase_inverter/3phase_inverter/4. Software_WS/OL_VSC_vitor/Libraries/XMCLib/inc\xmc_eth_mac.h ****     uint32_t rxer: 2;     /**< Receive error (::XMC_ETH_MAC_PORT_CTRL_RXER_t) */
 314:F:/Projects/20190909 - 3phase_inverter/3phase_inverter/4. Software_WS/OL_VSC_vitor/Libraries/XMCLib/inc\xmc_eth_mac.h ****     uint32_t col: 2;      /**< Collision Detect for only MII (::XMC_ETH_MAC_PORT_CTRL_COL_t) */
 315:F:/Projects/20190909 - 3phase_inverter/3phase_inverter/4. Software_WS/OL_VSC_vitor/Libraries/XMCLib/inc\xmc_eth_mac.h ****     uint32_t clk_tx: 2;   /**< Transmit clock (only MII), 25 MHz for 100Mbit/s, 2.5 MHz for 10Mbit/
 316:F:/Projects/20190909 - 3phase_inverter/3phase_inverter/4. Software_WS/OL_VSC_vitor/Libraries/XMCLib/inc\xmc_eth_mac.h ****     uint32_t: 2;          /**< Reserved bits */
 317:F:/Projects/20190909 - 3phase_inverter/3phase_inverter/4. Software_WS/OL_VSC_vitor/Libraries/XMCLib/inc\xmc_eth_mac.h ****     uint32_t mdio: 2;     /**< Bidirectional, push-pull management data I/O line (::XMC_ETH_MAC_POR
 318:F:/Projects/20190909 - 3phase_inverter/3phase_inverter/4. Software_WS/OL_VSC_vitor/Libraries/XMCLib/inc\xmc_eth_mac.h ****     uint32_t: 2;          /**< Reserved bits */
 319:F:/Projects/20190909 - 3phase_inverter/3phase_inverter/4. Software_WS/OL_VSC_vitor/Libraries/XMCLib/inc\xmc_eth_mac.h ****     uint32_t mode: 1;     /**< RMII or MII (::XMC_ETH_MAC_PORT_CTRL_MODE_t) */
 320:F:/Projects/20190909 - 3phase_inverter/3phase_inverter/4. Software_WS/OL_VSC_vitor/Libraries/XMCLib/inc\xmc_eth_mac.h ****   };
 321:F:/Projects/20190909 - 3phase_inverter/3phase_inverter/4. Software_WS/OL_VSC_vitor/Libraries/XMCLib/inc\xmc_eth_mac.h **** 
 322:F:/Projects/20190909 - 3phase_inverter/3phase_inverter/4. Software_WS/OL_VSC_vitor/Libraries/XMCLib/inc\xmc_eth_mac.h ****   uint32_t raw;
 323:F:/Projects/20190909 - 3phase_inverter/3phase_inverter/4. Software_WS/OL_VSC_vitor/Libraries/XMCLib/inc\xmc_eth_mac.h **** } XMC_ETH_MAC_PORT_CTRL_t;
 324:F:/Projects/20190909 - 3phase_inverter/3phase_inverter/4. Software_WS/OL_VSC_vitor/Libraries/XMCLib/inc\xmc_eth_mac.h **** 
 325:F:/Projects/20190909 - 3phase_inverter/3phase_inverter/4. Software_WS/OL_VSC_vitor/Libraries/XMCLib/inc\xmc_eth_mac.h **** /**
 326:F:/Projects/20190909 - 3phase_inverter/3phase_inverter/4. Software_WS/OL_VSC_vitor/Libraries/XMCLib/inc\xmc_eth_mac.h ****  * ETH MAC DMA descriptor
 327:F:/Projects/20190909 - 3phase_inverter/3phase_inverter/4. Software_WS/OL_VSC_vitor/Libraries/XMCLib/inc\xmc_eth_mac.h ****  */
 328:F:/Projects/20190909 - 3phase_inverter/3phase_inverter/4. Software_WS/OL_VSC_vitor/Libraries/XMCLib/inc\xmc_eth_mac.h **** typedef struct XMC_ETH_MAC_DMA_DESC
 329:F:/Projects/20190909 - 3phase_inverter/3phase_inverter/4. Software_WS/OL_VSC_vitor/Libraries/XMCLib/inc\xmc_eth_mac.h **** {
 330:F:/Projects/20190909 - 3phase_inverter/3phase_inverter/4. Software_WS/OL_VSC_vitor/Libraries/XMCLib/inc\xmc_eth_mac.h ****   uint32_t status;                 /**< DMA descriptor status */
 331:F:/Projects/20190909 - 3phase_inverter/3phase_inverter/4. Software_WS/OL_VSC_vitor/Libraries/XMCLib/inc\xmc_eth_mac.h ****   uint32_t length;                 /**< Descriptor length */
 332:F:/Projects/20190909 - 3phase_inverter/3phase_inverter/4. Software_WS/OL_VSC_vitor/Libraries/XMCLib/inc\xmc_eth_mac.h ****   uint32_t buffer1;                /**< Buffer 1 */
 333:F:/Projects/20190909 - 3phase_inverter/3phase_inverter/4. Software_WS/OL_VSC_vitor/Libraries/XMCLib/inc\xmc_eth_mac.h ****   uint32_t buffer2;                /**< Buffer 2 */
 334:F:/Projects/20190909 - 3phase_inverter/3phase_inverter/4. Software_WS/OL_VSC_vitor/Libraries/XMCLib/inc\xmc_eth_mac.h ****   uint32_t extended_status;        /**< Extended status */
 335:F:/Projects/20190909 - 3phase_inverter/3phase_inverter/4. Software_WS/OL_VSC_vitor/Libraries/XMCLib/inc\xmc_eth_mac.h ****   uint32_t reserved;               /**< Reserved */
 336:F:/Projects/20190909 - 3phase_inverter/3phase_inverter/4. Software_WS/OL_VSC_vitor/Libraries/XMCLib/inc\xmc_eth_mac.h ****   uint32_t time_stamp_nanoseconds; /**< Time stamp low */
 337:F:/Projects/20190909 - 3phase_inverter/3phase_inverter/4. Software_WS/OL_VSC_vitor/Libraries/XMCLib/inc\xmc_eth_mac.h ****   uint32_t time_stamp_seconds;     /**< Time stamp high */
 338:F:/Projects/20190909 - 3phase_inverter/3phase_inverter/4. Software_WS/OL_VSC_vitor/Libraries/XMCLib/inc\xmc_eth_mac.h **** } XMC_ETH_MAC_DMA_DESC_t;
 339:F:/Projects/20190909 - 3phase_inverter/3phase_inverter/4. Software_WS/OL_VSC_vitor/Libraries/XMCLib/inc\xmc_eth_mac.h **** 
 340:F:/Projects/20190909 - 3phase_inverter/3phase_inverter/4. Software_WS/OL_VSC_vitor/Libraries/XMCLib/inc\xmc_eth_mac.h **** /**
 341:F:/Projects/20190909 - 3phase_inverter/3phase_inverter/4. Software_WS/OL_VSC_vitor/Libraries/XMCLib/inc\xmc_eth_mac.h ****  * ETH MAC time
 342:F:/Projects/20190909 - 3phase_inverter/3phase_inverter/4. Software_WS/OL_VSC_vitor/Libraries/XMCLib/inc\xmc_eth_mac.h ****  */
 343:F:/Projects/20190909 - 3phase_inverter/3phase_inverter/4. Software_WS/OL_VSC_vitor/Libraries/XMCLib/inc\xmc_eth_mac.h **** typedef struct XMC_ETH_MAC_TIME
 344:F:/Projects/20190909 - 3phase_inverter/3phase_inverter/4. Software_WS/OL_VSC_vitor/Libraries/XMCLib/inc\xmc_eth_mac.h **** {
 345:F:/Projects/20190909 - 3phase_inverter/3phase_inverter/4. Software_WS/OL_VSC_vitor/Libraries/XMCLib/inc\xmc_eth_mac.h ****   uint32_t seconds;                 /**< Seconds */
 346:F:/Projects/20190909 - 3phase_inverter/3phase_inverter/4. Software_WS/OL_VSC_vitor/Libraries/XMCLib/inc\xmc_eth_mac.h ****   int32_t nanoseconds;              /**< Nanoseconds */
 347:F:/Projects/20190909 - 3phase_inverter/3phase_inverter/4. Software_WS/OL_VSC_vitor/Libraries/XMCLib/inc\xmc_eth_mac.h **** } XMC_ETH_MAC_TIME_t;
 348:F:/Projects/20190909 - 3phase_inverter/3phase_inverter/4. Software_WS/OL_VSC_vitor/Libraries/XMCLib/inc\xmc_eth_mac.h **** 
 349:F:/Projects/20190909 - 3phase_inverter/3phase_inverter/4. Software_WS/OL_VSC_vitor/Libraries/XMCLib/inc\xmc_eth_mac.h **** /**
 350:F:/Projects/20190909 - 3phase_inverter/3phase_inverter/4. Software_WS/OL_VSC_vitor/Libraries/XMCLib/inc\xmc_eth_mac.h ****  * ETH driver structure
 351:F:/Projects/20190909 - 3phase_inverter/3phase_inverter/4. Software_WS/OL_VSC_vitor/Libraries/XMCLib/inc\xmc_eth_mac.h ****  */
 352:F:/Projects/20190909 - 3phase_inverter/3phase_inverter/4. Software_WS/OL_VSC_vitor/Libraries/XMCLib/inc\xmc_eth_mac.h **** typedef struct XMC_ETH_MAC
 353:F:/Projects/20190909 - 3phase_inverter/3phase_inverter/4. Software_WS/OL_VSC_vitor/Libraries/XMCLib/inc\xmc_eth_mac.h **** {
 354:F:/Projects/20190909 - 3phase_inverter/3phase_inverter/4. Software_WS/OL_VSC_vitor/Libraries/XMCLib/inc\xmc_eth_mac.h ****   ETH_GLOBAL_TypeDef *regs;        /**< ETH module 0 (now, we have a single ETH module) */
 355:F:/Projects/20190909 - 3phase_inverter/3phase_inverter/4. Software_WS/OL_VSC_vitor/Libraries/XMCLib/inc\xmc_eth_mac.h ****   uint64_t address;              /**< MAC address */
 356:F:/Projects/20190909 - 3phase_inverter/3phase_inverter/4. Software_WS/OL_VSC_vitor/Libraries/XMCLib/inc\xmc_eth_mac.h ****   XMC_ETH_MAC_DMA_DESC_t *rx_desc; /**< DMA descriptor: RX */
 357:F:/Projects/20190909 - 3phase_inverter/3phase_inverter/4. Software_WS/OL_VSC_vitor/Libraries/XMCLib/inc\xmc_eth_mac.h ****   XMC_ETH_MAC_DMA_DESC_t *tx_desc; /**< DMA descriptor: TX */
 358:F:/Projects/20190909 - 3phase_inverter/3phase_inverter/4. Software_WS/OL_VSC_vitor/Libraries/XMCLib/inc\xmc_eth_mac.h ****   uint8_t *rx_buf;                /**< RX buffer */
 359:F:/Projects/20190909 - 3phase_inverter/3phase_inverter/4. Software_WS/OL_VSC_vitor/Libraries/XMCLib/inc\xmc_eth_mac.h ****   uint8_t *tx_buf;                /**< TX buffer */
 360:F:/Projects/20190909 - 3phase_inverter/3phase_inverter/4. Software_WS/OL_VSC_vitor/Libraries/XMCLib/inc\xmc_eth_mac.h ****   uint8_t *frame_end;              /**< End of assembled frame fragments */
 361:F:/Projects/20190909 - 3phase_inverter/3phase_inverter/4. Software_WS/OL_VSC_vitor/Libraries/XMCLib/inc\xmc_eth_mac.h ****   uint8_t num_rx_buf;              /**< How many RX descriptors? */
 362:F:/Projects/20190909 - 3phase_inverter/3phase_inverter/4. Software_WS/OL_VSC_vitor/Libraries/XMCLib/inc\xmc_eth_mac.h ****   uint8_t num_tx_buf;              /**< How many TX descriptors? */
 363:F:/Projects/20190909 - 3phase_inverter/3phase_inverter/4. Software_WS/OL_VSC_vitor/Libraries/XMCLib/inc\xmc_eth_mac.h ****   uint8_t tx_index;                /**< Transmit descriptor index */
 364:F:/Projects/20190909 - 3phase_inverter/3phase_inverter/4. Software_WS/OL_VSC_vitor/Libraries/XMCLib/inc\xmc_eth_mac.h ****   uint8_t rx_index;                /**< Receive descriptor index */
 365:F:/Projects/20190909 - 3phase_inverter/3phase_inverter/4. Software_WS/OL_VSC_vitor/Libraries/XMCLib/inc\xmc_eth_mac.h ****   uint8_t tx_ts_index;             /**< Transmit time-stamp descriptor index */
 366:F:/Projects/20190909 - 3phase_inverter/3phase_inverter/4. Software_WS/OL_VSC_vitor/Libraries/XMCLib/inc\xmc_eth_mac.h **** } XMC_ETH_MAC_t;
 367:F:/Projects/20190909 - 3phase_inverter/3phase_inverter/4. Software_WS/OL_VSC_vitor/Libraries/XMCLib/inc\xmc_eth_mac.h **** 
 368:F:/Projects/20190909 - 3phase_inverter/3phase_inverter/4. Software_WS/OL_VSC_vitor/Libraries/XMCLib/inc\xmc_eth_mac.h **** /* Anonymous structure/union guard end */
 369:F:/Projects/20190909 - 3phase_inverter/3phase_inverter/4. Software_WS/OL_VSC_vitor/Libraries/XMCLib/inc\xmc_eth_mac.h **** #if defined (__CC_ARM)
 370:F:/Projects/20190909 - 3phase_inverter/3phase_inverter/4. Software_WS/OL_VSC_vitor/Libraries/XMCLib/inc\xmc_eth_mac.h **** #pragma pop
 371:F:/Projects/20190909 - 3phase_inverter/3phase_inverter/4. Software_WS/OL_VSC_vitor/Libraries/XMCLib/inc\xmc_eth_mac.h **** #elif defined (__TASKING__)
 372:F:/Projects/20190909 - 3phase_inverter/3phase_inverter/4. Software_WS/OL_VSC_vitor/Libraries/XMCLib/inc\xmc_eth_mac.h **** #pragma warning restore
 373:F:/Projects/20190909 - 3phase_inverter/3phase_inverter/4. Software_WS/OL_VSC_vitor/Libraries/XMCLib/inc\xmc_eth_mac.h **** #endif
 374:F:/Projects/20190909 - 3phase_inverter/3phase_inverter/4. Software_WS/OL_VSC_vitor/Libraries/XMCLib/inc\xmc_eth_mac.h **** 
 375:F:/Projects/20190909 - 3phase_inverter/3phase_inverter/4. Software_WS/OL_VSC_vitor/Libraries/XMCLib/inc\xmc_eth_mac.h **** /**************************************************************************************************
 376:F:/Projects/20190909 - 3phase_inverter/3phase_inverter/4. Software_WS/OL_VSC_vitor/Libraries/XMCLib/inc\xmc_eth_mac.h ****  * API PROTOTYPES
 377:F:/Projects/20190909 - 3phase_inverter/3phase_inverter/4. Software_WS/OL_VSC_vitor/Libraries/XMCLib/inc\xmc_eth_mac.h ****  **************************************************************************************************
 378:F:/Projects/20190909 - 3phase_inverter/3phase_inverter/4. Software_WS/OL_VSC_vitor/Libraries/XMCLib/inc\xmc_eth_mac.h **** 
 379:F:/Projects/20190909 - 3phase_inverter/3phase_inverter/4. Software_WS/OL_VSC_vitor/Libraries/XMCLib/inc\xmc_eth_mac.h **** #ifdef __cplusplus
 380:F:/Projects/20190909 - 3phase_inverter/3phase_inverter/4. Software_WS/OL_VSC_vitor/Libraries/XMCLib/inc\xmc_eth_mac.h **** extern "C" {
 381:F:/Projects/20190909 - 3phase_inverter/3phase_inverter/4. Software_WS/OL_VSC_vitor/Libraries/XMCLib/inc\xmc_eth_mac.h **** #endif
 382:F:/Projects/20190909 - 3phase_inverter/3phase_inverter/4. Software_WS/OL_VSC_vitor/Libraries/XMCLib/inc\xmc_eth_mac.h **** 
 383:F:/Projects/20190909 - 3phase_inverter/3phase_inverter/4. Software_WS/OL_VSC_vitor/Libraries/XMCLib/inc\xmc_eth_mac.h **** /**
 384:F:/Projects/20190909 - 3phase_inverter/3phase_inverter/4. Software_WS/OL_VSC_vitor/Libraries/XMCLib/inc\xmc_eth_mac.h ****  * @param eth_mac A constant pointer to XMC_ETH_MAC_t, pointing to the ETH MAC base address
 385:F:/Projects/20190909 - 3phase_inverter/3phase_inverter/4. Software_WS/OL_VSC_vitor/Libraries/XMCLib/inc\xmc_eth_mac.h ****  * @return XMC_ETH_MAC_STATUS_t Initialization status
 386:F:/Projects/20190909 - 3phase_inverter/3phase_inverter/4. Software_WS/OL_VSC_vitor/Libraries/XMCLib/inc\xmc_eth_mac.h ****  *
 387:F:/Projects/20190909 - 3phase_inverter/3phase_inverter/4. Software_WS/OL_VSC_vitor/Libraries/XMCLib/inc\xmc_eth_mac.h ****  * \par<b>Description: </b><br>
 388:F:/Projects/20190909 - 3phase_inverter/3phase_inverter/4. Software_WS/OL_VSC_vitor/Libraries/XMCLib/inc\xmc_eth_mac.h ****  * Initialize the Ethernet MAC peripheral <br>
 389:F:/Projects/20190909 - 3phase_inverter/3phase_inverter/4. Software_WS/OL_VSC_vitor/Libraries/XMCLib/inc\xmc_eth_mac.h ****  *
 390:F:/Projects/20190909 - 3phase_inverter/3phase_inverter/4. Software_WS/OL_VSC_vitor/Libraries/XMCLib/inc\xmc_eth_mac.h ****  * \par
 391:F:/Projects/20190909 - 3phase_inverter/3phase_inverter/4. Software_WS/OL_VSC_vitor/Libraries/XMCLib/inc\xmc_eth_mac.h ****  * The function sets the link speed, applies the duplex mode, sets auto-negotiation
 392:F:/Projects/20190909 - 3phase_inverter/3phase_inverter/4. Software_WS/OL_VSC_vitor/Libraries/XMCLib/inc\xmc_eth_mac.h ****  * and loop-back settings.
 393:F:/Projects/20190909 - 3phase_inverter/3phase_inverter/4. Software_WS/OL_VSC_vitor/Libraries/XMCLib/inc\xmc_eth_mac.h ****  */
 394:F:/Projects/20190909 - 3phase_inverter/3phase_inverter/4. Software_WS/OL_VSC_vitor/Libraries/XMCLib/inc\xmc_eth_mac.h **** XMC_ETH_MAC_STATUS_t XMC_ETH_MAC_Init(XMC_ETH_MAC_t *const eth_mac);
 395:F:/Projects/20190909 - 3phase_inverter/3phase_inverter/4. Software_WS/OL_VSC_vitor/Libraries/XMCLib/inc\xmc_eth_mac.h **** 
 396:F:/Projects/20190909 - 3phase_inverter/3phase_inverter/4. Software_WS/OL_VSC_vitor/Libraries/XMCLib/inc\xmc_eth_mac.h **** /**
 397:F:/Projects/20190909 - 3phase_inverter/3phase_inverter/4. Software_WS/OL_VSC_vitor/Libraries/XMCLib/inc\xmc_eth_mac.h ****  * @param eth_mac A constant pointer to XMC_ETH_MAC_t, pointing to the ETH MAC base address
 398:F:/Projects/20190909 - 3phase_inverter/3phase_inverter/4. Software_WS/OL_VSC_vitor/Libraries/XMCLib/inc\xmc_eth_mac.h ****  * @return None
 399:F:/Projects/20190909 - 3phase_inverter/3phase_inverter/4. Software_WS/OL_VSC_vitor/Libraries/XMCLib/inc\xmc_eth_mac.h ****  *
 400:F:/Projects/20190909 - 3phase_inverter/3phase_inverter/4. Software_WS/OL_VSC_vitor/Libraries/XMCLib/inc\xmc_eth_mac.h ****  * \par<b>Description: </b><br>
 401:F:/Projects/20190909 - 3phase_inverter/3phase_inverter/4. Software_WS/OL_VSC_vitor/Libraries/XMCLib/inc\xmc_eth_mac.h ****  * Initialize the RX DMA descriptors <br>
 402:F:/Projects/20190909 - 3phase_inverter/3phase_inverter/4. Software_WS/OL_VSC_vitor/Libraries/XMCLib/inc\xmc_eth_mac.h ****  *
 403:F:/Projects/20190909 - 3phase_inverter/3phase_inverter/4. Software_WS/OL_VSC_vitor/Libraries/XMCLib/inc\xmc_eth_mac.h ****  * \par
 404:F:/Projects/20190909 - 3phase_inverter/3phase_inverter/4. Software_WS/OL_VSC_vitor/Libraries/XMCLib/inc\xmc_eth_mac.h ****  * The function initializes the RX descriptors in a chained configuration. It sets
 405:F:/Projects/20190909 - 3phase_inverter/3phase_inverter/4. Software_WS/OL_VSC_vitor/Libraries/XMCLib/inc\xmc_eth_mac.h ****  * up the status bit, control bit, buffer length and the buffer pointer.
 406:F:/Projects/20190909 - 3phase_inverter/3phase_inverter/4. Software_WS/OL_VSC_vitor/Libraries/XMCLib/inc\xmc_eth_mac.h ****  */
 407:F:/Projects/20190909 - 3phase_inverter/3phase_inverter/4. Software_WS/OL_VSC_vitor/Libraries/XMCLib/inc\xmc_eth_mac.h **** void XMC_ETH_MAC_InitRxDescriptors(XMC_ETH_MAC_t *const eth_mac);
 408:F:/Projects/20190909 - 3phase_inverter/3phase_inverter/4. Software_WS/OL_VSC_vitor/Libraries/XMCLib/inc\xmc_eth_mac.h **** 
 409:F:/Projects/20190909 - 3phase_inverter/3phase_inverter/4. Software_WS/OL_VSC_vitor/Libraries/XMCLib/inc\xmc_eth_mac.h **** /**
 410:F:/Projects/20190909 - 3phase_inverter/3phase_inverter/4. Software_WS/OL_VSC_vitor/Libraries/XMCLib/inc\xmc_eth_mac.h ****  * @param eth_mac A constant pointer to XMC_ETH_MAC_t, pointing to the ETH MAC base address
 411:F:/Projects/20190909 - 3phase_inverter/3phase_inverter/4. Software_WS/OL_VSC_vitor/Libraries/XMCLib/inc\xmc_eth_mac.h ****  * @return None
 412:F:/Projects/20190909 - 3phase_inverter/3phase_inverter/4. Software_WS/OL_VSC_vitor/Libraries/XMCLib/inc\xmc_eth_mac.h ****  *
 413:F:/Projects/20190909 - 3phase_inverter/3phase_inverter/4. Software_WS/OL_VSC_vitor/Libraries/XMCLib/inc\xmc_eth_mac.h ****  * \par<b>Description: </b><br>
 414:F:/Projects/20190909 - 3phase_inverter/3phase_inverter/4. Software_WS/OL_VSC_vitor/Libraries/XMCLib/inc\xmc_eth_mac.h ****  * Initialize the TX DMA descriptors <br>
 415:F:/Projects/20190909 - 3phase_inverter/3phase_inverter/4. Software_WS/OL_VSC_vitor/Libraries/XMCLib/inc\xmc_eth_mac.h ****  *
 416:F:/Projects/20190909 - 3phase_inverter/3phase_inverter/4. Software_WS/OL_VSC_vitor/Libraries/XMCLib/inc\xmc_eth_mac.h ****  * \par
 417:F:/Projects/20190909 - 3phase_inverter/3phase_inverter/4. Software_WS/OL_VSC_vitor/Libraries/XMCLib/inc\xmc_eth_mac.h ****  * The function initializes the TX descriptors in a chained configuration. It sets
 418:F:/Projects/20190909 - 3phase_inverter/3phase_inverter/4. Software_WS/OL_VSC_vitor/Libraries/XMCLib/inc\xmc_eth_mac.h ****  * up the status bit, control bit, buffer length and the buffer pointer.
 419:F:/Projects/20190909 - 3phase_inverter/3phase_inverter/4. Software_WS/OL_VSC_vitor/Libraries/XMCLib/inc\xmc_eth_mac.h ****  */
 420:F:/Projects/20190909 - 3phase_inverter/3phase_inverter/4. Software_WS/OL_VSC_vitor/Libraries/XMCLib/inc\xmc_eth_mac.h **** void XMC_ETH_MAC_InitTxDescriptors(XMC_ETH_MAC_t *const eth_mac);
 421:F:/Projects/20190909 - 3phase_inverter/3phase_inverter/4. Software_WS/OL_VSC_vitor/Libraries/XMCLib/inc\xmc_eth_mac.h ****  
 422:F:/Projects/20190909 - 3phase_inverter/3phase_inverter/4. Software_WS/OL_VSC_vitor/Libraries/XMCLib/inc\xmc_eth_mac.h **** /**
 423:F:/Projects/20190909 - 3phase_inverter/3phase_inverter/4. Software_WS/OL_VSC_vitor/Libraries/XMCLib/inc\xmc_eth_mac.h ****  * @param eth_mac A constant pointer to XMC_ETH_MAC_t, pointing to the ETH MAC base address
 424:F:/Projects/20190909 - 3phase_inverter/3phase_inverter/4. Software_WS/OL_VSC_vitor/Libraries/XMCLib/inc\xmc_eth_mac.h ****  * @return None
 425:F:/Projects/20190909 - 3phase_inverter/3phase_inverter/4. Software_WS/OL_VSC_vitor/Libraries/XMCLib/inc\xmc_eth_mac.h ****  *
 426:F:/Projects/20190909 - 3phase_inverter/3phase_inverter/4. Software_WS/OL_VSC_vitor/Libraries/XMCLib/inc\xmc_eth_mac.h ****  * \par<b>Description: </b><br>
 427:F:/Projects/20190909 - 3phase_inverter/3phase_inverter/4. Software_WS/OL_VSC_vitor/Libraries/XMCLib/inc\xmc_eth_mac.h ****  * Enable the Ethernet MAC peripheral <br>
 428:F:/Projects/20190909 - 3phase_inverter/3phase_inverter/4. Software_WS/OL_VSC_vitor/Libraries/XMCLib/inc\xmc_eth_mac.h ****  *
 429:F:/Projects/20190909 - 3phase_inverter/3phase_inverter/4. Software_WS/OL_VSC_vitor/Libraries/XMCLib/inc\xmc_eth_mac.h ****  * \par
 430:F:/Projects/20190909 - 3phase_inverter/3phase_inverter/4. Software_WS/OL_VSC_vitor/Libraries/XMCLib/inc\xmc_eth_mac.h ****  * The function de-asserts the peripheral reset.
 431:F:/Projects/20190909 - 3phase_inverter/3phase_inverter/4. Software_WS/OL_VSC_vitor/Libraries/XMCLib/inc\xmc_eth_mac.h ****  */
 432:F:/Projects/20190909 - 3phase_inverter/3phase_inverter/4. Software_WS/OL_VSC_vitor/Libraries/XMCLib/inc\xmc_eth_mac.h **** void XMC_ETH_MAC_Enable(XMC_ETH_MAC_t *const eth_mac);
 433:F:/Projects/20190909 - 3phase_inverter/3phase_inverter/4. Software_WS/OL_VSC_vitor/Libraries/XMCLib/inc\xmc_eth_mac.h **** 
 434:F:/Projects/20190909 - 3phase_inverter/3phase_inverter/4. Software_WS/OL_VSC_vitor/Libraries/XMCLib/inc\xmc_eth_mac.h **** /**
 435:F:/Projects/20190909 - 3phase_inverter/3phase_inverter/4. Software_WS/OL_VSC_vitor/Libraries/XMCLib/inc\xmc_eth_mac.h ****  * @param eth_mac A constant pointer to XMC_ETH_MAC_t, pointing to the ETH MAC base address
 436:F:/Projects/20190909 - 3phase_inverter/3phase_inverter/4. Software_WS/OL_VSC_vitor/Libraries/XMCLib/inc\xmc_eth_mac.h ****  * @return None
 437:F:/Projects/20190909 - 3phase_inverter/3phase_inverter/4. Software_WS/OL_VSC_vitor/Libraries/XMCLib/inc\xmc_eth_mac.h ****  *
 438:F:/Projects/20190909 - 3phase_inverter/3phase_inverter/4. Software_WS/OL_VSC_vitor/Libraries/XMCLib/inc\xmc_eth_mac.h ****  * \par<b>Description: </b><br>
 439:F:/Projects/20190909 - 3phase_inverter/3phase_inverter/4. Software_WS/OL_VSC_vitor/Libraries/XMCLib/inc\xmc_eth_mac.h ****  * Disable the Ethernet MAC peripheral <br>
 440:F:/Projects/20190909 - 3phase_inverter/3phase_inverter/4. Software_WS/OL_VSC_vitor/Libraries/XMCLib/inc\xmc_eth_mac.h ****  *
 441:F:/Projects/20190909 - 3phase_inverter/3phase_inverter/4. Software_WS/OL_VSC_vitor/Libraries/XMCLib/inc\xmc_eth_mac.h ****  * \par
 442:F:/Projects/20190909 - 3phase_inverter/3phase_inverter/4. Software_WS/OL_VSC_vitor/Libraries/XMCLib/inc\xmc_eth_mac.h ****  * The function asserts the peripheral reset.
 443:F:/Projects/20190909 - 3phase_inverter/3phase_inverter/4. Software_WS/OL_VSC_vitor/Libraries/XMCLib/inc\xmc_eth_mac.h ****  */
 444:F:/Projects/20190909 - 3phase_inverter/3phase_inverter/4. Software_WS/OL_VSC_vitor/Libraries/XMCLib/inc\xmc_eth_mac.h **** void XMC_ETH_MAC_Disable(XMC_ETH_MAC_t *const eth_mac);
 445:F:/Projects/20190909 - 3phase_inverter/3phase_inverter/4. Software_WS/OL_VSC_vitor/Libraries/XMCLib/inc\xmc_eth_mac.h **** 
 446:F:/Projects/20190909 - 3phase_inverter/3phase_inverter/4. Software_WS/OL_VSC_vitor/Libraries/XMCLib/inc\xmc_eth_mac.h **** /**
 447:F:/Projects/20190909 - 3phase_inverter/3phase_inverter/4. Software_WS/OL_VSC_vitor/Libraries/XMCLib/inc\xmc_eth_mac.h ****  * @param eth_mac A constant pointer to XMC_ETH_MAC_t, pointing to the ETH MAC base address
 448:F:/Projects/20190909 - 3phase_inverter/3phase_inverter/4. Software_WS/OL_VSC_vitor/Libraries/XMCLib/inc\xmc_eth_mac.h ****  * @return bool
 449:F:/Projects/20190909 - 3phase_inverter/3phase_inverter/4. Software_WS/OL_VSC_vitor/Libraries/XMCLib/inc\xmc_eth_mac.h ****  *
 450:F:/Projects/20190909 - 3phase_inverter/3phase_inverter/4. Software_WS/OL_VSC_vitor/Libraries/XMCLib/inc\xmc_eth_mac.h ****  * \par<b>Description: </b><br>
 451:F:/Projects/20190909 - 3phase_inverter/3phase_inverter/4. Software_WS/OL_VSC_vitor/Libraries/XMCLib/inc\xmc_eth_mac.h ****  * Check if the ETH MAC is enabled <br>
 452:F:/Projects/20190909 - 3phase_inverter/3phase_inverter/4. Software_WS/OL_VSC_vitor/Libraries/XMCLib/inc\xmc_eth_mac.h ****  *
 453:F:/Projects/20190909 - 3phase_inverter/3phase_inverter/4. Software_WS/OL_VSC_vitor/Libraries/XMCLib/inc\xmc_eth_mac.h ****  * \par
 454:F:/Projects/20190909 - 3phase_inverter/3phase_inverter/4. Software_WS/OL_VSC_vitor/Libraries/XMCLib/inc\xmc_eth_mac.h ****  * The function checks if the ETH MAC is enabled or not. It returns "true" if the
 455:F:/Projects/20190909 - 3phase_inverter/3phase_inverter/4. Software_WS/OL_VSC_vitor/Libraries/XMCLib/inc\xmc_eth_mac.h ****  * peripheral is enabled, "false" otherwise.
 456:F:/Projects/20190909 - 3phase_inverter/3phase_inverter/4. Software_WS/OL_VSC_vitor/Libraries/XMCLib/inc\xmc_eth_mac.h ****  */
 457:F:/Projects/20190909 - 3phase_inverter/3phase_inverter/4. Software_WS/OL_VSC_vitor/Libraries/XMCLib/inc\xmc_eth_mac.h **** bool XMC_ETH_MAC_IsEnabled(const XMC_ETH_MAC_t *const eth_mac);
 458:F:/Projects/20190909 - 3phase_inverter/3phase_inverter/4. Software_WS/OL_VSC_vitor/Libraries/XMCLib/inc\xmc_eth_mac.h **** 
 459:F:/Projects/20190909 - 3phase_inverter/3phase_inverter/4. Software_WS/OL_VSC_vitor/Libraries/XMCLib/inc\xmc_eth_mac.h **** /**
 460:F:/Projects/20190909 - 3phase_inverter/3phase_inverter/4. Software_WS/OL_VSC_vitor/Libraries/XMCLib/inc\xmc_eth_mac.h ****  * @param eth_mac A constant pointer to XMC_ETH_MAC_t, pointing to the ETH MAC base address
 461:F:/Projects/20190909 - 3phase_inverter/3phase_inverter/4. Software_WS/OL_VSC_vitor/Libraries/XMCLib/inc\xmc_eth_mac.h ****  * @return None
 462:F:/Projects/20190909 - 3phase_inverter/3phase_inverter/4. Software_WS/OL_VSC_vitor/Libraries/XMCLib/inc\xmc_eth_mac.h ****  *
 463:F:/Projects/20190909 - 3phase_inverter/3phase_inverter/4. Software_WS/OL_VSC_vitor/Libraries/XMCLib/inc\xmc_eth_mac.h ****  * \par<b>Description: </b><br>
 464:F:/Projects/20190909 - 3phase_inverter/3phase_inverter/4. Software_WS/OL_VSC_vitor/Libraries/XMCLib/inc\xmc_eth_mac.h ****  * Reset the ETH MAC peripheral <br>
 465:F:/Projects/20190909 - 3phase_inverter/3phase_inverter/4. Software_WS/OL_VSC_vitor/Libraries/XMCLib/inc\xmc_eth_mac.h ****  *
 466:F:/Projects/20190909 - 3phase_inverter/3phase_inverter/4. Software_WS/OL_VSC_vitor/Libraries/XMCLib/inc\xmc_eth_mac.h ****  * \par
 467:F:/Projects/20190909 - 3phase_inverter/3phase_inverter/4. Software_WS/OL_VSC_vitor/Libraries/XMCLib/inc\xmc_eth_mac.h ****  * The function resets the ETH MAC peripheral. It blocks until reset.
 468:F:/Projects/20190909 - 3phase_inverter/3phase_inverter/4. Software_WS/OL_VSC_vitor/Libraries/XMCLib/inc\xmc_eth_mac.h ****  */
 469:F:/Projects/20190909 - 3phase_inverter/3phase_inverter/4. Software_WS/OL_VSC_vitor/Libraries/XMCLib/inc\xmc_eth_mac.h **** __STATIC_INLINE void XMC_ETH_MAC_Reset(XMC_ETH_MAC_t *const eth_mac)
 470:F:/Projects/20190909 - 3phase_inverter/3phase_inverter/4. Software_WS/OL_VSC_vitor/Libraries/XMCLib/inc\xmc_eth_mac.h **** {
  27              	 .loc 1 470 0
  28              	 .cfi_startproc
  29              	 
  30              	 
  31              	 
  32 0000 80B4     	 push {r7}
  33              	.LCFI0:
  34              	 .cfi_def_cfa_offset 4
  35              	 .cfi_offset 7,-4
  36 0002 83B0     	 sub sp,sp,#12
  37              	.LCFI1:
  38              	 .cfi_def_cfa_offset 16
  39 0004 00AF     	 add r7,sp,#0
  40              	.LCFI2:
  41              	 .cfi_def_cfa_register 7
  42 0006 7860     	 str r0,[r7,#4]
 471:F:/Projects/20190909 - 3phase_inverter/3phase_inverter/4. Software_WS/OL_VSC_vitor/Libraries/XMCLib/inc\xmc_eth_mac.h ****   eth_mac->regs->BUS_MODE |= (uint32_t)ETH_BUS_MODE_SWR_Msk;
  43              	 .loc 1 471 0
  44 0008 7B68     	 ldr r3,[r7,#4]
  45 000a 1B68     	 ldr r3,[r3]
  46 000c 7A68     	 ldr r2,[r7,#4]
  47 000e 1268     	 ldr r2,[r2]
  48 0010 02F58052 	 add r2,r2,#4096
  49 0014 1268     	 ldr r2,[r2]
  50 0016 42F00102 	 orr r2,r2,#1
  51 001a 03F58053 	 add r3,r3,#4096
  52 001e 1A60     	 str r2,[r3]
 472:F:/Projects/20190909 - 3phase_inverter/3phase_inverter/4. Software_WS/OL_VSC_vitor/Libraries/XMCLib/inc\xmc_eth_mac.h ****   while ((eth_mac->regs->BUS_MODE & (uint32_t)ETH_BUS_MODE_SWR_Msk) != 0U)
  53              	 .loc 1 472 0
  54 0020 00BF     	 nop
  55              	.L2:
  56              	 .loc 1 472 0 is_stmt 0 discriminator 1
  57 0022 7B68     	 ldr r3,[r7,#4]
  58 0024 1B68     	 ldr r3,[r3]
  59 0026 03F58053 	 add r3,r3,#4096
  60 002a 1B68     	 ldr r3,[r3]
  61 002c 03F00103 	 and r3,r3,#1
  62 0030 002B     	 cmp r3,#0
  63 0032 F6D1     	 bne .L2
 473:F:/Projects/20190909 - 3phase_inverter/3phase_inverter/4. Software_WS/OL_VSC_vitor/Libraries/XMCLib/inc\xmc_eth_mac.h ****   {
 474:F:/Projects/20190909 - 3phase_inverter/3phase_inverter/4. Software_WS/OL_VSC_vitor/Libraries/XMCLib/inc\xmc_eth_mac.h ****   }
 475:F:/Projects/20190909 - 3phase_inverter/3phase_inverter/4. Software_WS/OL_VSC_vitor/Libraries/XMCLib/inc\xmc_eth_mac.h **** }
  64              	 .loc 1 475 0 is_stmt 1
  65 0034 0C37     	 adds r7,r7,#12
  66              	.LCFI3:
  67              	 .cfi_def_cfa_offset 4
  68 0036 BD46     	 mov sp,r7
  69              	.LCFI4:
  70              	 .cfi_def_cfa_register 13
  71              	 
  72 0038 5DF8047B 	 ldr r7,[sp],#4
  73              	.LCFI5:
  74              	 .cfi_restore 7
  75              	 .cfi_def_cfa_offset 0
  76 003c 7047     	 bx lr
  77              	 .cfi_endproc
  78              	.LFE128:
  80 003e 00BF     	 .section .text.XMC_ETH_MAC_SetAddress,"ax",%progbits
  81              	 .align 2
  82              	 .thumb
  83              	 .thumb_func
  85              	XMC_ETH_MAC_SetAddress:
  86              	.LFB130:
 476:F:/Projects/20190909 - 3phase_inverter/3phase_inverter/4. Software_WS/OL_VSC_vitor/Libraries/XMCLib/inc\xmc_eth_mac.h **** 
 477:F:/Projects/20190909 - 3phase_inverter/3phase_inverter/4. Software_WS/OL_VSC_vitor/Libraries/XMCLib/inc\xmc_eth_mac.h **** /**
 478:F:/Projects/20190909 - 3phase_inverter/3phase_inverter/4. Software_WS/OL_VSC_vitor/Libraries/XMCLib/inc\xmc_eth_mac.h ****  * @param eth_mac A constant pointer to XMC_ETH_MAC_t, pointing to the ETH MAC base address
 479:F:/Projects/20190909 - 3phase_inverter/3phase_inverter/4. Software_WS/OL_VSC_vitor/Libraries/XMCLib/inc\xmc_eth_mac.h ****  * @param phy_addr PHY address
 480:F:/Projects/20190909 - 3phase_inverter/3phase_inverter/4. Software_WS/OL_VSC_vitor/Libraries/XMCLib/inc\xmc_eth_mac.h ****  * @param reg_addr Register address
 481:F:/Projects/20190909 - 3phase_inverter/3phase_inverter/4. Software_WS/OL_VSC_vitor/Libraries/XMCLib/inc\xmc_eth_mac.h ****  * @param data The destination to which the read data needs to be copied to
 482:F:/Projects/20190909 - 3phase_inverter/3phase_inverter/4. Software_WS/OL_VSC_vitor/Libraries/XMCLib/inc\xmc_eth_mac.h ****  * @return XMC_ETH_MAC_STATUS_t ETH MAC status
 483:F:/Projects/20190909 - 3phase_inverter/3phase_inverter/4. Software_WS/OL_VSC_vitor/Libraries/XMCLib/inc\xmc_eth_mac.h ****  *
 484:F:/Projects/20190909 - 3phase_inverter/3phase_inverter/4. Software_WS/OL_VSC_vitor/Libraries/XMCLib/inc\xmc_eth_mac.h ****  * \par<b>Description: </b><br>
 485:F:/Projects/20190909 - 3phase_inverter/3phase_inverter/4. Software_WS/OL_VSC_vitor/Libraries/XMCLib/inc\xmc_eth_mac.h ****  * Read a PHY register <br>
 486:F:/Projects/20190909 - 3phase_inverter/3phase_inverter/4. Software_WS/OL_VSC_vitor/Libraries/XMCLib/inc\xmc_eth_mac.h ****  *
 487:F:/Projects/20190909 - 3phase_inverter/3phase_inverter/4. Software_WS/OL_VSC_vitor/Libraries/XMCLib/inc\xmc_eth_mac.h ****  * \par
 488:F:/Projects/20190909 - 3phase_inverter/3phase_inverter/4. Software_WS/OL_VSC_vitor/Libraries/XMCLib/inc\xmc_eth_mac.h ****  * The function reads a PHY register. It essentially polls busy bit during max
 489:F:/Projects/20190909 - 3phase_inverter/3phase_inverter/4. Software_WS/OL_VSC_vitor/Libraries/XMCLib/inc\xmc_eth_mac.h ****  * PHY_TIMEOUT time and reads the information into 'data' when not busy.
 490:F:/Projects/20190909 - 3phase_inverter/3phase_inverter/4. Software_WS/OL_VSC_vitor/Libraries/XMCLib/inc\xmc_eth_mac.h ****  */
 491:F:/Projects/20190909 - 3phase_inverter/3phase_inverter/4. Software_WS/OL_VSC_vitor/Libraries/XMCLib/inc\xmc_eth_mac.h **** XMC_ETH_MAC_STATUS_t XMC_ETH_MAC_ReadPhy(XMC_ETH_MAC_t *const eth_mac, uint8_t phy_addr, uint8_t re
 492:F:/Projects/20190909 - 3phase_inverter/3phase_inverter/4. Software_WS/OL_VSC_vitor/Libraries/XMCLib/inc\xmc_eth_mac.h **** 
 493:F:/Projects/20190909 - 3phase_inverter/3phase_inverter/4. Software_WS/OL_VSC_vitor/Libraries/XMCLib/inc\xmc_eth_mac.h **** /**
 494:F:/Projects/20190909 - 3phase_inverter/3phase_inverter/4. Software_WS/OL_VSC_vitor/Libraries/XMCLib/inc\xmc_eth_mac.h ****  * @param eth_mac A constant pointer to XMC_ETH_MAC_t, pointing to the ETH MAC base address
 495:F:/Projects/20190909 - 3phase_inverter/3phase_inverter/4. Software_WS/OL_VSC_vitor/Libraries/XMCLib/inc\xmc_eth_mac.h ****  * @param phy_addr PHY address
 496:F:/Projects/20190909 - 3phase_inverter/3phase_inverter/4. Software_WS/OL_VSC_vitor/Libraries/XMCLib/inc\xmc_eth_mac.h ****  * @param reg_addr Register address
 497:F:/Projects/20190909 - 3phase_inverter/3phase_inverter/4. Software_WS/OL_VSC_vitor/Libraries/XMCLib/inc\xmc_eth_mac.h ****  * @param data The data to write
 498:F:/Projects/20190909 - 3phase_inverter/3phase_inverter/4. Software_WS/OL_VSC_vitor/Libraries/XMCLib/inc\xmc_eth_mac.h ****  * @return XMC_ETH_MAC_STATUS_t ETH MAC status
 499:F:/Projects/20190909 - 3phase_inverter/3phase_inverter/4. Software_WS/OL_VSC_vitor/Libraries/XMCLib/inc\xmc_eth_mac.h ****  *
 500:F:/Projects/20190909 - 3phase_inverter/3phase_inverter/4. Software_WS/OL_VSC_vitor/Libraries/XMCLib/inc\xmc_eth_mac.h ****  * \par<b>Description: </b><br>
 501:F:/Projects/20190909 - 3phase_inverter/3phase_inverter/4. Software_WS/OL_VSC_vitor/Libraries/XMCLib/inc\xmc_eth_mac.h ****  * Write a PHY register <br>
 502:F:/Projects/20190909 - 3phase_inverter/3phase_inverter/4. Software_WS/OL_VSC_vitor/Libraries/XMCLib/inc\xmc_eth_mac.h ****  *
 503:F:/Projects/20190909 - 3phase_inverter/3phase_inverter/4. Software_WS/OL_VSC_vitor/Libraries/XMCLib/inc\xmc_eth_mac.h ****  * \par
 504:F:/Projects/20190909 - 3phase_inverter/3phase_inverter/4. Software_WS/OL_VSC_vitor/Libraries/XMCLib/inc\xmc_eth_mac.h ****  * The function reads a PHY register. It essentially writes the data and polls
 505:F:/Projects/20190909 - 3phase_inverter/3phase_inverter/4. Software_WS/OL_VSC_vitor/Libraries/XMCLib/inc\xmc_eth_mac.h ****  * the busy bit until it is no longer busy.
 506:F:/Projects/20190909 - 3phase_inverter/3phase_inverter/4. Software_WS/OL_VSC_vitor/Libraries/XMCLib/inc\xmc_eth_mac.h ****  */
 507:F:/Projects/20190909 - 3phase_inverter/3phase_inverter/4. Software_WS/OL_VSC_vitor/Libraries/XMCLib/inc\xmc_eth_mac.h **** XMC_ETH_MAC_STATUS_t XMC_ETH_MAC_WritePhy(XMC_ETH_MAC_t *const eth_mac, uint8_t phy_addr, uint8_t r
 508:F:/Projects/20190909 - 3phase_inverter/3phase_inverter/4. Software_WS/OL_VSC_vitor/Libraries/XMCLib/inc\xmc_eth_mac.h **** 
 509:F:/Projects/20190909 - 3phase_inverter/3phase_inverter/4. Software_WS/OL_VSC_vitor/Libraries/XMCLib/inc\xmc_eth_mac.h **** /**
 510:F:/Projects/20190909 - 3phase_inverter/3phase_inverter/4. Software_WS/OL_VSC_vitor/Libraries/XMCLib/inc\xmc_eth_mac.h ****  * @param eth_mac A constant pointer to XMC_ETH_MAC_t, pointing to the ETH MAC base address
 511:F:/Projects/20190909 - 3phase_inverter/3phase_inverter/4. Software_WS/OL_VSC_vitor/Libraries/XMCLib/inc\xmc_eth_mac.h ****  * @param port_ctrl Port control configuration
 512:F:/Projects/20190909 - 3phase_inverter/3phase_inverter/4. Software_WS/OL_VSC_vitor/Libraries/XMCLib/inc\xmc_eth_mac.h ****  * @return None
 513:F:/Projects/20190909 - 3phase_inverter/3phase_inverter/4. Software_WS/OL_VSC_vitor/Libraries/XMCLib/inc\xmc_eth_mac.h ****  *
 514:F:/Projects/20190909 - 3phase_inverter/3phase_inverter/4. Software_WS/OL_VSC_vitor/Libraries/XMCLib/inc\xmc_eth_mac.h ****  * \par<b>Description: </b><br>
 515:F:/Projects/20190909 - 3phase_inverter/3phase_inverter/4. Software_WS/OL_VSC_vitor/Libraries/XMCLib/inc\xmc_eth_mac.h ****  * Set port control configuration <br>
 516:F:/Projects/20190909 - 3phase_inverter/3phase_inverter/4. Software_WS/OL_VSC_vitor/Libraries/XMCLib/inc\xmc_eth_mac.h ****  *
 517:F:/Projects/20190909 - 3phase_inverter/3phase_inverter/4. Software_WS/OL_VSC_vitor/Libraries/XMCLib/inc\xmc_eth_mac.h ****  * \par
 518:F:/Projects/20190909 - 3phase_inverter/3phase_inverter/4. Software_WS/OL_VSC_vitor/Libraries/XMCLib/inc\xmc_eth_mac.h ****  * The function sets the port control by writing the configuration into the
 519:F:/Projects/20190909 - 3phase_inverter/3phase_inverter/4. Software_WS/OL_VSC_vitor/Libraries/XMCLib/inc\xmc_eth_mac.h ****  * CON register.
 520:F:/Projects/20190909 - 3phase_inverter/3phase_inverter/4. Software_WS/OL_VSC_vitor/Libraries/XMCLib/inc\xmc_eth_mac.h ****  *
 521:F:/Projects/20190909 - 3phase_inverter/3phase_inverter/4. Software_WS/OL_VSC_vitor/Libraries/XMCLib/inc\xmc_eth_mac.h ****  * \note
 522:F:/Projects/20190909 - 3phase_inverter/3phase_inverter/4. Software_WS/OL_VSC_vitor/Libraries/XMCLib/inc\xmc_eth_mac.h ****  * MII Mode is only available in:
 523:F:/Projects/20190909 - 3phase_inverter/3phase_inverter/4. Software_WS/OL_VSC_vitor/Libraries/XMCLib/inc\xmc_eth_mac.h ****  * - XMC4500 LQFP144 and BGA144 packages
 524:F:/Projects/20190909 - 3phase_inverter/3phase_inverter/4. Software_WS/OL_VSC_vitor/Libraries/XMCLib/inc\xmc_eth_mac.h ****  * - XMC4700 LQFP144 and BGA196 packages
 525:F:/Projects/20190909 - 3phase_inverter/3phase_inverter/4. Software_WS/OL_VSC_vitor/Libraries/XMCLib/inc\xmc_eth_mac.h ****  * - XMC4800 LQFP144 and BGA196 packages
 526:F:/Projects/20190909 - 3phase_inverter/3phase_inverter/4. Software_WS/OL_VSC_vitor/Libraries/XMCLib/inc\xmc_eth_mac.h ****  *
 527:F:/Projects/20190909 - 3phase_inverter/3phase_inverter/4. Software_WS/OL_VSC_vitor/Libraries/XMCLib/inc\xmc_eth_mac.h ****  */
 528:F:/Projects/20190909 - 3phase_inverter/3phase_inverter/4. Software_WS/OL_VSC_vitor/Libraries/XMCLib/inc\xmc_eth_mac.h **** __STATIC_INLINE void XMC_ETH_MAC_SetPortControl(XMC_ETH_MAC_t *const eth_mac, const XMC_ETH_MAC_POR
 529:F:/Projects/20190909 - 3phase_inverter/3phase_inverter/4. Software_WS/OL_VSC_vitor/Libraries/XMCLib/inc\xmc_eth_mac.h **** {
 530:F:/Projects/20190909 - 3phase_inverter/3phase_inverter/4. Software_WS/OL_VSC_vitor/Libraries/XMCLib/inc\xmc_eth_mac.h ****   XMC_UNUSED_ARG(eth_mac);
 531:F:/Projects/20190909 - 3phase_inverter/3phase_inverter/4. Software_WS/OL_VSC_vitor/Libraries/XMCLib/inc\xmc_eth_mac.h ****   ETH0_CON->CON = (uint32_t)port_ctrl.raw;
 532:F:/Projects/20190909 - 3phase_inverter/3phase_inverter/4. Software_WS/OL_VSC_vitor/Libraries/XMCLib/inc\xmc_eth_mac.h **** }
 533:F:/Projects/20190909 - 3phase_inverter/3phase_inverter/4. Software_WS/OL_VSC_vitor/Libraries/XMCLib/inc\xmc_eth_mac.h **** 
 534:F:/Projects/20190909 - 3phase_inverter/3phase_inverter/4. Software_WS/OL_VSC_vitor/Libraries/XMCLib/inc\xmc_eth_mac.h **** /**
 535:F:/Projects/20190909 - 3phase_inverter/3phase_inverter/4. Software_WS/OL_VSC_vitor/Libraries/XMCLib/inc\xmc_eth_mac.h ****  * @param eth_mac A constant pointer to XMC_ETH_MAC_t, pointing to the ETH MAC base address
 536:F:/Projects/20190909 - 3phase_inverter/3phase_inverter/4. Software_WS/OL_VSC_vitor/Libraries/XMCLib/inc\xmc_eth_mac.h ****  * @return XMC_ETH_MAC_STATUS_t ETH MAC status
 537:F:/Projects/20190909 - 3phase_inverter/3phase_inverter/4. Software_WS/OL_VSC_vitor/Libraries/XMCLib/inc\xmc_eth_mac.h ****  *
 538:F:/Projects/20190909 - 3phase_inverter/3phase_inverter/4. Software_WS/OL_VSC_vitor/Libraries/XMCLib/inc\xmc_eth_mac.h ****  * \par<b>Description: </b><br>
 539:F:/Projects/20190909 - 3phase_inverter/3phase_inverter/4. Software_WS/OL_VSC_vitor/Libraries/XMCLib/inc\xmc_eth_mac.h ****  * Set management clock divider <br>
 540:F:/Projects/20190909 - 3phase_inverter/3phase_inverter/4. Software_WS/OL_VSC_vitor/Libraries/XMCLib/inc\xmc_eth_mac.h ****  *
 541:F:/Projects/20190909 - 3phase_inverter/3phase_inverter/4. Software_WS/OL_VSC_vitor/Libraries/XMCLib/inc\xmc_eth_mac.h ****  * \par
 542:F:/Projects/20190909 - 3phase_inverter/3phase_inverter/4. Software_WS/OL_VSC_vitor/Libraries/XMCLib/inc\xmc_eth_mac.h ****  * The function sets the management clock divider by writing to the GMII_ADDRESS
 543:F:/Projects/20190909 - 3phase_inverter/3phase_inverter/4. Software_WS/OL_VSC_vitor/Libraries/XMCLib/inc\xmc_eth_mac.h ****  * register.
 544:F:/Projects/20190909 - 3phase_inverter/3phase_inverter/4. Software_WS/OL_VSC_vitor/Libraries/XMCLib/inc\xmc_eth_mac.h ****  */
 545:F:/Projects/20190909 - 3phase_inverter/3phase_inverter/4. Software_WS/OL_VSC_vitor/Libraries/XMCLib/inc\xmc_eth_mac.h **** XMC_ETH_MAC_STATUS_t XMC_ETH_MAC_SetManagmentClockDivider(XMC_ETH_MAC_t *const eth_mac);
 546:F:/Projects/20190909 - 3phase_inverter/3phase_inverter/4. Software_WS/OL_VSC_vitor/Libraries/XMCLib/inc\xmc_eth_mac.h **** 
 547:F:/Projects/20190909 - 3phase_inverter/3phase_inverter/4. Software_WS/OL_VSC_vitor/Libraries/XMCLib/inc\xmc_eth_mac.h **** /**
 548:F:/Projects/20190909 - 3phase_inverter/3phase_inverter/4. Software_WS/OL_VSC_vitor/Libraries/XMCLib/inc\xmc_eth_mac.h ****  * @param eth_mac A constant pointer to XMC_ETH_MAC_t, pointing to the ETH MAC base address
 549:F:/Projects/20190909 - 3phase_inverter/3phase_inverter/4. Software_WS/OL_VSC_vitor/Libraries/XMCLib/inc\xmc_eth_mac.h ****  * @param addr The MAC address to set
 550:F:/Projects/20190909 - 3phase_inverter/3phase_inverter/4. Software_WS/OL_VSC_vitor/Libraries/XMCLib/inc\xmc_eth_mac.h ****  * @return None
 551:F:/Projects/20190909 - 3phase_inverter/3phase_inverter/4. Software_WS/OL_VSC_vitor/Libraries/XMCLib/inc\xmc_eth_mac.h ****  *
 552:F:/Projects/20190909 - 3phase_inverter/3phase_inverter/4. Software_WS/OL_VSC_vitor/Libraries/XMCLib/inc\xmc_eth_mac.h ****  * \par<b>Description: </b><br>
 553:F:/Projects/20190909 - 3phase_inverter/3phase_inverter/4. Software_WS/OL_VSC_vitor/Libraries/XMCLib/inc\xmc_eth_mac.h ****  * Set MAC address <br>
 554:F:/Projects/20190909 - 3phase_inverter/3phase_inverter/4. Software_WS/OL_VSC_vitor/Libraries/XMCLib/inc\xmc_eth_mac.h ****  *
 555:F:/Projects/20190909 - 3phase_inverter/3phase_inverter/4. Software_WS/OL_VSC_vitor/Libraries/XMCLib/inc\xmc_eth_mac.h ****  * \par
 556:F:/Projects/20190909 - 3phase_inverter/3phase_inverter/4. Software_WS/OL_VSC_vitor/Libraries/XMCLib/inc\xmc_eth_mac.h ****  * The function sets the MAC address by writing to the MAC_ADDRESS0_HIGH and
 557:F:/Projects/20190909 - 3phase_inverter/3phase_inverter/4. Software_WS/OL_VSC_vitor/Libraries/XMCLib/inc\xmc_eth_mac.h ****  * MAC_ADDRESS0_LOW registers.
 558:F:/Projects/20190909 - 3phase_inverter/3phase_inverter/4. Software_WS/OL_VSC_vitor/Libraries/XMCLib/inc\xmc_eth_mac.h ****  */
 559:F:/Projects/20190909 - 3phase_inverter/3phase_inverter/4. Software_WS/OL_VSC_vitor/Libraries/XMCLib/inc\xmc_eth_mac.h **** __STATIC_INLINE void XMC_ETH_MAC_SetAddress(XMC_ETH_MAC_t *const eth_mac, uint64_t addr)
 560:F:/Projects/20190909 - 3phase_inverter/3phase_inverter/4. Software_WS/OL_VSC_vitor/Libraries/XMCLib/inc\xmc_eth_mac.h **** {
  87              	 .loc 1 560 0
  88              	 .cfi_startproc
  89              	 
  90              	 
  91              	 
  92 0000 B0B4     	 push {r4,r5,r7}
  93              	.LCFI6:
  94              	 .cfi_def_cfa_offset 12
  95              	 .cfi_offset 4,-12
  96              	 .cfi_offset 5,-8
  97              	 .cfi_offset 7,-4
  98 0002 85B0     	 sub sp,sp,#20
  99              	.LCFI7:
 100              	 .cfi_def_cfa_offset 32
 101 0004 00AF     	 add r7,sp,#0
 102              	.LCFI8:
 103              	 .cfi_def_cfa_register 7
 104 0006 F860     	 str r0,[r7,#12]
 105 0008 C7E90023 	 strd r2,[r7]
 561:F:/Projects/20190909 - 3phase_inverter/3phase_inverter/4. Software_WS/OL_VSC_vitor/Libraries/XMCLib/inc\xmc_eth_mac.h ****   eth_mac->regs->MAC_ADDRESS0_HIGH = (uint32_t)(addr >> 32);
 106              	 .loc 1 561 0
 107 000c FB68     	 ldr r3,[r7,#12]
 108 000e 1968     	 ldr r1,[r3]
 109 0010 D7E90023 	 ldrd r2,[r7]
 110 0014 1C00     	 movs r4,r3
 111 0016 0025     	 movs r5,#0
 112 0018 2346     	 mov r3,r4
 113 001a 0B64     	 str r3,[r1,#64]
 562:F:/Projects/20190909 - 3phase_inverter/3phase_inverter/4. Software_WS/OL_VSC_vitor/Libraries/XMCLib/inc\xmc_eth_mac.h ****   eth_mac->regs->MAC_ADDRESS0_LOW = (uint32_t)addr;
 114              	 .loc 1 562 0
 115 001c FB68     	 ldr r3,[r7,#12]
 116 001e 1B68     	 ldr r3,[r3]
 117 0020 3A68     	 ldr r2,[r7]
 118 0022 5A64     	 str r2,[r3,#68]
 563:F:/Projects/20190909 - 3phase_inverter/3phase_inverter/4. Software_WS/OL_VSC_vitor/Libraries/XMCLib/inc\xmc_eth_mac.h **** }
 119              	 .loc 1 563 0
 120 0024 1437     	 adds r7,r7,#20
 121              	.LCFI9:
 122              	 .cfi_def_cfa_offset 12
 123 0026 BD46     	 mov sp,r7
 124              	.LCFI10:
 125              	 .cfi_def_cfa_register 13
 126              	 
 127 0028 B0BC     	 pop {r4,r5,r7}
 128              	.LCFI11:
 129              	 .cfi_restore 7
 130              	 .cfi_restore 5
 131              	 .cfi_restore 4
 132              	 .cfi_def_cfa_offset 0
 133 002a 7047     	 bx lr
 134              	 .cfi_endproc
 135              	.LFE130:
 137              	 .section .text.XMC_SCU_CLOCK_GetSystemClockFrequency,"ax",%progbits
 138              	 .align 2
 139              	 .thumb
 140              	 .thumb_func
 142              	XMC_SCU_CLOCK_GetSystemClockFrequency:
 143              	.LFB199:
 144              	 .file 2 "F:/Projects/20190909 - 3phase_inverter/3phase_inverter/4. Software_WS/OL_VSC_vitor/Libraries/XMCLib/inc/xmc4_scu.h"
   1:F:/Projects/20190909 - 3phase_inverter/3phase_inverter/4. Software_WS/OL_VSC_vitor/Libraries/XMCLib/inc\xmc4_scu.h **** /**
   2:F:/Projects/20190909 - 3phase_inverter/3phase_inverter/4. Software_WS/OL_VSC_vitor/Libraries/XMCLib/inc\xmc4_scu.h ****  * @file xmc4_scu.h
   3:F:/Projects/20190909 - 3phase_inverter/3phase_inverter/4. Software_WS/OL_VSC_vitor/Libraries/XMCLib/inc\xmc4_scu.h ****  * @date 2016-06-15
   4:F:/Projects/20190909 - 3phase_inverter/3phase_inverter/4. Software_WS/OL_VSC_vitor/Libraries/XMCLib/inc\xmc4_scu.h ****  *
   5:F:/Projects/20190909 - 3phase_inverter/3phase_inverter/4. Software_WS/OL_VSC_vitor/Libraries/XMCLib/inc\xmc4_scu.h ****  * @cond
   6:F:/Projects/20190909 - 3phase_inverter/3phase_inverter/4. Software_WS/OL_VSC_vitor/Libraries/XMCLib/inc\xmc4_scu.h ****  **************************************************************************************************
   7:F:/Projects/20190909 - 3phase_inverter/3phase_inverter/4. Software_WS/OL_VSC_vitor/Libraries/XMCLib/inc\xmc4_scu.h ****  * XMClib v2.1.12 - XMC Peripheral Driver Library 
   8:F:/Projects/20190909 - 3phase_inverter/3phase_inverter/4. Software_WS/OL_VSC_vitor/Libraries/XMCLib/inc\xmc4_scu.h ****  *
   9:F:/Projects/20190909 - 3phase_inverter/3phase_inverter/4. Software_WS/OL_VSC_vitor/Libraries/XMCLib/inc\xmc4_scu.h ****  * Copyright (c) 2015-2017, Infineon Technologies AG
  10:F:/Projects/20190909 - 3phase_inverter/3phase_inverter/4. Software_WS/OL_VSC_vitor/Libraries/XMCLib/inc\xmc4_scu.h ****  * All rights reserved.                        
  11:F:/Projects/20190909 - 3phase_inverter/3phase_inverter/4. Software_WS/OL_VSC_vitor/Libraries/XMCLib/inc\xmc4_scu.h ****  *                                             
  12:F:/Projects/20190909 - 3phase_inverter/3phase_inverter/4. Software_WS/OL_VSC_vitor/Libraries/XMCLib/inc\xmc4_scu.h ****  * Redistribution and use in source and binary forms, with or without modification,are permitted pr
  13:F:/Projects/20190909 - 3phase_inverter/3phase_inverter/4. Software_WS/OL_VSC_vitor/Libraries/XMCLib/inc\xmc4_scu.h ****  * following conditions are met:   
  14:F:/Projects/20190909 - 3phase_inverter/3phase_inverter/4. Software_WS/OL_VSC_vitor/Libraries/XMCLib/inc\xmc4_scu.h ****  *                                                                              
  15:F:/Projects/20190909 - 3phase_inverter/3phase_inverter/4. Software_WS/OL_VSC_vitor/Libraries/XMCLib/inc\xmc4_scu.h ****  * Redistributions of source code must retain the above copyright notice, this list of conditions a
  16:F:/Projects/20190909 - 3phase_inverter/3phase_inverter/4. Software_WS/OL_VSC_vitor/Libraries/XMCLib/inc\xmc4_scu.h ****  * disclaimer.                        
  17:F:/Projects/20190909 - 3phase_inverter/3phase_inverter/4. Software_WS/OL_VSC_vitor/Libraries/XMCLib/inc\xmc4_scu.h ****  * 
  18:F:/Projects/20190909 - 3phase_inverter/3phase_inverter/4. Software_WS/OL_VSC_vitor/Libraries/XMCLib/inc\xmc4_scu.h ****  * Redistributions in binary form must reproduce the above copyright notice, this list of condition
  19:F:/Projects/20190909 - 3phase_inverter/3phase_inverter/4. Software_WS/OL_VSC_vitor/Libraries/XMCLib/inc\xmc4_scu.h ****  * disclaimer in the documentation and/or other materials provided with the distribution.          
  20:F:/Projects/20190909 - 3phase_inverter/3phase_inverter/4. Software_WS/OL_VSC_vitor/Libraries/XMCLib/inc\xmc4_scu.h ****  * 
  21:F:/Projects/20190909 - 3phase_inverter/3phase_inverter/4. Software_WS/OL_VSC_vitor/Libraries/XMCLib/inc\xmc4_scu.h ****  * Neither the name of the copyright holders nor the names of its contributors may be used to endor
  22:F:/Projects/20190909 - 3phase_inverter/3phase_inverter/4. Software_WS/OL_VSC_vitor/Libraries/XMCLib/inc\xmc4_scu.h ****  * products derived from this software without specific prior written permission.                  
  23:F:/Projects/20190909 - 3phase_inverter/3phase_inverter/4. Software_WS/OL_VSC_vitor/Libraries/XMCLib/inc\xmc4_scu.h ****  *                                                                              
  24:F:/Projects/20190909 - 3phase_inverter/3phase_inverter/4. Software_WS/OL_VSC_vitor/Libraries/XMCLib/inc\xmc4_scu.h ****  * THIS SOFTWARE IS PROVIDED BY THE COPYRIGHT HOLDERS AND CONTRIBUTORS "AS IS" AND ANY EXPRESS OR I
  25:F:/Projects/20190909 - 3phase_inverter/3phase_inverter/4. Software_WS/OL_VSC_vitor/Libraries/XMCLib/inc\xmc4_scu.h ****  * INCLUDING, BUT NOT LIMITED TO, THE IMPLIED WARRANTIES OF MERCHANTABILITY AND FITNESS FOR A PARTI
  26:F:/Projects/20190909 - 3phase_inverter/3phase_inverter/4. Software_WS/OL_VSC_vitor/Libraries/XMCLib/inc\xmc4_scu.h ****  * DISCLAIMED. IN NO EVENT SHALL THE COPYRIGHT HOLDER OR CONTRIBUTORS BE LIABLE  FOR ANY DIRECT, IN
  27:F:/Projects/20190909 - 3phase_inverter/3phase_inverter/4. Software_WS/OL_VSC_vitor/Libraries/XMCLib/inc\xmc4_scu.h ****  * SPECIAL, EXEMPLARY, OR CONSEQUENTIAL DAMAGES (INCLUDING, BUT NOT LIMITED TO, PROCUREMENT OF SUBS
  28:F:/Projects/20190909 - 3phase_inverter/3phase_inverter/4. Software_WS/OL_VSC_vitor/Libraries/XMCLib/inc\xmc4_scu.h ****  * SERVICES; LOSS OF USE, DATA, OR PROFITS; OR BUSINESS INTERRUPTION) HOWEVER CAUSED AND ON ANY THE
  29:F:/Projects/20190909 - 3phase_inverter/3phase_inverter/4. Software_WS/OL_VSC_vitor/Libraries/XMCLib/inc\xmc4_scu.h ****  * WHETHER IN CONTRACT, STRICT LIABILITY,OR TORT (INCLUDING NEGLIGENCE OR OTHERWISE) ARISING IN ANY
  30:F:/Projects/20190909 - 3phase_inverter/3phase_inverter/4. Software_WS/OL_VSC_vitor/Libraries/XMCLib/inc\xmc4_scu.h ****  * OF THIS SOFTWARE, EVEN IF ADVISED OF THE POSSIBILITY OF SUCH DAMAGE.                            
  31:F:/Projects/20190909 - 3phase_inverter/3phase_inverter/4. Software_WS/OL_VSC_vitor/Libraries/XMCLib/inc\xmc4_scu.h ****  *                                                                              
  32:F:/Projects/20190909 - 3phase_inverter/3phase_inverter/4. Software_WS/OL_VSC_vitor/Libraries/XMCLib/inc\xmc4_scu.h ****  * To improve the quality of the software, users are encouraged to share modifications, enhancement
  33:F:/Projects/20190909 - 3phase_inverter/3phase_inverter/4. Software_WS/OL_VSC_vitor/Libraries/XMCLib/inc\xmc4_scu.h ****  * Infineon Technologies AG dave@infineon.com).                                                    
  34:F:/Projects/20190909 - 3phase_inverter/3phase_inverter/4. Software_WS/OL_VSC_vitor/Libraries/XMCLib/inc\xmc4_scu.h ****  **************************************************************************************************
  35:F:/Projects/20190909 - 3phase_inverter/3phase_inverter/4. Software_WS/OL_VSC_vitor/Libraries/XMCLib/inc\xmc4_scu.h ****  *
  36:F:/Projects/20190909 - 3phase_inverter/3phase_inverter/4. Software_WS/OL_VSC_vitor/Libraries/XMCLib/inc\xmc4_scu.h ****  * Change History
  37:F:/Projects/20190909 - 3phase_inverter/3phase_inverter/4. Software_WS/OL_VSC_vitor/Libraries/XMCLib/inc\xmc4_scu.h ****  * --------------
  38:F:/Projects/20190909 - 3phase_inverter/3phase_inverter/4. Software_WS/OL_VSC_vitor/Libraries/XMCLib/inc\xmc4_scu.h ****  *
  39:F:/Projects/20190909 - 3phase_inverter/3phase_inverter/4. Software_WS/OL_VSC_vitor/Libraries/XMCLib/inc\xmc4_scu.h ****  * 2015-06-20:
  40:F:/Projects/20190909 - 3phase_inverter/3phase_inverter/4. Software_WS/OL_VSC_vitor/Libraries/XMCLib/inc\xmc4_scu.h ****  *     - Initial version
  41:F:/Projects/20190909 - 3phase_inverter/3phase_inverter/4. Software_WS/OL_VSC_vitor/Libraries/XMCLib/inc\xmc4_scu.h ****  *     - Documentation improved
  42:F:/Projects/20190909 - 3phase_inverter/3phase_inverter/4. Software_WS/OL_VSC_vitor/Libraries/XMCLib/inc\xmc4_scu.h ****  *
  43:F:/Projects/20190909 - 3phase_inverter/3phase_inverter/4. Software_WS/OL_VSC_vitor/Libraries/XMCLib/inc\xmc4_scu.h ****  * 2015-11-30:
  44:F:/Projects/20190909 - 3phase_inverter/3phase_inverter/4. Software_WS/OL_VSC_vitor/Libraries/XMCLib/inc\xmc4_scu.h ****  *     - Documentation improved
  45:F:/Projects/20190909 - 3phase_inverter/3phase_inverter/4. Software_WS/OL_VSC_vitor/Libraries/XMCLib/inc\xmc4_scu.h ****  *      
  46:F:/Projects/20190909 - 3phase_inverter/3phase_inverter/4. Software_WS/OL_VSC_vitor/Libraries/XMCLib/inc\xmc4_scu.h ****  * 2016-03-09:
  47:F:/Projects/20190909 - 3phase_inverter/3phase_inverter/4. Software_WS/OL_VSC_vitor/Libraries/XMCLib/inc\xmc4_scu.h ****  *     - Added XMC_SCU_POWER_EnableMonitor/XMC_SCU_POWER_DisableMonitor
  48:F:/Projects/20190909 - 3phase_inverter/3phase_inverter/4. Software_WS/OL_VSC_vitor/Libraries/XMCLib/inc\xmc4_scu.h ****  *             XMC_SCU_POWER_GetEVRStatus, XMC_SCU_POWER_GetEVR13Voltage, XMC_SCU_POWER_GetEVR33Vol
  49:F:/Projects/20190909 - 3phase_inverter/3phase_inverter/4. Software_WS/OL_VSC_vitor/Libraries/XMCLib/inc\xmc4_scu.h ****  *     - Added XMC_SCU_HIB_GetHibernateControlStatus,
  50:F:/Projects/20190909 - 3phase_inverter/3phase_inverter/4. Software_WS/OL_VSC_vitor/Libraries/XMCLib/inc\xmc4_scu.h ****  *             XMC_SCU_HIB_GetEventStatus, XMC_SCU_HIB_ClearEventStatus, XMC_SCU_HIB_TriggerEvent, 
  51:F:/Projects/20190909 - 3phase_inverter/3phase_inverter/4. Software_WS/OL_VSC_vitor/Libraries/XMCLib/inc\xmc4_scu.h ****  *             XMC_SCU_HIB_EnableEvent, XMC_SCU_HIB_DisableEvent
  52:F:/Projects/20190909 - 3phase_inverter/3phase_inverter/4. Software_WS/OL_VSC_vitor/Libraries/XMCLib/inc\xmc4_scu.h ****  *     - Added XMC_SCU_HIB_SetWakeupTriggerInput, XMC_SCU_HIB_SetPinMode, XMC_SCU_HIB_SetOutputPinL
  53:F:/Projects/20190909 - 3phase_inverter/3phase_inverter/4. Software_WS/OL_VSC_vitor/Libraries/XMCLib/inc\xmc4_scu.h ****  *             XMC_SCU_HIB_SetInput0, XMC_SCU_HIB_EnterHibernateState
  54:F:/Projects/20190909 - 3phase_inverter/3phase_inverter/4. Software_WS/OL_VSC_vitor/Libraries/XMCLib/inc\xmc4_scu.h ****  *
  55:F:/Projects/20190909 - 3phase_inverter/3phase_inverter/4. Software_WS/OL_VSC_vitor/Libraries/XMCLib/inc\xmc4_scu.h ****  * 2016-04-15:
  56:F:/Projects/20190909 - 3phase_inverter/3phase_inverter/4. Software_WS/OL_VSC_vitor/Libraries/XMCLib/inc\xmc4_scu.h ****  *     - Fixed naming of XMC_SCU_CLOCK_DEEPSLEEP_MODE_CONFIG peripheral clock.
  57:F:/Projects/20190909 - 3phase_inverter/3phase_inverter/4. Software_WS/OL_VSC_vitor/Libraries/XMCLib/inc\xmc4_scu.h ****  *       Added enable and disable for peripheral clocks       
  58:F:/Projects/20190909 - 3phase_inverter/3phase_inverter/4. Software_WS/OL_VSC_vitor/Libraries/XMCLib/inc\xmc4_scu.h ****  * 
  59:F:/Projects/20190909 - 3phase_inverter/3phase_inverter/4. Software_WS/OL_VSC_vitor/Libraries/XMCLib/inc\xmc4_scu.h ****  * 2016-05-19:
  60:F:/Projects/20190909 - 3phase_inverter/3phase_inverter/4. Software_WS/OL_VSC_vitor/Libraries/XMCLib/inc\xmc4_scu.h ****  *     - Added XMC_SCU_CLOCK_IsLowPowerOscillatorStable() and XMC_SCU_CLOCK_IsHighPerformanceOscill
  61:F:/Projects/20190909 - 3phase_inverter/3phase_inverter/4. Software_WS/OL_VSC_vitor/Libraries/XMCLib/inc\xmc4_scu.h ****  *     - Added XMC_SCU_POWER_WaitForInterrupt() and XMC_SCU_POWER_WaitForEvent()
  62:F:/Projects/20190909 - 3phase_inverter/3phase_inverter/4. Software_WS/OL_VSC_vitor/Libraries/XMCLib/inc\xmc4_scu.h ****  *     - Added XMC_SCU_CLOCK_EnableLowPowerOscillatorGeneralPurposeInput(), 
  63:F:/Projects/20190909 - 3phase_inverter/3phase_inverter/4. Software_WS/OL_VSC_vitor/Libraries/XMCLib/inc\xmc4_scu.h ****  *             XMC_SCU_CLOCK_DisableLowPowerOscillatorGeneralPurposeInput(),
  64:F:/Projects/20190909 - 3phase_inverter/3phase_inverter/4. Software_WS/OL_VSC_vitor/Libraries/XMCLib/inc\xmc4_scu.h ****  *             XMC_SCU_CLOCK_GetLowPowerOscillatorGeneralPurposeInputStatus()
  65:F:/Projects/20190909 - 3phase_inverter/3phase_inverter/4. Software_WS/OL_VSC_vitor/Libraries/XMCLib/inc\xmc4_scu.h ****  *     - Added XMC_SCU_CLOCK_EnableHighPerformanceOscillatorGeneralPurposeInput(), 
  66:F:/Projects/20190909 - 3phase_inverter/3phase_inverter/4. Software_WS/OL_VSC_vitor/Libraries/XMCLib/inc\xmc4_scu.h ****  *             XMC_SCU_CLOCK_DisableHighPerformanceOscillatorGeneralPurposeInput(),
  67:F:/Projects/20190909 - 3phase_inverter/3phase_inverter/4. Software_WS/OL_VSC_vitor/Libraries/XMCLib/inc\xmc4_scu.h ****  *             XMC_SCU_CLOCK_GetHighPerformanceOscillatorGeneralPurposeInputStatus()
  68:F:/Projects/20190909 - 3phase_inverter/3phase_inverter/4. Software_WS/OL_VSC_vitor/Libraries/XMCLib/inc\xmc4_scu.h ****  *     - Removed XMC_SCU_INTERRUPT_EVENT_OSCULSTAT_UPDATED, XMC_SCU_INTERRUPT_EVENT_HDSTAT_UPDATED
  69:F:/Projects/20190909 - 3phase_inverter/3phase_inverter/4. Software_WS/OL_VSC_vitor/Libraries/XMCLib/inc\xmc4_scu.h ****  *
  70:F:/Projects/20190909 - 3phase_inverter/3phase_inverter/4. Software_WS/OL_VSC_vitor/Libraries/XMCLib/inc\xmc4_scu.h ****  * 2016-06-14:
  71:F:/Projects/20190909 - 3phase_inverter/3phase_inverter/4. Software_WS/OL_VSC_vitor/Libraries/XMCLib/inc\xmc4_scu.h ****  *     - Added XMC_SCU_HIB_IsWakeupEventDetected() and XMC_SCU_HIB_ClearWakeupEventDetectionStatus(
  72:F:/Projects/20190909 - 3phase_inverter/3phase_inverter/4. Software_WS/OL_VSC_vitor/Libraries/XMCLib/inc\xmc4_scu.h ****  *
  73:F:/Projects/20190909 - 3phase_inverter/3phase_inverter/4. Software_WS/OL_VSC_vitor/Libraries/XMCLib/inc\xmc4_scu.h ****  * 2016-06-15:
  74:F:/Projects/20190909 - 3phase_inverter/3phase_inverter/4. Software_WS/OL_VSC_vitor/Libraries/XMCLib/inc\xmc4_scu.h ****  *     - Added XMC_SCU_HIB_EnterHibernateStateEx() which allows to select between external or inter
  75:F:/Projects/20190909 - 3phase_inverter/3phase_inverter/4. Software_WS/OL_VSC_vitor/Libraries/XMCLib/inc\xmc4_scu.h ****  *     - Extended wakeup hibernate events using LPAC wakeup on events. Only available in XMC44, XMC
  76:F:/Projects/20190909 - 3phase_inverter/3phase_inverter/4. Software_WS/OL_VSC_vitor/Libraries/XMCLib/inc\xmc4_scu.h ****  *     - Added LPAC APIs. Only available in XMC44, XMC42 and XMC41 series.
  77:F:/Projects/20190909 - 3phase_inverter/3phase_inverter/4. Software_WS/OL_VSC_vitor/Libraries/XMCLib/inc\xmc4_scu.h ****  *
  78:F:/Projects/20190909 - 3phase_inverter/3phase_inverter/4. Software_WS/OL_VSC_vitor/Libraries/XMCLib/inc\xmc4_scu.h ****  * @endcond 
  79:F:/Projects/20190909 - 3phase_inverter/3phase_inverter/4. Software_WS/OL_VSC_vitor/Libraries/XMCLib/inc\xmc4_scu.h ****  *
  80:F:/Projects/20190909 - 3phase_inverter/3phase_inverter/4. Software_WS/OL_VSC_vitor/Libraries/XMCLib/inc\xmc4_scu.h ****  */
  81:F:/Projects/20190909 - 3phase_inverter/3phase_inverter/4. Software_WS/OL_VSC_vitor/Libraries/XMCLib/inc\xmc4_scu.h **** 
  82:F:/Projects/20190909 - 3phase_inverter/3phase_inverter/4. Software_WS/OL_VSC_vitor/Libraries/XMCLib/inc\xmc4_scu.h **** #ifndef XMC4_SCU_H
  83:F:/Projects/20190909 - 3phase_inverter/3phase_inverter/4. Software_WS/OL_VSC_vitor/Libraries/XMCLib/inc\xmc4_scu.h **** #define XMC4_SCU_H
  84:F:/Projects/20190909 - 3phase_inverter/3phase_inverter/4. Software_WS/OL_VSC_vitor/Libraries/XMCLib/inc\xmc4_scu.h **** 
  85:F:/Projects/20190909 - 3phase_inverter/3phase_inverter/4. Software_WS/OL_VSC_vitor/Libraries/XMCLib/inc\xmc4_scu.h **** /**************************************************************************************************
  86:F:/Projects/20190909 - 3phase_inverter/3phase_inverter/4. Software_WS/OL_VSC_vitor/Libraries/XMCLib/inc\xmc4_scu.h ****  * HEADER FILES
  87:F:/Projects/20190909 - 3phase_inverter/3phase_inverter/4. Software_WS/OL_VSC_vitor/Libraries/XMCLib/inc\xmc4_scu.h ****  **************************************************************************************************
  88:F:/Projects/20190909 - 3phase_inverter/3phase_inverter/4. Software_WS/OL_VSC_vitor/Libraries/XMCLib/inc\xmc4_scu.h **** 
  89:F:/Projects/20190909 - 3phase_inverter/3phase_inverter/4. Software_WS/OL_VSC_vitor/Libraries/XMCLib/inc\xmc4_scu.h **** #include "xmc_common.h"
  90:F:/Projects/20190909 - 3phase_inverter/3phase_inverter/4. Software_WS/OL_VSC_vitor/Libraries/XMCLib/inc\xmc4_scu.h **** 
  91:F:/Projects/20190909 - 3phase_inverter/3phase_inverter/4. Software_WS/OL_VSC_vitor/Libraries/XMCLib/inc\xmc4_scu.h **** #if UC_FAMILY == XMC4
  92:F:/Projects/20190909 - 3phase_inverter/3phase_inverter/4. Software_WS/OL_VSC_vitor/Libraries/XMCLib/inc\xmc4_scu.h **** 
  93:F:/Projects/20190909 - 3phase_inverter/3phase_inverter/4. Software_WS/OL_VSC_vitor/Libraries/XMCLib/inc\xmc4_scu.h **** /**
  94:F:/Projects/20190909 - 3phase_inverter/3phase_inverter/4. Software_WS/OL_VSC_vitor/Libraries/XMCLib/inc\xmc4_scu.h ****  * @addtogroup XMClib XMC Peripheral Library
  95:F:/Projects/20190909 - 3phase_inverter/3phase_inverter/4. Software_WS/OL_VSC_vitor/Libraries/XMCLib/inc\xmc4_scu.h ****  * @{
  96:F:/Projects/20190909 - 3phase_inverter/3phase_inverter/4. Software_WS/OL_VSC_vitor/Libraries/XMCLib/inc\xmc4_scu.h ****  */
  97:F:/Projects/20190909 - 3phase_inverter/3phase_inverter/4. Software_WS/OL_VSC_vitor/Libraries/XMCLib/inc\xmc4_scu.h ****  
  98:F:/Projects/20190909 - 3phase_inverter/3phase_inverter/4. Software_WS/OL_VSC_vitor/Libraries/XMCLib/inc\xmc4_scu.h **** /**
  99:F:/Projects/20190909 - 3phase_inverter/3phase_inverter/4. Software_WS/OL_VSC_vitor/Libraries/XMCLib/inc\xmc4_scu.h ****  * @addtogroup SCU
 100:F:/Projects/20190909 - 3phase_inverter/3phase_inverter/4. Software_WS/OL_VSC_vitor/Libraries/XMCLib/inc\xmc4_scu.h ****  * @{
 101:F:/Projects/20190909 - 3phase_inverter/3phase_inverter/4. Software_WS/OL_VSC_vitor/Libraries/XMCLib/inc\xmc4_scu.h ****  */
 102:F:/Projects/20190909 - 3phase_inverter/3phase_inverter/4. Software_WS/OL_VSC_vitor/Libraries/XMCLib/inc\xmc4_scu.h **** 
 103:F:/Projects/20190909 - 3phase_inverter/3phase_inverter/4. Software_WS/OL_VSC_vitor/Libraries/XMCLib/inc\xmc4_scu.h **** /**************************************************************************************************
 104:F:/Projects/20190909 - 3phase_inverter/3phase_inverter/4. Software_WS/OL_VSC_vitor/Libraries/XMCLib/inc\xmc4_scu.h ****  * MACROS
 105:F:/Projects/20190909 - 3phase_inverter/3phase_inverter/4. Software_WS/OL_VSC_vitor/Libraries/XMCLib/inc\xmc4_scu.h ****  **************************************************************************************************
 106:F:/Projects/20190909 - 3phase_inverter/3phase_inverter/4. Software_WS/OL_VSC_vitor/Libraries/XMCLib/inc\xmc4_scu.h **** #define PLL_PDIV_XTAL_8MHZ (1U)  /* PDIV value for main PLL settings, fPLL = 120MHz with fOSC = 8MH
 107:F:/Projects/20190909 - 3phase_inverter/3phase_inverter/4. Software_WS/OL_VSC_vitor/Libraries/XMCLib/inc\xmc4_scu.h **** #define PLL_NDIV_XTAL_8MHZ (89U)  /* NDIV value for main PLL settings, fPLL = 120MHz with fOSC = 8M
 108:F:/Projects/20190909 - 3phase_inverter/3phase_inverter/4. Software_WS/OL_VSC_vitor/Libraries/XMCLib/inc\xmc4_scu.h **** #define PLL_K2DIV_XTAL_8MHZ (2U)  /* K2DIV value for main PLL settings, fPLL = 120MHz with fOSC = 8
 109:F:/Projects/20190909 - 3phase_inverter/3phase_inverter/4. Software_WS/OL_VSC_vitor/Libraries/XMCLib/inc\xmc4_scu.h **** 
 110:F:/Projects/20190909 - 3phase_inverter/3phase_inverter/4. Software_WS/OL_VSC_vitor/Libraries/XMCLib/inc\xmc4_scu.h **** #define PLL_PDIV_XTAL_12MHZ (1U)  /* PDIV value for main PLL settings, fPLL = 120MHz with fOSC = 12
 111:F:/Projects/20190909 - 3phase_inverter/3phase_inverter/4. Software_WS/OL_VSC_vitor/Libraries/XMCLib/inc\xmc4_scu.h **** #define PLL_NDIV_XTAL_12MHZ (79U)  /* NDIV value for main PLL settings, fPLL = 120MHz with fOSC = 1
 112:F:/Projects/20190909 - 3phase_inverter/3phase_inverter/4. Software_WS/OL_VSC_vitor/Libraries/XMCLib/inc\xmc4_scu.h **** #define PLL_K2DIV_XTAL_12MHZ (3U)  /* K2DIV value for main PLL settings, fPLL = 120MHz with fOSC = 
 113:F:/Projects/20190909 - 3phase_inverter/3phase_inverter/4. Software_WS/OL_VSC_vitor/Libraries/XMCLib/inc\xmc4_scu.h **** 
 114:F:/Projects/20190909 - 3phase_inverter/3phase_inverter/4. Software_WS/OL_VSC_vitor/Libraries/XMCLib/inc\xmc4_scu.h **** #define PLL_PDIV_XTAL_16MHZ (1U)  /* PDIV value for main PLL settings, fPLL = 120MHz with fOSC = 16
 115:F:/Projects/20190909 - 3phase_inverter/3phase_inverter/4. Software_WS/OL_VSC_vitor/Libraries/XMCLib/inc\xmc4_scu.h **** #define PLL_NDIV_XTAL_16MHZ (59U)  /* NDIV value for main PLL settings, fPLL = 120MHz with fOSC = 1
 116:F:/Projects/20190909 - 3phase_inverter/3phase_inverter/4. Software_WS/OL_VSC_vitor/Libraries/XMCLib/inc\xmc4_scu.h **** #define PLL_K2DIV_XTAL_16MHZ (3U)  /* K2DIV value for main PLL settings, fPLL = 120MHz with fOSC = 
 117:F:/Projects/20190909 - 3phase_inverter/3phase_inverter/4. Software_WS/OL_VSC_vitor/Libraries/XMCLib/inc\xmc4_scu.h **** 
 118:F:/Projects/20190909 - 3phase_inverter/3phase_inverter/4. Software_WS/OL_VSC_vitor/Libraries/XMCLib/inc\xmc4_scu.h **** #define XMC_SCU_INTERRUPT_EVENT_WDT_WARN           SCU_INTERRUPT_SRSTAT_PRWARN_Msk /**< Watchdog pr
 119:F:/Projects/20190909 - 3phase_inverter/3phase_inverter/4. Software_WS/OL_VSC_vitor/Libraries/XMCLib/inc\xmc4_scu.h **** #define XMC_SCU_INTERRUPT_EVENT_RTC_PERIODIC       SCU_INTERRUPT_SRSTAT_PI_Msk     /**< RTC periodi
 120:F:/Projects/20190909 - 3phase_inverter/3phase_inverter/4. Software_WS/OL_VSC_vitor/Libraries/XMCLib/inc\xmc4_scu.h **** #define XMC_SCU_INTERRUPT_EVENT_RTC_ALARM          SCU_INTERRUPT_SRSTAT_AI_Msk     /**< RTC alarm e
 121:F:/Projects/20190909 - 3phase_inverter/3phase_inverter/4. Software_WS/OL_VSC_vitor/Libraries/XMCLib/inc\xmc4_scu.h **** #define XMC_SCU_INTERRUPT_EVENT_DLR_OVERRUN        SCU_INTERRUPT_SRSTAT_DLROVR_Msk /**< DLR overrun
 122:F:/Projects/20190909 - 3phase_inverter/3phase_inverter/4. Software_WS/OL_VSC_vitor/Libraries/XMCLib/inc\xmc4_scu.h **** #if defined(SCU_INTERRUPT_SRSTAT_LPACCR_Msk)
 123:F:/Projects/20190909 - 3phase_inverter/3phase_inverter/4. Software_WS/OL_VSC_vitor/Libraries/XMCLib/inc\xmc4_scu.h **** #define XMC_SCU_INTERRUPT_EVENT_LPACCR_UPDATED     SCU_INTERRUPT_SRSTAT_LPACCR_Msk /**< LPAC Contro
 124:F:/Projects/20190909 - 3phase_inverter/3phase_inverter/4. Software_WS/OL_VSC_vitor/Libraries/XMCLib/inc\xmc4_scu.h **** #endif
 125:F:/Projects/20190909 - 3phase_inverter/3phase_inverter/4. Software_WS/OL_VSC_vitor/Libraries/XMCLib/inc\xmc4_scu.h **** #if defined(SCU_INTERRUPT_SRSTAT_LPACTH0_Msk)
 126:F:/Projects/20190909 - 3phase_inverter/3phase_inverter/4. Software_WS/OL_VSC_vitor/Libraries/XMCLib/inc\xmc4_scu.h **** #define XMC_SCU_INTERRUPT_EVENT_LPACTH0_UPDATED    SCU_INTERRUPT_SRSTAT_LPACTH0_Msk /**< LPAC Thres
 127:F:/Projects/20190909 - 3phase_inverter/3phase_inverter/4. Software_WS/OL_VSC_vitor/Libraries/XMCLib/inc\xmc4_scu.h **** #endif
 128:F:/Projects/20190909 - 3phase_inverter/3phase_inverter/4. Software_WS/OL_VSC_vitor/Libraries/XMCLib/inc\xmc4_scu.h **** #if defined(SCU_INTERRUPT_SRSTAT_LPACTH1_Msk)
 129:F:/Projects/20190909 - 3phase_inverter/3phase_inverter/4. Software_WS/OL_VSC_vitor/Libraries/XMCLib/inc\xmc4_scu.h **** #define XMC_SCU_INTERRUPT_EVENT_LPACTH1_UPDATED    SCU_INTERRUPT_SRSTAT_LPACTH1_Msk  /**< LPAC Thre
 130:F:/Projects/20190909 - 3phase_inverter/3phase_inverter/4. Software_WS/OL_VSC_vitor/Libraries/XMCLib/inc\xmc4_scu.h **** #endif
 131:F:/Projects/20190909 - 3phase_inverter/3phase_inverter/4. Software_WS/OL_VSC_vitor/Libraries/XMCLib/inc\xmc4_scu.h **** #if defined(SCU_INTERRUPT_SRSTAT_LPACST_Msk)
 132:F:/Projects/20190909 - 3phase_inverter/3phase_inverter/4. Software_WS/OL_VSC_vitor/Libraries/XMCLib/inc\xmc4_scu.h **** #define XMC_SCU_INTERRUPT_EVENT_LPACST_UPDATED     SCU_INTERRUPT_SRSTAT_LPACST_Msk  /**< LPAC Statu
 133:F:/Projects/20190909 - 3phase_inverter/3phase_inverter/4. Software_WS/OL_VSC_vitor/Libraries/XMCLib/inc\xmc4_scu.h **** #endif
 134:F:/Projects/20190909 - 3phase_inverter/3phase_inverter/4. Software_WS/OL_VSC_vitor/Libraries/XMCLib/inc\xmc4_scu.h **** #if defined(SCU_INTERRUPT_SRSTAT_LPACCLR_Msk)
 135:F:/Projects/20190909 - 3phase_inverter/3phase_inverter/4. Software_WS/OL_VSC_vitor/Libraries/XMCLib/inc\xmc4_scu.h **** #define XMC_SCU_INTERRUPT_EVENT_LPACCLR_UPDATED    SCU_INTERRUPT_SRSTAT_LPACCLR_Msk /**< LPAC event
 136:F:/Projects/20190909 - 3phase_inverter/3phase_inverter/4. Software_WS/OL_VSC_vitor/Libraries/XMCLib/inc\xmc4_scu.h **** #endif
 137:F:/Projects/20190909 - 3phase_inverter/3phase_inverter/4. Software_WS/OL_VSC_vitor/Libraries/XMCLib/inc\xmc4_scu.h **** #if defined(SCU_INTERRUPT_SRSTAT_LPACSET_Msk)
 138:F:/Projects/20190909 - 3phase_inverter/3phase_inverter/4. Software_WS/OL_VSC_vitor/Libraries/XMCLib/inc\xmc4_scu.h **** #define XMC_SCU_INTERRUPT_EVENT_LPACSET_UPDATED    SCU_INTERRUPT_SRSTAT_LPACSET_Msk /**< LPAC event
 139:F:/Projects/20190909 - 3phase_inverter/3phase_inverter/4. Software_WS/OL_VSC_vitor/Libraries/XMCLib/inc\xmc4_scu.h **** #endif
 140:F:/Projects/20190909 - 3phase_inverter/3phase_inverter/4. Software_WS/OL_VSC_vitor/Libraries/XMCLib/inc\xmc4_scu.h **** #if defined(SCU_INTERRUPT_SRSTAT_HINTST_Msk)
 141:F:/Projects/20190909 - 3phase_inverter/3phase_inverter/4. Software_WS/OL_VSC_vitor/Libraries/XMCLib/inc\xmc4_scu.h **** #define XMC_SCU_INTERRUPT_EVENT_HINTST_UPDATED     SCU_INTERRUPT_SRSTAT_HINTST_Msk /**< HIB HINTST 
 142:F:/Projects/20190909 - 3phase_inverter/3phase_inverter/4. Software_WS/OL_VSC_vitor/Libraries/XMCLib/inc\xmc4_scu.h **** #endif
 143:F:/Projects/20190909 - 3phase_inverter/3phase_inverter/4. Software_WS/OL_VSC_vitor/Libraries/XMCLib/inc\xmc4_scu.h **** #if defined(SCU_INTERRUPT_SRSTAT_HINTCLR_Msk)
 144:F:/Projects/20190909 - 3phase_inverter/3phase_inverter/4. Software_WS/OL_VSC_vitor/Libraries/XMCLib/inc\xmc4_scu.h **** #define XMC_SCU_INTERRUPT_EVENT_HINTCLR_UPDATED    SCU_INTERRUPT_SRSTAT_HINTCLR_Msk /**< HIB HINTCL
 145:F:/Projects/20190909 - 3phase_inverter/3phase_inverter/4. Software_WS/OL_VSC_vitor/Libraries/XMCLib/inc\xmc4_scu.h **** #endif
 146:F:/Projects/20190909 - 3phase_inverter/3phase_inverter/4. Software_WS/OL_VSC_vitor/Libraries/XMCLib/inc\xmc4_scu.h **** #if defined(SCU_INTERRUPT_SRSTAT_HINTSET_Msk)
 147:F:/Projects/20190909 - 3phase_inverter/3phase_inverter/4. Software_WS/OL_VSC_vitor/Libraries/XMCLib/inc\xmc4_scu.h **** #define XMC_SCU_INTERRUPT_EVENT_HINTSET_UPDATED    SCU_INTERRUPT_SRSTAT_HINTSET_Msk /**< HIB HINTSE
 148:F:/Projects/20190909 - 3phase_inverter/3phase_inverter/4. Software_WS/OL_VSC_vitor/Libraries/XMCLib/inc\xmc4_scu.h **** #endif
 149:F:/Projects/20190909 - 3phase_inverter/3phase_inverter/4. Software_WS/OL_VSC_vitor/Libraries/XMCLib/inc\xmc4_scu.h **** #define XMC_SCU_INTERRUPT_EVENT_HDCLR_UPDATED      SCU_INTERRUPT_SRSTAT_HDCLR_Msk /**< HIB HDCLR re
 150:F:/Projects/20190909 - 3phase_inverter/3phase_inverter/4. Software_WS/OL_VSC_vitor/Libraries/XMCLib/inc\xmc4_scu.h **** #define XMC_SCU_INTERRUPT_EVENT_HDSET_UPDATED      SCU_INTERRUPT_SRSTAT_HDSET_Msk /**< HIB HDSET re
 151:F:/Projects/20190909 - 3phase_inverter/3phase_inverter/4. Software_WS/OL_VSC_vitor/Libraries/XMCLib/inc\xmc4_scu.h **** #define XMC_SCU_INTERRUPT_EVENT_HDCR_UPDATED       SCU_INTERRUPT_SRSTAT_HDCR_Msk /**< HIB HDCR regi
 152:F:/Projects/20190909 - 3phase_inverter/3phase_inverter/4. Software_WS/OL_VSC_vitor/Libraries/XMCLib/inc\xmc4_scu.h **** #define XMC_SCU_INTERRUPT_EVENT_OSCSICTRL_UPDATED  SCU_INTERRUPT_SRSTAT_OSCSICTRL_Msk /**< HIB OSCS
 153:F:/Projects/20190909 - 3phase_inverter/3phase_inverter/4. Software_WS/OL_VSC_vitor/Libraries/XMCLib/inc\xmc4_scu.h **** #define XMC_SCU_INTERRUPT_EVENT_OSCULCTRL_UPDATED  SCU_INTERRUPT_SRSTAT_OSCULCTRL_Msk /**< HIB OSCU
 154:F:/Projects/20190909 - 3phase_inverter/3phase_inverter/4. Software_WS/OL_VSC_vitor/Libraries/XMCLib/inc\xmc4_scu.h **** #define XMC_SCU_INTERRUPT_EVENT_RTCCTR_UPDATED     SCU_INTERRUPT_SRSTAT_RTC_CTR_Msk /**< HIB RTCCTR
 155:F:/Projects/20190909 - 3phase_inverter/3phase_inverter/4. Software_WS/OL_VSC_vitor/Libraries/XMCLib/inc\xmc4_scu.h **** #define XMC_SCU_INTERRUPT_EVENT_RTCATIM0_UPDATED   SCU_INTERRUPT_SRSTAT_RTC_ATIM0_Msk /**< HIB RTCA
 156:F:/Projects/20190909 - 3phase_inverter/3phase_inverter/4. Software_WS/OL_VSC_vitor/Libraries/XMCLib/inc\xmc4_scu.h **** #define XMC_SCU_INTERRUPT_EVENT_RTCATIM1_UPDATED   SCU_INTERRUPT_SRSTAT_RTC_ATIM1_Msk /**< HIB RTCA
 157:F:/Projects/20190909 - 3phase_inverter/3phase_inverter/4. Software_WS/OL_VSC_vitor/Libraries/XMCLib/inc\xmc4_scu.h **** #define XMC_SCU_INTERRUPT_EVENT_RTCTIM0_UPDATED    SCU_INTERRUPT_SRSTAT_RTC_TIM0_Msk /**< HIB TIM0 
 158:F:/Projects/20190909 - 3phase_inverter/3phase_inverter/4. Software_WS/OL_VSC_vitor/Libraries/XMCLib/inc\xmc4_scu.h **** #define XMC_SCU_INTERRUPT_EVENT_RTCTIM1_UPDATED    SCU_INTERRUPT_SRSTAT_RTC_TIM1_Msk /**< HIB TIM1 
 159:F:/Projects/20190909 - 3phase_inverter/3phase_inverter/4. Software_WS/OL_VSC_vitor/Libraries/XMCLib/inc\xmc4_scu.h **** #define XMC_SCU_INTERRUPT_EVENT_RMX_UPDATED        SCU_INTERRUPT_SRSTAT_RMX_Msk /**< HIB RMX regist
 160:F:/Projects/20190909 - 3phase_inverter/3phase_inverter/4. Software_WS/OL_VSC_vitor/Libraries/XMCLib/inc\xmc4_scu.h **** 
 161:F:/Projects/20190909 - 3phase_inverter/3phase_inverter/4. Software_WS/OL_VSC_vitor/Libraries/XMCLib/inc\xmc4_scu.h **** /**************************************************************************************************
 162:F:/Projects/20190909 - 3phase_inverter/3phase_inverter/4. Software_WS/OL_VSC_vitor/Libraries/XMCLib/inc\xmc4_scu.h ****  * ENUMS
 163:F:/Projects/20190909 - 3phase_inverter/3phase_inverter/4. Software_WS/OL_VSC_vitor/Libraries/XMCLib/inc\xmc4_scu.h ****  **************************************************************************************************
 164:F:/Projects/20190909 - 3phase_inverter/3phase_inverter/4. Software_WS/OL_VSC_vitor/Libraries/XMCLib/inc\xmc4_scu.h **** /**
 165:F:/Projects/20190909 - 3phase_inverter/3phase_inverter/4. Software_WS/OL_VSC_vitor/Libraries/XMCLib/inc\xmc4_scu.h ****  *  Defines Capture/Compare unit timer slice trigger, that enables synchronous start function avail
 166:F:/Projects/20190909 - 3phase_inverter/3phase_inverter/4. Software_WS/OL_VSC_vitor/Libraries/XMCLib/inc\xmc4_scu.h ****  *  CCUCON register. Use type \a XMC_SCU_CCU_TRIGGER_t for accessing these enum parameters.
 167:F:/Projects/20190909 - 3phase_inverter/3phase_inverter/4. Software_WS/OL_VSC_vitor/Libraries/XMCLib/inc\xmc4_scu.h ****  */
 168:F:/Projects/20190909 - 3phase_inverter/3phase_inverter/4. Software_WS/OL_VSC_vitor/Libraries/XMCLib/inc\xmc4_scu.h **** typedef enum XMC_SCU_CCU_TRIGGER
 169:F:/Projects/20190909 - 3phase_inverter/3phase_inverter/4. Software_WS/OL_VSC_vitor/Libraries/XMCLib/inc\xmc4_scu.h **** {
 170:F:/Projects/20190909 - 3phase_inverter/3phase_inverter/4. Software_WS/OL_VSC_vitor/Libraries/XMCLib/inc\xmc4_scu.h **** #if defined(CCU40)
 171:F:/Projects/20190909 - 3phase_inverter/3phase_inverter/4. Software_WS/OL_VSC_vitor/Libraries/XMCLib/inc\xmc4_scu.h ****   XMC_SCU_CCU_TRIGGER_CCU40 = SCU_GENERAL_CCUCON_GSC40_Msk, /**< Trigger mask used for Global Start
 172:F:/Projects/20190909 - 3phase_inverter/3phase_inverter/4. Software_WS/OL_VSC_vitor/Libraries/XMCLib/inc\xmc4_scu.h ****                                                                  CCU40 peripheral. */
 173:F:/Projects/20190909 - 3phase_inverter/3phase_inverter/4. Software_WS/OL_VSC_vitor/Libraries/XMCLib/inc\xmc4_scu.h **** #endif
 174:F:/Projects/20190909 - 3phase_inverter/3phase_inverter/4. Software_WS/OL_VSC_vitor/Libraries/XMCLib/inc\xmc4_scu.h **** #if defined(CCU41)
 175:F:/Projects/20190909 - 3phase_inverter/3phase_inverter/4. Software_WS/OL_VSC_vitor/Libraries/XMCLib/inc\xmc4_scu.h ****   XMC_SCU_CCU_TRIGGER_CCU41 = SCU_GENERAL_CCUCON_GSC41_Msk, /**< Trigger mask used for Global Start
 176:F:/Projects/20190909 - 3phase_inverter/3phase_inverter/4. Software_WS/OL_VSC_vitor/Libraries/XMCLib/inc\xmc4_scu.h ****                                                                  CCU41 peripheral. */
 177:F:/Projects/20190909 - 3phase_inverter/3phase_inverter/4. Software_WS/OL_VSC_vitor/Libraries/XMCLib/inc\xmc4_scu.h **** #endif
 178:F:/Projects/20190909 - 3phase_inverter/3phase_inverter/4. Software_WS/OL_VSC_vitor/Libraries/XMCLib/inc\xmc4_scu.h **** #if defined(CCU42)
 179:F:/Projects/20190909 - 3phase_inverter/3phase_inverter/4. Software_WS/OL_VSC_vitor/Libraries/XMCLib/inc\xmc4_scu.h ****   XMC_SCU_CCU_TRIGGER_CCU42 = SCU_GENERAL_CCUCON_GSC42_Msk, /**< Trigger mask used for Global Start
 180:F:/Projects/20190909 - 3phase_inverter/3phase_inverter/4. Software_WS/OL_VSC_vitor/Libraries/XMCLib/inc\xmc4_scu.h ****                                                                  CCU42 peripheral. */
 181:F:/Projects/20190909 - 3phase_inverter/3phase_inverter/4. Software_WS/OL_VSC_vitor/Libraries/XMCLib/inc\xmc4_scu.h **** #endif
 182:F:/Projects/20190909 - 3phase_inverter/3phase_inverter/4. Software_WS/OL_VSC_vitor/Libraries/XMCLib/inc\xmc4_scu.h **** #if defined(CCU43)
 183:F:/Projects/20190909 - 3phase_inverter/3phase_inverter/4. Software_WS/OL_VSC_vitor/Libraries/XMCLib/inc\xmc4_scu.h ****   XMC_SCU_CCU_TRIGGER_CCU43 = SCU_GENERAL_CCUCON_GSC43_Msk, /**< Trigger mask used for Global Start
 184:F:/Projects/20190909 - 3phase_inverter/3phase_inverter/4. Software_WS/OL_VSC_vitor/Libraries/XMCLib/inc\xmc4_scu.h ****                                                                  CCU43 peripheral. */
 185:F:/Projects/20190909 - 3phase_inverter/3phase_inverter/4. Software_WS/OL_VSC_vitor/Libraries/XMCLib/inc\xmc4_scu.h **** #endif
 186:F:/Projects/20190909 - 3phase_inverter/3phase_inverter/4. Software_WS/OL_VSC_vitor/Libraries/XMCLib/inc\xmc4_scu.h **** #if defined(CCU80)
 187:F:/Projects/20190909 - 3phase_inverter/3phase_inverter/4. Software_WS/OL_VSC_vitor/Libraries/XMCLib/inc\xmc4_scu.h ****   XMC_SCU_CCU_TRIGGER_CCU80 = SCU_GENERAL_CCUCON_GSC80_Msk, /**< Trigger mask used for Global Start
 188:F:/Projects/20190909 - 3phase_inverter/3phase_inverter/4. Software_WS/OL_VSC_vitor/Libraries/XMCLib/inc\xmc4_scu.h ****                                                                  CCU80 peripheral. */
 189:F:/Projects/20190909 - 3phase_inverter/3phase_inverter/4. Software_WS/OL_VSC_vitor/Libraries/XMCLib/inc\xmc4_scu.h **** #endif
 190:F:/Projects/20190909 - 3phase_inverter/3phase_inverter/4. Software_WS/OL_VSC_vitor/Libraries/XMCLib/inc\xmc4_scu.h **** #if defined(CCU81)
 191:F:/Projects/20190909 - 3phase_inverter/3phase_inverter/4. Software_WS/OL_VSC_vitor/Libraries/XMCLib/inc\xmc4_scu.h ****   XMC_SCU_CCU_TRIGGER_CCU81 = SCU_GENERAL_CCUCON_GSC81_Msk /**< Trigger mask used for Global Start 
 192:F:/Projects/20190909 - 3phase_inverter/3phase_inverter/4. Software_WS/OL_VSC_vitor/Libraries/XMCLib/inc\xmc4_scu.h ****                                                                  CCU81 peripheral. */
 193:F:/Projects/20190909 - 3phase_inverter/3phase_inverter/4. Software_WS/OL_VSC_vitor/Libraries/XMCLib/inc\xmc4_scu.h **** #endif
 194:F:/Projects/20190909 - 3phase_inverter/3phase_inverter/4. Software_WS/OL_VSC_vitor/Libraries/XMCLib/inc\xmc4_scu.h **** } XMC_SCU_CCU_TRIGGER_t;
 195:F:/Projects/20190909 - 3phase_inverter/3phase_inverter/4. Software_WS/OL_VSC_vitor/Libraries/XMCLib/inc\xmc4_scu.h **** 
 196:F:/Projects/20190909 - 3phase_inverter/3phase_inverter/4. Software_WS/OL_VSC_vitor/Libraries/XMCLib/inc\xmc4_scu.h **** /**
 197:F:/Projects/20190909 - 3phase_inverter/3phase_inverter/4. Software_WS/OL_VSC_vitor/Libraries/XMCLib/inc\xmc4_scu.h ****  *  Defines enumerations representing the status of trap cause. The cause of the trap gets automati
 198:F:/Projects/20190909 - 3phase_inverter/3phase_inverter/4. Software_WS/OL_VSC_vitor/Libraries/XMCLib/inc\xmc4_scu.h ****  *  the \a TRAPSTAT register and can be checked by user software to determine the state of the syst
 199:F:/Projects/20190909 - 3phase_inverter/3phase_inverter/4. Software_WS/OL_VSC_vitor/Libraries/XMCLib/inc\xmc4_scu.h ****  *  purpose. 
 200:F:/Projects/20190909 - 3phase_inverter/3phase_inverter/4. Software_WS/OL_VSC_vitor/Libraries/XMCLib/inc\xmc4_scu.h ****  *  Use type \a XMC_SCU_TRAP_t for accessing these enum parameters.
 201:F:/Projects/20190909 - 3phase_inverter/3phase_inverter/4. Software_WS/OL_VSC_vitor/Libraries/XMCLib/inc\xmc4_scu.h ****  */
 202:F:/Projects/20190909 - 3phase_inverter/3phase_inverter/4. Software_WS/OL_VSC_vitor/Libraries/XMCLib/inc\xmc4_scu.h **** typedef enum XMC_SCU_TRAP 
 203:F:/Projects/20190909 - 3phase_inverter/3phase_inverter/4. Software_WS/OL_VSC_vitor/Libraries/XMCLib/inc\xmc4_scu.h **** {
 204:F:/Projects/20190909 - 3phase_inverter/3phase_inverter/4. Software_WS/OL_VSC_vitor/Libraries/XMCLib/inc\xmc4_scu.h ****   XMC_SCU_TRAP_OSC_WDG      = SCU_TRAP_TRAPSTAT_SOSCWDGT_Msk, /**< OSC_HP Oscillator Watchdog trap.
 205:F:/Projects/20190909 - 3phase_inverter/3phase_inverter/4. Software_WS/OL_VSC_vitor/Libraries/XMCLib/inc\xmc4_scu.h ****   XMC_SCU_TRAP_VCO_LOCK     = SCU_TRAP_TRAPSTAT_SVCOLCKT_Msk, /**< PLL loss of lock trap. */
 206:F:/Projects/20190909 - 3phase_inverter/3phase_inverter/4. Software_WS/OL_VSC_vitor/Libraries/XMCLib/inc\xmc4_scu.h ****   XMC_SCU_TRAP_USB_VCO_LOCK = SCU_TRAP_TRAPSTAT_UVCOLCKT_Msk, /**< USB PLL loss of lock trap. */ 
 207:F:/Projects/20190909 - 3phase_inverter/3phase_inverter/4. Software_WS/OL_VSC_vitor/Libraries/XMCLib/inc\xmc4_scu.h ****   XMC_SCU_TRAP_PARITY_ERROR = SCU_TRAP_TRAPSTAT_PET_Msk,      /**< Memory Parity error trap. */  
 208:F:/Projects/20190909 - 3phase_inverter/3phase_inverter/4. Software_WS/OL_VSC_vitor/Libraries/XMCLib/inc\xmc4_scu.h ****   XMC_SCU_TRAP_BROWNOUT     = SCU_TRAP_TRAPSTAT_BRWNT_Msk,    /**< Brownout trap. */ 
 209:F:/Projects/20190909 - 3phase_inverter/3phase_inverter/4. Software_WS/OL_VSC_vitor/Libraries/XMCLib/inc\xmc4_scu.h ****   XMC_SCU_TRAP_ULP_WDG      = SCU_TRAP_TRAPSTAT_ULPWDGT_Msk,  /**< Unstable 32KHz clock trap. */ 
 210:F:/Projects/20190909 - 3phase_inverter/3phase_inverter/4. Software_WS/OL_VSC_vitor/Libraries/XMCLib/inc\xmc4_scu.h ****   XMC_SCU_TRAP_PER_BRIDGE0  = SCU_TRAP_TRAPSTAT_BWERR0T_Msk,  /**< Bad memory access of peripherals
 211:F:/Projects/20190909 - 3phase_inverter/3phase_inverter/4. Software_WS/OL_VSC_vitor/Libraries/XMCLib/inc\xmc4_scu.h ****   XMC_SCU_TRAP_PER_BRIDGE1  = SCU_TRAP_TRAPSTAT_BWERR1T_Msk,  /**< Bad memory access of peripherals
 212:F:/Projects/20190909 - 3phase_inverter/3phase_inverter/4. Software_WS/OL_VSC_vitor/Libraries/XMCLib/inc\xmc4_scu.h **** #if defined(SCU_TRAP_TRAPSTAT_TEMPHIT_Msk)
 213:F:/Projects/20190909 - 3phase_inverter/3phase_inverter/4. Software_WS/OL_VSC_vitor/Libraries/XMCLib/inc\xmc4_scu.h ****   XMC_SCU_TRAP_DIETEMP_HIGH = SCU_TRAP_TRAPSTAT_TEMPHIT_Msk,  /**< Die temperature higher than expe
 214:F:/Projects/20190909 - 3phase_inverter/3phase_inverter/4. Software_WS/OL_VSC_vitor/Libraries/XMCLib/inc\xmc4_scu.h **** #endif
 215:F:/Projects/20190909 - 3phase_inverter/3phase_inverter/4. Software_WS/OL_VSC_vitor/Libraries/XMCLib/inc\xmc4_scu.h **** #if defined(SCU_TRAP_TRAPSTAT_TEMPLOT_Msk)
 216:F:/Projects/20190909 - 3phase_inverter/3phase_inverter/4. Software_WS/OL_VSC_vitor/Libraries/XMCLib/inc\xmc4_scu.h ****   XMC_SCU_TRAP_DIETEMP_LOW  = SCU_TRAP_TRAPSTAT_TEMPLOT_Msk,  /**< Die temperature lower than expec
 217:F:/Projects/20190909 - 3phase_inverter/3phase_inverter/4. Software_WS/OL_VSC_vitor/Libraries/XMCLib/inc\xmc4_scu.h **** #endif
 218:F:/Projects/20190909 - 3phase_inverter/3phase_inverter/4. Software_WS/OL_VSC_vitor/Libraries/XMCLib/inc\xmc4_scu.h **** #if defined(ECAT0)
 219:F:/Projects/20190909 - 3phase_inverter/3phase_inverter/4. Software_WS/OL_VSC_vitor/Libraries/XMCLib/inc\xmc4_scu.h ****   XMC_SCU_TRAP_ECAT_RESET = SCU_TRAP_TRAPSTAT_ECAT0RST_Msk, /**< EtherCat Reset */ 
 220:F:/Projects/20190909 - 3phase_inverter/3phase_inverter/4. Software_WS/OL_VSC_vitor/Libraries/XMCLib/inc\xmc4_scu.h **** #endif
 221:F:/Projects/20190909 - 3phase_inverter/3phase_inverter/4. Software_WS/OL_VSC_vitor/Libraries/XMCLib/inc\xmc4_scu.h **** } XMC_SCU_TRAP_t;
 222:F:/Projects/20190909 - 3phase_inverter/3phase_inverter/4. Software_WS/OL_VSC_vitor/Libraries/XMCLib/inc\xmc4_scu.h **** 
 223:F:/Projects/20190909 - 3phase_inverter/3phase_inverter/4. Software_WS/OL_VSC_vitor/Libraries/XMCLib/inc\xmc4_scu.h **** /**
 224:F:/Projects/20190909 - 3phase_inverter/3phase_inverter/4. Software_WS/OL_VSC_vitor/Libraries/XMCLib/inc\xmc4_scu.h ****  *  Defines enumerations for different parity event generating modules that in turn generate a trap
 225:F:/Projects/20190909 - 3phase_inverter/3phase_inverter/4. Software_WS/OL_VSC_vitor/Libraries/XMCLib/inc\xmc4_scu.h ****  *  Parity can be enabled with \a PETE register in order to get the trap flag reflected in \a TRAPR
 226:F:/Projects/20190909 - 3phase_inverter/3phase_inverter/4. Software_WS/OL_VSC_vitor/Libraries/XMCLib/inc\xmc4_scu.h ****  *  configure parity error trap generation mechanism bits of \a PETE register.
 227:F:/Projects/20190909 - 3phase_inverter/3phase_inverter/4. Software_WS/OL_VSC_vitor/Libraries/XMCLib/inc\xmc4_scu.h ****  *  All the enum items are tabulated as per bits present in \a PETE register.
 228:F:/Projects/20190909 - 3phase_inverter/3phase_inverter/4. Software_WS/OL_VSC_vitor/Libraries/XMCLib/inc\xmc4_scu.h ****  *  Use type \a XMC_SCU_PARITY_t for accessing these enum parameters.
 229:F:/Projects/20190909 - 3phase_inverter/3phase_inverter/4. Software_WS/OL_VSC_vitor/Libraries/XMCLib/inc\xmc4_scu.h ****  */
 230:F:/Projects/20190909 - 3phase_inverter/3phase_inverter/4. Software_WS/OL_VSC_vitor/Libraries/XMCLib/inc\xmc4_scu.h **** typedef enum XMC_SCU_PARITY
 231:F:/Projects/20190909 - 3phase_inverter/3phase_inverter/4. Software_WS/OL_VSC_vitor/Libraries/XMCLib/inc\xmc4_scu.h **** {
 232:F:/Projects/20190909 - 3phase_inverter/3phase_inverter/4. Software_WS/OL_VSC_vitor/Libraries/XMCLib/inc\xmc4_scu.h ****   XMC_SCU_PARITY_PSRAM_MEM  = SCU_PARITY_PEEN_PEENPS_Msk,   /**< Program SRAM parity error trap. */
 233:F:/Projects/20190909 - 3phase_inverter/3phase_inverter/4. Software_WS/OL_VSC_vitor/Libraries/XMCLib/inc\xmc4_scu.h ****   XMC_SCU_PARITY_DSRAM1_MEM = SCU_PARITY_PEEN_PEENDS1_Msk,  /**< Data SRAM-1 parity error trap. */ 
 234:F:/Projects/20190909 - 3phase_inverter/3phase_inverter/4. Software_WS/OL_VSC_vitor/Libraries/XMCLib/inc\xmc4_scu.h **** #if defined(XMC_SCU_PARITY_DSRAM2_MEM)
 235:F:/Projects/20190909 - 3phase_inverter/3phase_inverter/4. Software_WS/OL_VSC_vitor/Libraries/XMCLib/inc\xmc4_scu.h ****   XMC_SCU_PARITY_DSRAM2_MEM = SCU_PARITY_PEEN_PEENDS2_Msk,  /**< Data SRAM-2 parity error trap. */ 
 236:F:/Projects/20190909 - 3phase_inverter/3phase_inverter/4. Software_WS/OL_VSC_vitor/Libraries/XMCLib/inc\xmc4_scu.h **** #endif
 237:F:/Projects/20190909 - 3phase_inverter/3phase_inverter/4. Software_WS/OL_VSC_vitor/Libraries/XMCLib/inc\xmc4_scu.h ****   XMC_SCU_PARITY_USIC0_MEM  = SCU_PARITY_PEEN_PEENU0_Msk,   /**< USIC0 memory parity error trap. */
 238:F:/Projects/20190909 - 3phase_inverter/3phase_inverter/4. Software_WS/OL_VSC_vitor/Libraries/XMCLib/inc\xmc4_scu.h **** #if defined(XMC_SCU_PARITY_USIC1_MEM)
 239:F:/Projects/20190909 - 3phase_inverter/3phase_inverter/4. Software_WS/OL_VSC_vitor/Libraries/XMCLib/inc\xmc4_scu.h ****   XMC_SCU_PARITY_USIC1_MEM  = SCU_PARITY_PEEN_PEENU1_Msk,   /**< USIC1 memory parity error trap. */
 240:F:/Projects/20190909 - 3phase_inverter/3phase_inverter/4. Software_WS/OL_VSC_vitor/Libraries/XMCLib/inc\xmc4_scu.h **** #endif
 241:F:/Projects/20190909 - 3phase_inverter/3phase_inverter/4. Software_WS/OL_VSC_vitor/Libraries/XMCLib/inc\xmc4_scu.h **** #if defined(XMC_SCU_PARITY_USIC2_MEM)
 242:F:/Projects/20190909 - 3phase_inverter/3phase_inverter/4. Software_WS/OL_VSC_vitor/Libraries/XMCLib/inc\xmc4_scu.h ****   XMC_SCU_PARITY_USIC2_MEM  = SCU_PARITY_PEEN_PEENU2_Msk,   /**< USIC2 memory parity error trap. */
 243:F:/Projects/20190909 - 3phase_inverter/3phase_inverter/4. Software_WS/OL_VSC_vitor/Libraries/XMCLib/inc\xmc4_scu.h **** #endif
 244:F:/Projects/20190909 - 3phase_inverter/3phase_inverter/4. Software_WS/OL_VSC_vitor/Libraries/XMCLib/inc\xmc4_scu.h ****   XMC_SCU_PARITY_MCAN_MEM   = SCU_PARITY_PEEN_PEENMC_Msk,   /**< CAN memory parity error trap. */
 245:F:/Projects/20190909 - 3phase_inverter/3phase_inverter/4. Software_WS/OL_VSC_vitor/Libraries/XMCLib/inc\xmc4_scu.h ****   XMC_SCU_PARITY_PMU_MEM    = SCU_PARITY_PEEN_PEENPPRF_Msk, /**< PMU Prefetch memory parity error t
 246:F:/Projects/20190909 - 3phase_inverter/3phase_inverter/4. Software_WS/OL_VSC_vitor/Libraries/XMCLib/inc\xmc4_scu.h ****   XMC_SCU_PARITY_USB_MEM    = SCU_PARITY_PEEN_PEENUSB_Msk,  /**< USB memory parity error trap. */ 
 247:F:/Projects/20190909 - 3phase_inverter/3phase_inverter/4. Software_WS/OL_VSC_vitor/Libraries/XMCLib/inc\xmc4_scu.h **** #if defined(SCU_PARITY_PEEN_PEENETH0TX_Msk)
 248:F:/Projects/20190909 - 3phase_inverter/3phase_inverter/4. Software_WS/OL_VSC_vitor/Libraries/XMCLib/inc\xmc4_scu.h ****   XMC_SCU_PARITY_ETH_TXMEM  = SCU_PARITY_PEEN_PEENETH0TX_Msk, /**< Ethernet transmit memory parity 
 249:F:/Projects/20190909 - 3phase_inverter/3phase_inverter/4. Software_WS/OL_VSC_vitor/Libraries/XMCLib/inc\xmc4_scu.h **** #endif
 250:F:/Projects/20190909 - 3phase_inverter/3phase_inverter/4. Software_WS/OL_VSC_vitor/Libraries/XMCLib/inc\xmc4_scu.h **** #if defined(SCU_PARITY_PEEN_PEENETH0RX_Msk)
 251:F:/Projects/20190909 - 3phase_inverter/3phase_inverter/4. Software_WS/OL_VSC_vitor/Libraries/XMCLib/inc\xmc4_scu.h ****   XMC_SCU_PARITY_ETH_RXMEM  = SCU_PARITY_PEEN_PEENETH0RX_Msk, /**< Ethernet receive memory parity e
 252:F:/Projects/20190909 - 3phase_inverter/3phase_inverter/4. Software_WS/OL_VSC_vitor/Libraries/XMCLib/inc\xmc4_scu.h **** #endif
 253:F:/Projects/20190909 - 3phase_inverter/3phase_inverter/4. Software_WS/OL_VSC_vitor/Libraries/XMCLib/inc\xmc4_scu.h **** #if defined(SCU_PARITY_PEEN_PEENSD0_Msk)
 254:F:/Projects/20190909 - 3phase_inverter/3phase_inverter/4. Software_WS/OL_VSC_vitor/Libraries/XMCLib/inc\xmc4_scu.h ****   XMC_SCU_PARITY_SDMMC_MEM0 = SCU_PARITY_PEEN_PEENSD0_Msk, /**< SDMMC Memory-0 parity error trap. *
 255:F:/Projects/20190909 - 3phase_inverter/3phase_inverter/4. Software_WS/OL_VSC_vitor/Libraries/XMCLib/inc\xmc4_scu.h **** #endif
 256:F:/Projects/20190909 - 3phase_inverter/3phase_inverter/4. Software_WS/OL_VSC_vitor/Libraries/XMCLib/inc\xmc4_scu.h **** #if defined(SCU_PARITY_PEEN_PEENSD1_Msk)
 257:F:/Projects/20190909 - 3phase_inverter/3phase_inverter/4. Software_WS/OL_VSC_vitor/Libraries/XMCLib/inc\xmc4_scu.h ****   XMC_SCU_PARITY_SDMMC_MEM1 = SCU_PARITY_PEEN_PEENSD1_Msk, /**< SDMMC Memory-1 parity error trap. *
 258:F:/Projects/20190909 - 3phase_inverter/3phase_inverter/4. Software_WS/OL_VSC_vitor/Libraries/XMCLib/inc\xmc4_scu.h **** #endif
 259:F:/Projects/20190909 - 3phase_inverter/3phase_inverter/4. Software_WS/OL_VSC_vitor/Libraries/XMCLib/inc\xmc4_scu.h **** } XMC_SCU_PARITY_t;
 260:F:/Projects/20190909 - 3phase_inverter/3phase_inverter/4. Software_WS/OL_VSC_vitor/Libraries/XMCLib/inc\xmc4_scu.h **** 
 261:F:/Projects/20190909 - 3phase_inverter/3phase_inverter/4. Software_WS/OL_VSC_vitor/Libraries/XMCLib/inc\xmc4_scu.h **** /**
 262:F:/Projects/20190909 - 3phase_inverter/3phase_inverter/4. Software_WS/OL_VSC_vitor/Libraries/XMCLib/inc\xmc4_scu.h ****  *  Defines the different causes for last reset. The cause of the last reset gets automatically sto
 263:F:/Projects/20190909 - 3phase_inverter/3phase_inverter/4. Software_WS/OL_VSC_vitor/Libraries/XMCLib/inc\xmc4_scu.h ****  *  the \a SCU_RSTSTAT register and can be checked by user software to determine the state of the s
 264:F:/Projects/20190909 - 3phase_inverter/3phase_inverter/4. Software_WS/OL_VSC_vitor/Libraries/XMCLib/inc\xmc4_scu.h ****  *  purpose. All the enum items are tabulated as per bits present in \a SCU_RSTSTAT register.
 265:F:/Projects/20190909 - 3phase_inverter/3phase_inverter/4. Software_WS/OL_VSC_vitor/Libraries/XMCLib/inc\xmc4_scu.h ****  *  Use type \a XMC_SCU_RESET_REASON_t for accessing these enum parameters.
 266:F:/Projects/20190909 - 3phase_inverter/3phase_inverter/4. Software_WS/OL_VSC_vitor/Libraries/XMCLib/inc\xmc4_scu.h ****  */
 267:F:/Projects/20190909 - 3phase_inverter/3phase_inverter/4. Software_WS/OL_VSC_vitor/Libraries/XMCLib/inc\xmc4_scu.h **** typedef enum XMC_SCU_RESET_REASON
 268:F:/Projects/20190909 - 3phase_inverter/3phase_inverter/4. Software_WS/OL_VSC_vitor/Libraries/XMCLib/inc\xmc4_scu.h **** {
 269:F:/Projects/20190909 - 3phase_inverter/3phase_inverter/4. Software_WS/OL_VSC_vitor/Libraries/XMCLib/inc\xmc4_scu.h ****   XMC_SCU_RESET_REASON_PORST        = (1UL << SCU_RESET_RSTSTAT_RSTSTAT_Pos), /**< Reset due to Pow
 270:F:/Projects/20190909 - 3phase_inverter/3phase_inverter/4. Software_WS/OL_VSC_vitor/Libraries/XMCLib/inc\xmc4_scu.h ****   XMC_SCU_RESET_REASON_SWD          = (2UL << SCU_RESET_RSTSTAT_RSTSTAT_Pos), /**< Reset due to Sup
 271:F:/Projects/20190909 - 3phase_inverter/3phase_inverter/4. Software_WS/OL_VSC_vitor/Libraries/XMCLib/inc\xmc4_scu.h ****   XMC_SCU_RESET_REASON_PV           = (4UL << SCU_RESET_RSTSTAT_RSTSTAT_Pos), /**< Reset due to Pow
 272:F:/Projects/20190909 - 3phase_inverter/3phase_inverter/4. Software_WS/OL_VSC_vitor/Libraries/XMCLib/inc\xmc4_scu.h ****   XMC_SCU_RESET_REASON_SW           = (8UL << SCU_RESET_RSTSTAT_RSTSTAT_Pos), /**< Reset due to Sof
 273:F:/Projects/20190909 - 3phase_inverter/3phase_inverter/4. Software_WS/OL_VSC_vitor/Libraries/XMCLib/inc\xmc4_scu.h ****   XMC_SCU_RESET_REASON_LOCKUP       = (16UL << SCU_RESET_RSTSTAT_RSTSTAT_Pos), /**< Reset due to re
 274:F:/Projects/20190909 - 3phase_inverter/3phase_inverter/4. Software_WS/OL_VSC_vitor/Libraries/XMCLib/inc\xmc4_scu.h ****   XMC_SCU_RESET_REASON_WATCHDOG     = (32UL << SCU_RESET_RSTSTAT_RSTSTAT_Pos), /**< Reset due to Wa
 275:F:/Projects/20190909 - 3phase_inverter/3phase_inverter/4. Software_WS/OL_VSC_vitor/Libraries/XMCLib/inc\xmc4_scu.h ****   XMC_SCU_RESET_REASON_PARITY_ERROR = (128UL << SCU_RESET_RSTSTAT_RSTSTAT_Pos), /**< Reset due to r
 276:F:/Projects/20190909 - 3phase_inverter/3phase_inverter/4. Software_WS/OL_VSC_vitor/Libraries/XMCLib/inc\xmc4_scu.h **** } XMC_SCU_RESET_REASON_t;
 277:F:/Projects/20190909 - 3phase_inverter/3phase_inverter/4. Software_WS/OL_VSC_vitor/Libraries/XMCLib/inc\xmc4_scu.h **** 
 278:F:/Projects/20190909 - 3phase_inverter/3phase_inverter/4. Software_WS/OL_VSC_vitor/Libraries/XMCLib/inc\xmc4_scu.h **** /**
 279:F:/Projects/20190909 - 3phase_inverter/3phase_inverter/4. Software_WS/OL_VSC_vitor/Libraries/XMCLib/inc\xmc4_scu.h ****  *  Defines enumerations for events which can lead to interrupt. These enumeration values represent
 280:F:/Projects/20190909 - 3phase_inverter/3phase_inverter/4. Software_WS/OL_VSC_vitor/Libraries/XMCLib/inc\xmc4_scu.h ****  * status of one of the bits in \a SRSTAT register. 
 281:F:/Projects/20190909 - 3phase_inverter/3phase_inverter/4. Software_WS/OL_VSC_vitor/Libraries/XMCLib/inc\xmc4_scu.h ****  *  Use type \a XMC_SCU_INTERRUPT_EVENT_t for accessing these enum parameters.
 282:F:/Projects/20190909 - 3phase_inverter/3phase_inverter/4. Software_WS/OL_VSC_vitor/Libraries/XMCLib/inc\xmc4_scu.h ****  */
 283:F:/Projects/20190909 - 3phase_inverter/3phase_inverter/4. Software_WS/OL_VSC_vitor/Libraries/XMCLib/inc\xmc4_scu.h **** typedef uint32_t XMC_SCU_INTERRUPT_EVENT_t;
 284:F:/Projects/20190909 - 3phase_inverter/3phase_inverter/4. Software_WS/OL_VSC_vitor/Libraries/XMCLib/inc\xmc4_scu.h **** 
 285:F:/Projects/20190909 - 3phase_inverter/3phase_inverter/4. Software_WS/OL_VSC_vitor/Libraries/XMCLib/inc\xmc4_scu.h ****  
 286:F:/Projects/20190909 - 3phase_inverter/3phase_inverter/4. Software_WS/OL_VSC_vitor/Libraries/XMCLib/inc\xmc4_scu.h **** /**
 287:F:/Projects/20190909 - 3phase_inverter/3phase_inverter/4. Software_WS/OL_VSC_vitor/Libraries/XMCLib/inc\xmc4_scu.h ****  *  Defines enumeration for the events that can generate non maskable interrupt(NMI).
 288:F:/Projects/20190909 - 3phase_inverter/3phase_inverter/4. Software_WS/OL_VSC_vitor/Libraries/XMCLib/inc\xmc4_scu.h ****  *  The NMI generation can be enabled with \a NMIREQEN register. The event will be reflected in \a 
 289:F:/Projects/20190909 - 3phase_inverter/3phase_inverter/4. Software_WS/OL_VSC_vitor/Libraries/XMCLib/inc\xmc4_scu.h ****  *  mirrored in the TRAPSTAT register. These enums can be used to configure NMI request generation 
 290:F:/Projects/20190909 - 3phase_inverter/3phase_inverter/4. Software_WS/OL_VSC_vitor/Libraries/XMCLib/inc\xmc4_scu.h ****  *  NMIREQEN register.  Once configured, these events can generate non maskable interrupt.
 291:F:/Projects/20190909 - 3phase_inverter/3phase_inverter/4. Software_WS/OL_VSC_vitor/Libraries/XMCLib/inc\xmc4_scu.h ****  *  All the enum items are tabulated as per bits present in \a NMIREQEN register.
 292:F:/Projects/20190909 - 3phase_inverter/3phase_inverter/4. Software_WS/OL_VSC_vitor/Libraries/XMCLib/inc\xmc4_scu.h ****  *  Use type \a XMC_SCU_NMIREQ_t for accessing these enum parameters.
 293:F:/Projects/20190909 - 3phase_inverter/3phase_inverter/4. Software_WS/OL_VSC_vitor/Libraries/XMCLib/inc\xmc4_scu.h ****  */
 294:F:/Projects/20190909 - 3phase_inverter/3phase_inverter/4. Software_WS/OL_VSC_vitor/Libraries/XMCLib/inc\xmc4_scu.h **** typedef enum XMC_SCU_NMIREQ
 295:F:/Projects/20190909 - 3phase_inverter/3phase_inverter/4. Software_WS/OL_VSC_vitor/Libraries/XMCLib/inc\xmc4_scu.h **** {
 296:F:/Projects/20190909 - 3phase_inverter/3phase_inverter/4. Software_WS/OL_VSC_vitor/Libraries/XMCLib/inc\xmc4_scu.h ****   XMC_SCU_NMIREQ_WDT_WARN = SCU_INTERRUPT_NMIREQEN_PRWARN_Msk, /**< Watchdog timer Pre-Warning even
 297:F:/Projects/20190909 - 3phase_inverter/3phase_inverter/4. Software_WS/OL_VSC_vitor/Libraries/XMCLib/inc\xmc4_scu.h ****   XMC_SCU_NMIREQ_RTC_PI   = SCU_INTERRUPT_NMIREQEN_PI_Msk,     /**< RTC Periodic event */ 
 298:F:/Projects/20190909 - 3phase_inverter/3phase_inverter/4. Software_WS/OL_VSC_vitor/Libraries/XMCLib/inc\xmc4_scu.h ****   XMC_SCU_NMIREQ_RTC_AI   = SCU_INTERRUPT_NMIREQEN_AI_Msk,     /**< RTC Alarm event */ 
 299:F:/Projects/20190909 - 3phase_inverter/3phase_inverter/4. Software_WS/OL_VSC_vitor/Libraries/XMCLib/inc\xmc4_scu.h ****   XMC_SCU_NMIREQ_ERU0_0   = SCU_INTERRUPT_NMIREQEN_ERU00_Msk,  /**< Channel 0 event of ERU0 */  
 300:F:/Projects/20190909 - 3phase_inverter/3phase_inverter/4. Software_WS/OL_VSC_vitor/Libraries/XMCLib/inc\xmc4_scu.h ****   XMC_SCU_NMIREQ_ERU0_1   = SCU_INTERRUPT_NMIREQEN_ERU01_Msk,  /**< Channel 1 event of ERU0 */ 
 301:F:/Projects/20190909 - 3phase_inverter/3phase_inverter/4. Software_WS/OL_VSC_vitor/Libraries/XMCLib/inc\xmc4_scu.h ****   XMC_SCU_NMIREQ_ERU0_2   = SCU_INTERRUPT_NMIREQEN_ERU02_Msk,  /**< Channel 2 event of ERU0 */ 
 302:F:/Projects/20190909 - 3phase_inverter/3phase_inverter/4. Software_WS/OL_VSC_vitor/Libraries/XMCLib/inc\xmc4_scu.h ****   XMC_SCU_NMIREQ_ERU0_3   = SCU_INTERRUPT_NMIREQEN_ERU03_Msk   /**< Channel 3 event of ERU0 */ 
 303:F:/Projects/20190909 - 3phase_inverter/3phase_inverter/4. Software_WS/OL_VSC_vitor/Libraries/XMCLib/inc\xmc4_scu.h **** } XMC_SCU_NMIREQ_t;
 304:F:/Projects/20190909 - 3phase_inverter/3phase_inverter/4. Software_WS/OL_VSC_vitor/Libraries/XMCLib/inc\xmc4_scu.h ****   
 305:F:/Projects/20190909 - 3phase_inverter/3phase_inverter/4. Software_WS/OL_VSC_vitor/Libraries/XMCLib/inc\xmc4_scu.h **** 
 306:F:/Projects/20190909 - 3phase_inverter/3phase_inverter/4. Software_WS/OL_VSC_vitor/Libraries/XMCLib/inc\xmc4_scu.h **** /**
 307:F:/Projects/20190909 - 3phase_inverter/3phase_inverter/4. Software_WS/OL_VSC_vitor/Libraries/XMCLib/inc\xmc4_scu.h ****  *  Defines enumeration representing different peripheral reset bits in the \a PRSTAT registers.
 308:F:/Projects/20190909 - 3phase_inverter/3phase_inverter/4. Software_WS/OL_VSC_vitor/Libraries/XMCLib/inc\xmc4_scu.h ****  *  All the enum items are tabulated as per bits present in \a PRSTAT0,  \a PRSTAT1,  \a PRSTAT2,
 309:F:/Projects/20190909 - 3phase_inverter/3phase_inverter/4. Software_WS/OL_VSC_vitor/Libraries/XMCLib/inc\xmc4_scu.h ****  *  \a PRSTAT3 registers. Use type \a XMC_SCU_PERIPHERAL_RESET_t for accessing these enum parameter
 310:F:/Projects/20190909 - 3phase_inverter/3phase_inverter/4. Software_WS/OL_VSC_vitor/Libraries/XMCLib/inc\xmc4_scu.h ****  *  Note: Release of reset should be prevented when the peripheral clock is gated in cases where ke
 311:F:/Projects/20190909 - 3phase_inverter/3phase_inverter/4. Software_WS/OL_VSC_vitor/Libraries/XMCLib/inc\xmc4_scu.h ****  *  clock and bus interface clocks are shared, in order to avoid system hang-up.
 312:F:/Projects/20190909 - 3phase_inverter/3phase_inverter/4. Software_WS/OL_VSC_vitor/Libraries/XMCLib/inc\xmc4_scu.h ****  */
 313:F:/Projects/20190909 - 3phase_inverter/3phase_inverter/4. Software_WS/OL_VSC_vitor/Libraries/XMCLib/inc\xmc4_scu.h **** typedef enum XMC_SCU_PERIPHERAL_RESET
 314:F:/Projects/20190909 - 3phase_inverter/3phase_inverter/4. Software_WS/OL_VSC_vitor/Libraries/XMCLib/inc\xmc4_scu.h **** {
 315:F:/Projects/20190909 - 3phase_inverter/3phase_inverter/4. Software_WS/OL_VSC_vitor/Libraries/XMCLib/inc\xmc4_scu.h ****   XMC_SCU_PERIPHERAL_RESET_VADC   = SCU_RESET_PRSTAT0_VADCRS_Msk,   /**< VADC reset. */ 
 316:F:/Projects/20190909 - 3phase_inverter/3phase_inverter/4. Software_WS/OL_VSC_vitor/Libraries/XMCLib/inc\xmc4_scu.h **** #if defined(DSD)
 317:F:/Projects/20190909 - 3phase_inverter/3phase_inverter/4. Software_WS/OL_VSC_vitor/Libraries/XMCLib/inc\xmc4_scu.h ****   XMC_SCU_PERIPHERAL_RESET_DSD    = SCU_RESET_PRSTAT0_DSDRS_Msk,    /**< DSD reset. */
 318:F:/Projects/20190909 - 3phase_inverter/3phase_inverter/4. Software_WS/OL_VSC_vitor/Libraries/XMCLib/inc\xmc4_scu.h **** #endif
 319:F:/Projects/20190909 - 3phase_inverter/3phase_inverter/4. Software_WS/OL_VSC_vitor/Libraries/XMCLib/inc\xmc4_scu.h ****   XMC_SCU_PERIPHERAL_RESET_CCU40  = SCU_RESET_PRSTAT0_CCU40RS_Msk,  /**< CCU40 reset. */
 320:F:/Projects/20190909 - 3phase_inverter/3phase_inverter/4. Software_WS/OL_VSC_vitor/Libraries/XMCLib/inc\xmc4_scu.h **** #if defined(CCU41)
 321:F:/Projects/20190909 - 3phase_inverter/3phase_inverter/4. Software_WS/OL_VSC_vitor/Libraries/XMCLib/inc\xmc4_scu.h ****   XMC_SCU_PERIPHERAL_RESET_CCU41  = SCU_RESET_PRSTAT0_CCU41RS_Msk,  /**< CCU41 reset. */
 322:F:/Projects/20190909 - 3phase_inverter/3phase_inverter/4. Software_WS/OL_VSC_vitor/Libraries/XMCLib/inc\xmc4_scu.h **** #endif  
 323:F:/Projects/20190909 - 3phase_inverter/3phase_inverter/4. Software_WS/OL_VSC_vitor/Libraries/XMCLib/inc\xmc4_scu.h **** #if defined(CCU42)
 324:F:/Projects/20190909 - 3phase_inverter/3phase_inverter/4. Software_WS/OL_VSC_vitor/Libraries/XMCLib/inc\xmc4_scu.h ****   XMC_SCU_PERIPHERAL_RESET_CCU42  = SCU_RESET_PRSTAT0_CCU42RS_Msk,  /**< CCU42 reset. */
 325:F:/Projects/20190909 - 3phase_inverter/3phase_inverter/4. Software_WS/OL_VSC_vitor/Libraries/XMCLib/inc\xmc4_scu.h **** #endif
 326:F:/Projects/20190909 - 3phase_inverter/3phase_inverter/4. Software_WS/OL_VSC_vitor/Libraries/XMCLib/inc\xmc4_scu.h **** #if defined(CCU80)
 327:F:/Projects/20190909 - 3phase_inverter/3phase_inverter/4. Software_WS/OL_VSC_vitor/Libraries/XMCLib/inc\xmc4_scu.h ****   XMC_SCU_PERIPHERAL_RESET_CCU80  = SCU_RESET_PRSTAT0_CCU80RS_Msk,  /**< CCU80 reset. */
 328:F:/Projects/20190909 - 3phase_inverter/3phase_inverter/4. Software_WS/OL_VSC_vitor/Libraries/XMCLib/inc\xmc4_scu.h **** #endif  
 329:F:/Projects/20190909 - 3phase_inverter/3phase_inverter/4. Software_WS/OL_VSC_vitor/Libraries/XMCLib/inc\xmc4_scu.h **** #if defined(CCU81)
 330:F:/Projects/20190909 - 3phase_inverter/3phase_inverter/4. Software_WS/OL_VSC_vitor/Libraries/XMCLib/inc\xmc4_scu.h ****   XMC_SCU_PERIPHERAL_RESET_CCU81  = SCU_RESET_PRSTAT0_CCU81RS_Msk,  /**< CCU81 reset. */
 331:F:/Projects/20190909 - 3phase_inverter/3phase_inverter/4. Software_WS/OL_VSC_vitor/Libraries/XMCLib/inc\xmc4_scu.h **** #endif
 332:F:/Projects/20190909 - 3phase_inverter/3phase_inverter/4. Software_WS/OL_VSC_vitor/Libraries/XMCLib/inc\xmc4_scu.h **** #if defined(POSIF0)
 333:F:/Projects/20190909 - 3phase_inverter/3phase_inverter/4. Software_WS/OL_VSC_vitor/Libraries/XMCLib/inc\xmc4_scu.h ****   XMC_SCU_PERIPHERAL_RESET_POSIF0 = SCU_RESET_PRSTAT0_POSIF0RS_Msk, /**< POSIF0 reset. */
 334:F:/Projects/20190909 - 3phase_inverter/3phase_inverter/4. Software_WS/OL_VSC_vitor/Libraries/XMCLib/inc\xmc4_scu.h **** #endif  
 335:F:/Projects/20190909 - 3phase_inverter/3phase_inverter/4. Software_WS/OL_VSC_vitor/Libraries/XMCLib/inc\xmc4_scu.h **** #if defined(POSIF1)
 336:F:/Projects/20190909 - 3phase_inverter/3phase_inverter/4. Software_WS/OL_VSC_vitor/Libraries/XMCLib/inc\xmc4_scu.h ****   XMC_SCU_PERIPHERAL_RESET_POSIF1 = SCU_RESET_PRSTAT0_POSIF1RS_Msk, /**< POSIF1 reset.*/
 337:F:/Projects/20190909 - 3phase_inverter/3phase_inverter/4. Software_WS/OL_VSC_vitor/Libraries/XMCLib/inc\xmc4_scu.h **** #endif
 338:F:/Projects/20190909 - 3phase_inverter/3phase_inverter/4. Software_WS/OL_VSC_vitor/Libraries/XMCLib/inc\xmc4_scu.h ****   XMC_SCU_PERIPHERAL_RESET_USIC0  = SCU_RESET_PRSTAT0_USIC0RS_Msk,  /**< USIC0 reset. */
 339:F:/Projects/20190909 - 3phase_inverter/3phase_inverter/4. Software_WS/OL_VSC_vitor/Libraries/XMCLib/inc\xmc4_scu.h ****   XMC_SCU_PERIPHERAL_RESET_ERU1   = SCU_RESET_PRSTAT0_ERU1RS_Msk,   /**< ERU1 reset. */
 340:F:/Projects/20190909 - 3phase_inverter/3phase_inverter/4. Software_WS/OL_VSC_vitor/Libraries/XMCLib/inc\xmc4_scu.h **** #if defined(HRPWM0)
 341:F:/Projects/20190909 - 3phase_inverter/3phase_inverter/4. Software_WS/OL_VSC_vitor/Libraries/XMCLib/inc\xmc4_scu.h ****   XMC_SCU_PERIPHERAL_RESET_HRPWM0 = SCU_RESET_PRSTAT0_HRPWM0RS_Msk,  /**< HRPWM0 reset. */
 342:F:/Projects/20190909 - 3phase_inverter/3phase_inverter/4. Software_WS/OL_VSC_vitor/Libraries/XMCLib/inc\xmc4_scu.h **** #endif
 343:F:/Projects/20190909 - 3phase_inverter/3phase_inverter/4. Software_WS/OL_VSC_vitor/Libraries/XMCLib/inc\xmc4_scu.h **** #if defined(CCU43)
 344:F:/Projects/20190909 - 3phase_inverter/3phase_inverter/4. Software_WS/OL_VSC_vitor/Libraries/XMCLib/inc\xmc4_scu.h ****   XMC_SCU_PERIPHERAL_RESET_CCU43  = (SCU_RESET_PRSTAT1_CCU43RS_Msk | 0x10000000UL),   /**< CCU43 re
 345:F:/Projects/20190909 - 3phase_inverter/3phase_inverter/4. Software_WS/OL_VSC_vitor/Libraries/XMCLib/inc\xmc4_scu.h **** #endif
 346:F:/Projects/20190909 - 3phase_inverter/3phase_inverter/4. Software_WS/OL_VSC_vitor/Libraries/XMCLib/inc\xmc4_scu.h **** #if defined(LEDTS0)
 347:F:/Projects/20190909 - 3phase_inverter/3phase_inverter/4. Software_WS/OL_VSC_vitor/Libraries/XMCLib/inc\xmc4_scu.h ****   XMC_SCU_PERIPHERAL_RESET_LEDTS0 = (SCU_RESET_PRSTAT1_LEDTSCU0RS_Msk | 0x10000000UL), /**< LEDTS0 
 348:F:/Projects/20190909 - 3phase_inverter/3phase_inverter/4. Software_WS/OL_VSC_vitor/Libraries/XMCLib/inc\xmc4_scu.h **** #endif  
 349:F:/Projects/20190909 - 3phase_inverter/3phase_inverter/4. Software_WS/OL_VSC_vitor/Libraries/XMCLib/inc\xmc4_scu.h **** #if defined(CAN)
 350:F:/Projects/20190909 - 3phase_inverter/3phase_inverter/4. Software_WS/OL_VSC_vitor/Libraries/XMCLib/inc\xmc4_scu.h ****   XMC_SCU_PERIPHERAL_RESET_MCAN   = (SCU_RESET_PRSTAT1_MCAN0RS_Msk | 0x10000000UL), /**< MCAN reset
 351:F:/Projects/20190909 - 3phase_inverter/3phase_inverter/4. Software_WS/OL_VSC_vitor/Libraries/XMCLib/inc\xmc4_scu.h **** #endif  
 352:F:/Projects/20190909 - 3phase_inverter/3phase_inverter/4. Software_WS/OL_VSC_vitor/Libraries/XMCLib/inc\xmc4_scu.h **** #if defined(DAC)  
 353:F:/Projects/20190909 - 3phase_inverter/3phase_inverter/4. Software_WS/OL_VSC_vitor/Libraries/XMCLib/inc\xmc4_scu.h ****   XMC_SCU_PERIPHERAL_RESET_DAC    = (SCU_RESET_PRSTAT1_DACRS_Msk | 0x10000000UL),    /**< DAC reset
 354:F:/Projects/20190909 - 3phase_inverter/3phase_inverter/4. Software_WS/OL_VSC_vitor/Libraries/XMCLib/inc\xmc4_scu.h **** #endif  
 355:F:/Projects/20190909 - 3phase_inverter/3phase_inverter/4. Software_WS/OL_VSC_vitor/Libraries/XMCLib/inc\xmc4_scu.h **** #if defined(SDMMC)
 356:F:/Projects/20190909 - 3phase_inverter/3phase_inverter/4. Software_WS/OL_VSC_vitor/Libraries/XMCLib/inc\xmc4_scu.h ****   XMC_SCU_PERIPHERAL_RESET_SDMMC  = (SCU_RESET_PRSTAT1_MMCIRS_Msk | 0x10000000UL),     /**< SDMMC r
 357:F:/Projects/20190909 - 3phase_inverter/3phase_inverter/4. Software_WS/OL_VSC_vitor/Libraries/XMCLib/inc\xmc4_scu.h **** #endif
 358:F:/Projects/20190909 - 3phase_inverter/3phase_inverter/4. Software_WS/OL_VSC_vitor/Libraries/XMCLib/inc\xmc4_scu.h **** #if defined(USIC1)
 359:F:/Projects/20190909 - 3phase_inverter/3phase_inverter/4. Software_WS/OL_VSC_vitor/Libraries/XMCLib/inc\xmc4_scu.h ****   XMC_SCU_PERIPHERAL_RESET_USIC1  = (SCU_RESET_PRSTAT1_USIC1RS_Msk | 0x10000000UL),    /**< USIC1 r
 360:F:/Projects/20190909 - 3phase_inverter/3phase_inverter/4. Software_WS/OL_VSC_vitor/Libraries/XMCLib/inc\xmc4_scu.h **** #endif  
 361:F:/Projects/20190909 - 3phase_inverter/3phase_inverter/4. Software_WS/OL_VSC_vitor/Libraries/XMCLib/inc\xmc4_scu.h **** #if defined(USIC2)
 362:F:/Projects/20190909 - 3phase_inverter/3phase_inverter/4. Software_WS/OL_VSC_vitor/Libraries/XMCLib/inc\xmc4_scu.h ****   XMC_SCU_PERIPHERAL_RESET_USIC2  = (SCU_RESET_PRSTAT1_USIC2RS_Msk | 0x10000000UL),    /**< USIC2 r
 363:F:/Projects/20190909 - 3phase_inverter/3phase_inverter/4. Software_WS/OL_VSC_vitor/Libraries/XMCLib/inc\xmc4_scu.h **** #endif
 364:F:/Projects/20190909 - 3phase_inverter/3phase_inverter/4. Software_WS/OL_VSC_vitor/Libraries/XMCLib/inc\xmc4_scu.h ****   XMC_SCU_PERIPHERAL_RESET_PORTS  = (SCU_RESET_PRSTAT1_PPORTSRS_Msk | 0x10000000UL),   /**< PORTS r
 365:F:/Projects/20190909 - 3phase_inverter/3phase_inverter/4. Software_WS/OL_VSC_vitor/Libraries/XMCLib/inc\xmc4_scu.h ****   XMC_SCU_PERIPHERAL_RESET_WDT    = (SCU_RESET_PRSTAT2_WDTRS_Msk | 0x20000000UL),      /**< WDT res
 366:F:/Projects/20190909 - 3phase_inverter/3phase_inverter/4. Software_WS/OL_VSC_vitor/Libraries/XMCLib/inc\xmc4_scu.h **** #if defined(ETH0)
 367:F:/Projects/20190909 - 3phase_inverter/3phase_inverter/4. Software_WS/OL_VSC_vitor/Libraries/XMCLib/inc\xmc4_scu.h ****   XMC_SCU_PERIPHERAL_RESET_ETH0   = (SCU_RESET_PRSTAT2_ETH0RS_Msk | 0x20000000UL),     /**< ETH0 re
 368:F:/Projects/20190909 - 3phase_inverter/3phase_inverter/4. Software_WS/OL_VSC_vitor/Libraries/XMCLib/inc\xmc4_scu.h **** #endif
 369:F:/Projects/20190909 - 3phase_inverter/3phase_inverter/4. Software_WS/OL_VSC_vitor/Libraries/XMCLib/inc\xmc4_scu.h ****   XMC_SCU_PERIPHERAL_RESET_GPDMA0 = (SCU_RESET_PRSTAT2_DMA0RS_Msk | 0x20000000UL),     /**< DMA0 re
 370:F:/Projects/20190909 - 3phase_inverter/3phase_inverter/4. Software_WS/OL_VSC_vitor/Libraries/XMCLib/inc\xmc4_scu.h **** #if defined(GPDMA1)
 371:F:/Projects/20190909 - 3phase_inverter/3phase_inverter/4. Software_WS/OL_VSC_vitor/Libraries/XMCLib/inc\xmc4_scu.h ****   XMC_SCU_PERIPHERAL_RESET_GPDMA1 = (SCU_RESET_PRSTAT2_DMA1RS_Msk | 0x20000000UL),     /**< DMA1 re
 372:F:/Projects/20190909 - 3phase_inverter/3phase_inverter/4. Software_WS/OL_VSC_vitor/Libraries/XMCLib/inc\xmc4_scu.h **** #endif
 373:F:/Projects/20190909 - 3phase_inverter/3phase_inverter/4. Software_WS/OL_VSC_vitor/Libraries/XMCLib/inc\xmc4_scu.h **** #if defined(FCE)
 374:F:/Projects/20190909 - 3phase_inverter/3phase_inverter/4. Software_WS/OL_VSC_vitor/Libraries/XMCLib/inc\xmc4_scu.h ****   XMC_SCU_PERIPHERAL_RESET_FCE    = (SCU_RESET_PRSTAT2_FCERS_Msk | 0x20000000UL),      /**< FCE res
 375:F:/Projects/20190909 - 3phase_inverter/3phase_inverter/4. Software_WS/OL_VSC_vitor/Libraries/XMCLib/inc\xmc4_scu.h **** #endif
 376:F:/Projects/20190909 - 3phase_inverter/3phase_inverter/4. Software_WS/OL_VSC_vitor/Libraries/XMCLib/inc\xmc4_scu.h **** #if defined(USB0)  
 377:F:/Projects/20190909 - 3phase_inverter/3phase_inverter/4. Software_WS/OL_VSC_vitor/Libraries/XMCLib/inc\xmc4_scu.h ****   XMC_SCU_PERIPHERAL_RESET_USB0   = (SCU_RESET_PRSTAT2_USBRS_Msk | 0x20000000UL),      /**< USB0 re
 378:F:/Projects/20190909 - 3phase_inverter/3phase_inverter/4. Software_WS/OL_VSC_vitor/Libraries/XMCLib/inc\xmc4_scu.h **** #endif  
 379:F:/Projects/20190909 - 3phase_inverter/3phase_inverter/4. Software_WS/OL_VSC_vitor/Libraries/XMCLib/inc\xmc4_scu.h **** #if defined(ECAT0)  
 380:F:/Projects/20190909 - 3phase_inverter/3phase_inverter/4. Software_WS/OL_VSC_vitor/Libraries/XMCLib/inc\xmc4_scu.h ****   XMC_SCU_PERIPHERAL_RESET_ECAT0  = (SCU_RESET_PRSTAT2_ECAT0RS_Msk | 0x20000000UL),      /**< ECAT0
 381:F:/Projects/20190909 - 3phase_inverter/3phase_inverter/4. Software_WS/OL_VSC_vitor/Libraries/XMCLib/inc\xmc4_scu.h **** #endif  
 382:F:/Projects/20190909 - 3phase_inverter/3phase_inverter/4. Software_WS/OL_VSC_vitor/Libraries/XMCLib/inc\xmc4_scu.h **** #if defined(EBU)
 383:F:/Projects/20190909 - 3phase_inverter/3phase_inverter/4. Software_WS/OL_VSC_vitor/Libraries/XMCLib/inc\xmc4_scu.h ****   XMC_SCU_PERIPHERAL_RESET_EBU    = (SCU_RESET_PRSTAT3_EBURS_Msk | 0x30000000UL)       /**< EBU res
 384:F:/Projects/20190909 - 3phase_inverter/3phase_inverter/4. Software_WS/OL_VSC_vitor/Libraries/XMCLib/inc\xmc4_scu.h **** #endif
 385:F:/Projects/20190909 - 3phase_inverter/3phase_inverter/4. Software_WS/OL_VSC_vitor/Libraries/XMCLib/inc\xmc4_scu.h **** } XMC_SCU_PERIPHERAL_RESET_t;
 386:F:/Projects/20190909 - 3phase_inverter/3phase_inverter/4. Software_WS/OL_VSC_vitor/Libraries/XMCLib/inc\xmc4_scu.h **** 
 387:F:/Projects/20190909 - 3phase_inverter/3phase_inverter/4. Software_WS/OL_VSC_vitor/Libraries/XMCLib/inc\xmc4_scu.h **** /**
 388:F:/Projects/20190909 - 3phase_inverter/3phase_inverter/4. Software_WS/OL_VSC_vitor/Libraries/XMCLib/inc\xmc4_scu.h ****  *  Defines enumerations for disabling the clocks sources of peripherals. Disabling of the peripher
 389:F:/Projects/20190909 - 3phase_inverter/3phase_inverter/4. Software_WS/OL_VSC_vitor/Libraries/XMCLib/inc\xmc4_scu.h ****  *  clock is configured via the \a CLKCLR registers.
 390:F:/Projects/20190909 - 3phase_inverter/3phase_inverter/4. Software_WS/OL_VSC_vitor/Libraries/XMCLib/inc\xmc4_scu.h ****  *  Use type \a XMC_SCU_PERIPHERAL_CLOCK_t for accessing these enum parameters.
 391:F:/Projects/20190909 - 3phase_inverter/3phase_inverter/4. Software_WS/OL_VSC_vitor/Libraries/XMCLib/inc\xmc4_scu.h ****  */
 392:F:/Projects/20190909 - 3phase_inverter/3phase_inverter/4. Software_WS/OL_VSC_vitor/Libraries/XMCLib/inc\xmc4_scu.h **** typedef enum XMC_SCU_CLOCK
 393:F:/Projects/20190909 - 3phase_inverter/3phase_inverter/4. Software_WS/OL_VSC_vitor/Libraries/XMCLib/inc\xmc4_scu.h **** {
 394:F:/Projects/20190909 - 3phase_inverter/3phase_inverter/4. Software_WS/OL_VSC_vitor/Libraries/XMCLib/inc\xmc4_scu.h ****   XMC_SCU_CLOCK_USB = SCU_CLK_CLKCLR_USBCDI_Msk, /**< USB module clock. */
 395:F:/Projects/20190909 - 3phase_inverter/3phase_inverter/4. Software_WS/OL_VSC_vitor/Libraries/XMCLib/inc\xmc4_scu.h **** #if defined(SDMMC)
 396:F:/Projects/20190909 - 3phase_inverter/3phase_inverter/4. Software_WS/OL_VSC_vitor/Libraries/XMCLib/inc\xmc4_scu.h ****   XMC_SCU_CLOCK_MMC = SCU_CLK_CLKCLR_MMCCDI_Msk, /**< MMC module clock. */
 397:F:/Projects/20190909 - 3phase_inverter/3phase_inverter/4. Software_WS/OL_VSC_vitor/Libraries/XMCLib/inc\xmc4_scu.h **** #endif
 398:F:/Projects/20190909 - 3phase_inverter/3phase_inverter/4. Software_WS/OL_VSC_vitor/Libraries/XMCLib/inc\xmc4_scu.h **** #if defined(ETH0)
 399:F:/Projects/20190909 - 3phase_inverter/3phase_inverter/4. Software_WS/OL_VSC_vitor/Libraries/XMCLib/inc\xmc4_scu.h ****   XMC_SCU_CLOCK_ETH = SCU_CLK_CLKCLR_ETH0CDI_Msk, /**< Ethernet module clock. */
 400:F:/Projects/20190909 - 3phase_inverter/3phase_inverter/4. Software_WS/OL_VSC_vitor/Libraries/XMCLib/inc\xmc4_scu.h **** #endif
 401:F:/Projects/20190909 - 3phase_inverter/3phase_inverter/4. Software_WS/OL_VSC_vitor/Libraries/XMCLib/inc\xmc4_scu.h **** #if defined(EBU)
 402:F:/Projects/20190909 - 3phase_inverter/3phase_inverter/4. Software_WS/OL_VSC_vitor/Libraries/XMCLib/inc\xmc4_scu.h ****   XMC_SCU_CLOCK_EBU = SCU_CLK_CLKCLR_EBUCDI_Msk, /**< EBU module clock. */
 403:F:/Projects/20190909 - 3phase_inverter/3phase_inverter/4. Software_WS/OL_VSC_vitor/Libraries/XMCLib/inc\xmc4_scu.h **** #endif
 404:F:/Projects/20190909 - 3phase_inverter/3phase_inverter/4. Software_WS/OL_VSC_vitor/Libraries/XMCLib/inc\xmc4_scu.h ****   XMC_SCU_CLOCK_CCU = SCU_CLK_CLKCLR_CCUCDI_Msk, /**< CCU module clock. */
 405:F:/Projects/20190909 - 3phase_inverter/3phase_inverter/4. Software_WS/OL_VSC_vitor/Libraries/XMCLib/inc\xmc4_scu.h ****   XMC_SCU_CLOCK_WDT = SCU_CLK_CLKCLR_WDTCDI_Msk  /**< WDT module clock. */
 406:F:/Projects/20190909 - 3phase_inverter/3phase_inverter/4. Software_WS/OL_VSC_vitor/Libraries/XMCLib/inc\xmc4_scu.h **** } XMC_SCU_CLOCK_t;
 407:F:/Projects/20190909 - 3phase_inverter/3phase_inverter/4. Software_WS/OL_VSC_vitor/Libraries/XMCLib/inc\xmc4_scu.h **** 
 408:F:/Projects/20190909 - 3phase_inverter/3phase_inverter/4. Software_WS/OL_VSC_vitor/Libraries/XMCLib/inc\xmc4_scu.h **** #if(UC_SERIES != XMC45)
 409:F:/Projects/20190909 - 3phase_inverter/3phase_inverter/4. Software_WS/OL_VSC_vitor/Libraries/XMCLib/inc\xmc4_scu.h **** /**
 410:F:/Projects/20190909 - 3phase_inverter/3phase_inverter/4. Software_WS/OL_VSC_vitor/Libraries/XMCLib/inc\xmc4_scu.h ****  * Defines enumeration for peripherals that support clock gating. 
 411:F:/Projects/20190909 - 3phase_inverter/3phase_inverter/4. Software_WS/OL_VSC_vitor/Libraries/XMCLib/inc\xmc4_scu.h ****  * The enumerations can be used for gating or ungating the peripheral clocks.
 412:F:/Projects/20190909 - 3phase_inverter/3phase_inverter/4. Software_WS/OL_VSC_vitor/Libraries/XMCLib/inc\xmc4_scu.h ****  * All the enum items are tabulated as per bits present in \a CGATSTAT0 register.
 413:F:/Projects/20190909 - 3phase_inverter/3phase_inverter/4. Software_WS/OL_VSC_vitor/Libraries/XMCLib/inc\xmc4_scu.h ****  * Use type \a XMC_SCU_PERIPHERAL_CLOCK_t for accessing these enum parameters.
 414:F:/Projects/20190909 - 3phase_inverter/3phase_inverter/4. Software_WS/OL_VSC_vitor/Libraries/XMCLib/inc\xmc4_scu.h ****  */
 415:F:/Projects/20190909 - 3phase_inverter/3phase_inverter/4. Software_WS/OL_VSC_vitor/Libraries/XMCLib/inc\xmc4_scu.h **** typedef enum XMC_SCU_PERIPHERAL_CLOCK
 416:F:/Projects/20190909 - 3phase_inverter/3phase_inverter/4. Software_WS/OL_VSC_vitor/Libraries/XMCLib/inc\xmc4_scu.h **** {
 417:F:/Projects/20190909 - 3phase_inverter/3phase_inverter/4. Software_WS/OL_VSC_vitor/Libraries/XMCLib/inc\xmc4_scu.h ****   XMC_SCU_PERIPHERAL_CLOCK_VADC   = SCU_CLK_CGATSTAT0_VADC_Msk,  /**< VADC peripheral gating. */
 418:F:/Projects/20190909 - 3phase_inverter/3phase_inverter/4. Software_WS/OL_VSC_vitor/Libraries/XMCLib/inc\xmc4_scu.h **** #if defined(DSD)
 419:F:/Projects/20190909 - 3phase_inverter/3phase_inverter/4. Software_WS/OL_VSC_vitor/Libraries/XMCLib/inc\xmc4_scu.h ****   XMC_SCU_PERIPHERAL_CLOCK_DSD    = SCU_CLK_CGATSTAT0_DSD_Msk,   /**< DSD peripheral gating. */
 420:F:/Projects/20190909 - 3phase_inverter/3phase_inverter/4. Software_WS/OL_VSC_vitor/Libraries/XMCLib/inc\xmc4_scu.h **** #endif
 421:F:/Projects/20190909 - 3phase_inverter/3phase_inverter/4. Software_WS/OL_VSC_vitor/Libraries/XMCLib/inc\xmc4_scu.h ****   XMC_SCU_PERIPHERAL_CLOCK_CCU40  = SCU_CLK_CGATSTAT0_CCU40_Msk,  /**< CCU40 peripheral gating. */
 422:F:/Projects/20190909 - 3phase_inverter/3phase_inverter/4. Software_WS/OL_VSC_vitor/Libraries/XMCLib/inc\xmc4_scu.h **** #if defined(CCU41)
 423:F:/Projects/20190909 - 3phase_inverter/3phase_inverter/4. Software_WS/OL_VSC_vitor/Libraries/XMCLib/inc\xmc4_scu.h ****   XMC_SCU_PERIPHERAL_CLOCK_CCU41  = SCU_CLK_CGATSTAT0_CCU41_Msk,  /**< CCU41 peripheral gating. */
 424:F:/Projects/20190909 - 3phase_inverter/3phase_inverter/4. Software_WS/OL_VSC_vitor/Libraries/XMCLib/inc\xmc4_scu.h **** #endif  
 425:F:/Projects/20190909 - 3phase_inverter/3phase_inverter/4. Software_WS/OL_VSC_vitor/Libraries/XMCLib/inc\xmc4_scu.h **** #if defined(CCU42)
 426:F:/Projects/20190909 - 3phase_inverter/3phase_inverter/4. Software_WS/OL_VSC_vitor/Libraries/XMCLib/inc\xmc4_scu.h ****   XMC_SCU_PERIPHERAL_CLOCK_CCU42  = SCU_CLK_CGATSTAT0_CCU42_Msk,  /**< CCU42 peripheral gating. */
 427:F:/Projects/20190909 - 3phase_inverter/3phase_inverter/4. Software_WS/OL_VSC_vitor/Libraries/XMCLib/inc\xmc4_scu.h **** #endif
 428:F:/Projects/20190909 - 3phase_inverter/3phase_inverter/4. Software_WS/OL_VSC_vitor/Libraries/XMCLib/inc\xmc4_scu.h **** #if defined(CCU80)
 429:F:/Projects/20190909 - 3phase_inverter/3phase_inverter/4. Software_WS/OL_VSC_vitor/Libraries/XMCLib/inc\xmc4_scu.h ****   XMC_SCU_PERIPHERAL_CLOCK_CCU80  = SCU_CLK_CGATSTAT0_CCU80_Msk,  /**< CCU80 peripheral gating. */
 430:F:/Projects/20190909 - 3phase_inverter/3phase_inverter/4. Software_WS/OL_VSC_vitor/Libraries/XMCLib/inc\xmc4_scu.h **** #endif  
 431:F:/Projects/20190909 - 3phase_inverter/3phase_inverter/4. Software_WS/OL_VSC_vitor/Libraries/XMCLib/inc\xmc4_scu.h **** #if defined(CCU81)
 432:F:/Projects/20190909 - 3phase_inverter/3phase_inverter/4. Software_WS/OL_VSC_vitor/Libraries/XMCLib/inc\xmc4_scu.h ****   XMC_SCU_PERIPHERAL_CLOCK_CCU81  = SCU_CLK_CGATSTAT0_CCU81_Msk,  /**< CCU81 peripheral gating. */
 433:F:/Projects/20190909 - 3phase_inverter/3phase_inverter/4. Software_WS/OL_VSC_vitor/Libraries/XMCLib/inc\xmc4_scu.h **** #endif
 434:F:/Projects/20190909 - 3phase_inverter/3phase_inverter/4. Software_WS/OL_VSC_vitor/Libraries/XMCLib/inc\xmc4_scu.h **** #if defined(POSIF0)
 435:F:/Projects/20190909 - 3phase_inverter/3phase_inverter/4. Software_WS/OL_VSC_vitor/Libraries/XMCLib/inc\xmc4_scu.h ****   XMC_SCU_PERIPHERAL_CLOCK_POSIF0 = SCU_CLK_CGATSTAT0_POSIF0_Msk,  /**< POSIF0 peripheral gating. *
 436:F:/Projects/20190909 - 3phase_inverter/3phase_inverter/4. Software_WS/OL_VSC_vitor/Libraries/XMCLib/inc\xmc4_scu.h **** #endif  
 437:F:/Projects/20190909 - 3phase_inverter/3phase_inverter/4. Software_WS/OL_VSC_vitor/Libraries/XMCLib/inc\xmc4_scu.h **** #if defined(POSIF1)
 438:F:/Projects/20190909 - 3phase_inverter/3phase_inverter/4. Software_WS/OL_VSC_vitor/Libraries/XMCLib/inc\xmc4_scu.h ****   XMC_SCU_PERIPHERAL_CLOCK_POSIF1 = SCU_CLK_CGATSTAT0_POSIF1_Msk,   /**< POSIF1 peripheral gating. 
 439:F:/Projects/20190909 - 3phase_inverter/3phase_inverter/4. Software_WS/OL_VSC_vitor/Libraries/XMCLib/inc\xmc4_scu.h **** #endif
 440:F:/Projects/20190909 - 3phase_inverter/3phase_inverter/4. Software_WS/OL_VSC_vitor/Libraries/XMCLib/inc\xmc4_scu.h ****   XMC_SCU_PERIPHERAL_CLOCK_USIC0  = SCU_CLK_CGATSTAT0_USIC0_Msk,   /**< USIC0 peripheral gating. */
 441:F:/Projects/20190909 - 3phase_inverter/3phase_inverter/4. Software_WS/OL_VSC_vitor/Libraries/XMCLib/inc\xmc4_scu.h ****   XMC_SCU_PERIPHERAL_CLOCK_ERU1   = SCU_CLK_CGATSTAT0_ERU1_Msk,    /**< ERU1 peripheral gating. */
 442:F:/Projects/20190909 - 3phase_inverter/3phase_inverter/4. Software_WS/OL_VSC_vitor/Libraries/XMCLib/inc\xmc4_scu.h **** #if defined(HRPWM0)
 443:F:/Projects/20190909 - 3phase_inverter/3phase_inverter/4. Software_WS/OL_VSC_vitor/Libraries/XMCLib/inc\xmc4_scu.h ****   XMC_SCU_PERIPHERAL_CLOCK_HRPWM0 = SCU_CLK_CGATSTAT0_HRPWM0_Msk,  /**< HRPWM0 peripheral gating. *
 444:F:/Projects/20190909 - 3phase_inverter/3phase_inverter/4. Software_WS/OL_VSC_vitor/Libraries/XMCLib/inc\xmc4_scu.h **** #endif
 445:F:/Projects/20190909 - 3phase_inverter/3phase_inverter/4. Software_WS/OL_VSC_vitor/Libraries/XMCLib/inc\xmc4_scu.h **** #if defined(CCU43)
 446:F:/Projects/20190909 - 3phase_inverter/3phase_inverter/4. Software_WS/OL_VSC_vitor/Libraries/XMCLib/inc\xmc4_scu.h ****   XMC_SCU_PERIPHERAL_CLOCK_CCU43  = (SCU_CLK_CGATSTAT1_CCU43_Msk | 0x10000000UL),   /**< CCU43 peri
 447:F:/Projects/20190909 - 3phase_inverter/3phase_inverter/4. Software_WS/OL_VSC_vitor/Libraries/XMCLib/inc\xmc4_scu.h **** #endif
 448:F:/Projects/20190909 - 3phase_inverter/3phase_inverter/4. Software_WS/OL_VSC_vitor/Libraries/XMCLib/inc\xmc4_scu.h **** #if defined(LEDTS0)
 449:F:/Projects/20190909 - 3phase_inverter/3phase_inverter/4. Software_WS/OL_VSC_vitor/Libraries/XMCLib/inc\xmc4_scu.h ****   XMC_SCU_PERIPHERAL_CLOCK_LEDTS0 = (SCU_CLK_CGATSTAT1_LEDTSCU0_Msk | 0x10000000UL), /**< LEDTS0 pe
 450:F:/Projects/20190909 - 3phase_inverter/3phase_inverter/4. Software_WS/OL_VSC_vitor/Libraries/XMCLib/inc\xmc4_scu.h **** #endif  
 451:F:/Projects/20190909 - 3phase_inverter/3phase_inverter/4. Software_WS/OL_VSC_vitor/Libraries/XMCLib/inc\xmc4_scu.h **** #if defined(CAN)
 452:F:/Projects/20190909 - 3phase_inverter/3phase_inverter/4. Software_WS/OL_VSC_vitor/Libraries/XMCLib/inc\xmc4_scu.h ****   XMC_SCU_PERIPHERAL_CLOCK_MCAN   = (SCU_CLK_CGATSTAT1_MCAN0_Msk | 0x10000000UL),   /**< MCAN perip
 453:F:/Projects/20190909 - 3phase_inverter/3phase_inverter/4. Software_WS/OL_VSC_vitor/Libraries/XMCLib/inc\xmc4_scu.h **** #endif
 454:F:/Projects/20190909 - 3phase_inverter/3phase_inverter/4. Software_WS/OL_VSC_vitor/Libraries/XMCLib/inc\xmc4_scu.h **** #if defined(DAC)  
 455:F:/Projects/20190909 - 3phase_inverter/3phase_inverter/4. Software_WS/OL_VSC_vitor/Libraries/XMCLib/inc\xmc4_scu.h ****   XMC_SCU_PERIPHERAL_CLOCK_DAC    = (SCU_CLK_CGATSTAT1_DAC_Msk | 0x10000000UL),     /**< DAC periph
 456:F:/Projects/20190909 - 3phase_inverter/3phase_inverter/4. Software_WS/OL_VSC_vitor/Libraries/XMCLib/inc\xmc4_scu.h **** #endif  
 457:F:/Projects/20190909 - 3phase_inverter/3phase_inverter/4. Software_WS/OL_VSC_vitor/Libraries/XMCLib/inc\xmc4_scu.h **** #if defined(SDMMC)
 458:F:/Projects/20190909 - 3phase_inverter/3phase_inverter/4. Software_WS/OL_VSC_vitor/Libraries/XMCLib/inc\xmc4_scu.h ****   XMC_SCU_PERIPHERAL_CLOCK_SDMMC  = (SCU_CLK_CGATSTAT1_MMCI_Msk | 0x10000000UL),    /**< SDMMC peri
 459:F:/Projects/20190909 - 3phase_inverter/3phase_inverter/4. Software_WS/OL_VSC_vitor/Libraries/XMCLib/inc\xmc4_scu.h **** #endif
 460:F:/Projects/20190909 - 3phase_inverter/3phase_inverter/4. Software_WS/OL_VSC_vitor/Libraries/XMCLib/inc\xmc4_scu.h **** #if defined(USIC1)
 461:F:/Projects/20190909 - 3phase_inverter/3phase_inverter/4. Software_WS/OL_VSC_vitor/Libraries/XMCLib/inc\xmc4_scu.h ****   XMC_SCU_PERIPHERAL_CLOCK_USIC1  = (SCU_CLK_CGATSTAT1_USIC1_Msk | 0x10000000UL),   /**< USIC1 peri
 462:F:/Projects/20190909 - 3phase_inverter/3phase_inverter/4. Software_WS/OL_VSC_vitor/Libraries/XMCLib/inc\xmc4_scu.h **** #endif  
 463:F:/Projects/20190909 - 3phase_inverter/3phase_inverter/4. Software_WS/OL_VSC_vitor/Libraries/XMCLib/inc\xmc4_scu.h **** #if defined(USIC2)
 464:F:/Projects/20190909 - 3phase_inverter/3phase_inverter/4. Software_WS/OL_VSC_vitor/Libraries/XMCLib/inc\xmc4_scu.h ****   XMC_SCU_PERIPHERAL_CLOCK_USIC2  = (SCU_CLK_CGATSTAT1_USIC2_Msk | 0x10000000UL),    /**< USIC2 per
 465:F:/Projects/20190909 - 3phase_inverter/3phase_inverter/4. Software_WS/OL_VSC_vitor/Libraries/XMCLib/inc\xmc4_scu.h **** #endif
 466:F:/Projects/20190909 - 3phase_inverter/3phase_inverter/4. Software_WS/OL_VSC_vitor/Libraries/XMCLib/inc\xmc4_scu.h ****   XMC_SCU_PERIPHERAL_CLOCK_PORTS  = (SCU_CLK_CGATSTAT1_PPORTS_Msk | 0x10000000UL),   /**< PORTS per
 467:F:/Projects/20190909 - 3phase_inverter/3phase_inverter/4. Software_WS/OL_VSC_vitor/Libraries/XMCLib/inc\xmc4_scu.h ****   XMC_SCU_PERIPHERAL_CLOCK_WDT    = (SCU_CLK_CGATSTAT2_WDT_Msk | 0x20000000UL),      /**< WDT perip
 468:F:/Projects/20190909 - 3phase_inverter/3phase_inverter/4. Software_WS/OL_VSC_vitor/Libraries/XMCLib/inc\xmc4_scu.h **** #if defined(ETH0)
 469:F:/Projects/20190909 - 3phase_inverter/3phase_inverter/4. Software_WS/OL_VSC_vitor/Libraries/XMCLib/inc\xmc4_scu.h ****   XMC_SCU_PERIPHERAL_CLOCK_ETH0   = (SCU_CLK_CGATSTAT2_ETH0_Msk | 0x20000000UL),     /**< ETH0 peri
 470:F:/Projects/20190909 - 3phase_inverter/3phase_inverter/4. Software_WS/OL_VSC_vitor/Libraries/XMCLib/inc\xmc4_scu.h **** #endif
 471:F:/Projects/20190909 - 3phase_inverter/3phase_inverter/4. Software_WS/OL_VSC_vitor/Libraries/XMCLib/inc\xmc4_scu.h ****   XMC_SCU_PERIPHERAL_CLOCK_GPDMA0 = (SCU_CLK_CGATSTAT2_DMA0_Msk | 0x20000000UL),     /**< DMA0 peri
 472:F:/Projects/20190909 - 3phase_inverter/3phase_inverter/4. Software_WS/OL_VSC_vitor/Libraries/XMCLib/inc\xmc4_scu.h **** #if defined(GPDMA1)
 473:F:/Projects/20190909 - 3phase_inverter/3phase_inverter/4. Software_WS/OL_VSC_vitor/Libraries/XMCLib/inc\xmc4_scu.h ****   XMC_SCU_PERIPHERAL_CLOCK_GPDMA1 = (SCU_CLK_CGATSTAT2_DMA1_Msk | 0x20000000UL),     /**< DMA1 peri
 474:F:/Projects/20190909 - 3phase_inverter/3phase_inverter/4. Software_WS/OL_VSC_vitor/Libraries/XMCLib/inc\xmc4_scu.h **** #endif
 475:F:/Projects/20190909 - 3phase_inverter/3phase_inverter/4. Software_WS/OL_VSC_vitor/Libraries/XMCLib/inc\xmc4_scu.h **** #if defined(FCE)
 476:F:/Projects/20190909 - 3phase_inverter/3phase_inverter/4. Software_WS/OL_VSC_vitor/Libraries/XMCLib/inc\xmc4_scu.h ****   XMC_SCU_PERIPHERAL_CLOCK_FCE    = (SCU_CLK_CGATSTAT2_FCE_Msk | 0x20000000UL),      /**< FCE perip
 477:F:/Projects/20190909 - 3phase_inverter/3phase_inverter/4. Software_WS/OL_VSC_vitor/Libraries/XMCLib/inc\xmc4_scu.h **** #endif  
 478:F:/Projects/20190909 - 3phase_inverter/3phase_inverter/4. Software_WS/OL_VSC_vitor/Libraries/XMCLib/inc\xmc4_scu.h **** #if defined(USB0)
 479:F:/Projects/20190909 - 3phase_inverter/3phase_inverter/4. Software_WS/OL_VSC_vitor/Libraries/XMCLib/inc\xmc4_scu.h ****   XMC_SCU_PERIPHERAL_CLOCK_USB0   = (SCU_CLK_CGATSTAT2_USB_Msk | 0x20000000UL),      /**< USB0 peri
 480:F:/Projects/20190909 - 3phase_inverter/3phase_inverter/4. Software_WS/OL_VSC_vitor/Libraries/XMCLib/inc\xmc4_scu.h **** #endif  
 481:F:/Projects/20190909 - 3phase_inverter/3phase_inverter/4. Software_WS/OL_VSC_vitor/Libraries/XMCLib/inc\xmc4_scu.h **** #if defined(ECAT0)
 482:F:/Projects/20190909 - 3phase_inverter/3phase_inverter/4. Software_WS/OL_VSC_vitor/Libraries/XMCLib/inc\xmc4_scu.h ****   XMC_SCU_PERIPHERAL_CLOCK_ECAT0   = (SCU_CLK_CGATSTAT2_ECAT0_Msk | 0x20000000UL),      /**< ECAT0 
 483:F:/Projects/20190909 - 3phase_inverter/3phase_inverter/4. Software_WS/OL_VSC_vitor/Libraries/XMCLib/inc\xmc4_scu.h **** #endif  
 484:F:/Projects/20190909 - 3phase_inverter/3phase_inverter/4. Software_WS/OL_VSC_vitor/Libraries/XMCLib/inc\xmc4_scu.h **** #if defined(EBU)
 485:F:/Projects/20190909 - 3phase_inverter/3phase_inverter/4. Software_WS/OL_VSC_vitor/Libraries/XMCLib/inc\xmc4_scu.h ****   XMC_SCU_PERIPHERAL_CLOCK_EBU    = (SCU_CLK_CGATSTAT3_EBU_Msk | 0x30000000UL)       /**< EBU perip
 486:F:/Projects/20190909 - 3phase_inverter/3phase_inverter/4. Software_WS/OL_VSC_vitor/Libraries/XMCLib/inc\xmc4_scu.h **** #endif
 487:F:/Projects/20190909 - 3phase_inverter/3phase_inverter/4. Software_WS/OL_VSC_vitor/Libraries/XMCLib/inc\xmc4_scu.h **** } XMC_SCU_PERIPHERAL_CLOCK_t;
 488:F:/Projects/20190909 - 3phase_inverter/3phase_inverter/4. Software_WS/OL_VSC_vitor/Libraries/XMCLib/inc\xmc4_scu.h **** #endif
 489:F:/Projects/20190909 - 3phase_inverter/3phase_inverter/4. Software_WS/OL_VSC_vitor/Libraries/XMCLib/inc\xmc4_scu.h **** 
 490:F:/Projects/20190909 - 3phase_inverter/3phase_inverter/4. Software_WS/OL_VSC_vitor/Libraries/XMCLib/inc\xmc4_scu.h **** /**
 491:F:/Projects/20190909 - 3phase_inverter/3phase_inverter/4. Software_WS/OL_VSC_vitor/Libraries/XMCLib/inc\xmc4_scu.h ****  *  Defines options for system clock (fSYS) source. These enums are used to configure \a SYSSEL bit
 492:F:/Projects/20190909 - 3phase_inverter/3phase_inverter/4. Software_WS/OL_VSC_vitor/Libraries/XMCLib/inc\xmc4_scu.h ****  *  Clock Control Register. 
 493:F:/Projects/20190909 - 3phase_inverter/3phase_inverter/4. Software_WS/OL_VSC_vitor/Libraries/XMCLib/inc\xmc4_scu.h ****  *  Use type \a XMC_SCU_CLOCK_SYSCLKSRC_t for accessing these enum parameters.
 494:F:/Projects/20190909 - 3phase_inverter/3phase_inverter/4. Software_WS/OL_VSC_vitor/Libraries/XMCLib/inc\xmc4_scu.h ****  */ 
 495:F:/Projects/20190909 - 3phase_inverter/3phase_inverter/4. Software_WS/OL_VSC_vitor/Libraries/XMCLib/inc\xmc4_scu.h **** typedef enum XMC_SCU_CLOCK_SYSCLKSRC
 496:F:/Projects/20190909 - 3phase_inverter/3phase_inverter/4. Software_WS/OL_VSC_vitor/Libraries/XMCLib/inc\xmc4_scu.h **** {
 497:F:/Projects/20190909 - 3phase_inverter/3phase_inverter/4. Software_WS/OL_VSC_vitor/Libraries/XMCLib/inc\xmc4_scu.h ****   XMC_SCU_CLOCK_SYSCLKSRC_OFI = (0UL << SCU_CLK_SYSCLKCR_SYSSEL_Pos), /**< Internal Fast Clock (fOF
 498:F:/Projects/20190909 - 3phase_inverter/3phase_inverter/4. Software_WS/OL_VSC_vitor/Libraries/XMCLib/inc\xmc4_scu.h ****                                                                            source for system clock 
 499:F:/Projects/20190909 - 3phase_inverter/3phase_inverter/4. Software_WS/OL_VSC_vitor/Libraries/XMCLib/inc\xmc4_scu.h ****   XMC_SCU_CLOCK_SYSCLKSRC_PLL = (1UL << SCU_CLK_SYSCLKCR_SYSSEL_Pos)  /**< PLL output (fPLL) as a
 500:F:/Projects/20190909 - 3phase_inverter/3phase_inverter/4. Software_WS/OL_VSC_vitor/Libraries/XMCLib/inc\xmc4_scu.h ****                                                                            source for system clock 
 501:F:/Projects/20190909 - 3phase_inverter/3phase_inverter/4. Software_WS/OL_VSC_vitor/Libraries/XMCLib/inc\xmc4_scu.h **** } XMC_SCU_CLOCK_SYSCLKSRC_t;
 502:F:/Projects/20190909 - 3phase_inverter/3phase_inverter/4. Software_WS/OL_VSC_vitor/Libraries/XMCLib/inc\xmc4_scu.h **** 
 503:F:/Projects/20190909 - 3phase_inverter/3phase_inverter/4. Software_WS/OL_VSC_vitor/Libraries/XMCLib/inc\xmc4_scu.h **** /**
 504:F:/Projects/20190909 - 3phase_inverter/3phase_inverter/4. Software_WS/OL_VSC_vitor/Libraries/XMCLib/inc\xmc4_scu.h ****  *  Defines options for selecting the P-Divider input frequency. These enums are used to configure 
 505:F:/Projects/20190909 - 3phase_inverter/3phase_inverter/4. Software_WS/OL_VSC_vitor/Libraries/XMCLib/inc\xmc4_scu.h ****  *  register. 
 506:F:/Projects/20190909 - 3phase_inverter/3phase_inverter/4. Software_WS/OL_VSC_vitor/Libraries/XMCLib/inc\xmc4_scu.h ****  *  Use type \a XMC_SCU_CLOCK_OSCCLKSRC_t for accessing these enum parameters.
 507:F:/Projects/20190909 - 3phase_inverter/3phase_inverter/4. Software_WS/OL_VSC_vitor/Libraries/XMCLib/inc\xmc4_scu.h ****  */ 
 508:F:/Projects/20190909 - 3phase_inverter/3phase_inverter/4. Software_WS/OL_VSC_vitor/Libraries/XMCLib/inc\xmc4_scu.h **** typedef enum XMC_SCU_CLOCK_SYSPLLCLKSRC
 509:F:/Projects/20190909 - 3phase_inverter/3phase_inverter/4. Software_WS/OL_VSC_vitor/Libraries/XMCLib/inc\xmc4_scu.h **** {
 510:F:/Projects/20190909 - 3phase_inverter/3phase_inverter/4. Software_WS/OL_VSC_vitor/Libraries/XMCLib/inc\xmc4_scu.h ****   XMC_SCU_CLOCK_SYSPLLCLKSRC_OSCHP = 0UL,  /**< External crystal oscillator
 511:F:/Projects/20190909 - 3phase_inverter/3phase_inverter/4. Software_WS/OL_VSC_vitor/Libraries/XMCLib/inc\xmc4_scu.h ****                                                 (fOHP) as the source for P-Divider. */
 512:F:/Projects/20190909 - 3phase_inverter/3phase_inverter/4. Software_WS/OL_VSC_vitor/Libraries/XMCLib/inc\xmc4_scu.h ****   XMC_SCU_CLOCK_SYSPLLCLKSRC_OFI = SCU_PLL_PLLCON2_PINSEL_Msk | SCU_PLL_PLLCON2_K1INSEL_Msk /**< Ba
 513:F:/Projects/20190909 - 3phase_inverter/3phase_inverter/4. Software_WS/OL_VSC_vitor/Libraries/XMCLib/inc\xmc4_scu.h ****                                                                              as the source for P-Di
 514:F:/Projects/20190909 - 3phase_inverter/3phase_inverter/4. Software_WS/OL_VSC_vitor/Libraries/XMCLib/inc\xmc4_scu.h **** } XMC_SCU_CLOCK_SYSPLLCLKSRC_t;
 515:F:/Projects/20190909 - 3phase_inverter/3phase_inverter/4. Software_WS/OL_VSC_vitor/Libraries/XMCLib/inc\xmc4_scu.h **** 
 516:F:/Projects/20190909 - 3phase_inverter/3phase_inverter/4. Software_WS/OL_VSC_vitor/Libraries/XMCLib/inc\xmc4_scu.h **** /**
 517:F:/Projects/20190909 - 3phase_inverter/3phase_inverter/4. Software_WS/OL_VSC_vitor/Libraries/XMCLib/inc\xmc4_scu.h ****  * Defines options for selecting the USB clock source(fUSB/fSDMMC).
 518:F:/Projects/20190909 - 3phase_inverter/3phase_inverter/4. Software_WS/OL_VSC_vitor/Libraries/XMCLib/inc\xmc4_scu.h ****  * These enums are used to configure \a USBSEL bits of \a USBCLKCR
 519:F:/Projects/20190909 - 3phase_inverter/3phase_inverter/4. Software_WS/OL_VSC_vitor/Libraries/XMCLib/inc\xmc4_scu.h ****  * register. User can choose either fPLL or fUSBPLL clock as a source for USB clock. 
 520:F:/Projects/20190909 - 3phase_inverter/3phase_inverter/4. Software_WS/OL_VSC_vitor/Libraries/XMCLib/inc\xmc4_scu.h ****  * Use type \a XMC_SCU_CLOCK_USBCLKSRC_t for accessing these enum parameters.
 521:F:/Projects/20190909 - 3phase_inverter/3phase_inverter/4. Software_WS/OL_VSC_vitor/Libraries/XMCLib/inc\xmc4_scu.h ****  */ 
 522:F:/Projects/20190909 - 3phase_inverter/3phase_inverter/4. Software_WS/OL_VSC_vitor/Libraries/XMCLib/inc\xmc4_scu.h **** typedef enum XMC_SCU_CLOCK_USBCLKSRC
 523:F:/Projects/20190909 - 3phase_inverter/3phase_inverter/4. Software_WS/OL_VSC_vitor/Libraries/XMCLib/inc\xmc4_scu.h **** {
 524:F:/Projects/20190909 - 3phase_inverter/3phase_inverter/4. Software_WS/OL_VSC_vitor/Libraries/XMCLib/inc\xmc4_scu.h ****   XMC_SCU_CLOCK_USBCLKSRC_USBPLL = (0UL << SCU_CLK_USBCLKCR_USBSEL_Pos), /**< USB PLL(fUSB PLL) as 
 525:F:/Projects/20190909 - 3phase_inverter/3phase_inverter/4. Software_WS/OL_VSC_vitor/Libraries/XMCLib/inc\xmc4_scu.h ****                                                                            source for USB clock (fU
 526:F:/Projects/20190909 - 3phase_inverter/3phase_inverter/4. Software_WS/OL_VSC_vitor/Libraries/XMCLib/inc\xmc4_scu.h ****   XMC_SCU_CLOCK_USBCLKSRC_SYSPLL = (1UL << SCU_CLK_USBCLKCR_USBSEL_Pos)  /**< Main PLL output (fPLL
 527:F:/Projects/20190909 - 3phase_inverter/3phase_inverter/4. Software_WS/OL_VSC_vitor/Libraries/XMCLib/inc\xmc4_scu.h ****                                                                            source for USB clock (fU
 528:F:/Projects/20190909 - 3phase_inverter/3phase_inverter/4. Software_WS/OL_VSC_vitor/Libraries/XMCLib/inc\xmc4_scu.h **** } XMC_SCU_CLOCK_USBCLKSRC_t;
 529:F:/Projects/20190909 - 3phase_inverter/3phase_inverter/4. Software_WS/OL_VSC_vitor/Libraries/XMCLib/inc\xmc4_scu.h **** 
 530:F:/Projects/20190909 - 3phase_inverter/3phase_inverter/4. Software_WS/OL_VSC_vitor/Libraries/XMCLib/inc\xmc4_scu.h **** #if defined(ECAT0) 
 531:F:/Projects/20190909 - 3phase_inverter/3phase_inverter/4. Software_WS/OL_VSC_vitor/Libraries/XMCLib/inc\xmc4_scu.h **** /**
 532:F:/Projects/20190909 - 3phase_inverter/3phase_inverter/4. Software_WS/OL_VSC_vitor/Libraries/XMCLib/inc\xmc4_scu.h ****  * Defines options for selecting the ECAT clock source.
 533:F:/Projects/20190909 - 3phase_inverter/3phase_inverter/4. Software_WS/OL_VSC_vitor/Libraries/XMCLib/inc\xmc4_scu.h ****  */ 
 534:F:/Projects/20190909 - 3phase_inverter/3phase_inverter/4. Software_WS/OL_VSC_vitor/Libraries/XMCLib/inc\xmc4_scu.h **** typedef enum XMC_SCU_CLOCK_ECATCLKSRC
 535:F:/Projects/20190909 - 3phase_inverter/3phase_inverter/4. Software_WS/OL_VSC_vitor/Libraries/XMCLib/inc\xmc4_scu.h **** {
 536:F:/Projects/20190909 - 3phase_inverter/3phase_inverter/4. Software_WS/OL_VSC_vitor/Libraries/XMCLib/inc\xmc4_scu.h ****   XMC_SCU_CLOCK_ECATCLKSRC_USBPLL = (0UL << SCU_CLK_ECATCLKCR_ECATSEL_Pos), /**< USB PLL (fUSBPLL) 
 537:F:/Projects/20190909 - 3phase_inverter/3phase_inverter/4. Software_WS/OL_VSC_vitor/Libraries/XMCLib/inc\xmc4_scu.h ****   XMC_SCU_CLOCK_ECATCLKSRC_SYSPLL = (1UL << SCU_CLK_ECATCLKCR_ECATSEL_Pos)  /**< Main PLL output (f
 538:F:/Projects/20190909 - 3phase_inverter/3phase_inverter/4. Software_WS/OL_VSC_vitor/Libraries/XMCLib/inc\xmc4_scu.h **** } XMC_SCU_CLOCK_ECATCLKSRC_t;
 539:F:/Projects/20190909 - 3phase_inverter/3phase_inverter/4. Software_WS/OL_VSC_vitor/Libraries/XMCLib/inc\xmc4_scu.h **** #endif
 540:F:/Projects/20190909 - 3phase_inverter/3phase_inverter/4. Software_WS/OL_VSC_vitor/Libraries/XMCLib/inc\xmc4_scu.h **** 
 541:F:/Projects/20190909 - 3phase_inverter/3phase_inverter/4. Software_WS/OL_VSC_vitor/Libraries/XMCLib/inc\xmc4_scu.h **** /**
 542:F:/Projects/20190909 - 3phase_inverter/3phase_inverter/4. Software_WS/OL_VSC_vitor/Libraries/XMCLib/inc\xmc4_scu.h ****  *  Defines options for selecting the source of WDT clock(fWDT). These enums are used to configure 
 543:F:/Projects/20190909 - 3phase_inverter/3phase_inverter/4. Software_WS/OL_VSC_vitor/Libraries/XMCLib/inc\xmc4_scu.h ****  *  register. User can choose either fOFI or fPLL or fSTDBY clock as a source for WDT clock. 
 544:F:/Projects/20190909 - 3phase_inverter/3phase_inverter/4. Software_WS/OL_VSC_vitor/Libraries/XMCLib/inc\xmc4_scu.h ****  *  Use type \a XMC_SCU_CLOCK_USBCLKSRC_t for accessing these enum parameters.
 545:F:/Projects/20190909 - 3phase_inverter/3phase_inverter/4. Software_WS/OL_VSC_vitor/Libraries/XMCLib/inc\xmc4_scu.h ****  */ 
 546:F:/Projects/20190909 - 3phase_inverter/3phase_inverter/4. Software_WS/OL_VSC_vitor/Libraries/XMCLib/inc\xmc4_scu.h **** typedef enum XMC_SCU_CLOCK_WDTCLKSRC
 547:F:/Projects/20190909 - 3phase_inverter/3phase_inverter/4. Software_WS/OL_VSC_vitor/Libraries/XMCLib/inc\xmc4_scu.h **** {
 548:F:/Projects/20190909 - 3phase_inverter/3phase_inverter/4. Software_WS/OL_VSC_vitor/Libraries/XMCLib/inc\xmc4_scu.h ****   XMC_SCU_CLOCK_WDTCLKSRC_OFI = (0UL << SCU_CLK_WDTCLKCR_WDTSEL_Pos),  /**< Internal Fast Clock 
 549:F:/Projects/20190909 - 3phase_inverter/3phase_inverter/4. Software_WS/OL_VSC_vitor/Libraries/XMCLib/inc\xmc4_scu.h ****                                                                            (fOFI) as the source for
 550:F:/Projects/20190909 - 3phase_inverter/3phase_inverter/4. Software_WS/OL_VSC_vitor/Libraries/XMCLib/inc\xmc4_scu.h ****   XMC_SCU_CLOCK_WDTCLKSRC_STDBY = (1UL << SCU_CLK_WDTCLKCR_WDTSEL_Pos), /**< Standby clock 
 551:F:/Projects/20190909 - 3phase_inverter/3phase_inverter/4. Software_WS/OL_VSC_vitor/Libraries/XMCLib/inc\xmc4_scu.h ****                                                                            (fSTDBY) as the source f
 552:F:/Projects/20190909 - 3phase_inverter/3phase_inverter/4. Software_WS/OL_VSC_vitor/Libraries/XMCLib/inc\xmc4_scu.h ****   XMC_SCU_CLOCK_WDTCLKSRC_PLL = (2UL << SCU_CLK_WDTCLKCR_WDTSEL_Pos)   /**< PLL output (fPLL) as th
 553:F:/Projects/20190909 - 3phase_inverter/3phase_inverter/4. Software_WS/OL_VSC_vitor/Libraries/XMCLib/inc\xmc4_scu.h ****                                                                            source for WDT clock (fW
 554:F:/Projects/20190909 - 3phase_inverter/3phase_inverter/4. Software_WS/OL_VSC_vitor/Libraries/XMCLib/inc\xmc4_scu.h **** } XMC_SCU_CLOCK_WDTCLKSRC_t;
 555:F:/Projects/20190909 - 3phase_inverter/3phase_inverter/4. Software_WS/OL_VSC_vitor/Libraries/XMCLib/inc\xmc4_scu.h **** 
 556:F:/Projects/20190909 - 3phase_inverter/3phase_inverter/4. Software_WS/OL_VSC_vitor/Libraries/XMCLib/inc\xmc4_scu.h **** /**
 557:F:/Projects/20190909 - 3phase_inverter/3phase_inverter/4. Software_WS/OL_VSC_vitor/Libraries/XMCLib/inc\xmc4_scu.h ****  *  Defines options for selecting the source of external clock out (fEXT). These enums are used to 
 558:F:/Projects/20190909 - 3phase_inverter/3phase_inverter/4. Software_WS/OL_VSC_vitor/Libraries/XMCLib/inc\xmc4_scu.h ****  *  register. User can choose either fSYS or fPLL or fUSBPLL clock as a source for external clock o
 559:F:/Projects/20190909 - 3phase_inverter/3phase_inverter/4. Software_WS/OL_VSC_vitor/Libraries/XMCLib/inc\xmc4_scu.h ****  *  Use type \a XMC_SCU_CLOCK_EXTOUTCLKSRC_t for accessing these enum parameters.
 560:F:/Projects/20190909 - 3phase_inverter/3phase_inverter/4. Software_WS/OL_VSC_vitor/Libraries/XMCLib/inc\xmc4_scu.h ****  */ 
 561:F:/Projects/20190909 - 3phase_inverter/3phase_inverter/4. Software_WS/OL_VSC_vitor/Libraries/XMCLib/inc\xmc4_scu.h **** typedef enum XMC_SCU_CLOCK_EXTOUTCLKSRC
 562:F:/Projects/20190909 - 3phase_inverter/3phase_inverter/4. Software_WS/OL_VSC_vitor/Libraries/XMCLib/inc\xmc4_scu.h **** {
 563:F:/Projects/20190909 - 3phase_inverter/3phase_inverter/4. Software_WS/OL_VSC_vitor/Libraries/XMCLib/inc\xmc4_scu.h ****   XMC_SCU_CLOCK_EXTOUTCLKSRC_SYS = (0UL << SCU_CLK_EXTCLKCR_ECKSEL_Pos),  /**< System clock (fSYS) 
 564:F:/Projects/20190909 - 3phase_inverter/3phase_inverter/4. Software_WS/OL_VSC_vitor/Libraries/XMCLib/inc\xmc4_scu.h ****                                                                             the source for external
 565:F:/Projects/20190909 - 3phase_inverter/3phase_inverter/4. Software_WS/OL_VSC_vitor/Libraries/XMCLib/inc\xmc4_scu.h ****   XMC_SCU_CLOCK_EXTOUTCLKSRC_USB = (2UL << SCU_CLK_EXTCLKCR_ECKSEL_Pos), /**< USB PLL output(fUSB P
 566:F:/Projects/20190909 - 3phase_inverter/3phase_inverter/4. Software_WS/OL_VSC_vitor/Libraries/XMCLib/inc\xmc4_scu.h ****                                                                            source for external cloc
 567:F:/Projects/20190909 - 3phase_inverter/3phase_inverter/4. Software_WS/OL_VSC_vitor/Libraries/XMCLib/inc\xmc4_scu.h ****   XMC_SCU_CLOCK_EXTOUTCLKSRC_PLL = (3UL << SCU_CLK_EXTCLKCR_ECKSEL_Pos), /**< Main PLL output(fPLL)
 568:F:/Projects/20190909 - 3phase_inverter/3phase_inverter/4. Software_WS/OL_VSC_vitor/Libraries/XMCLib/inc\xmc4_scu.h ****                                                                            source for external cloc
 569:F:/Projects/20190909 - 3phase_inverter/3phase_inverter/4. Software_WS/OL_VSC_vitor/Libraries/XMCLib/inc\xmc4_scu.h **** #if ((UC_SERIES == XMC42) || (UC_SERIES == XMC41))
 570:F:/Projects/20190909 - 3phase_inverter/3phase_inverter/4. Software_WS/OL_VSC_vitor/Libraries/XMCLib/inc\xmc4_scu.h ****   XMC_SCU_CLOCK_EXTOUTCLKSRC_STDBY = (4UL << SCU_CLK_EXTCLKCR_ECKSEL_Pos), /**< Standby clock(fSTDB
 571:F:/Projects/20190909 - 3phase_inverter/3phase_inverter/4. Software_WS/OL_VSC_vitor/Libraries/XMCLib/inc\xmc4_scu.h ****                                                                            source for external cloc
 572:F:/Projects/20190909 - 3phase_inverter/3phase_inverter/4. Software_WS/OL_VSC_vitor/Libraries/XMCLib/inc\xmc4_scu.h **** #endif
 573:F:/Projects/20190909 - 3phase_inverter/3phase_inverter/4. Software_WS/OL_VSC_vitor/Libraries/XMCLib/inc\xmc4_scu.h **** } XMC_SCU_CLOCK_EXTOUTCLKSRC_t;
 574:F:/Projects/20190909 - 3phase_inverter/3phase_inverter/4. Software_WS/OL_VSC_vitor/Libraries/XMCLib/inc\xmc4_scu.h **** 
 575:F:/Projects/20190909 - 3phase_inverter/3phase_inverter/4. Software_WS/OL_VSC_vitor/Libraries/XMCLib/inc\xmc4_scu.h **** /**
 576:F:/Projects/20190909 - 3phase_inverter/3phase_inverter/4. Software_WS/OL_VSC_vitor/Libraries/XMCLib/inc\xmc4_scu.h ****  *  Defines options for selecting the source of RTC Clock (fRTC). These enums are used to configure
 577:F:/Projects/20190909 - 3phase_inverter/3phase_inverter/4. Software_WS/OL_VSC_vitor/Libraries/XMCLib/inc\xmc4_scu.h ****  *  User can choose either fOSI or fULP clock as a source for RTC Clock (fRTC).
 578:F:/Projects/20190909 - 3phase_inverter/3phase_inverter/4. Software_WS/OL_VSC_vitor/Libraries/XMCLib/inc\xmc4_scu.h ****  *  Use type \a XMC_SCU_HIB_RTCCLKSRC_t for accessing these enum parameters.
 579:F:/Projects/20190909 - 3phase_inverter/3phase_inverter/4. Software_WS/OL_VSC_vitor/Libraries/XMCLib/inc\xmc4_scu.h ****  */
 580:F:/Projects/20190909 - 3phase_inverter/3phase_inverter/4. Software_WS/OL_VSC_vitor/Libraries/XMCLib/inc\xmc4_scu.h **** typedef enum XMC_SCU_HIB_RTCCLKSRC
 581:F:/Projects/20190909 - 3phase_inverter/3phase_inverter/4. Software_WS/OL_VSC_vitor/Libraries/XMCLib/inc\xmc4_scu.h **** {
 582:F:/Projects/20190909 - 3phase_inverter/3phase_inverter/4. Software_WS/OL_VSC_vitor/Libraries/XMCLib/inc\xmc4_scu.h ****   XMC_SCU_HIB_RTCCLKSRC_OSI = (0UL << SCU_HIBERNATE_HDCR_RCS_Pos), /**< Internal Slow Clock
 583:F:/Projects/20190909 - 3phase_inverter/3phase_inverter/4. Software_WS/OL_VSC_vitor/Libraries/XMCLib/inc\xmc4_scu.h ****                                                                          (fOSI) as the source for R
 584:F:/Projects/20190909 - 3phase_inverter/3phase_inverter/4. Software_WS/OL_VSC_vitor/Libraries/XMCLib/inc\xmc4_scu.h ****   XMC_SCU_HIB_RTCCLKSRC_ULP = (1UL << SCU_HIBERNATE_HDCR_RCS_Pos) /**< Ultra Low Power Clock (fULP)
 585:F:/Projects/20190909 - 3phase_inverter/3phase_inverter/4. Software_WS/OL_VSC_vitor/Libraries/XMCLib/inc\xmc4_scu.h ****                                                                         as the source for RTC Clock
 586:F:/Projects/20190909 - 3phase_inverter/3phase_inverter/4. Software_WS/OL_VSC_vitor/Libraries/XMCLib/inc\xmc4_scu.h **** } XMC_SCU_HIB_RTCCLKSRC_t;
 587:F:/Projects/20190909 - 3phase_inverter/3phase_inverter/4. Software_WS/OL_VSC_vitor/Libraries/XMCLib/inc\xmc4_scu.h **** 
 588:F:/Projects/20190909 - 3phase_inverter/3phase_inverter/4. Software_WS/OL_VSC_vitor/Libraries/XMCLib/inc\xmc4_scu.h **** /**
 589:F:/Projects/20190909 - 3phase_inverter/3phase_inverter/4. Software_WS/OL_VSC_vitor/Libraries/XMCLib/inc\xmc4_scu.h ****  *  Defines options for selecting the source of Standby Clock (fSTDBY). These enums are used to con
 590:F:/Projects/20190909 - 3phase_inverter/3phase_inverter/4. Software_WS/OL_VSC_vitor/Libraries/XMCLib/inc\xmc4_scu.h ****  *  register. User can choose either fOSI or fULP clock as a source for Standby Clock (fSTDBY).
 591:F:/Projects/20190909 - 3phase_inverter/3phase_inverter/4. Software_WS/OL_VSC_vitor/Libraries/XMCLib/inc\xmc4_scu.h ****  *  Use type \a XMC_SCU_HIB_STDBYCLKSRC_t for accessing these enum parameters.
 592:F:/Projects/20190909 - 3phase_inverter/3phase_inverter/4. Software_WS/OL_VSC_vitor/Libraries/XMCLib/inc\xmc4_scu.h ****  */
 593:F:/Projects/20190909 - 3phase_inverter/3phase_inverter/4. Software_WS/OL_VSC_vitor/Libraries/XMCLib/inc\xmc4_scu.h **** typedef enum XMC_SCU_HIB_STDBYCLKSRC
 594:F:/Projects/20190909 - 3phase_inverter/3phase_inverter/4. Software_WS/OL_VSC_vitor/Libraries/XMCLib/inc\xmc4_scu.h **** {
 595:F:/Projects/20190909 - 3phase_inverter/3phase_inverter/4. Software_WS/OL_VSC_vitor/Libraries/XMCLib/inc\xmc4_scu.h ****   XMC_SCU_HIB_STDBYCLKSRC_OSI = (0UL << SCU_HIBERNATE_HDCR_STDBYSEL_Pos), /**< Internal Slow Clock 
 596:F:/Projects/20190909 - 3phase_inverter/3phase_inverter/4. Software_WS/OL_VSC_vitor/Libraries/XMCLib/inc\xmc4_scu.h ****                                                                           (fOSI) as the source for 
 597:F:/Projects/20190909 - 3phase_inverter/3phase_inverter/4. Software_WS/OL_VSC_vitor/Libraries/XMCLib/inc\xmc4_scu.h ****                                                                           (fSTDBY). */
 598:F:/Projects/20190909 - 3phase_inverter/3phase_inverter/4. Software_WS/OL_VSC_vitor/Libraries/XMCLib/inc\xmc4_scu.h ****   XMC_SCU_HIB_STDBYCLKSRC_OSCULP = (1UL << SCU_HIBERNATE_HDCR_STDBYSEL_Pos) /**< Ultra Low Power Cl
 599:F:/Projects/20190909 - 3phase_inverter/3phase_inverter/4. Software_WS/OL_VSC_vitor/Libraries/XMCLib/inc\xmc4_scu.h ****                                                                           (fULP) as the source for 
 600:F:/Projects/20190909 - 3phase_inverter/3phase_inverter/4. Software_WS/OL_VSC_vitor/Libraries/XMCLib/inc\xmc4_scu.h ****                                                                           (fSTDBY). */
 601:F:/Projects/20190909 - 3phase_inverter/3phase_inverter/4. Software_WS/OL_VSC_vitor/Libraries/XMCLib/inc\xmc4_scu.h **** } XMC_SCU_HIB_STDBYCLKSRC_t;
 602:F:/Projects/20190909 - 3phase_inverter/3phase_inverter/4. Software_WS/OL_VSC_vitor/Libraries/XMCLib/inc\xmc4_scu.h **** 
 603:F:/Projects/20190909 - 3phase_inverter/3phase_inverter/4. Software_WS/OL_VSC_vitor/Libraries/XMCLib/inc\xmc4_scu.h **** /**
 604:F:/Projects/20190909 - 3phase_inverter/3phase_inverter/4. Software_WS/OL_VSC_vitor/Libraries/XMCLib/inc\xmc4_scu.h ****  *  Defines options for backup clock trimming. These enums are used to configure \a AOTREN  \a FOTR
 605:F:/Projects/20190909 - 3phase_inverter/3phase_inverter/4. Software_WS/OL_VSC_vitor/Libraries/XMCLib/inc\xmc4_scu.h ****  *  PLLCON0 register. Use type \a XMC_SCU_CLOCK_BACKUP_TRIM_t for accessing these enum parameters.
 606:F:/Projects/20190909 - 3phase_inverter/3phase_inverter/4. Software_WS/OL_VSC_vitor/Libraries/XMCLib/inc\xmc4_scu.h ****  */
 607:F:/Projects/20190909 - 3phase_inverter/3phase_inverter/4. Software_WS/OL_VSC_vitor/Libraries/XMCLib/inc\xmc4_scu.h **** typedef enum XMC_SCU_CLOCK_FOFI_CALIBRATION_MODE
 608:F:/Projects/20190909 - 3phase_inverter/3phase_inverter/4. Software_WS/OL_VSC_vitor/Libraries/XMCLib/inc\xmc4_scu.h **** {
 609:F:/Projects/20190909 - 3phase_inverter/3phase_inverter/4. Software_WS/OL_VSC_vitor/Libraries/XMCLib/inc\xmc4_scu.h ****   XMC_SCU_CLOCK_FOFI_CALIBRATION_MODE_FACTORY   = 0UL,  /**< Factory Oscillator Calibration: 
 610:F:/Projects/20190909 - 3phase_inverter/3phase_inverter/4. Software_WS/OL_VSC_vitor/Libraries/XMCLib/inc\xmc4_scu.h ****                                                         Force adjustment of the internal oscillator
 611:F:/Projects/20190909 - 3phase_inverter/3phase_inverter/4. Software_WS/OL_VSC_vitor/Libraries/XMCLib/inc\xmc4_scu.h ****   XMC_SCU_CLOCK_FOFI_CALIBRATION_MODE_AUTOMATIC = 1UL   /**<  Automatic Oscillator Calibration adju
 612:F:/Projects/20190909 - 3phase_inverter/3phase_inverter/4. Software_WS/OL_VSC_vitor/Libraries/XMCLib/inc\xmc4_scu.h **** } XMC_SCU_CLOCK_FOFI_CALIBRATION_MODE_t;
 613:F:/Projects/20190909 - 3phase_inverter/3phase_inverter/4. Software_WS/OL_VSC_vitor/Libraries/XMCLib/inc\xmc4_scu.h **** 
 614:F:/Projects/20190909 - 3phase_inverter/3phase_inverter/4. Software_WS/OL_VSC_vitor/Libraries/XMCLib/inc\xmc4_scu.h **** 
 615:F:/Projects/20190909 - 3phase_inverter/3phase_inverter/4. Software_WS/OL_VSC_vitor/Libraries/XMCLib/inc\xmc4_scu.h **** /**
 616:F:/Projects/20190909 - 3phase_inverter/3phase_inverter/4. Software_WS/OL_VSC_vitor/Libraries/XMCLib/inc\xmc4_scu.h ****  *  Defines options for selecting device boot mode. These enums are used to configure \a SWCON bits
 617:F:/Projects/20190909 - 3phase_inverter/3phase_inverter/4. Software_WS/OL_VSC_vitor/Libraries/XMCLib/inc\xmc4_scu.h ****  *  User can choose among various boot modes by configuring SWCON bits.
 618:F:/Projects/20190909 - 3phase_inverter/3phase_inverter/4. Software_WS/OL_VSC_vitor/Libraries/XMCLib/inc\xmc4_scu.h ****  *  Use type \a XMC_SCU_BOOTMODE_t for accessing these enum parameters.
 619:F:/Projects/20190909 - 3phase_inverter/3phase_inverter/4. Software_WS/OL_VSC_vitor/Libraries/XMCLib/inc\xmc4_scu.h ****  */
 620:F:/Projects/20190909 - 3phase_inverter/3phase_inverter/4. Software_WS/OL_VSC_vitor/Libraries/XMCLib/inc\xmc4_scu.h **** typedef enum XMC_SCU_BOOTMODE 
 621:F:/Projects/20190909 - 3phase_inverter/3phase_inverter/4. Software_WS/OL_VSC_vitor/Libraries/XMCLib/inc\xmc4_scu.h **** {
 622:F:/Projects/20190909 - 3phase_inverter/3phase_inverter/4. Software_WS/OL_VSC_vitor/Libraries/XMCLib/inc\xmc4_scu.h ****   XMC_SCU_BOOTMODE_NORMAL     = (0UL << SCU_GENERAL_STCON_SWCON_Pos), /**< Boot from start of flash
 623:F:/Projects/20190909 - 3phase_inverter/3phase_inverter/4. Software_WS/OL_VSC_vitor/Libraries/XMCLib/inc\xmc4_scu.h ****   XMC_SCU_BOOTMODE_ASC_BSL    = (1UL << SCU_GENERAL_STCON_SWCON_Pos), /**< UART bootstrap. */
 624:F:/Projects/20190909 - 3phase_inverter/3phase_inverter/4. Software_WS/OL_VSC_vitor/Libraries/XMCLib/inc\xmc4_scu.h ****   XMC_SCU_BOOTMODE_BMI        = (2UL << SCU_GENERAL_STCON_SWCON_Pos), /**< Boot Mode Index - Custom
 625:F:/Projects/20190909 - 3phase_inverter/3phase_inverter/4. Software_WS/OL_VSC_vitor/Libraries/XMCLib/inc\xmc4_scu.h ****                                                                            sequence. */
 626:F:/Projects/20190909 - 3phase_inverter/3phase_inverter/4. Software_WS/OL_VSC_vitor/Libraries/XMCLib/inc\xmc4_scu.h ****   XMC_SCU_BOOTMODE_CAN_BSL    = (3UL << SCU_GENERAL_STCON_SWCON_Pos), /**< CAN bootstrap. */
 627:F:/Projects/20190909 - 3phase_inverter/3phase_inverter/4. Software_WS/OL_VSC_vitor/Libraries/XMCLib/inc\xmc4_scu.h ****   XMC_SCU_BOOTMODE_PSRAM_BOOT = (4UL << SCU_GENERAL_STCON_SWCON_Pos), /**< Boot from PSRAM. */
 628:F:/Projects/20190909 - 3phase_inverter/3phase_inverter/4. Software_WS/OL_VSC_vitor/Libraries/XMCLib/inc\xmc4_scu.h ****   XMC_SCU_BOOTMODE_ABM0       = (8UL << SCU_GENERAL_STCON_SWCON_Pos), /**< Boot from flash - fixed 
 629:F:/Projects/20190909 - 3phase_inverter/3phase_inverter/4. Software_WS/OL_VSC_vitor/Libraries/XMCLib/inc\xmc4_scu.h ****                                                                            address 0. */
 630:F:/Projects/20190909 - 3phase_inverter/3phase_inverter/4. Software_WS/OL_VSC_vitor/Libraries/XMCLib/inc\xmc4_scu.h ****   XMC_SCU_BOOTMODE_ABM1       = (12UL << SCU_GENERAL_STCON_SWCON_Pos), /**< Boot from flash - fixed
 631:F:/Projects/20190909 - 3phase_inverter/3phase_inverter/4. Software_WS/OL_VSC_vitor/Libraries/XMCLib/inc\xmc4_scu.h ****                                                                             address 1. */
 632:F:/Projects/20190909 - 3phase_inverter/3phase_inverter/4. Software_WS/OL_VSC_vitor/Libraries/XMCLib/inc\xmc4_scu.h ****   XMC_SCU_BOOTMODE_FABM       = (14UL << SCU_GENERAL_STCON_SWCON_Pos), /**< fallback Alternate Boot
 633:F:/Projects/20190909 - 3phase_inverter/3phase_inverter/4. Software_WS/OL_VSC_vitor/Libraries/XMCLib/inc\xmc4_scu.h ****                                                                             Try ABM-0 then try ABM-
 634:F:/Projects/20190909 - 3phase_inverter/3phase_inverter/4. Software_WS/OL_VSC_vitor/Libraries/XMCLib/inc\xmc4_scu.h **** } XMC_SCU_BOOTMODE_t;
 635:F:/Projects/20190909 - 3phase_inverter/3phase_inverter/4. Software_WS/OL_VSC_vitor/Libraries/XMCLib/inc\xmc4_scu.h **** 
 636:F:/Projects/20190909 - 3phase_inverter/3phase_inverter/4. Software_WS/OL_VSC_vitor/Libraries/XMCLib/inc\xmc4_scu.h **** 
 637:F:/Projects/20190909 - 3phase_inverter/3phase_inverter/4. Software_WS/OL_VSC_vitor/Libraries/XMCLib/inc\xmc4_scu.h **** /**
 638:F:/Projects/20190909 - 3phase_inverter/3phase_inverter/4. Software_WS/OL_VSC_vitor/Libraries/XMCLib/inc\xmc4_scu.h ****  *  Defines various PLL modes of operation. These enums are used to configure \a VCOBYP bit of \a P
 639:F:/Projects/20190909 - 3phase_inverter/3phase_inverter/4. Software_WS/OL_VSC_vitor/Libraries/XMCLib/inc\xmc4_scu.h ****  *  User can choose either normal or prescalar mode by configuring VCOBYP bit.
 640:F:/Projects/20190909 - 3phase_inverter/3phase_inverter/4. Software_WS/OL_VSC_vitor/Libraries/XMCLib/inc\xmc4_scu.h ****  *  Use type \a XMC_SCU_PLL_MODE_t for accessing these enum parameters.
 641:F:/Projects/20190909 - 3phase_inverter/3phase_inverter/4. Software_WS/OL_VSC_vitor/Libraries/XMCLib/inc\xmc4_scu.h ****  */
 642:F:/Projects/20190909 - 3phase_inverter/3phase_inverter/4. Software_WS/OL_VSC_vitor/Libraries/XMCLib/inc\xmc4_scu.h **** typedef enum XMC_SCU_CLOCK_SYSPLL_MODE
 643:F:/Projects/20190909 - 3phase_inverter/3phase_inverter/4. Software_WS/OL_VSC_vitor/Libraries/XMCLib/inc\xmc4_scu.h **** {
 644:F:/Projects/20190909 - 3phase_inverter/3phase_inverter/4. Software_WS/OL_VSC_vitor/Libraries/XMCLib/inc\xmc4_scu.h ****   XMC_SCU_CLOCK_SYSPLL_MODE_DISABLED, /**< fPLL derived from fOSC and PLL operating in prescalar mo
 645:F:/Projects/20190909 - 3phase_inverter/3phase_inverter/4. Software_WS/OL_VSC_vitor/Libraries/XMCLib/inc\xmc4_scu.h ****   XMC_SCU_CLOCK_SYSPLL_MODE_NORMAL,  /**< fPLL derived from fVCO and PLL operating in normal mode. 
 646:F:/Projects/20190909 - 3phase_inverter/3phase_inverter/4. Software_WS/OL_VSC_vitor/Libraries/XMCLib/inc\xmc4_scu.h ****   XMC_SCU_CLOCK_SYSPLL_MODE_PRESCALAR /**< fPLL derived from fOSC and PLL operating in prescalar mo
 647:F:/Projects/20190909 - 3phase_inverter/3phase_inverter/4. Software_WS/OL_VSC_vitor/Libraries/XMCLib/inc\xmc4_scu.h **** } XMC_SCU_CLOCK_SYSPLL_MODE_t;
 648:F:/Projects/20190909 - 3phase_inverter/3phase_inverter/4. Software_WS/OL_VSC_vitor/Libraries/XMCLib/inc\xmc4_scu.h **** 
 649:F:/Projects/20190909 - 3phase_inverter/3phase_inverter/4. Software_WS/OL_VSC_vitor/Libraries/XMCLib/inc\xmc4_scu.h **** /** 
 650:F:/Projects/20190909 - 3phase_inverter/3phase_inverter/4. Software_WS/OL_VSC_vitor/Libraries/XMCLib/inc\xmc4_scu.h ****  *  Defines the source of the system clock and peripherals clock gating in SLEEP state.
 651:F:/Projects/20190909 - 3phase_inverter/3phase_inverter/4. Software_WS/OL_VSC_vitor/Libraries/XMCLib/inc\xmc4_scu.h ****  *  Use this enum as parameter of XMC_SCU_CLOCK_SetSleepConfig before going to SLEEP state.
 652:F:/Projects/20190909 - 3phase_inverter/3phase_inverter/4. Software_WS/OL_VSC_vitor/Libraries/XMCLib/inc\xmc4_scu.h ****  *
 653:F:/Projects/20190909 - 3phase_inverter/3phase_inverter/4. Software_WS/OL_VSC_vitor/Libraries/XMCLib/inc\xmc4_scu.h ****  *  The SLEEP state of the system corresponds to the SLEEP state of the CPU. The state is
 654:F:/Projects/20190909 - 3phase_inverter/3phase_inverter/4. Software_WS/OL_VSC_vitor/Libraries/XMCLib/inc\xmc4_scu.h ****  *  entered via WFI or WFE instruction of the CPU. In this state the clock to the CPU is
 655:F:/Projects/20190909 - 3phase_inverter/3phase_inverter/4. Software_WS/OL_VSC_vitor/Libraries/XMCLib/inc\xmc4_scu.h ****  *  stopped. Peripherals are only clocked when configured to stay enabled. 
 656:F:/Projects/20190909 - 3phase_inverter/3phase_inverter/4. Software_WS/OL_VSC_vitor/Libraries/XMCLib/inc\xmc4_scu.h ****  *
 657:F:/Projects/20190909 - 3phase_inverter/3phase_inverter/4. Software_WS/OL_VSC_vitor/Libraries/XMCLib/inc\xmc4_scu.h ****  *  Peripherals can continue to operate unaffected and eventually generate an event to
 658:F:/Projects/20190909 - 3phase_inverter/3phase_inverter/4. Software_WS/OL_VSC_vitor/Libraries/XMCLib/inc\xmc4_scu.h ****  *  wake-up the CPU. Any interrupt to the NVIC will bring the CPU back to operation. The
 659:F:/Projects/20190909 - 3phase_inverter/3phase_inverter/4. Software_WS/OL_VSC_vitor/Libraries/XMCLib/inc\xmc4_scu.h ****  *  clock tree upon exit from SLEEP state is restored to what it was before entry into SLEEP
 660:F:/Projects/20190909 - 3phase_inverter/3phase_inverter/4. Software_WS/OL_VSC_vitor/Libraries/XMCLib/inc\xmc4_scu.h ****  *  state.
 661:F:/Projects/20190909 - 3phase_inverter/3phase_inverter/4. Software_WS/OL_VSC_vitor/Libraries/XMCLib/inc\xmc4_scu.h ****  *  
 662:F:/Projects/20190909 - 3phase_inverter/3phase_inverter/4. Software_WS/OL_VSC_vitor/Libraries/XMCLib/inc\xmc4_scu.h ****  */
 663:F:/Projects/20190909 - 3phase_inverter/3phase_inverter/4. Software_WS/OL_VSC_vitor/Libraries/XMCLib/inc\xmc4_scu.h **** typedef enum XMC_SCU_CLOCK_SLEEP_MODE_CONFIG
 664:F:/Projects/20190909 - 3phase_inverter/3phase_inverter/4. Software_WS/OL_VSC_vitor/Libraries/XMCLib/inc\xmc4_scu.h **** {
 665:F:/Projects/20190909 - 3phase_inverter/3phase_inverter/4. Software_WS/OL_VSC_vitor/Libraries/XMCLib/inc\xmc4_scu.h ****   XMC_SCU_CLOCK_SLEEP_MODE_CONFIG_SYSCLK_FOFI = 0,  /**< fOFI used as system clock source in SLEEP 
 666:F:/Projects/20190909 - 3phase_inverter/3phase_inverter/4. Software_WS/OL_VSC_vitor/Libraries/XMCLib/inc\xmc4_scu.h ****   XMC_SCU_CLOCK_SLEEP_MODE_CONFIG_SYSCLK_FPLL = SCU_CLK_SLEEPCR_SYSSEL_Msk,  /**< fPLL used as syst
 667:F:/Projects/20190909 - 3phase_inverter/3phase_inverter/4. Software_WS/OL_VSC_vitor/Libraries/XMCLib/inc\xmc4_scu.h **** #if defined(USB0)
 668:F:/Projects/20190909 - 3phase_inverter/3phase_inverter/4. Software_WS/OL_VSC_vitor/Libraries/XMCLib/inc\xmc4_scu.h ****   XMC_SCU_CLOCK_SLEEP_MODE_CONFIG_DISABLE_USB = 0,  /**< USB clock disabled in SLEEP state */
 669:F:/Projects/20190909 - 3phase_inverter/3phase_inverter/4. Software_WS/OL_VSC_vitor/Libraries/XMCLib/inc\xmc4_scu.h ****   XMC_SCU_CLOCK_SLEEP_MODE_CONFIG_ENABLE_USB = SCU_CLK_SLEEPCR_USBCR_Msk,  /**< USB clock enabled i
 670:F:/Projects/20190909 - 3phase_inverter/3phase_inverter/4. Software_WS/OL_VSC_vitor/Libraries/XMCLib/inc\xmc4_scu.h **** #endif  
 671:F:/Projects/20190909 - 3phase_inverter/3phase_inverter/4. Software_WS/OL_VSC_vitor/Libraries/XMCLib/inc\xmc4_scu.h **** #if defined(SDMMC)
 672:F:/Projects/20190909 - 3phase_inverter/3phase_inverter/4. Software_WS/OL_VSC_vitor/Libraries/XMCLib/inc\xmc4_scu.h ****   XMC_SCU_CLOCK_SLEEP_MODE_CONFIG_DISABLE_SDMMC = 0,/**< SDMMC clock disabled in SLEEP state */
 673:F:/Projects/20190909 - 3phase_inverter/3phase_inverter/4. Software_WS/OL_VSC_vitor/Libraries/XMCLib/inc\xmc4_scu.h ****   XMC_SCU_CLOCK_SLEEP_MODE_CONFIG_ENABLE_SDMMC = SCU_CLK_SLEEPCR_MMCCR_Msk,/**< SDMMC clock enabled
 674:F:/Projects/20190909 - 3phase_inverter/3phase_inverter/4. Software_WS/OL_VSC_vitor/Libraries/XMCLib/inc\xmc4_scu.h **** #endif  
 675:F:/Projects/20190909 - 3phase_inverter/3phase_inverter/4. Software_WS/OL_VSC_vitor/Libraries/XMCLib/inc\xmc4_scu.h **** #if defined(ETH0)
 676:F:/Projects/20190909 - 3phase_inverter/3phase_inverter/4. Software_WS/OL_VSC_vitor/Libraries/XMCLib/inc\xmc4_scu.h ****   XMC_SCU_CLOCK_SLEEP_MODE_CONFIG_DISABLE_ETH = 0,  /**< ETH clock disabled in SLEEP state */
 677:F:/Projects/20190909 - 3phase_inverter/3phase_inverter/4. Software_WS/OL_VSC_vitor/Libraries/XMCLib/inc\xmc4_scu.h ****   XMC_SCU_CLOCK_SLEEP_MODE_CONFIG_ENABLE_ETH = SCU_CLK_SLEEPCR_ETH0CR_Msk,  /**< ETH clock enabled 
 678:F:/Projects/20190909 - 3phase_inverter/3phase_inverter/4. Software_WS/OL_VSC_vitor/Libraries/XMCLib/inc\xmc4_scu.h **** #endif  
 679:F:/Projects/20190909 - 3phase_inverter/3phase_inverter/4. Software_WS/OL_VSC_vitor/Libraries/XMCLib/inc\xmc4_scu.h **** #if defined(EBU)
 680:F:/Projects/20190909 - 3phase_inverter/3phase_inverter/4. Software_WS/OL_VSC_vitor/Libraries/XMCLib/inc\xmc4_scu.h ****   XMC_SCU_CLOCK_SLEEP_MODE_CONFIG_DISABLE_EBU = 0,  /**< EBU clock disabled in SLEEP state */
 681:F:/Projects/20190909 - 3phase_inverter/3phase_inverter/4. Software_WS/OL_VSC_vitor/Libraries/XMCLib/inc\xmc4_scu.h ****   XMC_SCU_CLOCK_SLEEP_MODE_CONFIG_ENABLE_EBU = SCU_CLK_SLEEPCR_EBUCR_Msk,  /**< EBU clock enabled i
 682:F:/Projects/20190909 - 3phase_inverter/3phase_inverter/4. Software_WS/OL_VSC_vitor/Libraries/XMCLib/inc\xmc4_scu.h **** #endif  
 683:F:/Projects/20190909 - 3phase_inverter/3phase_inverter/4. Software_WS/OL_VSC_vitor/Libraries/XMCLib/inc\xmc4_scu.h ****   XMC_SCU_CLOCK_SLEEP_MODE_CONFIG_DISABLED_CCU = 0,  /**< CCU clock disabled in SLEEP state */
 684:F:/Projects/20190909 - 3phase_inverter/3phase_inverter/4. Software_WS/OL_VSC_vitor/Libraries/XMCLib/inc\xmc4_scu.h ****   XMC_SCU_CLOCK_SLEEP_MODE_CONFIG_ENABLE_CCU = SCU_CLK_SLEEPCR_CCUCR_Msk,  /**< CCU clock enabled i
 685:F:/Projects/20190909 - 3phase_inverter/3phase_inverter/4. Software_WS/OL_VSC_vitor/Libraries/XMCLib/inc\xmc4_scu.h ****   XMC_SCU_CLOCK_SLEEP_MODE_CONFIG_DISABLED_WDT = 0,  /**< WDT clock disabled in SLEEP state */
 686:F:/Projects/20190909 - 3phase_inverter/3phase_inverter/4. Software_WS/OL_VSC_vitor/Libraries/XMCLib/inc\xmc4_scu.h ****   XMC_SCU_CLOCK_SLEEP_MODE_CONFIG_ENABLE_WDT = SCU_CLK_SLEEPCR_WDTCR_Msk,  /**< WDT clock enabled i
 687:F:/Projects/20190909 - 3phase_inverter/3phase_inverter/4. Software_WS/OL_VSC_vitor/Libraries/XMCLib/inc\xmc4_scu.h **** } XMC_SCU_CLOCK_SLEEP_MODE_CONFIG_t;
 688:F:/Projects/20190909 - 3phase_inverter/3phase_inverter/4. Software_WS/OL_VSC_vitor/Libraries/XMCLib/inc\xmc4_scu.h **** 
 689:F:/Projects/20190909 - 3phase_inverter/3phase_inverter/4. Software_WS/OL_VSC_vitor/Libraries/XMCLib/inc\xmc4_scu.h **** /** 
 690:F:/Projects/20190909 - 3phase_inverter/3phase_inverter/4. Software_WS/OL_VSC_vitor/Libraries/XMCLib/inc\xmc4_scu.h ****  *  Defines the source of the system clock and peripherals clock gating in DEEPSLEEP state.
 691:F:/Projects/20190909 - 3phase_inverter/3phase_inverter/4. Software_WS/OL_VSC_vitor/Libraries/XMCLib/inc\xmc4_scu.h ****  *  In addition the state of FLASH, PLL and PLLVCO during DEEPSLEEP state.
 692:F:/Projects/20190909 - 3phase_inverter/3phase_inverter/4. Software_WS/OL_VSC_vitor/Libraries/XMCLib/inc\xmc4_scu.h ****  *  Use this enum as parameter of XMC_SCU_CLOCK_SetDeepSleepConfig before going to DEEPSLEEP state.
 693:F:/Projects/20190909 - 3phase_inverter/3phase_inverter/4. Software_WS/OL_VSC_vitor/Libraries/XMCLib/inc\xmc4_scu.h ****  *
 694:F:/Projects/20190909 - 3phase_inverter/3phase_inverter/4. Software_WS/OL_VSC_vitor/Libraries/XMCLib/inc\xmc4_scu.h ****  *  The DEEPSLEEP state of the system corresponds to the DEEPSLEEP state of the CPU. The state is
 695:F:/Projects/20190909 - 3phase_inverter/3phase_inverter/4. Software_WS/OL_VSC_vitor/Libraries/XMCLib/inc\xmc4_scu.h ****  *  entered via WFI or WFE instruction of the CPU. In this state the clock to the CPU is
 696:F:/Projects/20190909 - 3phase_inverter/3phase_inverter/4. Software_WS/OL_VSC_vitor/Libraries/XMCLib/inc\xmc4_scu.h ****  *  stopped. 
 697:F:/Projects/20190909 - 3phase_inverter/3phase_inverter/4. Software_WS/OL_VSC_vitor/Libraries/XMCLib/inc\xmc4_scu.h ****  *
 698:F:/Projects/20190909 - 3phase_inverter/3phase_inverter/4. Software_WS/OL_VSC_vitor/Libraries/XMCLib/inc\xmc4_scu.h ****  *  In Deep Sleep state the OSC_HP and the PLL may be switched off. The wake-up logic in the NVIC i
 699:F:/Projects/20190909 - 3phase_inverter/3phase_inverter/4. Software_WS/OL_VSC_vitor/Libraries/XMCLib/inc\xmc4_scu.h ****  *  by a free-running clock. Peripherals are only clocked when configured to stay enabled. 
 700:F:/Projects/20190909 - 3phase_inverter/3phase_inverter/4. Software_WS/OL_VSC_vitor/Libraries/XMCLib/inc\xmc4_scu.h ****  *  Configuration of peripherals and any SRAM content is preserved.
 701:F:/Projects/20190909 - 3phase_inverter/3phase_inverter/4. Software_WS/OL_VSC_vitor/Libraries/XMCLib/inc\xmc4_scu.h ****  *  The Flash module can be put into low-power mode to achieve a further power reduction.
 702:F:/Projects/20190909 - 3phase_inverter/3phase_inverter/4. Software_WS/OL_VSC_vitor/Libraries/XMCLib/inc\xmc4_scu.h ****  *  On wake-up Flash module will be restarted again before instructions or data access is possible.
 703:F:/Projects/20190909 - 3phase_inverter/3phase_inverter/4. Software_WS/OL_VSC_vitor/Libraries/XMCLib/inc\xmc4_scu.h ****  *  Any interrupt will bring the system back to operation via the NVIC.The clock setup before
 704:F:/Projects/20190909 - 3phase_inverter/3phase_inverter/4. Software_WS/OL_VSC_vitor/Libraries/XMCLib/inc\xmc4_scu.h ****  *  entering Deep Sleep state is restored upon wake-up.
 705:F:/Projects/20190909 - 3phase_inverter/3phase_inverter/4. Software_WS/OL_VSC_vitor/Libraries/XMCLib/inc\xmc4_scu.h ****  */
 706:F:/Projects/20190909 - 3phase_inverter/3phase_inverter/4. Software_WS/OL_VSC_vitor/Libraries/XMCLib/inc\xmc4_scu.h **** typedef enum XMC_SCU_CLOCK_DEEPSLEEP_MODE_CONFIG
 707:F:/Projects/20190909 - 3phase_inverter/3phase_inverter/4. Software_WS/OL_VSC_vitor/Libraries/XMCLib/inc\xmc4_scu.h **** {
 708:F:/Projects/20190909 - 3phase_inverter/3phase_inverter/4. Software_WS/OL_VSC_vitor/Libraries/XMCLib/inc\xmc4_scu.h ****   XMC_SCU_CLOCK_DEEPSLEEP_MODE_CONFIG_SYSCLK_FOFI = 0,  /**< fOFI used as system clock source in DE
 709:F:/Projects/20190909 - 3phase_inverter/3phase_inverter/4. Software_WS/OL_VSC_vitor/Libraries/XMCLib/inc\xmc4_scu.h ****   XMC_SCU_CLOCK_DEEPSLEEP_MODE_CONFIG_SYSCLK_FPLL = SCU_CLK_DSLEEPCR_SYSSEL_Msk,  /**< fPLL used as
 710:F:/Projects/20190909 - 3phase_inverter/3phase_inverter/4. Software_WS/OL_VSC_vitor/Libraries/XMCLib/inc\xmc4_scu.h ****   XMC_SCU_CLOCK_DEEPSLEEP_MODE_CONFIG_FLASH_POWERDOWN = SCU_CLK_DSLEEPCR_FPDN_Msk,/**< Flash power 
 711:F:/Projects/20190909 - 3phase_inverter/3phase_inverter/4. Software_WS/OL_VSC_vitor/Libraries/XMCLib/inc\xmc4_scu.h ****   XMC_SCU_CLOCK_DEEPSLEEP_MODE_CONFIG_PLL_POWERDOWN = SCU_CLK_DSLEEPCR_PLLPDN_Msk,  /**<  Switch of
 712:F:/Projects/20190909 - 3phase_inverter/3phase_inverter/4. Software_WS/OL_VSC_vitor/Libraries/XMCLib/inc\xmc4_scu.h ****   XMC_SCU_CLOCK_DEEPSLEEP_MODE_CONFIG_VCO_POWERDOWN = SCU_CLK_DSLEEPCR_VCOPDN_Msk,  /**<  Switch of
 713:F:/Projects/20190909 - 3phase_inverter/3phase_inverter/4. Software_WS/OL_VSC_vitor/Libraries/XMCLib/inc\xmc4_scu.h **** #if defined(USB0)
 714:F:/Projects/20190909 - 3phase_inverter/3phase_inverter/4. Software_WS/OL_VSC_vitor/Libraries/XMCLib/inc\xmc4_scu.h ****   XMC_SCU_CLOCK_DEEPSLEEP_MODE_CONFIG_DISABLE_USB = 0,  /**< USB clock disabled in DEEPSLEEP state 
 715:F:/Projects/20190909 - 3phase_inverter/3phase_inverter/4. Software_WS/OL_VSC_vitor/Libraries/XMCLib/inc\xmc4_scu.h ****   XMC_SCU_CLOCK_DEEPSLEEP_MODE_CONFIG_ENABLE_USB = SCU_CLK_DSLEEPCR_USBCR_Msk,  /**< USB clock enab
 716:F:/Projects/20190909 - 3phase_inverter/3phase_inverter/4. Software_WS/OL_VSC_vitor/Libraries/XMCLib/inc\xmc4_scu.h **** #endif  
 717:F:/Projects/20190909 - 3phase_inverter/3phase_inverter/4. Software_WS/OL_VSC_vitor/Libraries/XMCLib/inc\xmc4_scu.h **** #if defined(SDMMC)
 718:F:/Projects/20190909 - 3phase_inverter/3phase_inverter/4. Software_WS/OL_VSC_vitor/Libraries/XMCLib/inc\xmc4_scu.h ****   XMC_SCU_CLOCK_DEEPSLEEP_MODE_CONFIG_DISABLE_SDMMC = 0,/**< SDMMC clock disabled in DEEPSLEEP stat
 719:F:/Projects/20190909 - 3phase_inverter/3phase_inverter/4. Software_WS/OL_VSC_vitor/Libraries/XMCLib/inc\xmc4_scu.h ****   XMC_SCU_CLOCK_DEEPSLEEP_MODE_CONFIG_ENABLE_SDMMC = SCU_CLK_DSLEEPCR_MMCCR_Msk,/**< SDMMC clock en
 720:F:/Projects/20190909 - 3phase_inverter/3phase_inverter/4. Software_WS/OL_VSC_vitor/Libraries/XMCLib/inc\xmc4_scu.h **** #endif  
 721:F:/Projects/20190909 - 3phase_inverter/3phase_inverter/4. Software_WS/OL_VSC_vitor/Libraries/XMCLib/inc\xmc4_scu.h **** #if defined(ETH0)
 722:F:/Projects/20190909 - 3phase_inverter/3phase_inverter/4. Software_WS/OL_VSC_vitor/Libraries/XMCLib/inc\xmc4_scu.h ****   XMC_SCU_CLOCK_DEEPSLEEP_MODE_CONFIG_DISABLE_ETH = 0,  /**< ETH clock disabled in DEEPSLEEP state 
 723:F:/Projects/20190909 - 3phase_inverter/3phase_inverter/4. Software_WS/OL_VSC_vitor/Libraries/XMCLib/inc\xmc4_scu.h ****   XMC_SCU_CLOCK_DEEPSLEEP_MODE_CONFIG_ENABLE_ETH = SCU_CLK_DSLEEPCR_ETH0CR_Msk,  /**< ETH clock ena
 724:F:/Projects/20190909 - 3phase_inverter/3phase_inverter/4. Software_WS/OL_VSC_vitor/Libraries/XMCLib/inc\xmc4_scu.h **** #endif  
 725:F:/Projects/20190909 - 3phase_inverter/3phase_inverter/4. Software_WS/OL_VSC_vitor/Libraries/XMCLib/inc\xmc4_scu.h **** #if defined(EBU)
 726:F:/Projects/20190909 - 3phase_inverter/3phase_inverter/4. Software_WS/OL_VSC_vitor/Libraries/XMCLib/inc\xmc4_scu.h ****   XMC_SCU_CLOCK_DEEPSLEEP_MODE_CONFIG_DISABLE_EBU = 0,  /**< EBU clock disabled in DEEPSLEEP state 
 727:F:/Projects/20190909 - 3phase_inverter/3phase_inverter/4. Software_WS/OL_VSC_vitor/Libraries/XMCLib/inc\xmc4_scu.h ****   XMC_SCU_CLOCK_DEEPSLEEP_MODE_CONFIG_ENABLE_EBU = SCU_CLK_DSLEEPCR_EBUCR_Msk,  /**< EBU clock enab
 728:F:/Projects/20190909 - 3phase_inverter/3phase_inverter/4. Software_WS/OL_VSC_vitor/Libraries/XMCLib/inc\xmc4_scu.h **** #endif  
 729:F:/Projects/20190909 - 3phase_inverter/3phase_inverter/4. Software_WS/OL_VSC_vitor/Libraries/XMCLib/inc\xmc4_scu.h ****   XMC_SCU_CLOCK_DEEPSLEEP_MODE_CONFIG_DISABLE_CCU = 0,  /**< CCU clock disabled in DEEPSLEEP state 
 730:F:/Projects/20190909 - 3phase_inverter/3phase_inverter/4. Software_WS/OL_VSC_vitor/Libraries/XMCLib/inc\xmc4_scu.h ****   XMC_SCU_CLOCK_DEEPSLEEP_MODE_CONFIG_ENABLE_CCU = SCU_CLK_DSLEEPCR_CCUCR_Msk,  /**< CCU clock enab
 731:F:/Projects/20190909 - 3phase_inverter/3phase_inverter/4. Software_WS/OL_VSC_vitor/Libraries/XMCLib/inc\xmc4_scu.h ****   XMC_SCU_CLOCK_DEEPSLEEP_MODE_CONFIG_DISABLE_WDT = 0,  /**< WDT clock disabled in DEEPSLEEP state 
 732:F:/Projects/20190909 - 3phase_inverter/3phase_inverter/4. Software_WS/OL_VSC_vitor/Libraries/XMCLib/inc\xmc4_scu.h ****   XMC_SCU_CLOCK_DEEPSLEEP_MODE_CONFIG_ENABLE_WDT = SCU_CLK_DSLEEPCR_WDTCR_Msk,  /**< WDT clock enab
 733:F:/Projects/20190909 - 3phase_inverter/3phase_inverter/4. Software_WS/OL_VSC_vitor/Libraries/XMCLib/inc\xmc4_scu.h **** } XMC_SCU_CLOCK_DEEPSLEEP_MODE_CONFIG_t;
 734:F:/Projects/20190909 - 3phase_inverter/3phase_inverter/4. Software_WS/OL_VSC_vitor/Libraries/XMCLib/inc\xmc4_scu.h **** 
 735:F:/Projects/20190909 - 3phase_inverter/3phase_inverter/4. Software_WS/OL_VSC_vitor/Libraries/XMCLib/inc\xmc4_scu.h **** /** 
 736:F:/Projects/20190909 - 3phase_inverter/3phase_inverter/4. Software_WS/OL_VSC_vitor/Libraries/XMCLib/inc\xmc4_scu.h ****  * Defines status of EVR13 regulator
 737:F:/Projects/20190909 - 3phase_inverter/3phase_inverter/4. Software_WS/OL_VSC_vitor/Libraries/XMCLib/inc\xmc4_scu.h ****  */
 738:F:/Projects/20190909 - 3phase_inverter/3phase_inverter/4. Software_WS/OL_VSC_vitor/Libraries/XMCLib/inc\xmc4_scu.h **** typedef enum XMC_SCU_POWER_EVR_STATUS
 739:F:/Projects/20190909 - 3phase_inverter/3phase_inverter/4. Software_WS/OL_VSC_vitor/Libraries/XMCLib/inc\xmc4_scu.h **** {
 740:F:/Projects/20190909 - 3phase_inverter/3phase_inverter/4. Software_WS/OL_VSC_vitor/Libraries/XMCLib/inc\xmc4_scu.h ****   XMC_SCU_POWER_EVR_STATUS_OK = 0, /**< EVR13 regulator No overvoltage condition */
 741:F:/Projects/20190909 - 3phase_inverter/3phase_inverter/4. Software_WS/OL_VSC_vitor/Libraries/XMCLib/inc\xmc4_scu.h ****   XMC_SCU_POWER_EVR_STATUS_EVR13_OVERVOLTAGE = SCU_POWER_EVRSTAT_OV13_Msk /**< EVR13 regulator is i
 742:F:/Projects/20190909 - 3phase_inverter/3phase_inverter/4. Software_WS/OL_VSC_vitor/Libraries/XMCLib/inc\xmc4_scu.h **** } XMC_SCU_POWER_EVR_STATUS_t;
 743:F:/Projects/20190909 - 3phase_inverter/3phase_inverter/4. Software_WS/OL_VSC_vitor/Libraries/XMCLib/inc\xmc4_scu.h **** 
 744:F:/Projects/20190909 - 3phase_inverter/3phase_inverter/4. Software_WS/OL_VSC_vitor/Libraries/XMCLib/inc\xmc4_scu.h **** /**
 745:F:/Projects/20190909 - 3phase_inverter/3phase_inverter/4. Software_WS/OL_VSC_vitor/Libraries/XMCLib/inc\xmc4_scu.h ****  * Define status of external hibernate control  
 746:F:/Projects/20190909 - 3phase_inverter/3phase_inverter/4. Software_WS/OL_VSC_vitor/Libraries/XMCLib/inc\xmc4_scu.h ****  */
 747:F:/Projects/20190909 - 3phase_inverter/3phase_inverter/4. Software_WS/OL_VSC_vitor/Libraries/XMCLib/inc\xmc4_scu.h **** typedef enum XMC_SCU_HIB_CTRL_STATUS
 748:F:/Projects/20190909 - 3phase_inverter/3phase_inverter/4. Software_WS/OL_VSC_vitor/Libraries/XMCLib/inc\xmc4_scu.h **** {
 749:F:/Projects/20190909 - 3phase_inverter/3phase_inverter/4. Software_WS/OL_VSC_vitor/Libraries/XMCLib/inc\xmc4_scu.h ****   XMC_SCU_HIB_CTRL_STATUS_NO_ACTIVE = 0, /**< Hibernate not driven active to pads */
 750:F:/Projects/20190909 - 3phase_inverter/3phase_inverter/4. Software_WS/OL_VSC_vitor/Libraries/XMCLib/inc\xmc4_scu.h ****   XMC_SCU_HIB_CTRL_STATUS_ACTIVE = SCU_HIBERNATE_HDSTAT_HIBNOUT_Msk, /**< Hibernate driven active t
 751:F:/Projects/20190909 - 3phase_inverter/3phase_inverter/4. Software_WS/OL_VSC_vitor/Libraries/XMCLib/inc\xmc4_scu.h **** } XMC_SCU_HIB_CTRL_STATUS_t;
 752:F:/Projects/20190909 - 3phase_inverter/3phase_inverter/4. Software_WS/OL_VSC_vitor/Libraries/XMCLib/inc\xmc4_scu.h **** 
 753:F:/Projects/20190909 - 3phase_inverter/3phase_inverter/4. Software_WS/OL_VSC_vitor/Libraries/XMCLib/inc\xmc4_scu.h **** /** 
 754:F:/Projects/20190909 - 3phase_inverter/3phase_inverter/4. Software_WS/OL_VSC_vitor/Libraries/XMCLib/inc\xmc4_scu.h ****  *  Hibernate domain event status
 755:F:/Projects/20190909 - 3phase_inverter/3phase_inverter/4. Software_WS/OL_VSC_vitor/Libraries/XMCLib/inc\xmc4_scu.h ****  */
 756:F:/Projects/20190909 - 3phase_inverter/3phase_inverter/4. Software_WS/OL_VSC_vitor/Libraries/XMCLib/inc\xmc4_scu.h **** typedef enum XMC_SCU_HIB_EVENT
 757:F:/Projects/20190909 - 3phase_inverter/3phase_inverter/4. Software_WS/OL_VSC_vitor/Libraries/XMCLib/inc\xmc4_scu.h **** {
 758:F:/Projects/20190909 - 3phase_inverter/3phase_inverter/4. Software_WS/OL_VSC_vitor/Libraries/XMCLib/inc\xmc4_scu.h ****   XMC_SCU_HIB_EVENT_WAKEUP_ON_POS_EDGE = SCU_HIBERNATE_HDCR_WKPEP_Msk, /**< Wake-up on positive edg
 759:F:/Projects/20190909 - 3phase_inverter/3phase_inverter/4. Software_WS/OL_VSC_vitor/Libraries/XMCLib/inc\xmc4_scu.h ****   XMC_SCU_HIB_EVENT_WAKEUP_ON_NEG_EDGE = SCU_HIBERNATE_HDCR_WKPEN_Msk, /**< Wake-up on negative edg
 760:F:/Projects/20190909 - 3phase_inverter/3phase_inverter/4. Software_WS/OL_VSC_vitor/Libraries/XMCLib/inc\xmc4_scu.h ****   XMC_SCU_HIB_EVENT_WAKEUP_ON_RTC = SCU_HIBERNATE_HDCR_RTCE_Msk, /**< Wake-up on RTC event */
 761:F:/Projects/20190909 - 3phase_inverter/3phase_inverter/4. Software_WS/OL_VSC_vitor/Libraries/XMCLib/inc\xmc4_scu.h ****   XMC_SCU_HIB_EVENT_ULPWDG = SCU_HIBERNATE_HDCR_ULPWDGEN_Msk, /**< ULP watchdog alarm status */
 762:F:/Projects/20190909 - 3phase_inverter/3phase_inverter/4. Software_WS/OL_VSC_vitor/Libraries/XMCLib/inc\xmc4_scu.h **** #if (defined(DOXYGEN) || (UC_SERIES == XMC44) || (UC_SERIES == XMC42) || (UC_SERIES == XMC41))
 763:F:/Projects/20190909 - 3phase_inverter/3phase_inverter/4. Software_WS/OL_VSC_vitor/Libraries/XMCLib/inc\xmc4_scu.h ****   XMC_SCU_HIB_EVENT_LPAC_VBAT_POSEDGE = SCU_HIBERNATE_HDSTAT_VBATPEV_Msk, /**< Wake-up on LPAC posi
 764:F:/Projects/20190909 - 3phase_inverter/3phase_inverter/4. Software_WS/OL_VSC_vitor/Libraries/XMCLib/inc\xmc4_scu.h ****   XMC_SCU_HIB_EVENT_LPAC_VBAT_NEGEDGE = SCU_HIBERNATE_HDSTAT_VBATNEV_Msk, /**< Wake-up on LPAC nega
 765:F:/Projects/20190909 - 3phase_inverter/3phase_inverter/4. Software_WS/OL_VSC_vitor/Libraries/XMCLib/inc\xmc4_scu.h ****   XMC_SCU_HIB_EVENT_LPAC_HIB_IO_0_POSEDGE = SCU_HIBERNATE_HDSTAT_AHIBIO0PEV_Msk, /**< Wake-up on LP
 766:F:/Projects/20190909 - 3phase_inverter/3phase_inverter/4. Software_WS/OL_VSC_vitor/Libraries/XMCLib/inc\xmc4_scu.h ****   XMC_SCU_HIB_EVENT_LPAC_HIB_IO_0_NEGEDGE = SCU_HIBERNATE_HDSTAT_AHIBIO0NEV_Msk, /**< Wake-up on LP
 767:F:/Projects/20190909 - 3phase_inverter/3phase_inverter/4. Software_WS/OL_VSC_vitor/Libraries/XMCLib/inc\xmc4_scu.h **** #if (defined(DOXYGEN) || ((UC_SERIES == XMC44) && (UC_PACKAGE == LQFP100)))
 768:F:/Projects/20190909 - 3phase_inverter/3phase_inverter/4. Software_WS/OL_VSC_vitor/Libraries/XMCLib/inc\xmc4_scu.h ****   XMC_SCU_HIB_EVENT_LPAC_HIB_IO_1_POSEDGE = SCU_HIBERNATE_HDSTAT_AHIBIO1PEV_Msk, /**< Wake-up on LP
 769:F:/Projects/20190909 - 3phase_inverter/3phase_inverter/4. Software_WS/OL_VSC_vitor/Libraries/XMCLib/inc\xmc4_scu.h ****   XMC_SCU_HIB_EVENT_LPAC_HIB_IO_1_NEGEDGE = SCU_HIBERNATE_HDSTAT_AHIBIO1NEV_Msk, /**< Wake-up on LP
 770:F:/Projects/20190909 - 3phase_inverter/3phase_inverter/4. Software_WS/OL_VSC_vitor/Libraries/XMCLib/inc\xmc4_scu.h **** #endif
 771:F:/Projects/20190909 - 3phase_inverter/3phase_inverter/4. Software_WS/OL_VSC_vitor/Libraries/XMCLib/inc\xmc4_scu.h **** #endif  
 772:F:/Projects/20190909 - 3phase_inverter/3phase_inverter/4. Software_WS/OL_VSC_vitor/Libraries/XMCLib/inc\xmc4_scu.h **** } XMC_SCU_HIB_EVENT_t;
 773:F:/Projects/20190909 - 3phase_inverter/3phase_inverter/4. Software_WS/OL_VSC_vitor/Libraries/XMCLib/inc\xmc4_scu.h **** 
 774:F:/Projects/20190909 - 3phase_inverter/3phase_inverter/4. Software_WS/OL_VSC_vitor/Libraries/XMCLib/inc\xmc4_scu.h **** /** 
 775:F:/Projects/20190909 - 3phase_inverter/3phase_inverter/4. Software_WS/OL_VSC_vitor/Libraries/XMCLib/inc\xmc4_scu.h ****   * Hibernate domain dedicated pins
 776:F:/Projects/20190909 - 3phase_inverter/3phase_inverter/4. Software_WS/OL_VSC_vitor/Libraries/XMCLib/inc\xmc4_scu.h ****   */
 777:F:/Projects/20190909 - 3phase_inverter/3phase_inverter/4. Software_WS/OL_VSC_vitor/Libraries/XMCLib/inc\xmc4_scu.h **** typedef enum XMC_SCU_HIB_IO
 778:F:/Projects/20190909 - 3phase_inverter/3phase_inverter/4. Software_WS/OL_VSC_vitor/Libraries/XMCLib/inc\xmc4_scu.h **** {
 779:F:/Projects/20190909 - 3phase_inverter/3phase_inverter/4. Software_WS/OL_VSC_vitor/Libraries/XMCLib/inc\xmc4_scu.h ****   XMC_SCU_HIB_IO_0 = 0, /**< HIB_IO_0 pin. 
 780:F:/Projects/20190909 - 3phase_inverter/3phase_inverter/4. Software_WS/OL_VSC_vitor/Libraries/XMCLib/inc\xmc4_scu.h ****                              At the first power-up and with every reset of the hibernate domain thi
 781:F:/Projects/20190909 - 3phase_inverter/3phase_inverter/4. Software_WS/OL_VSC_vitor/Libraries/XMCLib/inc\xmc4_scu.h **** #if (defined(DOXYGEN) || (UC_PACKAGE == BGA196) || (UC_PACKAGE == BGA144) || (UC_PACKAGE == LQFP144
 782:F:/Projects/20190909 - 3phase_inverter/3phase_inverter/4. Software_WS/OL_VSC_vitor/Libraries/XMCLib/inc\xmc4_scu.h ****   XMC_SCU_HIB_IO_1 = 1 /**< HIB_IO_1 pin. 
 783:F:/Projects/20190909 - 3phase_inverter/3phase_inverter/4. Software_WS/OL_VSC_vitor/Libraries/XMCLib/inc\xmc4_scu.h ****                             At the first power-up and with every reset of the hibernate domain this
 784:F:/Projects/20190909 - 3phase_inverter/3phase_inverter/4. Software_WS/OL_VSC_vitor/Libraries/XMCLib/inc\xmc4_scu.h ****                             @note : Only available in certain packages*/
 785:F:/Projects/20190909 - 3phase_inverter/3phase_inverter/4. Software_WS/OL_VSC_vitor/Libraries/XMCLib/inc\xmc4_scu.h **** #endif  
 786:F:/Projects/20190909 - 3phase_inverter/3phase_inverter/4. Software_WS/OL_VSC_vitor/Libraries/XMCLib/inc\xmc4_scu.h **** } XMC_SCU_HIB_IO_t;
 787:F:/Projects/20190909 - 3phase_inverter/3phase_inverter/4. Software_WS/OL_VSC_vitor/Libraries/XMCLib/inc\xmc4_scu.h **** 
 788:F:/Projects/20190909 - 3phase_inverter/3phase_inverter/4. Software_WS/OL_VSC_vitor/Libraries/XMCLib/inc\xmc4_scu.h **** /**
 789:F:/Projects/20190909 - 3phase_inverter/3phase_inverter/4. Software_WS/OL_VSC_vitor/Libraries/XMCLib/inc\xmc4_scu.h ****  * HIB_IOx pin I/O control
 790:F:/Projects/20190909 - 3phase_inverter/3phase_inverter/4. Software_WS/OL_VSC_vitor/Libraries/XMCLib/inc\xmc4_scu.h ****  */
 791:F:/Projects/20190909 - 3phase_inverter/3phase_inverter/4. Software_WS/OL_VSC_vitor/Libraries/XMCLib/inc\xmc4_scu.h **** typedef enum XMC_SCU_HIB_PIN_MODE
 792:F:/Projects/20190909 - 3phase_inverter/3phase_inverter/4. Software_WS/OL_VSC_vitor/Libraries/XMCLib/inc\xmc4_scu.h **** {
 793:F:/Projects/20190909 - 3phase_inverter/3phase_inverter/4. Software_WS/OL_VSC_vitor/Libraries/XMCLib/inc\xmc4_scu.h ****   XMC_SCU_HIB_PIN_MODE_INPUT_PULL_NONE = 0 << SCU_HIBERNATE_HDCR_HIBIO0SEL_Pos, /**< Direct input, 
 794:F:/Projects/20190909 - 3phase_inverter/3phase_inverter/4. Software_WS/OL_VSC_vitor/Libraries/XMCLib/inc\xmc4_scu.h ****   XMC_SCU_HIB_PIN_MODE_INPUT_PULL_DOWN = 1 << SCU_HIBERNATE_HDCR_HIBIO0SEL_Pos, /**< Direct input, 
 795:F:/Projects/20190909 - 3phase_inverter/3phase_inverter/4. Software_WS/OL_VSC_vitor/Libraries/XMCLib/inc\xmc4_scu.h ****   XMC_SCU_HIB_PIN_MODE_INPUT_PULL_UP = 2 << SCU_HIBERNATE_HDCR_HIBIO0SEL_Pos, /**< Direct input, in
 796:F:/Projects/20190909 - 3phase_inverter/3phase_inverter/4. Software_WS/OL_VSC_vitor/Libraries/XMCLib/inc\xmc4_scu.h ****   XMC_SCU_HIB_PIN_MODE_OUTPUT_PUSH_PULL_HIBCTRL = 8 << SCU_HIBERNATE_HDCR_HIBIO0SEL_Pos, /**< Push-
 797:F:/Projects/20190909 - 3phase_inverter/3phase_inverter/4. Software_WS/OL_VSC_vitor/Libraries/XMCLib/inc\xmc4_scu.h ****   XMC_SCU_HIB_PIN_MODE_OUTPUT_PUSH_PULL_WDTSRV = 9 << SCU_HIBERNATE_HDCR_HIBIO0SEL_Pos, /**< Push-p
 798:F:/Projects/20190909 - 3phase_inverter/3phase_inverter/4. Software_WS/OL_VSC_vitor/Libraries/XMCLib/inc\xmc4_scu.h ****   XMC_SCU_HIB_PIN_MODE_OUTPUT_PUSH_PULL_GPIO = 10 << SCU_HIBERNATE_HDCR_HIBIO0SEL_Pos, /**< Push-pu
 799:F:/Projects/20190909 - 3phase_inverter/3phase_inverter/4. Software_WS/OL_VSC_vitor/Libraries/XMCLib/inc\xmc4_scu.h ****   XMC_SCU_HIB_PIN_MODE_OUTPUT_OPEN_DRAIN_HIBCTRL = 12 << SCU_HIBERNATE_HDCR_HIBIO0SEL_Pos, /**< Ope
 800:F:/Projects/20190909 - 3phase_inverter/3phase_inverter/4. Software_WS/OL_VSC_vitor/Libraries/XMCLib/inc\xmc4_scu.h ****   XMC_SCU_HIB_PIN_MODE_OUTPUT_OPEN_DRAIN_WDTSRV = 13 << SCU_HIBERNATE_HDCR_HIBIO0SEL_Pos, /**< Open
 801:F:/Projects/20190909 - 3phase_inverter/3phase_inverter/4. Software_WS/OL_VSC_vitor/Libraries/XMCLib/inc\xmc4_scu.h ****   XMC_SCU_HIB_PIN_MODE_OUTPUT_OPEN_DRAIN_GPIO = 14 << SCU_HIBERNATE_HDCR_HIBIO0SEL_Pos, /**< Open d
 802:F:/Projects/20190909 - 3phase_inverter/3phase_inverter/4. Software_WS/OL_VSC_vitor/Libraries/XMCLib/inc\xmc4_scu.h **** } XMC_SCU_HIB_PIN_MODE_t;
 803:F:/Projects/20190909 - 3phase_inverter/3phase_inverter/4. Software_WS/OL_VSC_vitor/Libraries/XMCLib/inc\xmc4_scu.h **** 
 804:F:/Projects/20190909 - 3phase_inverter/3phase_inverter/4. Software_WS/OL_VSC_vitor/Libraries/XMCLib/inc\xmc4_scu.h **** /**
 805:F:/Projects/20190909 - 3phase_inverter/3phase_inverter/4. Software_WS/OL_VSC_vitor/Libraries/XMCLib/inc\xmc4_scu.h ****  * Selects the output polarity of the HIB_IOx
 806:F:/Projects/20190909 - 3phase_inverter/3phase_inverter/4. Software_WS/OL_VSC_vitor/Libraries/XMCLib/inc\xmc4_scu.h ****  */
 807:F:/Projects/20190909 - 3phase_inverter/3phase_inverter/4. Software_WS/OL_VSC_vitor/Libraries/XMCLib/inc\xmc4_scu.h **** typedef enum XMC_SCU_HIB_IO_OUTPUT_LEVEL
 808:F:/Projects/20190909 - 3phase_inverter/3phase_inverter/4. Software_WS/OL_VSC_vitor/Libraries/XMCLib/inc\xmc4_scu.h **** {
 809:F:/Projects/20190909 - 3phase_inverter/3phase_inverter/4. Software_WS/OL_VSC_vitor/Libraries/XMCLib/inc\xmc4_scu.h ****   XMC_SCU_HIB_IO_OUTPUT_LEVEL_LOW = 0 << SCU_HIBERNATE_HDCR_HIBIO0POL_Pos, /**< Direct value */
 810:F:/Projects/20190909 - 3phase_inverter/3phase_inverter/4. Software_WS/OL_VSC_vitor/Libraries/XMCLib/inc\xmc4_scu.h ****   XMC_SCU_HIB_IO_OUTPUT_LEVEL_HIGH = 1 << SCU_HIBERNATE_HDCR_HIBIO0POL_Pos /**< Inverted value */
 811:F:/Projects/20190909 - 3phase_inverter/3phase_inverter/4. Software_WS/OL_VSC_vitor/Libraries/XMCLib/inc\xmc4_scu.h **** } XMC_SCU_HIB_IO_OUTPUT_LEVEL_t;
 812:F:/Projects/20190909 - 3phase_inverter/3phase_inverter/4. Software_WS/OL_VSC_vitor/Libraries/XMCLib/inc\xmc4_scu.h **** 
 813:F:/Projects/20190909 - 3phase_inverter/3phase_inverter/4. Software_WS/OL_VSC_vitor/Libraries/XMCLib/inc\xmc4_scu.h **** /**
 814:F:/Projects/20190909 - 3phase_inverter/3phase_inverter/4. Software_WS/OL_VSC_vitor/Libraries/XMCLib/inc\xmc4_scu.h ****  * Selects hibernate mode
 815:F:/Projects/20190909 - 3phase_inverter/3phase_inverter/4. Software_WS/OL_VSC_vitor/Libraries/XMCLib/inc\xmc4_scu.h ****  */
 816:F:/Projects/20190909 - 3phase_inverter/3phase_inverter/4. Software_WS/OL_VSC_vitor/Libraries/XMCLib/inc\xmc4_scu.h **** typedef enum XMC_SCU_HIB_HIBERNATE_MODE
 817:F:/Projects/20190909 - 3phase_inverter/3phase_inverter/4. Software_WS/OL_VSC_vitor/Libraries/XMCLib/inc\xmc4_scu.h **** {
 818:F:/Projects/20190909 - 3phase_inverter/3phase_inverter/4. Software_WS/OL_VSC_vitor/Libraries/XMCLib/inc\xmc4_scu.h ****   XMC_SCU_HIB_HIBERNATE_MODE_EXTERNAL = 0, /**< Request external hibernate mode */
 819:F:/Projects/20190909 - 3phase_inverter/3phase_inverter/4. Software_WS/OL_VSC_vitor/Libraries/XMCLib/inc\xmc4_scu.h **** #if (defined(DOXYGEN) || (UC_SERIES == XMC44) || (UC_SERIES == XMC42) || (UC_SERIES == XMC41))
 820:F:/Projects/20190909 - 3phase_inverter/3phase_inverter/4. Software_WS/OL_VSC_vitor/Libraries/XMCLib/inc\xmc4_scu.h ****   XMC_SCU_HIB_HIBERNATE_MODE_INTERNAL = 1, /**< Request internal hibernate mode. @note Only availab
 821:F:/Projects/20190909 - 3phase_inverter/3phase_inverter/4. Software_WS/OL_VSC_vitor/Libraries/XMCLib/inc\xmc4_scu.h **** #endif
 822:F:/Projects/20190909 - 3phase_inverter/3phase_inverter/4. Software_WS/OL_VSC_vitor/Libraries/XMCLib/inc\xmc4_scu.h **** } XMC_SCU_HIB_HIBERNATE_MODE_t;
 823:F:/Projects/20190909 - 3phase_inverter/3phase_inverter/4. Software_WS/OL_VSC_vitor/Libraries/XMCLib/inc\xmc4_scu.h **** 
 824:F:/Projects/20190909 - 3phase_inverter/3phase_inverter/4. Software_WS/OL_VSC_vitor/Libraries/XMCLib/inc\xmc4_scu.h **** /**
 825:F:/Projects/20190909 - 3phase_inverter/3phase_inverter/4. Software_WS/OL_VSC_vitor/Libraries/XMCLib/inc\xmc4_scu.h ****  * Selects input signal HIB_SR0 of ERU0
 826:F:/Projects/20190909 - 3phase_inverter/3phase_inverter/4. Software_WS/OL_VSC_vitor/Libraries/XMCLib/inc\xmc4_scu.h ****  */
 827:F:/Projects/20190909 - 3phase_inverter/3phase_inverter/4. Software_WS/OL_VSC_vitor/Libraries/XMCLib/inc\xmc4_scu.h **** typedef enum XMC_SCU_HIB_SR0_INPUT
 828:F:/Projects/20190909 - 3phase_inverter/3phase_inverter/4. Software_WS/OL_VSC_vitor/Libraries/XMCLib/inc\xmc4_scu.h **** {
 829:F:/Projects/20190909 - 3phase_inverter/3phase_inverter/4. Software_WS/OL_VSC_vitor/Libraries/XMCLib/inc\xmc4_scu.h ****   XMC_SCU_HIB_SR0_INPUT_HIB_IO_0 = SCU_HIBERNATE_HDCR_GPI0SEL_Msk, /**< Set HIB_SR0 to HIB_IO_0 dig
 830:F:/Projects/20190909 - 3phase_inverter/3phase_inverter/4. Software_WS/OL_VSC_vitor/Libraries/XMCLib/inc\xmc4_scu.h **** #if (defined(DOXYGEN) || (UC_PACKAGE == BGA196) || (UC_PACKAGE == BGA144) || (UC_PACKAGE == LQFP144
 831:F:/Projects/20190909 - 3phase_inverter/3phase_inverter/4. Software_WS/OL_VSC_vitor/Libraries/XMCLib/inc\xmc4_scu.h ****   XMC_SCU_HIB_SR0_INPUT_HIB_IO_1 = 0, /**< Set HIB_SR0 to HIB_IO_1 digital input. @note Only availa
 832:F:/Projects/20190909 - 3phase_inverter/3phase_inverter/4. Software_WS/OL_VSC_vitor/Libraries/XMCLib/inc\xmc4_scu.h **** #endif  
 833:F:/Projects/20190909 - 3phase_inverter/3phase_inverter/4. Software_WS/OL_VSC_vitor/Libraries/XMCLib/inc\xmc4_scu.h **** #if (defined(DOXYGEN) || (UC_SERIES == XMC44) || (UC_SERIES == XMC42) || (UC_SERIES == XMC41))
 834:F:/Projects/20190909 - 3phase_inverter/3phase_inverter/4. Software_WS/OL_VSC_vitor/Libraries/XMCLib/inc\xmc4_scu.h ****   XMC_SCU_HIB_SR0_INPUT_ACMP0 = SCU_HIBERNATE_HDCR_ADIG0SEL_Msk,  /**< Set HIB_SR0 to LPAC CMP0. @n
