   1              	 .syntax unified
   2              	 .cpu cortex-m4
   3              	 .eabi_attribute 27,3
   4              	 .fpu fpv4-sp-d16
   5              	 .eabi_attribute 20,1
   6              	 .eabi_attribute 21,1
   7              	 .eabi_attribute 23,3
   8              	 .eabi_attribute 24,1
   9              	 .eabi_attribute 25,1
  10              	 .eabi_attribute 26,1
  11              	 .eabi_attribute 30,4
  12              	 .eabi_attribute 34,1
  13              	 .eabi_attribute 18,4
  14              	 .thumb
  15              	 .file "arm_iir_lattice_f32.c"
  16              	 .section .text.arm_iir_lattice_f32,"ax",%progbits
  17              	 .align 1
  18              	 .global arm_iir_lattice_f32
  19              	 .thumb
  20              	 .thumb_func
  22              	arm_iir_lattice_f32:
  23              	 
  24              	 
  25 0000 2DE9F04F 	 push {r4,r5,r6,r7,r8,r9,r10,fp,lr}
  26 0004 0488     	 ldrh r4,[r0]
  27 0006 87B0     	 sub sp,sp,#28
  28 0008 6FF00F06 	 mvn r6,#15
  29 000c 0493     	 str r3,[sp,#16]
  30 000e 0291     	 str r1,[sp,#8]
  31 0010 A308     	 lsrs r3,r4,#2
  32 0012 4168     	 ldr r1,[r0,#4]
  33 0014 DDF810E0 	 ldr lr,[sp,#16]
  34 0018 0392     	 str r2,[sp,#12]
  35 001a 1D01     	 lsls r5,r3,#4
  36 001c 04F00304 	 and r4,r4,#3
  37 0020 7343     	 muls r3,r6,r3
  38 0022 4F19     	 adds r7,r1,r5
  39 0024 0593     	 str r3,[sp,#20]
  40 0026 A300     	 lsls r3,r4,#2
  41 0028 0193     	 str r3,[sp,#4]
  42 002a 3E46     	 mov r6,r7
  43              	.L2:
  44 002c BEF1000F 	 cmp lr,#0
  45 0030 00F08580 	 beq .L13
  46 0034 029B     	 ldr r3,[sp,#8]
  47 0036 D0F80CA0 	 ldr r10,[r0,#12]
  48 003a B3EC017A 	 fldmias r3!,{s14}
  49 003e 059A     	 ldr r2,[sp,#20]
  50 0040 0293     	 str r3,[sp,#8]
  51 0042 8368     	 ldr r3,[r0,#8]
  52 0044 DFED4E7A 	 flds s15,.L17
  53 0048 06EB020C 	 add ip,r6,r2
  54 004c D146     	 mov r9,r10
  55 004e 03EB0508 	 add r8,r3,r5
  56              	.L3:
  57 0052 4345     	 cmp r3,r8
  58 0054 0CF1100C 	 add ip,ip,#16
  59 0058 09F11009 	 add r9,r9,#16
  60 005c 43D0     	 beq .L14
  61 005e 93ED005A 	 flds s10,[r3]
  62 0062 1CED046A 	 flds s12,[ip,#-16]
  63 0066 93ED014A 	 flds s8,[r3,#4]
  64 006a 5CED036A 	 flds s13,[ip,#-12]
  65 006e 19ED043A 	 flds s6,[r9,#-16]
  66 0072 D3ED024A 	 flds s9,[r3,#8]
  67 0076 59ED033A 	 flds s7,[r9,#-12]
  68 007a A5EE467A 	 vfms.f32 s14,s10,s12
  69 007e 1033     	 adds r3,r3,#16
  70 0080 A5EE076A 	 vfma.f32 s12,s10,s14
  71 0084 F0EE475A 	 fcpys s11,s14
  72 0088 E4EE665A 	 vfms.f32 s11,s8,s13
  73 008c 0CED046A 	 fsts s12,[ip,#-16]
  74 0090 B0EE467A 	 fcpys s14,s12
  75 0094 1CED026A 	 flds s12,[ip,#-8]
  76 0098 E7EE037A 	 vfma.f32 s15,s14,s6
  77 009c B0EE655A 	 fcpys s10,s11
  78 00a0 B0EE667A 	 fcpys s14,s13
  79 00a4 A4EE257A 	 vfma.f32 s14,s8,s11
  80 00a8 A4EEC65A 	 vfms.f32 s10,s9,s12
  81 00ac 53ED015A 	 flds s11,[r3,#-4]
  82 00b0 5CED016A 	 flds s13,[ip,#-4]
  83 00b4 0CED037A 	 fsts s14,[ip,#-12]
  84 00b8 E7EE237A 	 vfma.f32 s15,s14,s7
  85 00bc B0EE457A 	 fcpys s14,s10
  86 00c0 A4EE856A 	 vfma.f32 s12,s9,s10
  87 00c4 A5EEE67A 	 vfms.f32 s14,s11,s13
  88 00c8 19ED025A 	 flds s10,[r9,#-8]
  89 00cc 0CED026A 	 fsts s12,[ip,#-8]
  90 00d0 E6EE057A 	 vfma.f32 s15,s12,s10
  91 00d4 E7EE256A 	 vfma.f32 s13,s14,s11
  92 00d8 19ED016A 	 flds s12,[r9,#-4]
  93 00dc 4CED016A 	 fsts s13,[ip,#-4]
  94 00e0 E6EE867A 	 vfma.f32 s15,s13,s12
  95 00e4 B5E7     	 b .L3
  96              	.L14:
  97 00e6 0AEB0503 	 add r3,r10,r5
  98 00ea 9B46     	 mov fp,r3
  99 00ec B246     	 mov r10,r6
 100 00ee B146     	 mov r9,r6
 101 00f0 A446     	 mov ip,r4
 102              	.L5:
 103 00f2 BCF1000F 	 cmp ip,#0
 104 00f6 10D0     	 beq .L15
 105 00f8 B8EC016A 	 fldmias r8!,{s12}
 106 00fc F9EC016A 	 fldmias r9!,{s13}
 107 0100 A6EE667A 	 vfms.f32 s14,s12,s13
 108 0104 0CF1FF3C 	 add ip,ip,#-1
 109 0108 E7EE066A 	 vfma.f32 s13,s14,s12
 110 010c BBEC016A 	 fldmias fp!,{s12}
 111 0110 EAEC016A 	 fstmias r10!,{s13}
 112 0114 E6EE867A 	 vfma.f32 s15,s13,s12
 113 0118 EBE7     	 b .L5
 114              	.L15:
 115 011a 019A     	 ldr r2,[sp,#4]
 116 011c 1344     	 add r3,r3,r2
 117 011e D3ED006A 	 flds s13,[r3]
 118 0122 039B     	 ldr r3,[sp,#12]
 119 0124 E7EE267A 	 vfma.f32 s15,s14,s13
 120 0128 06EB020C 	 add ip,r6,r2
 121 012c 0EF1FF3E 	 add lr,lr,#-1
 122 0130 8CED007A 	 fsts s14,[ip]
 123 0134 E3EC017A 	 fstmias r3!,{s15}
 124 0138 0393     	 str r3,[sp,#12]
 125 013a 0436     	 adds r6,r6,#4
 126 013c 76E7     	 b .L2
 127              	.L13:
 128 013e 049B     	 ldr r3,[sp,#16]
 129 0140 01EB8303 	 add r3,r1,r3,lsl#2
 130 0144 1D44     	 add r5,r5,r3
 131              	.L8:
 132 0146 AB42     	 cmp r3,r5
 133 0148 01F11001 	 add r1,r1,#16
 134 014c 0ED0     	 beq .L10
 135 014e 1A68     	 ldr r2,[r3]
 136 0150 41F8102C 	 str r2,[r1,#-16]
 137 0154 5A68     	 ldr r2,[r3,#4]
 138 0156 41F80C2C 	 str r2,[r1,#-12]
 139 015a 9A68     	 ldr r2,[r3,#8]
 140 015c 41F8082C 	 str r2,[r1,#-8]
 141 0160 1033     	 adds r3,r3,#16
 142 0162 53F8042C 	 ldr r2,[r3,#-4]
 143 0166 41F8042C 	 str r2,[r1,#-4]
 144 016a ECE7     	 b .L8
 145              	.L10:
 146 016c 2CB1     	 cbz r4,.L16
 147 016e 55F8043B 	 ldr r3,[r5],#4
 148 0172 47F8043B 	 str r3,[r7],#4
 149 0176 013C     	 subs r4,r4,#1
 150 0178 F8E7     	 b .L10
 151              	.L16:
 152 017a 07B0     	 add sp,sp,#28
 153              	 
 154 017c BDE8F08F 	 pop {r4,r5,r6,r7,r8,r9,r10,fp,pc}
 155              	.L18:
 156              	 .align 2
 157              	.L17:
 158 0180 00000000 	 .word 0
 160              	 .ident "GCC: (GNU Tools for ARM Embedded Processors) 4.9.3 20141119 (release) [ARM/embedded-4_9-branch revision 218278]"
DEFINED SYMBOLS
                            *ABS*:00000000 arm_iir_lattice_f32.c
    {standard input}:17     .text.arm_iir_lattice_f32:00000000 $t
    {standard input}:22     .text.arm_iir_lattice_f32:00000000 arm_iir_lattice_f32
    {standard input}:158    .text.arm_iir_lattice_f32:00000180 $d

NO UNDEFINED SYMBOLS
