   1              	 .syntax unified
   2              	 .cpu cortex-m4
   3              	 .eabi_attribute 27,3
   4              	 .fpu fpv4-sp-d16
   5              	 .eabi_attribute 20,1
   6              	 .eabi_attribute 21,1
   7              	 .eabi_attribute 23,3
   8              	 .eabi_attribute 24,1
   9              	 .eabi_attribute 25,1
  10              	 .eabi_attribute 26,1
  11              	 .eabi_attribute 30,4
  12              	 .eabi_attribute 34,1
  13              	 .eabi_attribute 18,4
  14              	 .thumb
  15              	 .file "arm_conv_fast_q31.c"
  16              	 .section .text.arm_conv_fast_q31,"ax",%progbits
  17              	 .align 1
  18              	 .global arm_conv_fast_q31
  19              	 .thumb
  20              	 .thumb_func
  22              	arm_conv_fast_q31:
  23              	 
  24              	 
  25 0000 2DE9F04F 	 push {r4,r5,r6,r7,r8,r9,r10,fp,lr}
  26 0004 9942     	 cmp r1,r3
  27 0006 D3B0     	 sub sp,sp,#332
  28 0008 9E46     	 mov lr,r3
  29 000a 38BF     	 it cc
  30 000c 0346     	 movcc r3,r0
  31 000e 0A92     	 str r2,[sp,#40]
  32 0010 3FBF     	 itttt cc
  33 0012 0A93     	 strcc r3,[sp,#40]
  34 0014 0B46     	 movcc r3,r1
  35 0016 7146     	 movcc r1,lr
  36 0018 9E46     	 movcc lr,r3
  37 001a 0290     	 str r0,[sp,#8]
  38 001c 0EF1FF33 	 add r3,lr,#-1
  39 0020 01F10100 	 add r0,r1,#1
  40 0024 0B93     	 str r3,[sp,#44]
  41 0026 CEEB0003 	 rsb r3,lr,r0
  42 002a 1693     	 str r3,[sp,#88]
  43 002c DDF828C0 	 ldr ip,[sp,#40]
  44 0030 5C9B     	 ldr r3,[sp,#368]
  45 0032 0393     	 str r3,[sp,#12]
  46 0034 38BF     	 it cc
  47 0036 0292     	 strcc r2,[sp,#8]
  48 0038 0123     	 movs r3,#1
  49              	.L3:
  50 003a 7345     	 cmp r3,lr
  51 003c 54D0     	 beq .L34
  52 003e 9A08     	 lsrs r2,r3,#2
  53 0040 0298     	 ldr r0,[sp,#8]
  54 0042 6146     	 mov r1,ip
  55 0044 1446     	 mov r4,r2
  56 0046 0027     	 movs r7,#0
  57              	.L4:
  58 0048 1030     	 adds r0,r0,#16
  59 004a 1039     	 subs r1,r1,#16
  60 004c 64B3     	 cbz r4,.L35
  61 004e 4FF0000A 	 mov r10,#0
  62 0052 50F8106C 	 ldr r6,[r0,#-16]
  63 0056 0D69     	 ldr r5,[r1,#16]
  64 0058 CDF810A0 	 str r10,[sp,#16]
  65 005c B946     	 mov r9,r7
  66 005e D046     	 mov r8,r10
  67 0060 C5FB0689 	 smlal r8,r9,r5,r6
  68 0064 CDF81490 	 str r9,[sp,#20]
  69 0068 DDE90489 	 ldrd r8,[sp,#16]
  70 006c 50F80C6C 	 ldr r6,[r0,#-12]
  71 0070 CD68     	 ldr r5,[r1,#12]
  72 0072 CDF818A0 	 str r10,[sp,#24]
  73 0076 C5FB0689 	 smlal r8,r9,r5,r6
  74 007a CDF81C90 	 str r9,[sp,#28]
  75 007e DDE90689 	 ldrd r8,[sp,#24]
  76 0082 50F8086C 	 ldr r6,[r0,#-8]
  77 0086 8D68     	 ldr r5,[r1,#8]
  78 0088 CDF820A0 	 str r10,[sp,#32]
  79 008c C5FB0689 	 smlal r8,r9,r5,r6
  80 0090 CDF82490 	 str r9,[sp,#36]
  81 0094 DDE90889 	 ldrd r8,[sp,#32]
  82 0098 50F8046C 	 ldr r6,[r0,#-4]
  83 009c 4D68     	 ldr r5,[r1,#4]
  84 009e C5FB0689 	 smlal r8,r9,r5,r6
  85 00a2 4F46     	 mov r7,r9
  86 00a4 013C     	 subs r4,r4,#1
  87 00a6 CFE7     	 b .L4
  88              	.L35:
  89 00a8 0299     	 ldr r1,[sp,#8]
  90 00aa 03F00305 	 and r5,r3,#3
  91 00ae 01EB0214 	 add r4,r1,r2,lsl#4
  92 00b2 04EB8505 	 add r5,r4,r5,lsl#2
  93 00b6 ACEB0212 	 sub r2,ip,r2,lsl#4
  94              	.L6:
  95 00ba AC42     	 cmp r4,r5
  96 00bc 0BD0     	 beq .L36
  97 00be 0026     	 movs r6,#0
  98 00c0 1397     	 str r7,[sp,#76]
  99 00c2 1296     	 str r6,[sp,#72]
 100 00c4 DDE91267 	 ldrd r6,[sp,#72]
 101 00c8 54F8040B 	 ldr r0,[r4],#4
 102 00cc 52F80419 	 ldr r1,[r2],#-4
 103 00d0 C1FB0067 	 smlal r6,r7,r1,r0
 104 00d4 F1E7     	 b .L6
 105              	.L36:
 106 00d6 039A     	 ldr r2,[sp,#12]
 107 00d8 7F00     	 lsls r7,r7,#1
 108 00da 42F8047B 	 str r7,[r2],#4
 109 00de 0CF1040C 	 add ip,ip,#4
 110 00e2 0392     	 str r2,[sp,#12]
 111 00e4 0133     	 adds r3,r3,#1
 112 00e6 A8E7     	 b .L3
 113              	.L34:
 114 00e8 03F18041 	 add r1,r3,#1073741824
 115 00ec 0139     	 subs r1,r1,#1
 116 00ee 5C9A     	 ldr r2,[sp,#368]
 117 00f0 8900     	 lsls r1,r1,#2
 118 00f2 0A44     	 add r2,r2,r1
 119 00f4 0392     	 str r2,[sp,#12]
 120 00f6 0A9A     	 ldr r2,[sp,#40]
 121 00f8 032B     	 cmp r3,#3
 122 00fa 0A44     	 add r2,r2,r1
 123 00fc 0492     	 str r2,[sp,#16]
 124 00fe 06D8     	 bhi .L9
 125 0100 039B     	 ldr r3,[sp,#12]
 126 0102 169A     	 ldr r2,[sp,#88]
 127 0104 0298     	 ldr r0,[sp,#8]
 128 0106 03EB820E 	 add lr,r3,r2,lsl#2
 129 010a 0431     	 adds r1,r1,#4
 130 010c 87E1     	 b .L10
 131              	.L9:
 132 010e 169A     	 ldr r2,[sp,#88]
 133 0110 9208     	 lsrs r2,r2,#2
 134 0112 1992     	 str r2,[sp,#100]
 135 0114 9A08     	 lsrs r2,r3,#2
 136 0116 1292     	 str r2,[sp,#72]
 137 0118 039A     	 ldr r2,[sp,#12]
 138 011a 1299     	 ldr r1,[sp,#72]
 139 011c 1032     	 adds r2,r2,#16
 140 011e 0A92     	 str r2,[sp,#40]
 141 0120 029A     	 ldr r2,[sp,#8]
 142 0122 02F10C0C 	 add ip,r2,#12
 143 0126 049A     	 ldr r2,[sp,#16]
 144 0128 03F00303 	 and r3,r3,#3
 145 012c A2EB0112 	 sub r2,r2,r1,lsl#4
 146 0130 9B00     	 lsls r3,r3,#2
 147 0132 1B92     	 str r2,[sp,#108]
 148 0134 1893     	 str r3,[sp,#96]
 149 0136 0A01     	 lsls r2,r1,#4
 150 0138 199B     	 ldr r3,[sp,#100]
 151 013a 1A92     	 str r2,[sp,#104]
 152 013c 1493     	 str r3,[sp,#80]
 153              	.L11:
 154 013e 149B     	 ldr r3,[sp,#80]
 155 0140 002B     	 cmp r3,#0
 156 0142 00F0FB80 	 beq .L37
 157 0146 049B     	 ldr r3,[sp,#16]
 158 0148 5CF80C4C 	 ldr r4,[ip,#-12]
 159 014c 5CF808EC 	 ldr lr,[ip,#-8]
 160 0150 5CF8042C 	 ldr r2,[ip,#-4]
 161 0154 DCF80090 	 ldr r9,[ip]
 162 0158 A3F11005 	 sub r5,r3,#16
 163 015c 129B     	 ldr r3,[sp,#72]
 164 015e 1793     	 str r3,[sp,#92]
 165 0160 0023     	 movs r3,#0
 166 0162 E046     	 mov r8,ip
 167 0164 0893     	 str r3,[sp,#32]
 168 0166 1846     	 mov r0,r3
 169 0168 0693     	 str r3,[sp,#24]
 170              	.L13:
 171 016a 1D90     	 str r0,[sp,#116]
 172 016c 0020     	 movs r0,#0
 173 016e 1C90     	 str r0,[sp,#112]
 174 0170 DDE91C01 	 ldrd r0,[sp,#112]
 175 0174 D5F810A0 	 ldr r10,[r5,#16]
 176 0178 069E     	 ldr r6,[sp,#24]
 177 017a 2193     	 str r3,[sp,#132]
 178 017c CAFB0E01 	 smlal r0,r1,r10,lr
 179 0180 CDE90601 	 strd r0,[sp,#24]
 180 0184 0899     	 ldr r1,[sp,#32]
 181 0186 1F91     	 str r1,[sp,#124]
 182 0188 0021     	 movs r1,#0
 183 018a 1E91     	 str r1,[sp,#120]
 184 018c DDE91E01 	 ldrd r0,[sp,#120]
 185 0190 0023     	 movs r3,#0
 186 0192 CAFB0201 	 smlal r0,r1,r10,r2
 187 0196 2093     	 str r3,[sp,#128]
 188 0198 CDE90801 	 strd r0,[sp,#32]
 189 019c DDE92001 	 ldrd r0,[sp,#128]
 190 01a0 CAFB0901 	 smlal r0,r1,r10,r9
 191 01a4 8B46     	 mov fp,r1
 192 01a6 0799     	 ldr r1,[sp,#28]
 193 01a8 2591     	 str r1,[sp,#148]
 194 01aa 0021     	 movs r1,#0
 195 01ac 2491     	 str r1,[sp,#144]
 196 01ae DDE92401 	 ldrd r0,[sp,#144]
 197 01b2 EB68     	 ldr r3,[r5,#12]
 198 01b4 0196     	 str r6,[sp,#4]
 199 01b6 0026     	 movs r6,#0
 200 01b8 C3FB0201 	 smlal r0,r1,r3,r2
 201 01bc 0096     	 str r6,[sp]
 202 01be CDE90601 	 strd r0,[sp,#24]
 203 01c2 DDE90067 	 ldrd r6,[sp]
 204 01c6 0999     	 ldr r1,[sp,#36]
 205 01c8 2791     	 str r1,[sp,#156]
 206 01ca 0021     	 movs r1,#0
 207 01cc 2691     	 str r1,[sp,#152]
 208 01ce CAFB0467 	 smlal r6,r7,r10,r4
 209 01d2 DDE92601 	 ldrd r0,[sp,#152]
 210 01d6 0026     	 movs r6,#0
 211 01d8 2397     	 str r7,[sp,#140]
 212 01da 2296     	 str r6,[sp,#136]
 213 01dc DDE92267 	 ldrd r6,[sp,#136]
 214 01e0 C3FB0901 	 smlal r0,r1,r3,r9
 215 01e4 CDE90801 	 strd r0,[sp,#32]
 216 01e8 0021     	 movs r1,#0
 217 01ea D8F80440 	 ldr r4,[r8,#4]
 218 01ee CDF8A4B0 	 str fp,[sp,#164]
 219 01f2 C3FB0E67 	 smlal r6,r7,r3,lr
 220 01f6 2891     	 str r1,[sp,#160]
 221 01f8 DDE928AB 	 ldrd r10,[sp,#160]
 222 01fc 2A91     	 str r1,[sp,#168]
 223 01fe 2B97     	 str r7,[sp,#172]
 224 0200 DDE92A67 	 ldrd r6,[sp,#168]
 225 0204 C3FB04AB 	 smlal r10,fp,r3,r4
 226 0208 AB68     	 ldr r3,[r5,#8]
 227 020a 2C91     	 str r1,[sp,#176]
 228 020c C3FB0267 	 smlal r6,r7,r3,r2
 229 0210 079A     	 ldr r2,[sp,#28]
 230 0212 2D92     	 str r2,[sp,#180]
 231 0214 DDE92C01 	 ldrd r0,[sp,#176]
 232 0218 50AA     	 add r2,sp,#320
 233 021a C3FB0901 	 smlal r0,r1,r3,r9
 234 021e C2E90001 	 strd r0,[r2]
 235 0222 099A     	 ldr r2,[sp,#36]
 236 0224 2F92     	 str r2,[sp,#188]
 237 0226 0022     	 movs r2,#0
 238 0228 2E92     	 str r2,[sp,#184]
 239 022a DDE92E01 	 ldrd r0,[sp,#184]
 240 022e 3092     	 str r2,[sp,#192]
 241 0230 C3FB0401 	 smlal r0,r1,r3,r4
 242 0234 CDF8C4B0 	 str fp,[sp,#196]
 243 0238 CDE90801 	 strd r0,[sp,#32]
 244 023c DDE930AB 	 ldrd r10,[sp,#192]
 245 0240 0021     	 movs r1,#0
 246 0242 D8F808E0 	 ldr lr,[r8,#8]
 247 0246 3397     	 str r7,[sp,#204]
 248 0248 3291     	 str r1,[sp,#200]
 249 024a DDE93201 	 ldrd r0,[sp,#200]
 250 024e C3FB0EAB 	 smlal r10,fp,r3,lr
 251 0252 6B68     	 ldr r3,[r5,#4]
 252 0254 D8F80C20 	 ldr r2,[r8,#12]
 253 0258 C3FB0901 	 smlal r0,r1,r3,r9
 254 025c 0691     	 str r1,[sp,#24]
 255 025e 5199     	 ldr r1,[sp,#324]
 256 0260 3591     	 str r1,[sp,#212]
 257 0262 0021     	 movs r1,#0
 258 0264 3491     	 str r1,[sp,#208]
 259 0266 DDE93401 	 ldrd r0,[sp,#208]
 260 026a C3FB0401 	 smlal r0,r1,r3,r4
 261 026e 0846     	 mov r0,r1
 262 0270 0999     	 ldr r1,[sp,#36]
 263 0272 3791     	 str r1,[sp,#220]
 264 0274 0021     	 movs r1,#0
 265 0276 3691     	 str r1,[sp,#216]
 266 0278 DDE93667 	 ldrd r6,[sp,#216]
 267 027c C3FB0E67 	 smlal r6,r7,r3,lr
 268 0280 0897     	 str r7,[sp,#32]
 269 0282 CDF8E4B0 	 str fp,[sp,#228]
 270 0286 3891     	 str r1,[sp,#224]
 271 0288 DDE93867 	 ldrd r6,[sp,#224]
 272 028c C3FB0267 	 smlal r6,r7,r3,r2
 273 0290 179E     	 ldr r6,[sp,#92]
 274 0292 013E     	 subs r6,r6,#1
 275 0294 3B46     	 mov r3,r7
 276 0296 A5F11005 	 sub r5,r5,#16
 277 029a 1796     	 str r6,[sp,#92]
 278 029c 02D0     	 beq .L12
 279 029e 58F8109F 	 ldr r9,[r8,#16]!
 280 02a2 62E7     	 b .L13
 281              	.L12:
 282 02a4 1A9D     	 ldr r5,[sp,#104]
 283 02a6 189E     	 ldr r6,[sp,#96]
 284 02a8 DDF86CB0 	 ldr fp,[sp,#108]
 285 02ac 6544     	 add r5,ip,r5
 286 02ae 05EB060A 	 add r10,r5,r6
 287              	.L14:
 288 02b2 5545     	 cmp r5,r10
 289 02b4 29D0     	 beq .L38
 290 02b6 0699     	 ldr r1,[sp,#24]
 291 02b8 0D91     	 str r1,[sp,#52]
 292 02ba 0021     	 movs r1,#0
 293 02bc 0C91     	 str r1,[sp,#48]
 294 02be DDE90C89 	 ldrd r8,[sp,#48]
 295 02c2 5BF80469 	 ldr r6,[fp],#-4
 296 02c6 3B90     	 str r0,[sp,#236]
 297 02c8 C6FB0489 	 smlal r8,r9,r6,r4
 298 02cc 3A91     	 str r1,[sp,#232]
 299 02ce CDF81890 	 str r9,[sp,#24]
 300 02d2 DDE93A89 	 ldrd r8,[sp,#232]
 301 02d6 0899     	 ldr r1,[sp,#32]
 302 02d8 3D91     	 str r1,[sp,#244]
 303 02da 0021     	 movs r1,#0
 304 02dc C6FB0E89 	 smlal r8,r9,r6,lr
 305 02e0 3C91     	 str r1,[sp,#240]
 306 02e2 4846     	 mov r0,r9
 307 02e4 DDE93C89 	 ldrd r8,[sp,#240]
 308 02e8 3F93     	 str r3,[sp,#252]
 309 02ea C6FB0289 	 smlal r8,r9,r6,r2
 310 02ee 3E91     	 str r1,[sp,#248]
 311 02f0 CDF82090 	 str r9,[sp,#32]
 312 02f4 DDE93E89 	 ldrd r8,[sp,#248]
 313 02f8 55F8047B 	 ldr r7,[r5],#4
 314 02fc C6FB0789 	 smlal r8,r9,r6,r7
 315 0300 7446     	 mov r4,lr
 316 0302 4B46     	 mov r3,r9
 317 0304 9646     	 mov lr,r2
 318 0306 3A46     	 mov r2,r7
 319 0308 D3E7     	 b .L14
 320              	.L38:
 321 030a 069A     	 ldr r2,[sp,#24]
 322 030c 5400     	 lsls r4,r2,#1
 323 030e 0A9A     	 ldr r2,[sp,#40]
 324 0310 4000     	 lsls r0,r0,#1
 325 0312 42F8104C 	 str r4,[r2,#-16]
 326 0316 42F80C0C 	 str r0,[r2,#-12]
 327 031a 089A     	 ldr r2,[sp,#32]
 328 031c 5100     	 lsls r1,r2,#1
 329 031e 0A9A     	 ldr r2,[sp,#40]
 330 0320 5B00     	 lsls r3,r3,#1
 331 0322 42F8043C 	 str r3,[r2,#-4]
 332 0326 149B     	 ldr r3,[sp,#80]
 333 0328 42F8081C 	 str r1,[r2,#-8]
 334 032c 013B     	 subs r3,r3,#1
 335 032e 1493     	 str r3,[sp,#80]
 336 0330 1346     	 mov r3,r2
 337 0332 1033     	 adds r3,r3,#16
 338 0334 0A93     	 str r3,[sp,#40]
 339 0336 0CF1100C 	 add ip,ip,#16
 340 033a 00E7     	 b .L11
 341              	.L37:
 342 033c 199B     	 ldr r3,[sp,#100]
 343 033e 4FEA031C 	 lsl ip,r3,#4
 344 0342 039B     	 ldr r3,[sp,#12]
 345 0344 6344     	 add r3,r3,ip
 346 0346 1846     	 mov r0,r3
 347 0348 029B     	 ldr r3,[sp,#8]
 348 034a 03EB0C01 	 add r1,r3,ip
 349 034e 169B     	 ldr r3,[sp,#88]
 350 0350 03F0030E 	 and lr,r3,#3
 351 0354 00EB8E0E 	 add lr,r0,lr,lsl#2
 352 0358 C1EB0C0C 	 rsb ip,r1,ip
 353              	.L17:
 354 035c 7045     	 cmp r0,lr
 355 035e 74D0     	 beq .L22
 356 0360 049B     	 ldr r3,[sp,#16]
 357 0362 129C     	 ldr r4,[sp,#72]
 358 0364 01F11002 	 add r2,r1,#16
 359 0368 103B     	 subs r3,r3,#16
 360 036a 0027     	 movs r7,#0
 361              	.L18:
 362 036c 0F97     	 str r7,[sp,#60]
 363 036e 0027     	 movs r7,#0
 364 0370 0E97     	 str r7,[sp,#56]
 365 0372 DDE90E89 	 ldrd r8,[sp,#56]
 366 0376 52F8106C 	 ldr r6,[r2,#-16]
 367 037a 1D69     	 ldr r5,[r3,#16]
 368 037c 0027     	 movs r7,#0
 369 037e C5FB0689 	 smlal r8,r9,r5,r6
 370 0382 4097     	 str r7,[sp,#256]
 371 0384 CDF80491 	 str r9,[sp,#260]
 372 0388 40AF     	 add r7,sp,#256
 373 038a D7E90089 	 ldrd r8,[r7]
 374 038e 52F80C6C 	 ldr r6,[r2,#-12]
 375 0392 DD68     	 ldr r5,[r3,#12]
 376 0394 0027     	 movs r7,#0
 377 0396 C5FB0689 	 smlal r8,r9,r5,r6
 378 039a 4297     	 str r7,[sp,#264]
 379 039c CDF80C91 	 str r9,[sp,#268]
 380 03a0 42AF     	 add r7,sp,#264
 381 03a2 D7E90089 	 ldrd r8,[r7]
 382 03a6 52F8086C 	 ldr r6,[r2,#-8]
 383 03aa 9D68     	 ldr r5,[r3,#8]
 384 03ac 0027     	 movs r7,#0
 385 03ae C5FB0689 	 smlal r8,r9,r5,r6
 386 03b2 4497     	 str r7,[sp,#272]
 387 03b4 CDF81491 	 str r9,[sp,#276]
 388 03b8 44AF     	 add r7,sp,#272
 389 03ba D7E90089 	 ldrd r8,[r7]
 390 03be 52F8046C 	 ldr r6,[r2,#-4]
 391 03c2 5D68     	 ldr r5,[r3,#4]
 392 03c4 013C     	 subs r4,r4,#1
 393 03c6 C5FB0689 	 smlal r8,r9,r5,r6
 394 03ca 4F46     	 mov r7,r9
 395 03cc 02F11002 	 add r2,r2,#16
 396 03d0 A3F11003 	 sub r3,r3,#16
 397 03d4 CAD1     	 bne .L18
 398 03d6 1A9B     	 ldr r3,[sp,#104]
 399 03d8 1B9D     	 ldr r5,[sp,#108]
 400 03da CC18     	 adds r4,r1,r3
 401 03dc 189B     	 ldr r3,[sp,#96]
 402 03de E618     	 adds r6,r4,r3
 403              	.L19:
 404 03e0 B442     	 cmp r4,r6
 405 03e2 0DD0     	 beq .L39
 406 03e4 4797     	 str r7,[sp,#284]
 407 03e6 0027     	 movs r7,#0
 408 03e8 4697     	 str r7,[sp,#280]
 409 03ea 46AF     	 add r7,sp,#280
 410 03ec D7E90089 	 ldrd r8,[r7]
 411 03f0 54F8042B 	 ldr r2,[r4],#4
 412 03f4 55F80439 	 ldr r3,[r5],#-4
 413 03f8 C3FB0289 	 smlal r8,r9,r3,r2
 414 03fc 4F46     	 mov r7,r9
 415 03fe EFE7     	 b .L19
 416              	.L39:
 417 0400 0CF10403 	 add r3,ip,#4
 418 0404 1944     	 add r1,r1,r3
 419 0406 029B     	 ldr r3,[sp,#8]
 420 0408 7F00     	 lsls r7,r7,#1
 421 040a 40F8047B 	 str r7,[r0],#4
 422 040e 1944     	 add r1,r1,r3
 423 0410 A4E7     	 b .L17
 424              	.L40:
 425 0412 039A     	 ldr r2,[sp,#12]
 426 0414 5B00     	 lsls r3,r3,#1
 427 0416 42F8043B 	 str r3,[r2],#4
 428 041a 0430     	 adds r0,r0,#4
 429 041c 0392     	 str r2,[sp,#12]
 430              	.L10:
 431 041e 039B     	 ldr r3,[sp,#12]
 432 0420 7345     	 cmp r3,lr
 433 0422 12D0     	 beq .L22
 434 0424 049D     	 ldr r5,[sp,#16]
 435 0426 4618     	 adds r6,r0,r1
 436 0428 0446     	 mov r4,r0
 437 042a 0023     	 movs r3,#0
 438              	.L24:
 439 042c B442     	 cmp r4,r6
 440 042e F0D0     	 beq .L40
 441 0430 1593     	 str r3,[sp,#84]
 442 0432 0023     	 movs r3,#0
 443 0434 1493     	 str r3,[sp,#80]
 444 0436 DDE91489 	 ldrd r8,[sp,#80]
 445 043a 54F8047B 	 ldr r7,[r4],#4
 446 043e 55F80429 	 ldr r2,[r5],#-4
 447 0442 C2FB0789 	 smlal r8,r9,r2,r7
 448 0446 4B46     	 mov r3,r9
 449 0448 F0E7     	 b .L24
 450              	.L22:
 451 044a 029B     	 ldr r3,[sp,#8]
 452 044c 169A     	 ldr r2,[sp,#88]
 453 044e 03EB8200 	 add r0,r3,r2,lsl#2
 454              	.L25:
 455 0452 0B9B     	 ldr r3,[sp,#44]
 456 0454 002B     	 cmp r3,#0
 457 0456 5BD0     	 beq .L41
 458 0458 0B9B     	 ldr r3,[sp,#44]
 459 045a 049A     	 ldr r2,[sp,#16]
 460 045c 9B08     	 lsrs r3,r3,#2
 461 045e 0446     	 mov r4,r0
 462 0460 1946     	 mov r1,r3
 463 0462 0027     	 movs r7,#0
 464              	.L26:
 465 0464 1034     	 adds r4,r4,#16
 466 0466 103A     	 subs r2,r2,#16
 467 0468 0029     	 cmp r1,#0
 468 046a 30D0     	 beq .L42
 469 046c 1197     	 str r7,[sp,#68]
 470 046e 0027     	 movs r7,#0
 471 0470 1097     	 str r7,[sp,#64]
 472 0472 DDE91089 	 ldrd r8,[sp,#64]
 473 0476 54F8106C 	 ldr r6,[r4,#-16]
 474 047a 1569     	 ldr r5,[r2,#16]
 475 047c 0027     	 movs r7,#0
 476 047e C5FB0689 	 smlal r8,r9,r5,r6
 477 0482 4897     	 str r7,[sp,#288]
 478 0484 CDF82491 	 str r9,[sp,#292]
 479 0488 48AF     	 add r7,sp,#288
 480 048a D7E90089 	 ldrd r8,[r7]
 481 048e 54F80C6C 	 ldr r6,[r4,#-12]
 482 0492 D568     	 ldr r5,[r2,#12]
 483 0494 0027     	 movs r7,#0
 484 0496 C5FB0689 	 smlal r8,r9,r5,r6
 485 049a 4A97     	 str r7,[sp,#296]
 486 049c CDF82C91 	 str r9,[sp,#300]
 487 04a0 4AAF     	 add r7,sp,#296
 488 04a2 D7E90089 	 ldrd r8,[r7]
 489 04a6 54F8086C 	 ldr r6,[r4,#-8]
 490 04aa 9568     	 ldr r5,[r2,#8]
 491 04ac 0027     	 movs r7,#0
 492 04ae C5FB0689 	 smlal r8,r9,r5,r6
 493 04b2 4C97     	 str r7,[sp,#304]
 494 04b4 CDF83491 	 str r9,[sp,#308]
 495 04b8 4CAF     	 add r7,sp,#304
 496 04ba D7E90089 	 ldrd r8,[r7]
 497 04be 54F8046C 	 ldr r6,[r4,#-4]
 498 04c2 5568     	 ldr r5,[r2,#4]
 499 04c4 C5FB0689 	 smlal r8,r9,r5,r6
 500 04c8 4F46     	 mov r7,r9
 501 04ca 0139     	 subs r1,r1,#1
 502 04cc CAE7     	 b .L26
 503              	.L42:
 504 04ce 049A     	 ldr r2,[sp,#16]
 505 04d0 00EB0311 	 add r1,r0,r3,lsl#4
 506 04d4 A2EB0315 	 sub r5,r2,r3,lsl#4
 507 04d8 0B9B     	 ldr r3,[sp,#44]
 508 04da 03F00304 	 and r4,r3,#3
 509 04de 01EB8404 	 add r4,r1,r4,lsl#2
 510              	.L28:
 511 04e2 A142     	 cmp r1,r4
 512 04e4 0CD0     	 beq .L43
 513 04e6 0026     	 movs r6,#0
 514 04e8 4E96     	 str r6,[sp,#312]
 515 04ea 4F97     	 str r7,[sp,#316]
 516 04ec 4EAE     	 add r6,sp,#312
 517 04ee D6E90067 	 ldrd r6,[r6]
 518 04f2 51F8042B 	 ldr r2,[r1],#4
 519 04f6 55F80439 	 ldr r3,[r5],#-4
 520 04fa C3FB0267 	 smlal r6,r7,r3,r2
 521 04fe F0E7     	 b .L28
 522              	.L43:
 523 0500 0B9B     	 ldr r3,[sp,#44]
 524 0502 7F00     	 lsls r7,r7,#1
 525 0504 013B     	 subs r3,r3,#1
 526 0506 4EF8047B 	 str r7,[lr],#4
 527 050a 0430     	 adds r0,r0,#4
 528 050c 0B93     	 str r3,[sp,#44]
 529 050e A0E7     	 b .L25
 530              	.L41:
 531 0510 53B0     	 add sp,sp,#332
 532              	 
 533 0512 BDE8F08F 	 pop {r4,r5,r6,r7,r8,r9,r10,fp,pc}
 535              	 .ident "GCC: (GNU Tools for ARM Embedded Processors) 4.9.3 20141119 (release) [ARM/embedded-4_9-branch revision 218278]"
DEFINED SYMBOLS
                            *ABS*:00000000 arm_conv_fast_q31.c
    {standard input}:17     .text.arm_conv_fast_q31:00000000 $t
    {standard input}:22     .text.arm_conv_fast_q31:00000000 arm_conv_fast_q31

NO UNDEFINED SYMBOLS
