   1              	 .syntax unified
   2              	 .cpu cortex-m4
   3              	 .eabi_attribute 27,3
   4              	 .fpu fpv4-sp-d16
   5              	 .eabi_attribute 20,1
   6              	 .eabi_attribute 21,1
   7              	 .eabi_attribute 23,3
   8              	 .eabi_attribute 24,1
   9              	 .eabi_attribute 25,1
  10              	 .eabi_attribute 26,1
  11              	 .eabi_attribute 30,4
  12              	 .eabi_attribute 34,1
  13              	 .eabi_attribute 18,4
  14              	 .thumb
  15              	 .file "arm_biquad_cascade_df1_32x64_q31.c"
  16              	 .global __aeabi_llsl
  17              	 .section .text.arm_biquad_cas_df1_32x64_q31,"ax",%progbits
  18              	 .align 1
  19              	 .global arm_biquad_cas_df1_32x64_q31
  20              	 .thumb
  21              	 .thumb_func
  23              	arm_biquad_cas_df1_32x64_q31:
  24              	 
  25              	 
  26 0000 2DE9F04F 	 push {r4,r5,r6,r7,r8,r9,r10,fp,lr}
  27 0004 B5B0     	 sub sp,sp,#212
  28 0006 1792     	 str r2,[sp,#92]
  29 0008 027B     	 ldrb r2,[r0,#12]
  30 000a 1691     	 str r1,[sp,#88]
  31 000c 511C     	 adds r1,r2,#1
  32 000e C2F11F02 	 rsb r2,r2,#31
  33 0012 0E92     	 str r2,[sp,#56]
  34 0014 9A08     	 lsrs r2,r3,#2
  35 0016 1992     	 str r2,[sp,#100]
  36 0018 8268     	 ldr r2,[r0,#8]
  37 001a 0691     	 str r1,[sp,#24]
  38 001c 1432     	 adds r2,r2,#20
  39 001e 0792     	 str r2,[sp,#28]
  40 0020 4268     	 ldr r2,[r0,#4]
  41 0022 0178     	 ldrb r1,[r0]
  42 0024 1891     	 str r1,[sp,#96]
  43 0026 02F1200C 	 add ip,r2,#32
  44 002a 199A     	 ldr r2,[sp,#100]
  45 002c 1201     	 lsls r2,r2,#4
  46 002e 1A92     	 str r2,[sp,#104]
  47 0030 1A99     	 ldr r1,[sp,#104]
  48 0032 179A     	 ldr r2,[sp,#92]
  49 0034 03F00303 	 and r3,r3,#3
  50 0038 0A44     	 add r2,r2,r1
  51 003a 02EB8303 	 add r3,r2,r3,lsl#2
  52 003e 1B92     	 str r2,[sp,#108]
  53 0040 3293     	 str r3,[sp,#200]
  54              	.L6:
  55 0042 079B     	 ldr r3,[sp,#28]
  56 0044 5CF820AC 	 ldr r10,[ip,#-32]
  57 0048 53F8143C 	 ldr r3,[r3,#-20]
  58 004c 0F93     	 str r3,[sp,#60]
  59 004e 079B     	 ldr r3,[sp,#28]
  60 0050 5CF818BC 	 ldr fp,[ip,#-24]
  61 0054 53F8103C 	 ldr r3,[r3,#-16]
  62 0058 1093     	 str r3,[sp,#64]
  63 005a 079B     	 ldr r3,[sp,#28]
  64 005c 53F80C3C 	 ldr r3,[r3,#-12]
  65 0060 1193     	 str r3,[sp,#68]
  66 0062 079B     	 ldr r3,[sp,#28]
  67 0064 13E93000 	 ldmdb r3,{r4,r5}
  68 0068 5CE90223 	 ldrd r2,[ip,#-8]
  69 006c CDE90023 	 strd r2,[sp]
  70 0070 169B     	 ldr r3,[sp,#88]
  71 0072 1033     	 adds r3,r3,#16
  72 0074 0A93     	 str r3,[sp,#40]
  73 0076 179B     	 ldr r3,[sp,#92]
  74 0078 5CE90489 	 ldrd r8,[ip,#-16]
  75 007c 1033     	 adds r3,r3,#16
  76 007e 0B93     	 str r3,[sp,#44]
  77 0080 199B     	 ldr r3,[sp,#100]
  78 0082 1493     	 str r3,[sp,#80]
  79              	.L2:
  80 0084 149B     	 ldr r3,[sp,#80]
  81 0086 002B     	 cmp r3,#0
  82 0088 00F0B481 	 beq .L9
  83 008c 0A9B     	 ldr r3,[sp,#40]
  84 008e 0F9A     	 ldr r2,[sp,#60]
  85 0090 53F8103C 	 ldr r3,[r3,#-16]
  86 0094 1293     	 str r3,[sp,#72]
  87 0096 109B     	 ldr r3,[sp,#64]
  88 0098 CDF8CCC0 	 str ip,[sp,#204]
  89 009c 8AFB0367 	 smull r6,r7,r10,r3
  90 00a0 129B     	 ldr r3,[sp,#72]
  91 00a2 C2FB0367 	 smlal r6,r7,r2,r3
  92 00a6 119B     	 ldr r3,[sp,#68]
  93 00a8 4246     	 mov r2,r8
  94 00aa C3FB0B67 	 smlal r6,r7,r3,fp
  95 00ae 0023     	 movs r3,#0
  96 00b0 CDE90823 	 strd r2,[sp,#32]
  97 00b4 2246     	 mov r2,r4
  98 00b6 E317     	 asrs r3,r4,#31
  99 00b8 CDE90223 	 strd r2,[sp,#8]
 100 00bc 039A     	 ldr r2,[sp,#12]
 101 00be 089B     	 ldr r3,[sp,#32]
 102 00c0 5343     	 muls r3,r2,r3
 103 00c2 099A     	 ldr r2,[sp,#36]
 104 00c4 04FB0233 	 mla r3,r4,r2,r3
 105 00c8 089A     	 ldr r2,[sp,#32]
 106 00ca A2FB0401 	 umull r0,r1,r2,r4
 107 00ce 0B44     	 add r3,r3,r1
 108 00d0 1C93     	 str r3,[sp,#112]
 109 00d2 DB17     	 asrs r3,r3,#31
 110 00d4 1D93     	 str r3,[sp,#116]
 111 00d6 039B     	 ldr r3,[sp,#12]
 112 00d8 4FEAE97B 	 asr fp,r9,#31
 113 00dc 09FB03F3 	 mul r3,r9,r3
 114 00e0 CDE90467 	 strd r6,[sp,#16]
 115 00e4 04FB0B33 	 mla r3,r4,fp,r3
 116 00e8 A9FB0467 	 umull r6,r7,r9,r4
 117 00ec 1F44     	 add r7,r7,r3
 118 00ee DDE91C23 	 ldrd r2,[sp,#112]
 119 00f2 9219     	 adds r2,r2,r6
 120 00f4 7B41     	 adcs r3,r3,r7
 121 00f6 1646     	 mov r6,r2
 122 00f8 1F46     	 mov r7,r3
 123 00fa DDE90423 	 ldrd r2,[sp,#16]
 124 00fe 9219     	 adds r2,r2,r6
 125 0100 7B41     	 adcs r3,r3,r7
 126 0102 2846     	 mov r0,r5
 127 0104 E917     	 asrs r1,r5,#31
 128 0106 CDE90401 	 strd r0,[sp,#16]
 129 010a CDE90C23 	 strd r2,[sp,#48]
 130 010e DDE90023 	 ldrd r2,[sp]
 131 0112 0599     	 ldr r1,[sp,#20]
 132 0114 0023     	 movs r3,#0
 133 0116 5143     	 muls r1,r2,r1
 134 0118 05FB0311 	 mla r1,r5,r3,r1
 135 011c A2FB0523 	 umull r2,r3,r2,r5
 136 0120 1944     	 add r1,r1,r3
 137 0122 CB17     	 asrs r3,r1,#31
 138 0124 1E91     	 str r1,[sp,#120]
 139 0126 1F93     	 str r3,[sp,#124]
 140 0128 0599     	 ldr r1,[sp,#20]
 141 012a 019B     	 ldr r3,[sp,#4]
 142 012c DA17     	 asrs r2,r3,#31
 143 012e 4B43     	 muls r3,r1,r3
 144 0130 05FB0233 	 mla r3,r5,r2,r3
 145 0134 019A     	 ldr r2,[sp,#4]
 146 0136 A2FB0567 	 umull r6,r7,r2,r5
 147 013a 1F44     	 add r7,r7,r3
 148 013c DDE91E23 	 ldrd r2,[sp,#120]
 149 0140 9219     	 adds r2,r2,r6
 150 0142 7B41     	 adcs r3,r3,r7
 151 0144 1646     	 mov r6,r2
 152 0146 1F46     	 mov r7,r3
 153 0148 DDE90C23 	 ldrd r2,[sp,#48]
 154 014c 9219     	 adds r2,r2,r6
 155 014e 7B41     	 adcs r3,r3,r7
 156 0150 1646     	 mov r6,r2
 157 0152 1046     	 mov r0,r2
 158 0154 1946     	 mov r1,r3
 159 0156 069A     	 ldr r2,[sp,#24]
 160 0158 1F46     	 mov r7,r3
 161 015a FFF7FEFF 	 bl __aeabi_llsl
 162 015e 0E9A     	 ldr r2,[sp,#56]
 163 0160 069B     	 ldr r3,[sp,#24]
 164 0162 D640     	 lsrs r6,r6,r2
 165 0164 07FA03F3 	 lsl r3,r7,r3
 166 0168 1E43     	 orrs r6,r6,r3
 167 016a 0B9B     	 ldr r3,[sp,#44]
 168 016c 0F9A     	 ldr r2,[sp,#60]
 169 016e 43F8106C 	 str r6,[r3,#-16]
 170 0172 0A9B     	 ldr r3,[sp,#40]
 171 0174 53F80C3C 	 ldr r3,[r3,#-12]
 172 0178 1593     	 str r3,[sp,#84]
 173 017a 83FB0267 	 smull r6,r7,r3,r2
 174 017e 109A     	 ldr r2,[sp,#64]
 175 0180 129B     	 ldr r3,[sp,#72]
 176 0182 CDE90C01 	 strd r0,[sp,#48]
 177 0186 C2FB0367 	 smlal r6,r7,r2,r3
 178 018a 119B     	 ldr r3,[sp,#68]
 179 018c 0246     	 mov r2,r0
 180 018e C3FB0A67 	 smlal r6,r7,r3,r10
 181 0192 0023     	 movs r3,#0
 182 0194 CDE90023 	 strd r2,[sp]
 183 0198 0D9B     	 ldr r3,[sp,#52]
 184 019a 039A     	 ldr r2,[sp,#12]
 185 019c 4FEAE37A 	 asr r10,r3,#31
 186 01a0 009B     	 ldr r3,[sp]
 187 01a2 5343     	 muls r3,r2,r3
 188 01a4 019A     	 ldr r2,[sp,#4]
 189 01a6 04FB0233 	 mla r3,r4,r2,r3
 190 01aa 009A     	 ldr r2,[sp]
 191 01ac A2FB0401 	 umull r0,r1,r2,r4
 192 01b0 0B44     	 add r3,r3,r1
 193 01b2 2093     	 str r3,[sp,#128]
 194 01b4 DB17     	 asrs r3,r3,#31
 195 01b6 2193     	 str r3,[sp,#132]
 196 01b8 039A     	 ldr r2,[sp,#12]
 197 01ba 0D9B     	 ldr r3,[sp,#52]
 198 01bc 5343     	 muls r3,r2,r3
 199 01be 0D9A     	 ldr r2,[sp,#52]
 200 01c0 CDE93067 	 strd r6,[sp,#192]
 201 01c4 04FB0A33 	 mla r3,r4,r10,r3
 202 01c8 A2FB0467 	 umull r6,r7,r2,r4
 203 01cc 1F44     	 add r7,r7,r3
 204 01ce DDE92023 	 ldrd r2,[sp,#128]
 205 01d2 9219     	 adds r2,r2,r6
 206 01d4 7B41     	 adcs r3,r3,r7
 207 01d6 1646     	 mov r6,r2
 208 01d8 1F46     	 mov r7,r3
 209 01da DDE93023 	 ldrd r2,[sp,#192]
 210 01de 9219     	 adds r2,r2,r6
 211 01e0 7B41     	 adcs r3,r3,r7
 212 01e2 CDE93023 	 strd r2,[sp,#192]
 213 01e6 089B     	 ldr r3,[sp,#32]
 214 01e8 059A     	 ldr r2,[sp,#20]
 215 01ea 5343     	 muls r3,r2,r3
 216 01ec 099A     	 ldr r2,[sp,#36]
 217 01ee 05FB0233 	 mla r3,r5,r2,r3
 218 01f2 089A     	 ldr r2,[sp,#32]
 219 01f4 A2FB0501 	 umull r0,r1,r2,r5
 220 01f8 0B44     	 add r3,r3,r1
 221 01fa 2293     	 str r3,[sp,#136]
 222 01fc DB17     	 asrs r3,r3,#31
 223 01fe 2393     	 str r3,[sp,#140]
 224 0200 059B     	 ldr r3,[sp,#20]
 225 0202 09FB03F3 	 mul r3,r9,r3
 226 0206 05FB0B3B 	 mla fp,r5,fp,r3
 227 020a DDE92223 	 ldrd r2,[sp,#136]
 228 020e A9FB0567 	 umull r6,r7,r9,r5
 229 0212 9219     	 adds r2,r2,r6
 230 0214 5F44     	 add r7,r7,fp
 231 0216 7B41     	 adcs r3,r3,r7
 232 0218 1646     	 mov r6,r2
 233 021a 1F46     	 mov r7,r3
 234 021c DDE93023 	 ldrd r2,[sp,#192]
 235 0220 9219     	 adds r2,r2,r6
 236 0222 7B41     	 adcs r3,r3,r7
 237 0224 1646     	 mov r6,r2
 238 0226 1046     	 mov r0,r2
 239 0228 1946     	 mov r1,r3
 240 022a 069A     	 ldr r2,[sp,#24]
 241 022c 1F46     	 mov r7,r3
 242 022e FFF7FEFF 	 bl __aeabi_llsl
 243 0232 0E9A     	 ldr r2,[sp,#56]
 244 0234 069B     	 ldr r3,[sp,#24]
 245 0236 D640     	 lsrs r6,r6,r2
 246 0238 07FA03F3 	 lsl r3,r7,r3
 247 023c 1E43     	 orrs r6,r6,r3
 248 023e 0A9B     	 ldr r3,[sp,#40]
 249 0240 109A     	 ldr r2,[sp,#64]
 250 0242 53F808BC 	 ldr fp,[r3,#-8]
 251 0246 0B9B     	 ldr r3,[sp,#44]
 252 0248 43F80C6C 	 str r6,[r3,#-12]
 253 024c 159B     	 ldr r3,[sp,#84]
 254 024e 83FB0267 	 smull r6,r7,r3,r2
 255 0252 0F9B     	 ldr r3,[sp,#60]
 256 0254 119A     	 ldr r2,[sp,#68]
 257 0256 C3FB0B67 	 smlal r6,r7,r3,fp
 258 025a 129B     	 ldr r3,[sp,#72]
 259 025c C2FB0367 	 smlal r6,r7,r2,r3
 260 0260 0246     	 mov r2,r0
 261 0262 0023     	 movs r3,#0
 262 0264 CDE90823 	 strd r2,[sp,#32]
 263 0268 CDE91267 	 strd r6,[sp,#72]
 264 026c 089B     	 ldr r3,[sp,#32]
 265 026e 039A     	 ldr r2,[sp,#12]
 266 0270 5343     	 muls r3,r2,r3
 267 0272 099A     	 ldr r2,[sp,#36]
 268 0274 04FB0233 	 mla r3,r4,r2,r3
 269 0278 089A     	 ldr r2,[sp,#32]
 270 027a 8946     	 mov r9,r1
 271 027c 4FEAE178 	 asr r8,r1,#31
 272 0280 A2FB0401 	 umull r0,r1,r2,r4
 273 0284 0B44     	 add r3,r3,r1
 274 0286 2493     	 str r3,[sp,#144]
 275 0288 DB17     	 asrs r3,r3,#31
 276 028a 2593     	 str r3,[sp,#148]
 277 028c 039B     	 ldr r3,[sp,#12]
 278 028e 09FB03F3 	 mul r3,r9,r3
 279 0292 A9FB0467 	 umull r6,r7,r9,r4
 280 0296 04FB0833 	 mla r3,r4,r8,r3
 281 029a 1F44     	 add r7,r7,r3
 282 029c DDE92423 	 ldrd r2,[sp,#144]
 283 02a0 9219     	 adds r2,r2,r6
 284 02a2 7B41     	 adcs r3,r3,r7
 285 02a4 1646     	 mov r6,r2
 286 02a6 1F46     	 mov r7,r3
 287 02a8 DDE91223 	 ldrd r2,[sp,#72]
 288 02ac 9219     	 adds r2,r2,r6
 289 02ae 7B41     	 adcs r3,r3,r7
 290 02b0 CDE91223 	 strd r2,[sp,#72]
 291 02b4 009B     	 ldr r3,[sp]
 292 02b6 059A     	 ldr r2,[sp,#20]
 293 02b8 5343     	 muls r3,r2,r3
 294 02ba 019A     	 ldr r2,[sp,#4]
 295 02bc 05FB0233 	 mla r3,r5,r2,r3
 296 02c0 009A     	 ldr r2,[sp]
 297 02c2 A2FB0501 	 umull r0,r1,r2,r5
 298 02c6 0B44     	 add r3,r3,r1
 299 02c8 2693     	 str r3,[sp,#152]
 300 02ca DB17     	 asrs r3,r3,#31
 301 02cc 2793     	 str r3,[sp,#156]
 302 02ce 059A     	 ldr r2,[sp,#20]
 303 02d0 0D9B     	 ldr r3,[sp,#52]
 304 02d2 5343     	 muls r3,r2,r3
 305 02d4 05FB0A3A 	 mla r10,r5,r10,r3
 306 02d8 0D9B     	 ldr r3,[sp,#52]
 307 02da A3FB0567 	 umull r6,r7,r3,r5
 308 02de DDE92623 	 ldrd r2,[sp,#152]
 309 02e2 5744     	 add r7,r7,r10
 310 02e4 9219     	 adds r2,r2,r6
 311 02e6 7B41     	 adcs r3,r3,r7
 312 02e8 1646     	 mov r6,r2
 313 02ea 1F46     	 mov r7,r3
 314 02ec DDE91223 	 ldrd r2,[sp,#72]
 315 02f0 9219     	 adds r2,r2,r6
 316 02f2 7B41     	 adcs r3,r3,r7
 317 02f4 1646     	 mov r6,r2
 318 02f6 1046     	 mov r0,r2
 319 02f8 1946     	 mov r1,r3
 320 02fa 069A     	 ldr r2,[sp,#24]
 321 02fc 1F46     	 mov r7,r3
 322 02fe FFF7FEFF 	 bl __aeabi_llsl
 323 0302 0E9A     	 ldr r2,[sp,#56]
 324 0304 069B     	 ldr r3,[sp,#24]
 325 0306 D640     	 lsrs r6,r6,r2
 326 0308 07FA03F3 	 lsl r3,r7,r3
 327 030c 1E43     	 orrs r6,r6,r3
 328 030e 0B9B     	 ldr r3,[sp,#44]
 329 0310 119A     	 ldr r2,[sp,#68]
 330 0312 43F8086C 	 str r6,[r3,#-8]
 331 0316 0A9B     	 ldr r3,[sp,#40]
 332 0318 53F804AC 	 ldr r10,[r3,#-4]
 333 031c 109B     	 ldr r3,[sp,#64]
 334 031e 8BFB0367 	 smull r6,r7,fp,r3
 335 0322 0F9B     	 ldr r3,[sp,#60]
 336 0324 C3FB0A67 	 smlal r6,r7,r3,r10
 337 0328 159B     	 ldr r3,[sp,#84]
 338 032a CDE90001 	 strd r0,[sp]
 339 032e 0399     	 ldr r1,[sp,#12]
 340 0330 C2FB0367 	 smlal r6,r7,r2,r3
 341 0334 0246     	 mov r2,r0
 342 0336 0023     	 movs r3,#0
 343 0338 5143     	 muls r1,r2,r1
 344 033a 04FB0311 	 mla r1,r4,r3,r1
 345 033e A2FB0423 	 umull r2,r3,r2,r4
 346 0342 1944     	 add r1,r1,r3
 347 0344 CB17     	 asrs r3,r1,#31
 348 0346 CDE90C67 	 strd r6,[sp,#48]
 349 034a 2891     	 str r1,[sp,#160]
 350 034c 2993     	 str r3,[sp,#164]
 351 034e 019B     	 ldr r3,[sp,#4]
 352 0350 0399     	 ldr r1,[sp,#12]
 353 0352 DA17     	 asrs r2,r3,#31
 354 0354 4B43     	 muls r3,r1,r3
 355 0356 04FB0233 	 mla r3,r4,r2,r3
 356 035a 019A     	 ldr r2,[sp,#4]
 357 035c A2FB0467 	 umull r6,r7,r2,r4
 358 0360 1F44     	 add r7,r7,r3
 359 0362 DDE92823 	 ldrd r2,[sp,#160]
 360 0366 9219     	 adds r2,r2,r6
 361 0368 7B41     	 adcs r3,r3,r7
 362 036a 1646     	 mov r6,r2
 363 036c 1F46     	 mov r7,r3
 364 036e DDE90C23 	 ldrd r2,[sp,#48]
 365 0372 9219     	 adds r2,r2,r6
 366 0374 7B41     	 adcs r3,r3,r7
 367 0376 CDE90223 	 strd r2,[sp,#8]
 368 037a 059A     	 ldr r2,[sp,#20]
 369 037c 089B     	 ldr r3,[sp,#32]
 370 037e 5343     	 muls r3,r2,r3
 371 0380 099A     	 ldr r2,[sp,#36]
 372 0382 05FB0233 	 mla r3,r5,r2,r3
 373 0386 089A     	 ldr r2,[sp,#32]
 374 0388 A2FB0501 	 umull r0,r1,r2,r5
 375 038c 0B44     	 add r3,r3,r1
 376 038e 2A93     	 str r3,[sp,#168]
 377 0390 DB17     	 asrs r3,r3,#31
 378 0392 2B93     	 str r3,[sp,#172]
 379 0394 059B     	 ldr r3,[sp,#20]
 380 0396 09FB03F3 	 mul r3,r9,r3
 381 039a A9FB0567 	 umull r6,r7,r9,r5
 382 039e 05FB0833 	 mla r3,r5,r8,r3
 383 03a2 1F44     	 add r7,r7,r3
 384 03a4 DDE92A23 	 ldrd r2,[sp,#168]
 385 03a8 9219     	 adds r2,r2,r6
 386 03aa 7B41     	 adcs r3,r3,r7
 387 03ac 1646     	 mov r6,r2
 388 03ae 1F46     	 mov r7,r3
 389 03b0 DDE90223 	 ldrd r2,[sp,#8]
 390 03b4 9219     	 adds r2,r2,r6
 391 03b6 7B41     	 adcs r3,r3,r7
 392 03b8 1646     	 mov r6,r2
 393 03ba 1046     	 mov r0,r2
 394 03bc 1946     	 mov r1,r3
 395 03be 069A     	 ldr r2,[sp,#24]
 396 03c0 1F46     	 mov r7,r3
 397 03c2 FFF7FEFF 	 bl __aeabi_llsl
 398 03c6 069B     	 ldr r3,[sp,#24]
 399 03c8 0E9A     	 ldr r2,[sp,#56]
 400 03ca DDF8CCC0 	 ldr ip,[sp,#204]
 401 03ce 07FA03F3 	 lsl r3,r7,r3
 402 03d2 D640     	 lsrs r6,r6,r2
 403 03d4 1E43     	 orrs r6,r6,r3
 404 03d6 0B9B     	 ldr r3,[sp,#44]
 405 03d8 43F8046C 	 str r6,[r3,#-4]
 406 03dc 149B     	 ldr r3,[sp,#80]
 407 03de 013B     	 subs r3,r3,#1
 408 03e0 1493     	 str r3,[sp,#80]
 409 03e2 0A9B     	 ldr r3,[sp,#40]
 410 03e4 1033     	 adds r3,r3,#16
 411 03e6 0A93     	 str r3,[sp,#40]
 412 03e8 0B9B     	 ldr r3,[sp,#44]
 413 03ea 1033     	 adds r3,r3,#16
 414 03ec 8046     	 mov r8,r0
 415 03ee 8946     	 mov r9,r1
 416 03f0 0B93     	 str r3,[sp,#44]
 417 03f2 47E6     	 b .L2
 418              	.L9:
 419 03f4 169B     	 ldr r3,[sp,#88]
 420 03f6 1A9A     	 ldr r2,[sp,#104]
 421 03f8 1344     	 add r3,r3,r2
 422 03fa 0493     	 str r3,[sp,#16]
 423 03fc 1B9B     	 ldr r3,[sp,#108]
 424 03fe 0293     	 str r3,[sp,#8]
 425              	.L4:
 426 0400 029B     	 ldr r3,[sp,#8]
 427 0402 329A     	 ldr r2,[sp,#200]
 428 0404 9342     	 cmp r3,r2
 429 0406 72D0     	 beq .L10
 430 0408 049B     	 ldr r3,[sp,#16]
 431 040a CDF82CC0 	 str ip,[sp,#44]
 432 040e 1A46     	 mov r2,r3
 433 0410 E117     	 asrs r1,r4,#31
 434 0412 52F8043B 	 ldr r3,[r2],#4
 435 0416 0A93     	 str r3,[sp,#40]
 436 0418 109B     	 ldr r3,[sp,#64]
 437 041a 0492     	 str r2,[sp,#16]
 438 041c 8AFB0367 	 smull r6,r7,r10,r3
 439 0420 0F9A     	 ldr r2,[sp,#60]
 440 0422 0A9B     	 ldr r3,[sp,#40]
 441 0424 C2FB0367 	 smlal r6,r7,r2,r3
 442 0428 119B     	 ldr r3,[sp,#68]
 443 042a 08FB01F0 	 mul r0,r8,r1
 444 042e C3FB0B67 	 smlal r6,r7,r3,fp
 445 0432 4246     	 mov r2,r8
 446 0434 0023     	 movs r3,#0
 447 0436 04FB0300 	 mla r0,r4,r3,r0
 448 043a A2FB0423 	 umull r2,r3,r2,r4
 449 043e 1844     	 add r0,r0,r3
 450 0440 C317     	 asrs r3,r0,#31
 451 0442 09FB01F2 	 mul r2,r9,r1
 452 0446 2D93     	 str r3,[sp,#180]
 453 0448 4FEAE973 	 asr r3,r9,#31
 454 044c CDE90867 	 strd r6,[sp,#32]
 455 0450 2C90     	 str r0,[sp,#176]
 456 0452 A9FB0467 	 umull r6,r7,r9,r4
 457 0456 04FB0323 	 mla r3,r4,r3,r2
 458 045a 1F44     	 add r7,r7,r3
 459 045c DDE92C23 	 ldrd r2,[sp,#176]
 460 0460 9219     	 adds r2,r2,r6
 461 0462 7B41     	 adcs r3,r3,r7
 462 0464 1646     	 mov r6,r2
 463 0466 1F46     	 mov r7,r3
 464 0468 DDE90823 	 ldrd r2,[sp,#32]
 465 046c 9219     	 adds r2,r2,r6
 466 046e 7B41     	 adcs r3,r3,r7
 467 0470 CDE90823 	 strd r2,[sp,#32]
 468 0474 DDE90023 	 ldrd r2,[sp]
 469 0478 E917     	 asrs r1,r5,#31
 470 047a 02FB01F0 	 mul r0,r2,r1
 471 047e 0023     	 movs r3,#0
 472 0480 05FB0300 	 mla r0,r5,r3,r0
 473 0484 A2FB0523 	 umull r2,r3,r2,r5
 474 0488 1844     	 add r0,r0,r3
 475 048a C317     	 asrs r3,r0,#31
 476 048c 2F93     	 str r3,[sp,#188]
 477 048e 019A     	 ldr r2,[sp,#4]
 478 0490 019B     	 ldr r3,[sp,#4]
 479 0492 2E90     	 str r0,[sp,#184]
 480 0494 4A43     	 muls r2,r1,r2
 481 0496 DB17     	 asrs r3,r3,#31
 482 0498 05FB0323 	 mla r3,r5,r3,r2
 483 049c 019A     	 ldr r2,[sp,#4]
 484 049e A2FB0567 	 umull r6,r7,r2,r5
 485 04a2 1F44     	 add r7,r7,r3
 486 04a4 DDE92E23 	 ldrd r2,[sp,#184]
 487 04a8 9219     	 adds r2,r2,r6
 488 04aa 7B41     	 adcs r3,r3,r7
 489 04ac 1646     	 mov r6,r2
 490 04ae 1F46     	 mov r7,r3
 491 04b0 DDE90823 	 ldrd r2,[sp,#32]
 492 04b4 9219     	 adds r2,r2,r6
 493 04b6 7B41     	 adcs r3,r3,r7
 494 04b8 1646     	 mov r6,r2
 495 04ba 1046     	 mov r0,r2
 496 04bc 1946     	 mov r1,r3
 497 04be 069A     	 ldr r2,[sp,#24]
 498 04c0 1F46     	 mov r7,r3
 499 04c2 FFF7FEFF 	 bl __aeabi_llsl
 500 04c6 069B     	 ldr r3,[sp,#24]
 501 04c8 0E9A     	 ldr r2,[sp,#56]
 502 04ca DDF82CC0 	 ldr ip,[sp,#44]
 503 04ce 07FA03F3 	 lsl r3,r7,r3
 504 04d2 D640     	 lsrs r6,r6,r2
 505 04d4 1E43     	 orrs r6,r6,r3
 506 04d6 029B     	 ldr r3,[sp,#8]
 507 04d8 43F8046B 	 str r6,[r3],#4
 508 04dc CDE90089 	 strd r8,[sp]
 509 04e0 D346     	 mov fp,r10
 510 04e2 0293     	 str r3,[sp,#8]
 511 04e4 8046     	 mov r8,r0
 512 04e6 8946     	 mov r9,r1
 513 04e8 DDF828A0 	 ldr r10,[sp,#40]
 514 04ec 88E7     	 b .L4
 515              	.L10:
 516 04ee 5246     	 mov r2,r10
 517 04f0 D317     	 asrs r3,r2,#31
 518 04f2 4CE90823 	 strd r2,[ip,#-32]
 519 04f6 5A46     	 mov r2,fp
 520 04f8 D317     	 asrs r3,r2,#31
 521 04fa 4CE90623 	 strd r2,[ip,#-24]
 522 04fe DDE90023 	 ldrd r2,[sp]
 523 0502 4CE90223 	 strd r2,[ip,#-8]
 524 0506 079B     	 ldr r3,[sp,#28]
 525 0508 1433     	 adds r3,r3,#20
 526 050a 0793     	 str r3,[sp,#28]
 527 050c 179B     	 ldr r3,[sp,#92]
 528 050e 1693     	 str r3,[sp,#88]
 529 0510 189B     	 ldr r3,[sp,#96]
 530 0512 013B     	 subs r3,r3,#1
 531 0514 4CE90489 	 strd r8,[ip,#-16]
 532 0518 1893     	 str r3,[sp,#96]
 533 051a 0CF1200C 	 add ip,ip,#32
 534 051e 7FF490AD 	 bne .L6
 535 0522 35B0     	 add sp,sp,#212
 536              	 
 537 0524 BDE8F08F 	 pop {r4,r5,r6,r7,r8,r9,r10,fp,pc}
 539              	 .ident "GCC: (GNU Tools for ARM Embedded Processors) 4.9.3 20141119 (release) [ARM/embedded-4_9-branch revision 218278]"
DEFINED SYMBOLS
                            *ABS*:00000000 arm_biquad_cascade_df1_32x64_q31.c
    {standard input}:18     .text.arm_biquad_cas_df1_32x64_q31:00000000 $t
    {standard input}:23     .text.arm_biquad_cas_df1_32x64_q31:00000000 arm_biquad_cas_df1_32x64_q31

UNDEFINED SYMBOLS
__aeabi_llsl
