   1              	 .syntax unified
   2              	 .cpu cortex-m4
   3              	 .eabi_attribute 27,3
   4              	 .fpu fpv4-sp-d16
   5              	 .eabi_attribute 20,1
   6              	 .eabi_attribute 21,1
   7              	 .eabi_attribute 23,3
   8              	 .eabi_attribute 24,1
   9              	 .eabi_attribute 25,1
  10              	 .eabi_attribute 26,1
  11              	 .eabi_attribute 30,4
  12              	 .eabi_attribute 34,1
  13              	 .eabi_attribute 18,4
  14              	 .thumb
  15              	 .file "arm_biquad_cascade_df2T_f64.c"
  16              	 .global __aeabi_dmul
  17              	 .global __aeabi_dadd
  18              	 .section .text.arm_biquad_cascade_df2T_f64,"ax",%progbits
  19              	 .align 1
  20              	 .global arm_biquad_cascade_df2T_f64
  21              	 .thumb
  22              	 .thumb_func
  24              	arm_biquad_cascade_df2T_f64:
  25              	 
  26              	 
  27 0000 2DE9F04F 	 push {r4,r5,r6,r7,r8,r9,r10,fp,lr}
  28 0004 2DED048B 	 fstmfdd sp!,{d8,d9}
  29 0008 2DED04BB 	 fstmfdd sp!,{d11,d12}
  30 000c 9DB0     	 sub sp,sp,#116
  31 000e 0E46     	 mov r6,r1
  32 0010 1546     	 mov r5,r2
  33 0012 1992     	 str r2,[sp,#100]
  34 0014 0178     	 ldrb r1,[r0]
  35 0016 1391     	 str r1,[sp,#76]
  36 0018 9908     	 lsrs r1,r3,#2
  37 001a 1691     	 str r1,[sp,#88]
  38 001c 8268     	 ldr r2,[r0,#8]
  39 001e 02F12804 	 add r4,r2,#40
  40 0022 1194     	 str r4,[sp,#68]
  41 0024 4268     	 ldr r2,[r0,#4]
  42 0026 02F11000 	 add r0,r2,#16
  43 002a 1290     	 str r0,[sp,#72]
  44 002c 4801     	 lsls r0,r1,#5
  45 002e 1890     	 str r0,[sp,#96]
  46 0030 2A46     	 mov r2,r5
  47 0032 1595     	 str r5,[sp,#84]
  48 0034 1A91     	 str r1,[sp,#104]
  49 0036 0244     	 add r2,r2,r0
  50 0038 1B92     	 str r2,[sp,#108]
  51 003a 03F00303 	 and r3,r3,#3
  52 003e 1793     	 str r3,[sp,#92]
  53              	.L6:
  54 0040 119A     	 ldr r2,[sp,#68]
  55 0042 12ED0A7B 	 fldd d7,[r2,#-40]
  56 0046 8DED007B 	 fstd d7,[sp]
  57 004a 12ED087B 	 fldd d7,[r2,#-32]
  58 004e 8DED027B 	 fstd d7,[sp,#8]
  59 0052 12ED067B 	 fldd d7,[r2,#-24]
  60 0056 8DED047B 	 fstd d7,[sp,#16]
  61 005a 12ED047B 	 fldd d7,[r2,#-16]
  62 005e 8DED067B 	 fstd d7,[sp,#24]
  63 0062 12ED027B 	 fldd d7,[r2,#-8]
  64 0066 8DED087B 	 fstd d7,[sp,#32]
  65 006a 129B     	 ldr r3,[sp,#72]
  66 006c 1493     	 str r3,[sp,#80]
  67 006e 13ED047B 	 fldd d7,[r3,#-16]
  68 0072 8DED0A7B 	 fstd d7,[sp,#40]
  69 0076 13ED027B 	 fldd d7,[r3,#-8]
  70 007a 8DED0C7B 	 fstd d7,[sp,#48]
  71 007e 169B     	 ldr r3,[sp,#88]
  72 0080 002B     	 cmp r3,#0
  73 0082 00F01B81 	 beq .L7
  74 0086 06F12005 	 add r5,r6,#32
  75 008a 199B     	 ldr r3,[sp,#100]
  76 008c 03F12004 	 add r4,r3,#32
  77 0090 1A9F     	 ldr r7,[sp,#104]
  78              	.L3:
  79 0092 55E90889 	 ldrd r8,[r5,#-32]
  80 0096 55E906AB 	 ldrd r10,[r5,#-24]
  81 009a 15ED048B 	 fldd d8,[r5,#-16]
  82 009e 15ED029B 	 fldd d9,[r5,#-8]
  83 00a2 DDE90001 	 ldrd r0,[sp]
  84 00a6 4246     	 mov r2,r8
  85 00a8 4B46     	 mov r3,r9
  86 00aa FFF7FEFF 	 bl __aeabi_dmul
  87 00ae DDE90A23 	 ldrd r2,[sp,#40]
  88 00b2 FFF7FEFF 	 bl __aeabi_dadd
  89 00b6 41EC1C0B 	 fmdrr d12,r0,r1
  90 00ba DDE90001 	 ldrd r0,[sp]
  91 00be 5246     	 mov r2,r10
  92 00c0 5B46     	 mov r3,fp
  93 00c2 FFF7FEFF 	 bl __aeabi_dmul
  94 00c6 CDE90A01 	 strd r0,[sp,#40]
  95 00ca DDE90201 	 ldrd r0,[sp,#8]
  96 00ce 4246     	 mov r2,r8
  97 00d0 4B46     	 mov r3,r9
  98 00d2 FFF7FEFF 	 bl __aeabi_dmul
  99 00d6 CDE90E01 	 strd r0,[sp,#56]
 100 00da DDE90601 	 ldrd r0,[sp,#24]
 101 00de 53EC1C2B 	 fmrrd r2,r3,d12
 102 00e2 FFF7FEFF 	 bl __aeabi_dmul
 103 00e6 0246     	 mov r2,r0
 104 00e8 0B46     	 mov r3,r1
 105 00ea DDE90E01 	 ldrd r0,[sp,#56]
 106 00ee FFF7FEFF 	 bl __aeabi_dadd
 107 00f2 DDE90C23 	 ldrd r2,[sp,#48]
 108 00f6 FFF7FEFF 	 bl __aeabi_dadd
 109 00fa 0246     	 mov r2,r0
 110 00fc 0B46     	 mov r3,r1
 111 00fe DDE90A01 	 ldrd r0,[sp,#40]
 112 0102 FFF7FEFF 	 bl __aeabi_dadd
 113 0106 41EC1B0B 	 fmdrr d11,r0,r1
 114 010a DDE90001 	 ldrd r0,[sp]
 115 010e 53EC182B 	 fmrrd r2,r3,d8
 116 0112 FFF7FEFF 	 bl __aeabi_dmul
 117 0116 CDE90A01 	 strd r0,[sp,#40]
 118 011a DDE90201 	 ldrd r0,[sp,#8]
 119 011e 5246     	 mov r2,r10
 120 0120 5B46     	 mov r3,fp
 121 0122 FFF7FEFF 	 bl __aeabi_dmul
 122 0126 CDE90C01 	 strd r0,[sp,#48]
 123 012a DDE90601 	 ldrd r0,[sp,#24]
 124 012e 53EC1B2B 	 fmrrd r2,r3,d11
 125 0132 FFF7FEFF 	 bl __aeabi_dmul
 126 0136 0246     	 mov r2,r0
 127 0138 0B46     	 mov r3,r1
 128 013a DDE90C01 	 ldrd r0,[sp,#48]
 129 013e FFF7FEFF 	 bl __aeabi_dadd
 130 0142 CDE90C01 	 strd r0,[sp,#48]
 131 0146 DDE90401 	 ldrd r0,[sp,#16]
 132 014a 4246     	 mov r2,r8
 133 014c 4B46     	 mov r3,r9
 134 014e FFF7FEFF 	 bl __aeabi_dmul
 135 0152 8046     	 mov r8,r0
 136 0154 8946     	 mov r9,r1
 137 0156 DDE90801 	 ldrd r0,[sp,#32]
 138 015a 53EC1C2B 	 fmrrd r2,r3,d12
 139 015e FFF7FEFF 	 bl __aeabi_dmul
 140 0162 0246     	 mov r2,r0
 141 0164 0B46     	 mov r3,r1
 142 0166 4046     	 mov r0,r8
 143 0168 4946     	 mov r1,r9
 144 016a FFF7FEFF 	 bl __aeabi_dadd
 145 016e 0246     	 mov r2,r0
 146 0170 0B46     	 mov r3,r1
 147 0172 DDE90C01 	 ldrd r0,[sp,#48]
 148 0176 FFF7FEFF 	 bl __aeabi_dadd
 149 017a 0246     	 mov r2,r0
 150 017c 0B46     	 mov r3,r1
 151 017e DDE90A01 	 ldrd r0,[sp,#40]
 152 0182 FFF7FEFF 	 bl __aeabi_dadd
 153 0186 8046     	 mov r8,r0
 154 0188 8946     	 mov r9,r1
 155 018a DDE90001 	 ldrd r0,[sp]
 156 018e 53EC192B 	 fmrrd r2,r3,d9
 157 0192 FFF7FEFF 	 bl __aeabi_dmul
 158 0196 CDE90A01 	 strd r0,[sp,#40]
 159 019a DDE90201 	 ldrd r0,[sp,#8]
 160 019e 53EC182B 	 fmrrd r2,r3,d8
 161 01a2 FFF7FEFF 	 bl __aeabi_dmul
 162 01a6 CDE90C01 	 strd r0,[sp,#48]
 163 01aa DDE90601 	 ldrd r0,[sp,#24]
 164 01ae 4246     	 mov r2,r8
 165 01b0 4B46     	 mov r3,r9
 166 01b2 FFF7FEFF 	 bl __aeabi_dmul
 167 01b6 0246     	 mov r2,r0
 168 01b8 0B46     	 mov r3,r1
 169 01ba DDE90C01 	 ldrd r0,[sp,#48]
 170 01be FFF7FEFF 	 bl __aeabi_dadd
 171 01c2 CDE90C01 	 strd r0,[sp,#48]
 172 01c6 DDE90401 	 ldrd r0,[sp,#16]
 173 01ca 5246     	 mov r2,r10
 174 01cc 5B46     	 mov r3,fp
 175 01ce FFF7FEFF 	 bl __aeabi_dmul
 176 01d2 8246     	 mov r10,r0
 177 01d4 8B46     	 mov fp,r1
 178 01d6 DDE90801 	 ldrd r0,[sp,#32]
 179 01da 53EC1B2B 	 fmrrd r2,r3,d11
 180 01de FFF7FEFF 	 bl __aeabi_dmul
 181 01e2 0246     	 mov r2,r0
 182 01e4 0B46     	 mov r3,r1
 183 01e6 5046     	 mov r0,r10
 184 01e8 5946     	 mov r1,fp
 185 01ea FFF7FEFF 	 bl __aeabi_dadd
 186 01ee 0246     	 mov r2,r0
 187 01f0 0B46     	 mov r3,r1
 188 01f2 DDE90C01 	 ldrd r0,[sp,#48]
 189 01f6 FFF7FEFF 	 bl __aeabi_dadd
 190 01fa 0246     	 mov r2,r0
 191 01fc 0B46     	 mov r3,r1
 192 01fe DDE90A01 	 ldrd r0,[sp,#40]
 193 0202 FFF7FEFF 	 bl __aeabi_dadd
 194 0206 8246     	 mov r10,r0
 195 0208 8B46     	 mov fp,r1
 196 020a DDE90201 	 ldrd r0,[sp,#8]
 197 020e 53EC192B 	 fmrrd r2,r3,d9
 198 0212 FFF7FEFF 	 bl __aeabi_dmul
 199 0216 CDE90A01 	 strd r0,[sp,#40]
 200 021a DDE90601 	 ldrd r0,[sp,#24]
 201 021e 5246     	 mov r2,r10
 202 0220 5B46     	 mov r3,fp
 203 0222 FFF7FEFF 	 bl __aeabi_dmul
 204 0226 0246     	 mov r2,r0
 205 0228 0B46     	 mov r3,r1
 206 022a DDE90A01 	 ldrd r0,[sp,#40]
 207 022e FFF7FEFF 	 bl __aeabi_dadd
 208 0232 CDE90A01 	 strd r0,[sp,#40]
 209 0236 DDE90401 	 ldrd r0,[sp,#16]
 210 023a 53EC182B 	 fmrrd r2,r3,d8
 211 023e FFF7FEFF 	 bl __aeabi_dmul
 212 0242 CDE90C01 	 strd r0,[sp,#48]
 213 0246 DDE90801 	 ldrd r0,[sp,#32]
 214 024a 4246     	 mov r2,r8
 215 024c 4B46     	 mov r3,r9
 216 024e FFF7FEFF 	 bl __aeabi_dmul
 217 0252 0246     	 mov r2,r0
 218 0254 0B46     	 mov r3,r1
 219 0256 DDE90C01 	 ldrd r0,[sp,#48]
 220 025a FFF7FEFF 	 bl __aeabi_dadd
 221 025e 0246     	 mov r2,r0
 222 0260 0B46     	 mov r3,r1
 223 0262 DDE90A01 	 ldrd r0,[sp,#40]
 224 0266 FFF7FEFF 	 bl __aeabi_dadd
 225 026a CDE90A01 	 strd r0,[sp,#40]
 226 026e DDE90401 	 ldrd r0,[sp,#16]
 227 0272 53EC192B 	 fmrrd r2,r3,d9
 228 0276 FFF7FEFF 	 bl __aeabi_dmul
 229 027a CDE90C01 	 strd r0,[sp,#48]
 230 027e DDE90801 	 ldrd r0,[sp,#32]
 231 0282 5246     	 mov r2,r10
 232 0284 5B46     	 mov r3,fp
 233 0286 FFF7FEFF 	 bl __aeabi_dmul
 234 028a 0246     	 mov r2,r0
 235 028c 0B46     	 mov r3,r1
 236 028e DDE90C01 	 ldrd r0,[sp,#48]
 237 0292 FFF7FEFF 	 bl __aeabi_dadd
 238 0296 CDE90C01 	 strd r0,[sp,#48]
 239 029a 04ED08CB 	 fstd d12,[r4,#-32]
 240 029e 04ED06BB 	 fstd d11,[r4,#-24]
 241 02a2 44E90489 	 strd r8,[r4,#-16]
 242 02a6 44E902AB 	 strd r10,[r4,#-8]
 243 02aa 2035     	 adds r5,r5,#32
 244 02ac 2034     	 adds r4,r4,#32
 245 02ae 013F     	 subs r7,r7,#1
 246 02b0 7FF4EFAE 	 bne .L3
 247 02b4 189B     	 ldr r3,[sp,#96]
 248 02b6 1E44     	 add r6,r6,r3
 249 02b8 1B9D     	 ldr r5,[sp,#108]
 250 02ba 00E0     	 b .L2
 251              	.L7:
 252 02bc 159D     	 ldr r5,[sp,#84]
 253              	.L2:
 254 02be 179B     	 ldr r3,[sp,#92]
 255 02c0 1C46     	 mov r4,r3
 256 02c2 002B     	 cmp r3,#0
 257 02c4 41D0     	 beq .L4
 258              	.L8:
 259 02c6 F6E802AB 	 ldrd r10,[r6],#8
 260 02ca DDE90001 	 ldrd r0,[sp]
 261 02ce 5246     	 mov r2,r10
 262 02d0 5B46     	 mov r3,fp
 263 02d2 FFF7FEFF 	 bl __aeabi_dmul
 264 02d6 DDE90A23 	 ldrd r2,[sp,#40]
 265 02da FFF7FEFF 	 bl __aeabi_dadd
 266 02de 8046     	 mov r8,r0
 267 02e0 8946     	 mov r9,r1
 268 02e2 DDE90201 	 ldrd r0,[sp,#8]
 269 02e6 5246     	 mov r2,r10
 270 02e8 5B46     	 mov r3,fp
 271 02ea FFF7FEFF 	 bl __aeabi_dmul
 272 02ee CDE90A01 	 strd r0,[sp,#40]
 273 02f2 DDE90601 	 ldrd r0,[sp,#24]
 274 02f6 4246     	 mov r2,r8
 275 02f8 4B46     	 mov r3,r9
 276 02fa FFF7FEFF 	 bl __aeabi_dmul
 277 02fe 0246     	 mov r2,r0
 278 0300 0B46     	 mov r3,r1
 279 0302 DDE90A01 	 ldrd r0,[sp,#40]
 280 0306 FFF7FEFF 	 bl __aeabi_dadd
 281 030a DDE90C23 	 ldrd r2,[sp,#48]
 282 030e FFF7FEFF 	 bl __aeabi_dadd
 283 0312 CDE90A01 	 strd r0,[sp,#40]
 284 0316 DDE90401 	 ldrd r0,[sp,#16]
 285 031a 5246     	 mov r2,r10
 286 031c 5B46     	 mov r3,fp
 287 031e FFF7FEFF 	 bl __aeabi_dmul
 288 0322 8246     	 mov r10,r0
 289 0324 8B46     	 mov fp,r1
 290 0326 DDE90801 	 ldrd r0,[sp,#32]
 291 032a 4246     	 mov r2,r8
 292 032c 4B46     	 mov r3,r9
 293 032e FFF7FEFF 	 bl __aeabi_dmul
 294 0332 0246     	 mov r2,r0
 295 0334 0B46     	 mov r3,r1
 296 0336 5046     	 mov r0,r10
 297 0338 5946     	 mov r1,fp
 298 033a FFF7FEFF 	 bl __aeabi_dadd
 299 033e CDE90C01 	 strd r0,[sp,#48]
 300 0342 E5E80289 	 strd r8,[r5],#8
 301 0346 013C     	 subs r4,r4,#1
 302 0348 BDD1     	 bne .L8
 303              	.L4:
 304 034a 149A     	 ldr r2,[sp,#80]
 305 034c 9DED0A7B 	 fldd d7,[sp,#40]
 306 0350 02ED047B 	 fstd d7,[r2,#-16]
 307 0354 9DED0C7B 	 fldd d7,[sp,#48]
 308 0358 02ED027B 	 fstd d7,[r2,#-8]
 309 035c 119B     	 ldr r3,[sp,#68]
 310 035e 2833     	 adds r3,r3,#40
 311 0360 1193     	 str r3,[sp,#68]
 312 0362 129B     	 ldr r3,[sp,#72]
 313 0364 1033     	 adds r3,r3,#16
 314 0366 1293     	 str r3,[sp,#72]
 315 0368 159E     	 ldr r6,[sp,#84]
 316 036a 139B     	 ldr r3,[sp,#76]
 317 036c 013B     	 subs r3,r3,#1
 318 036e 1393     	 str r3,[sp,#76]
 319 0370 7FF466AE 	 bne .L6
 320 0374 1DB0     	 add sp,sp,#116
 321              	 
 322 0376 BDEC04BB 	 fldmfdd sp!,{d11-d12}
 323 037a BDEC048B 	 fldmfdd sp!,{d8-d9}
 324 037e BDE8F08F 	 pop {r4,r5,r6,r7,r8,r9,r10,fp,pc}
 326              	 .ident "GCC: (GNU Tools for ARM Embedded Processors) 4.9.3 20141119 (release) [ARM/embedded-4_9-branch revision 218278]"
DEFINED SYMBOLS
                            *ABS*:00000000 arm_biquad_cascade_df2T_f64.c
    {standard input}:19     .text.arm_biquad_cascade_df2T_f64:00000000 $t
    {standard input}:24     .text.arm_biquad_cascade_df2T_f64:00000000 arm_biquad_cascade_df2T_f64

UNDEFINED SYMBOLS
__aeabi_dmul
__aeabi_dadd
