   1              	 .syntax unified
   2              	 .cpu cortex-m4
   3              	 .eabi_attribute 27,3
   4              	 .fpu fpv4-sp-d16
   5              	 .eabi_attribute 20,1
   6              	 .eabi_attribute 21,1
   7              	 .eabi_attribute 23,3
   8              	 .eabi_attribute 24,1
   9              	 .eabi_attribute 25,1
  10              	 .eabi_attribute 26,1
  11              	 .eabi_attribute 30,4
  12              	 .eabi_attribute 34,1
  13              	 .eabi_attribute 18,4
  14              	 .thumb
  15              	 .file "arm_lms_q31.c"
  16              	 .section .text.arm_lms_q31,"ax",%progbits
  17              	 .align 1
  18              	 .global arm_lms_q31
  19              	 .thumb
  20              	 .thumb_func
  22              	arm_lms_q31:
  23              	 
  24              	 
  25 0000 2DE9F04F 	 push {r4,r5,r6,r7,r8,r9,r10,fp,lr}
  26 0004 8BB0     	 sub sp,sp,#44
  27 0006 4468     	 ldr r4,[r0,#4]
  28 0008 0693     	 str r3,[sp,#24]
  29 000a C368     	 ldr r3,[r0,#12]
  30 000c 0793     	 str r3,[sp,#28]
  31 000e 0369     	 ldr r3,[r0,#16]
  32 0010 B0F800C0 	 ldrh ip,[r0]
  33 0014 0592     	 str r2,[sp,#20]
  34 0016 5A1C     	 adds r2,r3,#1
  35 0018 C3F11F03 	 rsb r3,r3,#31
  36 001c D0F80880 	 ldr r8,[r0,#8]
  37 0020 0892     	 str r2,[sp,#32]
  38 0022 0993     	 str r3,[sp,#36]
  39 0024 04EB8C02 	 add r2,r4,ip,lsl#2
  40 0028 4FEA9C03 	 lsr r3,ip,#2
  41 002c 1B01     	 lsls r3,r3,#4
  42 002e 083A     	 subs r2,r2,#8
  43 0030 DDF85490 	 ldr r9,[sp,#84]
  44 0034 0491     	 str r1,[sp,#16]
  45 0036 04EB030E 	 add lr,r4,r3
  46 003a 0392     	 str r2,[sp,#12]
  47 003c 08EB030B 	 add fp,r8,r3
  48 0040 2146     	 mov r1,r4
  49              	.L2:
  50 0042 B9F1000F 	 cmp r9,#0
  51 0046 00F0C880 	 beq .L29
  52 004a 049A     	 ldr r2,[sp,#16]
  53 004c CDF808E0 	 str lr,[sp,#8]
  54 0050 52F8043B 	 ldr r3,[r2],#4
  55 0054 0492     	 str r2,[sp,#16]
  56 0056 039A     	 ldr r2,[sp,#12]
  57 0058 42F8043F 	 str r3,[r2,#4]!
  58 005c 4546     	 mov r5,r8
  59 005e 0392     	 str r2,[sp,#12]
  60 0060 0846     	 mov r0,r1
  61 0062 0022     	 movs r2,#0
  62 0064 0023     	 movs r3,#0
  63              	.L3:
  64 0066 7045     	 cmp r0,lr
  65 0068 05F11005 	 add r5,r5,#16
  66 006c 17D0     	 beq .L30
  67 006e 0768     	 ldr r7,[r0]
  68 0070 55F8106C 	 ldr r6,[r5,#-16]
  69 0074 C6FB0723 	 smlal r2,r3,r6,r7
  70 0078 4768     	 ldr r7,[r0,#4]
  71 007a 55F80C6C 	 ldr r6,[r5,#-12]
  72 007e 1030     	 adds r0,r0,#16
  73 0080 C6FB0723 	 smlal r2,r3,r6,r7
  74 0084 50F8087C 	 ldr r7,[r0,#-8]
  75 0088 55F8086C 	 ldr r6,[r5,#-8]
  76 008c C6FB0723 	 smlal r2,r3,r6,r7
  77 0090 50F8047C 	 ldr r7,[r0,#-4]
  78 0094 55F8046C 	 ldr r6,[r5,#-4]
  79 0098 C6FB0723 	 smlal r2,r3,r6,r7
  80 009c E3E7     	 b .L3
  81              	.L30:
  82 009e 0CF00307 	 and r7,ip,#3
  83 00a2 0197     	 str r7,[sp,#4]
  84 00a4 5D46     	 mov r5,fp
  85 00a6 7046     	 mov r0,lr
  86              	.L5:
  87 00a8 019E     	 ldr r6,[sp,#4]
  88 00aa 4EB1     	 cbz r6,.L31
  89 00ac 50F8046B 	 ldr r6,[r0],#4
  90 00b0 55F804AB 	 ldr r10,[r5],#4
  91 00b4 CAFB0623 	 smlal r2,r3,r10,r6
  92 00b8 019E     	 ldr r6,[sp,#4]
  93 00ba 013E     	 subs r6,r6,#1
  94 00bc 0196     	 str r6,[sp,#4]
  95 00be F3E7     	 b .L5
  96              	.L31:
  97 00c0 0898     	 ldr r0,[sp,#32]
  98 00c2 8340     	 lsls r3,r3,r0
  99 00c4 0998     	 ldr r0,[sp,#36]
 100 00c6 C240     	 lsrs r2,r2,r0
 101 00c8 1A43     	 orrs r2,r2,r3
 102 00ca 069B     	 ldr r3,[sp,#24]
 103 00cc 0598     	 ldr r0,[sp,#20]
 104 00ce 43F8042B 	 str r2,[r3],#4
 105 00d2 0693     	 str r3,[sp,#24]
 106 00d4 50F8043B 	 ldr r3,[r0],#4
 107 00d8 0590     	 str r0,[sp,#20]
 108 00da 9A1A     	 subs r2,r3,r2
 109 00dc 149B     	 ldr r3,[sp,#80]
 110 00de 43F8042B 	 str r2,[r3],#4
 111 00e2 1493     	 str r3,[sp,#80]
 112 00e4 079B     	 ldr r3,[sp,#28]
 113 00e6 82FB0323 	 smull r2,r3,r2,r3
 114 00ea D60F     	 lsrs r6,r2,#31
 115 00ec 46EA4306 	 orr r6,r6,r3,lsl#1
 116 00f0 01F1040A 	 add r10,r1,#4
 117 00f4 08F11005 	 add r5,r8,#16
 118              	.L7:
 119 00f8 7145     	 cmp r1,lr
 120 00fa 4FD0     	 beq .L32
 121 00fc 0A68     	 ldr r2,[r1]
 122 00fe 55F8100C 	 ldr r0,[r5,#-16]
 123 0102 86FB0223 	 smull r2,r3,r6,r2
 124 0106 5A00     	 lsls r2,r3,#1
 125 0108 D317     	 asrs r3,r2,#31
 126 010a 1218     	 adds r2,r2,r0
 127 010c 43EBE073 	 adc r3,r3,r0,asr#31
 128 0110 B3EBE27F 	 cmp r3,r2,asr#31
 129 0114 1EBF     	 ittt ne
 130 0116 DA17     	 asrne r2,r3,#31
 131 0118 82F00042 	 eorne r2,r2,#-2147483648
 132 011c D243     	 mvnne r2,r2
 133 011e 45F8102C 	 str r2,[r5,#-16]
 134 0122 4A68     	 ldr r2,[r1,#4]
 135 0124 55F80C0C 	 ldr r0,[r5,#-12]
 136 0128 86FB0223 	 smull r2,r3,r6,r2
 137 012c 5A00     	 lsls r2,r3,#1
 138 012e D317     	 asrs r3,r2,#31
 139 0130 1218     	 adds r2,r2,r0
 140 0132 43EBE073 	 adc r3,r3,r0,asr#31
 141 0136 B3EBE27F 	 cmp r3,r2,asr#31
 142 013a 1EBF     	 ittt ne
 143 013c DA17     	 asrne r2,r3,#31
 144 013e 82F00042 	 eorne r2,r2,#-2147483648
 145 0142 D243     	 mvnne r2,r2
 146 0144 45F80C2C 	 str r2,[r5,#-12]
 147 0148 8A68     	 ldr r2,[r1,#8]
 148 014a 55F8080C 	 ldr r0,[r5,#-8]
 149 014e 86FB0223 	 smull r2,r3,r6,r2
 150 0152 5A00     	 lsls r2,r3,#1
 151 0154 D317     	 asrs r3,r2,#31
 152 0156 1218     	 adds r2,r2,r0
 153 0158 43EBE073 	 adc r3,r3,r0,asr#31
 154 015c B3EBE27F 	 cmp r3,r2,asr#31
 155 0160 1EBF     	 ittt ne
 156 0162 DA17     	 asrne r2,r3,#31
 157 0164 82F00042 	 eorne r2,r2,#-2147483648
 158 0168 D243     	 mvnne r2,r2
 159 016a 1031     	 adds r1,r1,#16
 160 016c 45F8082C 	 str r2,[r5,#-8]
 161 0170 51F8042C 	 ldr r2,[r1,#-4]
 162 0174 55F8040C 	 ldr r0,[r5,#-4]
 163 0178 86FB0223 	 smull r2,r3,r6,r2
 164 017c 5A00     	 lsls r2,r3,#1
 165 017e D317     	 asrs r3,r2,#31
 166 0180 1218     	 adds r2,r2,r0
 167 0182 43EBE073 	 adc r3,r3,r0,asr#31
 168 0186 B3EBE27F 	 cmp r3,r2,asr#31
 169 018a 1EBF     	 ittt ne
 170 018c DA17     	 asrne r2,r3,#31
 171 018e 82F00042 	 eorne r2,r2,#-2147483648
 172 0192 D243     	 mvnne r2,r2
 173 0194 45F8042C 	 str r2,[r5,#-4]
 174 0198 1035     	 adds r5,r5,#16
 175 019a ADE7     	 b .L7
 176              	.L32:
 177 019c 5846     	 mov r0,fp
 178              	.L17:
 179 019e B7B1     	 cbz r7,.L33
 180 01a0 029B     	 ldr r3,[sp,#8]
 181 01a2 0168     	 ldr r1,[r0]
 182 01a4 53F8042B 	 ldr r2,[r3],#4
 183 01a8 0293     	 str r3,[sp,#8]
 184 01aa 86FB0223 	 smull r2,r3,r6,r2
 185 01ae 5A00     	 lsls r2,r3,#1
 186 01b0 D317     	 asrs r3,r2,#31
 187 01b2 5218     	 adds r2,r2,r1
 188 01b4 43EBE173 	 adc r3,r3,r1,asr#31
 189 01b8 B3EBE27F 	 cmp r3,r2,asr#31
 190 01bc 1EBF     	 ittt ne
 191 01be DA17     	 asrne r2,r3,#31
 192 01c0 82F00042 	 eorne r2,r2,#-2147483648
 193 01c4 D243     	 mvnne r2,r2
 194 01c6 40F8042B 	 str r2,[r0],#4
 195 01ca 013F     	 subs r7,r7,#1
 196 01cc E7E7     	 b .L17
 197              	.L33:
 198 01ce 09F1FF39 	 add r9,r9,#-1
 199 01d2 0EF1040E 	 add lr,lr,#4
 200 01d6 5146     	 mov r1,r10
 201 01d8 33E7     	 b .L2
 202              	.L29:
 203 01da 159B     	 ldr r3,[sp,#84]
 204 01dc 0CF1FF3C 	 add ip,ip,#-1
 205 01e0 04EB8303 	 add r3,r4,r3,lsl#2
 206 01e4 4FEA9C02 	 lsr r2,ip,#2
 207 01e8 1846     	 mov r0,r3
 208 01ea 2146     	 mov r1,r4
 209 01ec 1546     	 mov r5,r2
 210              	.L22:
 211 01ee 1030     	 adds r0,r0,#16
 212 01f0 1031     	 adds r1,r1,#16
 213 01f2 8DB1     	 cbz r5,.L34
 214 01f4 50F8106C 	 ldr r6,[r0,#-16]
 215 01f8 41F8106C 	 str r6,[r1,#-16]
 216 01fc 50F80C6C 	 ldr r6,[r0,#-12]
 217 0200 41F80C6C 	 str r6,[r1,#-12]
 218 0204 50F8086C 	 ldr r6,[r0,#-8]
 219 0208 41F8086C 	 str r6,[r1,#-8]
 220 020c 50F8046C 	 ldr r6,[r0,#-4]
 221 0210 41F8046C 	 str r6,[r1,#-4]
 222 0214 013D     	 subs r5,r5,#1
 223 0216 EAE7     	 b .L22
 224              	.L34:
 225 0218 1201     	 lsls r2,r2,#4
 226 021a 1344     	 add r3,r3,r2
 227 021c 0CF0030C 	 and ip,ip,#3
 228 0220 043A     	 subs r2,r2,#4
 229 0222 1444     	 add r4,r4,r2
 230 0224 03EB8C0C 	 add ip,r3,ip,lsl#2
 231              	.L24:
 232 0228 6345     	 cmp r3,ip
 233 022a 04D0     	 beq .L35
 234 022c 53F8042B 	 ldr r2,[r3],#4
 235 0230 44F8042F 	 str r2,[r4,#4]!
 236 0234 F8E7     	 b .L24
 237              	.L35:
 238 0236 0BB0     	 add sp,sp,#44
 239              	 
 240 0238 BDE8F08F 	 pop {r4,r5,r6,r7,r8,r9,r10,fp,pc}
 242              	 .ident "GCC: (GNU Tools for ARM Embedded Processors) 4.9.3 20141119 (release) [ARM/embedded-4_9-branch revision 218278]"
DEFINED SYMBOLS
                            *ABS*:00000000 arm_lms_q31.c
    {standard input}:17     .text.arm_lms_q31:00000000 $t
    {standard input}:22     .text.arm_lms_q31:00000000 arm_lms_q31

NO UNDEFINED SYMBOLS
